ARM GAS  C:\Users\Mohamad\AppData\Local\Temp\ccbxBJoL.s 			page 1


   1              		.syntax unified
   2              		.cpu cortex-m4
   3              		.fpu softvfp
   4              		.eabi_attribute 20, 1
   5              		.eabi_attribute 21, 1
   6              		.eabi_attribute 23, 3
   7              		.eabi_attribute 24, 1
   8              		.eabi_attribute 25, 1
   9              		.eabi_attribute 26, 1
  10              		.eabi_attribute 30, 2
  11              		.eabi_attribute 34, 1
  12              		.eabi_attribute 18, 4
  13              		.thumb
  14              		.file	"chprintf.c"
  15              		.text
  16              	.Ltext0:
  17              		.cfi_sections	.debug_frame
  18              		.section	.text.long_to_string_with_divisor,"ax",%progbits
  19              		.align	2
  20              		.p2align 4,,15
  21              		.thumb
  22              		.thumb_func
  23              		.type	long_to_string_with_divisor, %function
  24              	long_to_string_with_divisor:
  25              	.LFB8:
  26              		.file 1 "../../chibios/os/various/chprintf.c"
  27              		.loc 1 40 0
  28              		.cfi_startproc
  29              		@ args = 0, pretend = 0, frame = 0
  30              		@ frame_needed = 0, uses_anonymous_args = 0
  31              		@ link register save eliminated.
  32              	.LVL0:
  33 0000 F0B4     		push	{r4, r5, r6, r7}
  34              	.LCFI0:
  35              		.cfi_def_cfa_offset 16
  36              		.cfi_offset 4, -16
  37              		.cfi_offset 5, -12
  38              		.cfi_offset 6, -8
  39              		.cfi_offset 7, -4
  40              		.loc 1 47 0
  41 0002 002B     		cmp	r3, #0
  42 0004 08BF     		it	eq
  43 0006 0B46     		moveq	r3, r1
  44              	.LVL1:
  45              		.loc 1 40 0
  46 0008 0746     		mov	r7, r0
  47              	.LVL2:
  48              		.loc 1 52 0
  49 000a 00F10B0C 		add	ip, r0, #11
  50              	.LVL3:
  51              		.loc 1 37 0
  52 000e 00F10A05 		add	r5, r0, #10
  53              	.LVL4:
  54              	.L4:
  55              		.loc 1 54 0
  56 0012 B1FBF2F6 		udiv	r6, r1, r2
  57 0016 02FB1611 		mls	r1, r2, r6, r1
ARM GAS  C:\Users\Mohamad\AppData\Local\Temp\ccbxBJoL.s 			page 2


  58              	.LVL5:
  59              		.loc 1 55 0
  60 001a 01F13004 		add	r4, r1, #48
  61              	.LVL6:
  62              		.loc 1 56 0
  63 001e 392C     		cmp	r4, #57
  64              		.loc 1 57 0
  65 0020 C8BF     		it	gt
  66 0022 01F13704 		addgt	r4, r1, #55
  67              	.LVL7:
  68              		.loc 1 58 0
  69 0026 E4B2     		uxtb	r4, r4
  70              	.LVL8:
  71              		.loc 1 60 0
  72 0028 B3FBF2F3 		udiv	r3, r3, r2
  73              	.LVL9:
  74              		.loc 1 58 0
  75 002c 2846     		mov	r0, r5
  76              	.LVL10:
  77              		.loc 1 59 0
  78 002e 3146     		mov	r1, r6
  79              	.LVL11:
  80              		.loc 1 58 0
  81 0030 05F80149 		strb	r4, [r5], #-1
  82              	.LVL12:
  83              		.loc 1 60 0
  84 0034 002B     		cmp	r3, #0
  85 0036 ECD1     		bne	.L4
  86              	.LVL13:
  87              		.loc 1 62 0
  88 0038 C0EB0C03 		rsb	r3, r0, ip
  89              	.LVL14:
  90 003c F943     		mvns	r1, r7
  91              	.LVL15:
  92 003e 0246     		mov	r2, r0
  93              	.LVL16:
  94              		.loc 1 37 0
  95 0040 F818     		adds	r0, r7, r3
  96              	.LVL17:
  97 0042 4318     		adds	r3, r0, r1
  98              	.LVL18:
  99 0044 DB07     		lsls	r3, r3, #31
 100 0046 0AD5     		bpl	.L6
 101              	.LVL19:
 102              		.loc 1 64 0
 103 0048 07F8014B 		strb	r4, [r7], #1
 104              	.LVL20:
 105 004c 12F8014F 		ldrb	r4, [r2, #1]!	@ zero_extendqisi2
 106 0050 05E0     		b	.L6
 107              	.L17:
 108 0052 12F8014F 		ldrb	r4, [r2, #1]!	@ zero_extendqisi2
 109              	.LVL21:
 110 0056 7C70     		strb	r4, [r7, #1]
 111 0058 12F8014F 		ldrb	r4, [r2, #1]!	@ zero_extendqisi2
 112 005c 5F1C     		adds	r7, r3, #1
 113              	.LVL22:
 114              	.L6:
ARM GAS  C:\Users\Mohamad\AppData\Local\Temp\ccbxBJoL.s 			page 3


 115              		.loc 1 64 0 is_stmt 0 discriminator 1
 116 005e 3B46     		mov	r3, r7
 117 0060 03F8014B 		strb	r4, [r3], #1
 118              		.loc 1 65 0 is_stmt 1 discriminator 1
 119 0064 8342     		cmp	r3, r0
 120 0066 F4D1     		bne	.L17
 121              		.loc 1 68 0
 122 0068 F0BC     		pop	{r4, r5, r6, r7}
 123 006a 7047     		bx	lr
 124              		.cfi_endproc
 125              	.LFE8:
 126              		.size	long_to_string_with_divisor, .-long_to_string_with_divisor
 127              		.global	__aeabi_d2f
 128              		.global	__aeabi_fcmplt
 129              		.global	__aeabi_f2iz
 130              		.global	__aeabi_f2d
 131              		.global	__aeabi_i2d
 132              		.global	__aeabi_dsub
 133              		.global	__aeabi_dmul
 134              		.global	__aeabi_d2iz
 135 006c AFF30080 		.section	.text.chvprintf,"ax",%progbits
 136              		.align	2
 137              		.p2align 4,,15
 138              		.global	chvprintf
 139              		.thumb
 140              		.thumb_func
 141              		.type	chvprintf, %function
 142              	chvprintf:
 143              	.LFB11:
 144              		.loc 1 112 0
 145              		.cfi_startproc
 146              		@ args = 0, pretend = 0, frame = 48
 147              		@ frame_needed = 0, uses_anonymous_args = 0
 148              	.LVL23:
 149 0000 2DE9F04F 		push	{r4, r5, r6, r7, r8, r9, sl, fp, lr}
 150              	.LCFI1:
 151              		.cfi_def_cfa_offset 36
 152              		.cfi_offset 4, -36
 153              		.cfi_offset 5, -32
 154              		.cfi_offset 6, -28
 155              		.cfi_offset 7, -24
 156              		.cfi_offset 8, -20
 157              		.cfi_offset 9, -16
 158              		.cfi_offset 10, -12
 159              		.cfi_offset 11, -8
 160              		.cfi_offset 14, -4
 161 0004 8DB0     		sub	sp, sp, #52
 162              	.LCFI2:
 163              		.cfi_def_cfa_offset 88
 164              		.loc 1 132 0
 165 0006 0DF1180C 		add	ip, sp, #24
 166 000a CDF808C0 		str	ip, [sp, #8]
 167              		.loc 1 112 0
 168 000e 1746     		mov	r7, r2
 169 0010 029A     		ldr	r2, [sp, #8]
 170              	.LVL24:
 171              		.loc 1 236 0
ARM GAS  C:\Users\Mohamad\AppData\Local\Temp\ccbxBJoL.s 			page 4


 172 0012 0DF1190C 		add	ip, sp, #25
 173 0016 CDF804C0 		str	ip, [sp, #4]
 174 001a C2EB0C0C 		rsb	ip, r2, ip
 175              		.loc 1 112 0
 176 001e 0646     		mov	r6, r0
 177 0020 0C46     		mov	r4, r1
 178 0022 CDF80CC0 		str	ip, [sp, #12]
 179              	.LVL25:
 180              	.L119:
 181              		.loc 1 125 0
 182 0026 2546     		mov	r5, r4
 183 0028 15F8011B 		ldrb	r1, [r5], #1	@ zero_extendqisi2
 184              	.LVL26:
 185              		.loc 1 126 0
 186 002c 59B1     		cbz	r1, .L18
 187              	.LVL27:
 188              	.L135:
 189              		.loc 1 128 0
 190 002e 2529     		cmp	r1, #37
 191 0030 0CD0     		beq	.L21
 192              		.loc 1 129 0
 193 0032 3368     		ldr	r3, [r6, #0]
 194              		.loc 1 125 0
 195 0034 2C46     		mov	r4, r5
 196 0036 2546     		mov	r5, r4
 197              	.LVL28:
 198              		.loc 1 129 0
 199 0038 3046     		mov	r0, r6
 200 003a 9A68     		ldr	r2, [r3, #8]
 201 003c 9047     		blx	r2
 202              	.LVL29:
 203              		.loc 1 125 0
 204 003e 15F8011B 		ldrb	r1, [r5], #1	@ zero_extendqisi2
 205              	.LVL30:
 206              		.loc 1 126 0
 207 0042 0029     		cmp	r1, #0
 208 0044 F3D1     		bne	.L135
 209              	.LVL31:
 210              	.L18:
 211              		.loc 1 261 0
 212 0046 0DB0     		add	sp, sp, #52
 213 0048 BDE8F08F 		pop	{r4, r5, r6, r7, r8, r9, sl, fp, pc}
 214              	.L21:
 215              	.LVL32:
 216              		.loc 1 135 0
 217 004c 6378     		ldrb	r3, [r4, #1]	@ zero_extendqisi2
 218 004e 2D2B     		cmp	r3, #45
 219 0050 00F0CC81 		beq	.L136
 220              		.loc 1 134 0
 221 0054 4FF00009 		mov	r9, #0
 222              	.LVL33:
 223              	.L23:
 224              		.loc 1 140 0
 225 0058 2E2B     		cmp	r3, #46
 226 005a 00F0A681 		beq	.L24
 227              		.loc 1 140 0 is_stmt 0 discriminator 1
 228 005e 302B     		cmp	r3, #48
ARM GAS  C:\Users\Mohamad\AppData\Local\Temp\ccbxBJoL.s 			page 5


 229 0060 00F0A381 		beq	.L24
 230              		.loc 1 139 0 is_stmt 1
 231 0064 4FF02008 		mov	r8, #32
 232              	.LVL34:
 233              	.L25:
 234              		.loc 1 142 0
 235 0068 2C46     		mov	r4, r5
 236              		.loc 1 144 0
 237 006a 0025     		movs	r5, #0
 238              	.LVL35:
 239 006c 06E0     		b	.L28
 240              	.LVL36:
 241              	.L137:
 242              		.loc 1 150 0
 243 006e 3978     		ldrb	r1, [r7, #0]	@ zero_extendqisi2
 244              	.LVL37:
 245 0070 0437     		adds	r7, r7, #4
 246              	.LVL38:
 247              	.L26:
 248              		.loc 1 153 0
 249 0072 05EB8505 		add	r5, r5, r5, lsl #2
 250              	.LVL39:
 251 0076 2378     		ldrb	r3, [r4, #0]	@ zero_extendqisi2
 252 0078 01EB4505 		add	r5, r1, r5, lsl #1
 253              	.LVL40:
 254              	.L28:
 255              		.loc 1 147 0
 256 007c A3F13000 		sub	r0, r3, #48
 257 0080 C1B2     		uxtb	r1, r0
 258              		.loc 1 146 0
 259 0082 0134     		adds	r4, r4, #1
 260              	.LVL41:
 261              		.loc 1 147 0
 262 0084 0929     		cmp	r1, #9
 263 0086 F4D9     		bls	.L26
 264              		.loc 1 149 0
 265 0088 2A2B     		cmp	r3, #42
 266 008a F0D0     		beq	.L137
 267              	.LVL42:
 268              		.loc 1 156 0
 269 008c 2E2B     		cmp	r3, #46
 270 008e 00F09181 		beq	.L138
 271              		.loc 1 155 0
 272 0092 0021     		movs	r1, #0
 273              	.LVL43:
 274              	.L29:
 275              		.loc 1 170 0
 276 0094 6C2B     		cmp	r3, #108
 277 0096 00F08181 		beq	.L32
 278              		.loc 1 170 0 is_stmt 0 discriminator 1
 279 009a 4C2B     		cmp	r3, #76
 280 009c 00F07E81 		beq	.L32
 281              	.LVL44:
 282              	.L34:
 283              		.loc 1 179 0 is_stmt 1
 284 00a0 A3F14400 		sub	r0, r3, #68
 285 00a4 3428     		cmp	r0, #52
ARM GAS  C:\Users\Mohamad\AppData\Local\Temp\ccbxBJoL.s 			page 6


 286 00a6 00F27281 		bhi	.L35
 287 00aa DFE810F0 		tbh	[pc, r0, lsl #1]
 288              	.L43:
 289 00ae 6901     		.2byte	(.L36-.L43)/2
 290 00b0 7001     		.2byte	(.L35-.L43)/2
 291 00b2 7001     		.2byte	(.L35-.L43)/2
 292 00b4 7001     		.2byte	(.L35-.L43)/2
 293 00b6 7001     		.2byte	(.L35-.L43)/2
 294 00b8 6901     		.2byte	(.L36-.L43)/2
 295 00ba 7001     		.2byte	(.L35-.L43)/2
 296 00bc 7001     		.2byte	(.L35-.L43)/2
 297 00be 7001     		.2byte	(.L35-.L43)/2
 298 00c0 7001     		.2byte	(.L35-.L43)/2
 299 00c2 7001     		.2byte	(.L35-.L43)/2
 300 00c4 6701     		.2byte	(.L37-.L43)/2
 301 00c6 7001     		.2byte	(.L35-.L43)/2
 302 00c8 7001     		.2byte	(.L35-.L43)/2
 303 00ca 7001     		.2byte	(.L35-.L43)/2
 304 00cc 7001     		.2byte	(.L35-.L43)/2
 305 00ce 7001     		.2byte	(.L35-.L43)/2
 306 00d0 6501     		.2byte	(.L68-.L43)/2
 307 00d2 7001     		.2byte	(.L35-.L43)/2
 308 00d4 7001     		.2byte	(.L35-.L43)/2
 309 00d6 5701     		.2byte	(.L39-.L43)/2
 310 00d8 7001     		.2byte	(.L35-.L43)/2
 311 00da 7001     		.2byte	(.L35-.L43)/2
 312 00dc 7001     		.2byte	(.L35-.L43)/2
 313 00de 7001     		.2byte	(.L35-.L43)/2
 314 00e0 7001     		.2byte	(.L35-.L43)/2
 315 00e2 7001     		.2byte	(.L35-.L43)/2
 316 00e4 7001     		.2byte	(.L35-.L43)/2
 317 00e6 7001     		.2byte	(.L35-.L43)/2
 318 00e8 7001     		.2byte	(.L35-.L43)/2
 319 00ea 7001     		.2byte	(.L35-.L43)/2
 320 00ec 1801     		.2byte	(.L40-.L43)/2
 321 00ee 6901     		.2byte	(.L36-.L43)/2
 322 00f0 7001     		.2byte	(.L35-.L43)/2
 323 00f2 D200     		.2byte	(.L41-.L43)/2
 324 00f4 7001     		.2byte	(.L35-.L43)/2
 325 00f6 7001     		.2byte	(.L35-.L43)/2
 326 00f8 6901     		.2byte	(.L36-.L43)/2
 327 00fa 7001     		.2byte	(.L35-.L43)/2
 328 00fc 7001     		.2byte	(.L35-.L43)/2
 329 00fe 7001     		.2byte	(.L35-.L43)/2
 330 0100 7001     		.2byte	(.L35-.L43)/2
 331 0102 7001     		.2byte	(.L35-.L43)/2
 332 0104 6701     		.2byte	(.L37-.L43)/2
 333 0106 7001     		.2byte	(.L35-.L43)/2
 334 0108 7001     		.2byte	(.L35-.L43)/2
 335 010a 7001     		.2byte	(.L35-.L43)/2
 336 010c 3500     		.2byte	(.L42-.L43)/2
 337 010e 7001     		.2byte	(.L35-.L43)/2
 338 0110 6501     		.2byte	(.L68-.L43)/2
 339 0112 7001     		.2byte	(.L35-.L43)/2
 340 0114 7001     		.2byte	(.L35-.L43)/2
 341 0116 5701     		.2byte	(.L39-.L43)/2
 342              	.L42:
ARM GAS  C:\Users\Mohamad\AppData\Local\Temp\ccbxBJoL.s 			page 7


 343              	.LVL45:
 344              		.loc 1 186 0
 345 0118 3B68     		ldr	r3, [r7, #0]
 346              	.LVL46:
 347              		.loc 1 187 0
 348 011a B34A     		ldr	r2, .L145+8
 349 011c 002B     		cmp	r3, #0
 350 011e 14BF     		ite	ne
 351 0120 9A46     		movne	sl, r3
 352 0122 9246     		moveq	sl, r2
 353              		.loc 1 189 0
 354 0124 47F6FF73 		movw	r3, #32767
 355              		.loc 1 190 0
 356 0128 9AF80000 		ldrb	r0, [sl, #0]	@ zero_extendqisi2
 357              	.LVL47:
 358              		.loc 1 186 0
 359 012c 0437     		adds	r7, r7, #4
 360              	.LVL48:
 361              		.loc 1 189 0
 362 012e 0029     		cmp	r1, #0
 363 0130 08BF     		it	eq
 364 0132 1946     		moveq	r1, r3
 365              	.LVL49:
 366              		.loc 1 190 0
 367 0134 0028     		cmp	r0, #0
 368 0136 00F07A81 		beq	.L71
 369              		.loc 1 112 0
 370 013a 0AEB0100 		add	r0, sl, r1
 371              		.loc 1 190 0
 372 013e 9AF80130 		ldrb	r3, [sl, #1]	@ zero_extendqisi2
 373 0142 6FEA0A01 		mvn	r1, sl
 374 0146 0A18     		adds	r2, r1, r0
 375 0148 02F00101 		and	r1, r2, #1
 376              		.loc 1 112 0
 377 014c 0AF1010B 		add	fp, sl, #1
 378              	.LVL50:
 379              		.loc 1 190 0
 380 0150 63B1     		cbz	r3, .L122
 381 0152 8345     		cmp	fp, r0
 382 0154 5B46     		mov	r3, fp
 383 0156 09D0     		beq	.L122
 384 0158 0029     		cmp	r1, #0
 385 015a 6ED0     		beq	.L48
 386 015c 9BF80130 		ldrb	r3, [fp, #1]	@ zero_extendqisi2
 387              		.loc 1 112 0
 388 0160 0BF1010B 		add	fp, fp, #1
 389              	.LVL51:
 390              		.loc 1 190 0
 391 0164 13B1     		cbz	r3, .L122
 392 0166 8345     		cmp	fp, r0
 393 0168 5B46     		mov	r3, fp
 394 016a 66D1     		bne	.L48
 395              	.L122:
 396 016c CAEB0B0B 		rsb	fp, sl, fp
 397              	.LVL52:
 398              		.loc 1 185 0
 399 0170 4FF02008 		mov	r8, #32
ARM GAS  C:\Users\Mohamad\AppData\Local\Temp\ccbxBJoL.s 			page 8


 400              	.L140:
 401              	.LVL53:
 402              		.loc 1 240 0
 403 0174 CBEB0505 		rsb	r5, fp, r5
 404              	.LVL54:
 405 0178 25EAE575 		bic	r5, r5, r5, asr #31
 406              	.LVL55:
 407              		.loc 1 242 0
 408 017c B9F1000F 		cmp	r9, #0
 409 0180 00F0BF80 		beq	.L139
 410              	.LVL56:
 411              	.L56:
 412              		.loc 1 253 0 discriminator 1
 413 0184 BBF1000F 		cmp	fp, #0
 414 0188 27DD     		ble	.L62
 415              		.loc 1 254 0
 416 018a D146     		mov	r9, sl
 417 018c 3068     		ldr	r0, [r6, #0]
 418 018e 19F8011B 		ldrb	r1, [r9], #1	@ zero_extendqisi2
 419 0192 8368     		ldr	r3, [r0, #8]
 420              		.loc 1 112 0
 421 0194 D344     		add	fp, sl, fp
 422              	.LVL57:
 423 0196 6FEA0A0E 		mvn	lr, sl
 424              		.loc 1 254 0
 425 019a 3046     		mov	r0, r6
 426 019c 0BEB0E0A 		add	sl, fp, lr
 427              	.LVL58:
 428 01a0 9847     		blx	r3
 429              	.LVL59:
 430              		.loc 1 253 0
 431 01a2 D945     		cmp	r9, fp
 432 01a4 0AF0010A 		and	sl, sl, #1
 433              	.LVL60:
 434 01a8 17D0     		beq	.L62
 435 01aa BAF1000F 		cmp	sl, #0
 436 01ae 03D0     		beq	.L61
 437              	.LVL61:
 438              		.loc 1 254 0
 439 01b0 3268     		ldr	r2, [r6, #0]
 440 01b2 19F8011B 		ldrb	r1, [r9], #1	@ zero_extendqisi2
 441 01b6 0BE0     		b	.L134
 442              	.L61:
 443 01b8 3068     		ldr	r0, [r6, #0]
 444 01ba CA46     		mov	sl, r9
 445 01bc 8268     		ldr	r2, [r0, #8]
 446 01be 1AF8011B 		ldrb	r1, [sl], #1	@ zero_extendqisi2
 447 01c2 3046     		mov	r0, r6
 448 01c4 9047     		blx	r2
 449              	.LVL62:
 450 01c6 3268     		ldr	r2, [r6, #0]
 451 01c8 99F80110 		ldrb	r1, [r9, #1]	@ zero_extendqisi2
 452 01cc 0AF10109 		add	r9, sl, #1
 453              	.L134:
 454 01d0 9368     		ldr	r3, [r2, #8]
 455 01d2 3046     		mov	r0, r6
 456 01d4 9847     		blx	r3
ARM GAS  C:\Users\Mohamad\AppData\Local\Temp\ccbxBJoL.s 			page 9


 457              	.LVL63:
 458              		.loc 1 253 0
 459 01d6 D945     		cmp	r9, fp
 460 01d8 EED1     		bne	.L61
 461              	.L62:
 462              	.LVL64:
 463              		.loc 1 256 0
 464 01da 002D     		cmp	r5, #0
 465 01dc 3FF423AF 		beq	.L119
 466              		.loc 1 257 0
 467 01e0 3168     		ldr	r1, [r6, #0]
 468 01e2 6B1E     		subs	r3, r5, #1
 469 01e4 8A68     		ldr	r2, [r1, #8]
 470              		.loc 1 256 0
 471 01e6 1D46     		mov	r5, r3
 472              	.LVL65:
 473              		.loc 1 257 0
 474 01e8 3046     		mov	r0, r6
 475 01ea 4146     		mov	r1, r8
 476 01ec 03F00109 		and	r9, r3, #1
 477 01f0 9047     		blx	r2
 478              	.LVL66:
 479              		.loc 1 256 0
 480 01f2 002D     		cmp	r5, #0
 481 01f4 3FF417AF 		beq	.L119
 482 01f8 B9F1000F 		cmp	r9, #0
 483 01fc 07D0     		beq	.L81
 484              		.loc 1 257 0
 485 01fe 3168     		ldr	r1, [r6, #0]
 486 0200 3046     		mov	r0, r6
 487 0202 8B68     		ldr	r3, [r1, #8]
 488 0204 4146     		mov	r1, r8
 489 0206 9847     		blx	r3
 490              	.LVL67:
 491              		.loc 1 256 0
 492 0208 013D     		subs	r5, r5, #1
 493 020a 3FF40CAF 		beq	.L119
 494              	.L81:
 495              		.loc 1 257 0
 496 020e 3068     		ldr	r0, [r6, #0]
 497 0210 4146     		mov	r1, r8
 498 0212 8268     		ldr	r2, [r0, #8]
 499 0214 3046     		mov	r0, r6
 500 0216 9047     		blx	r2
 501              	.LVL68:
 502 0218 3168     		ldr	r1, [r6, #0]
 503              		.loc 1 258 0
 504 021a 013D     		subs	r5, r5, #1
 505              		.loc 1 257 0
 506 021c 8B68     		ldr	r3, [r1, #8]
 507 021e 3046     		mov	r0, r6
 508 0220 4146     		mov	r1, r8
 509 0222 9847     		blx	r3
 510              	.LVL69:
 511              		.loc 1 256 0
 512 0224 013D     		subs	r5, r5, #1
 513 0226 F2D1     		bne	.L81
ARM GAS  C:\Users\Mohamad\AppData\Local\Temp\ccbxBJoL.s 			page 10


 514 0228 FDE6     		b	.L119
 515              	.LVL70:
 516              	.L47:
 517              		.loc 1 190 0 discriminator 2
 518 022a 9BF80110 		ldrb	r1, [fp, #1]	@ zero_extendqisi2
 519              		.loc 1 112 0 discriminator 2
 520 022e 0BF1010B 		add	fp, fp, #1
 521              	.LVL71:
 522              		.loc 1 190 0 discriminator 2
 523 0232 0029     		cmp	r1, #0
 524 0234 9AD0     		beq	.L122
 525              		.loc 1 190 0 is_stmt 0
 526 0236 8345     		cmp	fp, r0
 527 0238 98D0     		beq	.L122
 528              	.L48:
 529              		.loc 1 112 0 is_stmt 1 discriminator 1
 530 023a 03F1010B 		add	fp, r3, #1
 531              	.LVL72:
 532              		.loc 1 190 0 discriminator 1
 533 023e 5978     		ldrb	r1, [r3, #1]	@ zero_extendqisi2
 534 0240 5A46     		mov	r2, fp
 535 0242 531C     		adds	r3, r2, #1
 536 0244 0029     		cmp	r1, #0
 537 0246 F0D1     		bne	.L47
 538 0248 CAEB0B0B 		rsb	fp, sl, fp
 539              	.LVL73:
 540              		.loc 1 185 0
 541 024c 4FF02008 		mov	r8, #32
 542 0250 90E7     		b	.L140
 543              	.LVL74:
 544              	.L41:
 545              		.loc 1 209 0
 546 0252 0737     		adds	r7, r7, #7
 547              	.LVL75:
 548 0254 27F00707 		bic	r7, r7, #7
 549              	.LVL76:
 550 0258 D7E90001 		ldrd	r0, [r7]
 551 025c FFF7FEFF 		bl	__aeabi_d2f
 552              	.LVL77:
 553              		.loc 1 210 0
 554 0260 0021     		movs	r1, #0
 555              		.loc 1 209 0
 556 0262 0837     		adds	r7, r7, #8
 557              	.LVL78:
 558 0264 8346     		mov	fp, r0
 559              	.LVL79:
 560              		.loc 1 210 0
 561 0266 FFF7FEFF 		bl	__aeabi_fcmplt
 562              	.LVL80:
 563 026a 0028     		cmp	r0, #0
 564 026c 40F0CF80 		bne	.L141
 565              		.loc 1 132 0
 566 0270 0DF1180A 		add	sl, sp, #24
 567              	.LVL81:
 568              	.L52:
 569              	.LBB8:
 570              	.LBB9:
ARM GAS  C:\Users\Mohamad\AppData\Local\Temp\ccbxBJoL.s 			page 11


 571              		.loc 1 80 0
 572 0274 5846     		mov	r0, fp
 573 0276 FFF7FEFF 		bl	__aeabi_f2iz
 574              	.LVL82:
 575 027a 8446     		mov	ip, r0
 576              	.LVL83:
 577              		.loc 1 81 0
 578 027c 6146     		mov	r1, ip
 579 027e 0023     		movs	r3, #0
 580 0280 5046     		mov	r0, sl
 581              	.LVL84:
 582 0282 0A22     		movs	r2, #10
 583 0284 CDF800C0 		str	ip, [sp, #0]
 584 0288 FFF7FEFF 		bl	long_to_string_with_divisor
 585              	.LVL85:
 586              		.loc 1 82 0
 587 028c 8246     		mov	sl, r0
 588              	.LVL86:
 589 028e 2E22     		movs	r2, #46
 590 0290 0AF8012B 		strb	r2, [sl], #1
 591              	.LVL87:
 592              	.LBE9:
 593              	.LBE8:
 594              		.loc 1 214 0
 595 0294 5846     		mov	r0, fp
 596              	.LVL88:
 597 0296 FFF7FEFF 		bl	__aeabi_f2d
 598              	.LVL89:
 599              	.LBB12:
 600              	.LBB10:
 601              		.loc 1 83 0
 602 029a DDF800B0 		ldr	fp, [sp, #0]
 603              	.LVL90:
 604              	.LBE10:
 605              	.LBE12:
 606              		.loc 1 214 0
 607 029e CDE90401 		strd	r0, [sp, #16]
 608              	.LBB13:
 609              	.LBB11:
 610              		.loc 1 83 0
 611 02a2 5846     		mov	r0, fp
 612 02a4 FFF7FEFF 		bl	__aeabi_i2d
 613              	.LVL91:
 614 02a8 0246     		mov	r2, r0
 615 02aa 0B46     		mov	r3, r1
 616 02ac DDE90401 		ldrd	r0, [sp, #16]
 617 02b0 FFF7FEFF 		bl	__aeabi_dsub
 618              	.LVL92:
 619 02b4 4AA3     		adr	r3, .L145
 620 02b6 D3E90023 		ldrd	r2, [r3]
 621 02ba FFF7FEFF 		bl	__aeabi_dmul
 622              	.LVL93:
 623 02be FFF7FEFF 		bl	__aeabi_d2iz
 624              	.LVL94:
 625              		.loc 1 84 0
 626 02c2 0A22     		movs	r2, #10
 627              		.loc 1 83 0
ARM GAS  C:\Users\Mohamad\AppData\Local\Temp\ccbxBJoL.s 			page 12


 628 02c4 0146     		mov	r1, r0
 629              		.loc 1 84 0
 630 02c6 42F21073 		movw	r3, #10000
 631 02ca 5046     		mov	r0, sl
 632 02cc FFF7FEFF 		bl	long_to_string_with_divisor
 633              	.LVL95:
 634 02d0 DDF808C0 		ldr	ip, [sp, #8]
 635              	.LBE11:
 636              	.LBE13:
 637              		.loc 1 133 0
 638 02d4 0DF1180A 		add	sl, sp, #24
 639              	.LVL96:
 640 02d8 CCEB000B 		rsb	fp, ip, r0
 641              		.loc 1 215 0
 642 02dc 09E0     		b	.L44
 643              	.LVL97:
 644              	.L40:
 645              		.loc 1 182 0
 646 02de 3B68     		ldr	r3, [r7, #0]
 647              	.LVL98:
 648 02e0 DDF80CB0 		ldr	fp, [sp, #12]
 649 02e4 8DF81830 		strb	r3, [sp, #24]
 650              	.LVL99:
 651 02e8 0437     		adds	r7, r7, #4
 652              	.LVL100:
 653              		.loc 1 181 0
 654 02ea 4FF02008 		mov	r8, #32
 655              		.loc 1 133 0
 656 02ee 0DF1180A 		add	sl, sp, #24
 657              	.LVL101:
 658              	.L44:
 659              		.loc 1 240 0
 660 02f2 CBEB0505 		rsb	r5, fp, r5
 661              	.LVL102:
 662 02f6 25EAE575 		bic	r5, r5, r5, asr #31
 663              	.LVL103:
 664              		.loc 1 242 0
 665 02fa B9F1000F 		cmp	r9, #0
 666 02fe 7FF441AF 		bne	.L56
 667              	.LVL104:
 668              	.L139:
 669              		.loc 1 243 0
 670 0302 6D42     		negs	r5, r5
 671              	.LVL105:
 672              		.loc 1 244 0
 673 0304 002D     		cmp	r5, #0
 674 0306 3FF43DAF 		beq	.L56
 675              		.loc 1 245 0
 676 030a 9AF80010 		ldrb	r1, [sl, #0]	@ zero_extendqisi2
 677 030e 2D29     		cmp	r1, #45
 678 0310 71D0     		beq	.L142
 679              	.L106:
 680              		.loc 1 250 0
 681 0312 3168     		ldr	r1, [r6, #0]
 682 0314 3046     		mov	r0, r6
 683 0316 8A68     		ldr	r2, [r1, #8]
 684 0318 4146     		mov	r1, r8
ARM GAS  C:\Users\Mohamad\AppData\Local\Temp\ccbxBJoL.s 			page 13


 685 031a 6FEA0509 		mvn	r9, r5
 686              	.LVL106:
 687 031e 9047     		blx	r2
 688              	.LVL107:
 689              		.loc 1 251 0
 690 0320 0135     		adds	r5, r5, #1
 691              	.LVL108:
 692 0322 09F00109 		and	r9, r9, #1
 693              	.LVL109:
 694 0326 3FF42DAF 		beq	.L56
 695 032a B9F1000F 		cmp	r9, #0
 696 032e 07D0     		beq	.L82
 697              	.LVL110:
 698              		.loc 1 250 0
 699 0330 3368     		ldr	r3, [r6, #0]
 700 0332 3046     		mov	r0, r6
 701 0334 9A68     		ldr	r2, [r3, #8]
 702 0336 4146     		mov	r1, r8
 703 0338 9047     		blx	r2
 704              	.LVL111:
 705              		.loc 1 251 0
 706 033a 0135     		adds	r5, r5, #1
 707              	.LVL112:
 708 033c 3FF422AF 		beq	.L56
 709              	.LVL113:
 710              	.L82:
 711              		.loc 1 250 0 discriminator 1
 712 0340 3068     		ldr	r0, [r6, #0]
 713 0342 4146     		mov	r1, r8
 714 0344 8368     		ldr	r3, [r0, #8]
 715 0346 3046     		mov	r0, r6
 716 0348 9847     		blx	r3
 717              	.LVL114:
 718 034a 3168     		ldr	r1, [r6, #0]
 719              		.loc 1 251 0 discriminator 1
 720 034c 0135     		adds	r5, r5, #1
 721              	.LVL115:
 722              		.loc 1 250 0 discriminator 1
 723 034e 8A68     		ldr	r2, [r1, #8]
 724 0350 3046     		mov	r0, r6
 725 0352 4146     		mov	r1, r8
 726 0354 9047     		blx	r2
 727              	.LVL116:
 728              		.loc 1 251 0 discriminator 1
 729 0356 0135     		adds	r5, r5, #1
 730              	.LVL117:
 731 0358 F2D1     		bne	.L82
 732 035a 13E7     		b	.L56
 733              	.LVL118:
 734              	.L39:
 735              		.loc 1 179 0
 736 035c 1022     		movs	r2, #16
 737              	.LVL119:
 738              	.L38:
 739              		.loc 1 230 0
 740 035e 3968     		ldr	r1, [r7, #0]
 741              	.LVL120:
ARM GAS  C:\Users\Mohamad\AppData\Local\Temp\ccbxBJoL.s 			page 14


 742              	.LBB14:
 743              	.LBB15:
 744              		.loc 1 72 0
 745 0360 06A8     		add	r0, sp, #24
 746              	.LBE15:
 747              	.LBE14:
 748              		.loc 1 230 0
 749 0362 0437     		adds	r7, r7, #4
 750              	.LVL121:
 751              	.L132:
 752              	.LBB17:
 753              	.LBB16:
 754              		.loc 1 72 0
 755 0364 0023     		movs	r3, #0
 756 0366 FFF7FEFF 		bl	long_to_string_with_divisor
 757              	.LVL122:
 758 036a DDF808B0 		ldr	fp, [sp, #8]
 759              	.LBE16:
 760              	.LBE17:
 761              		.loc 1 133 0
 762 036e 0DF1180A 		add	sl, sp, #24
 763 0372 CBEB000B 		rsb	fp, fp, r0
 764              		.loc 1 234 0
 765 0376 BCE7     		b	.L44
 766              	.LVL123:
 767              	.L68:
 768              		.loc 1 179 0
 769 0378 0A22     		movs	r2, #10
 770 037a F0E7     		b	.L38
 771              	.L37:
 772              	.LVL124:
 773 037c 0822     		movs	r2, #8
 774 037e EEE7     		b	.L38
 775              	.LVL125:
 776              	.L36:
 777              		.loc 1 198 0
 778 0380 3968     		ldr	r1, [r7, #0]
 779              	.LVL126:
 780 0382 0437     		adds	r7, r7, #4
 781              	.LVL127:
 782              		.loc 1 201 0
 783 0384 0029     		cmp	r1, #0
 784 0386 4ADB     		blt	.L143
 785              		.loc 1 132 0
 786 0388 06A8     		add	r0, sp, #24
 787              	.LVL128:
 788              	.LBB18:
 789              	.LBB19:
 790              		.loc 1 72 0
 791 038a 0A22     		movs	r2, #10
 792 038c EAE7     		b	.L132
 793              	.LVL129:
 794              	.L35:
 795              	.LBE19:
 796              	.LBE18:
 797              		.loc 1 236 0
 798 038e 8DF81830 		strb	r3, [sp, #24]
ARM GAS  C:\Users\Mohamad\AppData\Local\Temp\ccbxBJoL.s 			page 15


 799              	.LVL130:
 800 0392 DDF80CB0 		ldr	fp, [sp, #12]
 801              		.loc 1 133 0
 802 0396 0DF1180A 		add	sl, sp, #24
 803              		.loc 1 237 0
 804 039a AAE7     		b	.L44
 805              	.LVL131:
 806              	.L32:
 807              		.loc 1 172 0
 808 039c 2278     		ldrb	r2, [r4, #0]	@ zero_extendqisi2
 809 039e 002A     		cmp	r2, #0
 810 03a0 3FF47EAE 		beq	.L34
 811              	.LVL132:
 812              		.loc 1 173 0
 813 03a4 0134     		adds	r4, r4, #1
 814              	.LVL133:
 815 03a6 1346     		mov	r3, r2
 816 03a8 7AE6     		b	.L34
 817              	.LVL134:
 818              	.L24:
 819 03aa 6B78     		ldrb	r3, [r5, #1]	@ zero_extendqisi2
 820              		.loc 1 142 0
 821 03ac 4FF03008 		mov	r8, #48
 822              		.loc 1 141 0
 823 03b0 0135     		adds	r5, r5, #1
 824              	.LVL135:
 825 03b2 59E6     		b	.L25
 826              	.LVL136:
 827              	.L138:
 828 03b4 2046     		mov	r0, r4
 829              		.loc 1 156 0
 830 03b6 0021     		movs	r1, #0
 831 03b8 05E0     		b	.L31
 832              	.LVL137:
 833              	.L144:
 834              		.loc 1 162 0
 835 03ba 3A78     		ldrb	r2, [r7, #0]	@ zero_extendqisi2
 836              	.LVL138:
 837 03bc 0437     		adds	r7, r7, #4
 838              	.LVL139:
 839              	.L30:
 840              		.loc 1 165 0
 841 03be 01EB8104 		add	r4, r1, r1, lsl #2
 842              	.LVL140:
 843              		.loc 1 166 0
 844 03c2 02EB4401 		add	r1, r2, r4, lsl #1
 845              	.LVL141:
 846              	.L31:
 847              		.loc 1 158 0
 848 03c6 10F8013B 		ldrb	r3, [r0], #1	@ zero_extendqisi2
 849              	.LVL142:
 850              		.loc 1 159 0
 851 03ca A3F13004 		sub	r4, r3, #48
 852 03ce E2B2     		uxtb	r2, r4
 853 03d0 092A     		cmp	r2, #9
 854              		.loc 1 158 0
 855 03d2 0446     		mov	r4, r0
ARM GAS  C:\Users\Mohamad\AppData\Local\Temp\ccbxBJoL.s 			page 16


 856              	.LVL143:
 857              		.loc 1 159 0
 858 03d4 F3D9     		bls	.L30
 859              		.loc 1 161 0
 860 03d6 2A2B     		cmp	r3, #42
 861 03d8 EFD0     		beq	.L144
 862 03da 5BE6     		b	.L29
 863              	.L146:
 864 03dc AFF30080 		.align	3
 865              	.L145:
 866 03e0 00000000 		.word	0
 867 03e4 006AF840 		.word	1090021888
 868 03e8 00000000 		.word	.LC0
 869              	.LVL144:
 870              	.L136:
 871              		.loc 1 136 0
 872 03ec A51C     		adds	r5, r4, #2
 873              	.LVL145:
 874 03ee A378     		ldrb	r3, [r4, #2]	@ zero_extendqisi2
 875              		.loc 1 137 0
 876 03f0 4FF00109 		mov	r9, #1
 877 03f4 30E6     		b	.L23
 878              	.LVL146:
 879              	.L142:
 880              		.loc 1 245 0 discriminator 1
 881 03f6 B8F1300F 		cmp	r8, #48
 882 03fa 8AD1     		bne	.L106
 883              		.loc 1 246 0
 884 03fc 3268     		ldr	r2, [r6, #0]
 885 03fe 3046     		mov	r0, r6
 886 0400 9368     		ldr	r3, [r2, #8]
 887 0402 9847     		blx	r3
 888              	.LVL147:
 889 0404 0AF1010A 		add	sl, sl, #1
 890              	.LVL148:
 891              		.loc 1 247 0
 892 0408 0BF1FF3B 		add	fp, fp, #-1
 893              	.LVL149:
 894 040c 81E7     		b	.L106
 895              	.LVL150:
 896              	.L141:
 897              		.loc 1 211 0
 898 040e 2D20     		movs	r0, #45
 899              		.loc 1 212 0
 900 0410 0BF1004B 		add	fp, fp, #-2147483648
 901              	.LVL151:
 902              		.loc 1 211 0
 903 0414 8DF81800 		strb	r0, [sp, #24]
 904              	.LVL152:
 905 0418 0DF1190A 		add	sl, sp, #25
 906 041c 2AE7     		b	.L52
 907              	.LVL153:
 908              	.L143:
 909              		.loc 1 202 0
 910 041e 2D20     		movs	r0, #45
 911 0420 8DF81800 		strb	r0, [sp, #24]
 912              	.LVL154:
ARM GAS  C:\Users\Mohamad\AppData\Local\Temp\ccbxBJoL.s 			page 17


 913              		.loc 1 203 0
 914 0424 4942     		negs	r1, r1
 915              	.LVL155:
 916              		.loc 1 202 0
 917 0426 0DF11900 		add	r0, sp, #25
 918              	.LVL156:
 919              	.LBB21:
 920              	.LBB20:
 921              		.loc 1 72 0
 922 042a 0A22     		movs	r2, #10
 923 042c 9AE7     		b	.L132
 924              	.LVL157:
 925              	.L71:
 926              	.LBE20:
 927              	.LBE21:
 928              		.loc 1 190 0
 929 042e 8346     		mov	fp, r0
 930              		.loc 1 185 0
 931 0430 4FF02008 		mov	r8, #32
 932 0434 5DE7     		b	.L44
 933              		.cfi_endproc
 934              	.LFE11:
 935              		.size	chvprintf, .-chvprintf
 936 0436 00BFAFF3 		.section	.text.chsnprintf,"ax",%progbits
 936      0080AFF3 
 936      0080
 937              		.align	2
 938              		.p2align 4,,15
 939              		.global	chsnprintf
 940              		.thumb
 941              		.thumb_func
 942              		.type	chsnprintf, %function
 943              	chsnprintf:
 944              	.LFB12:
 945              		.loc 1 288 0
 946              		.cfi_startproc
 947              		@ args = 4, pretend = 8, frame = 24
 948              		@ frame_needed = 0, uses_anonymous_args = 1
 949              	.LVL158:
 950 0000 0CB4     		push	{r2, r3}
 951              	.LCFI3:
 952              		.cfi_def_cfa_offset 8
 953              		.cfi_offset 2, -8
 954              		.cfi_offset 3, -4
 955 0002 70B5     		push	{r4, r5, r6, lr}
 956              	.LCFI4:
 957              		.cfi_def_cfa_offset 24
 958              		.cfi_offset 4, -24
 959              		.cfi_offset 5, -20
 960              		.cfi_offset 6, -16
 961              		.cfi_offset 14, -12
 962 0004 86B0     		sub	sp, sp, #24
 963              	.LCFI5:
 964              		.cfi_def_cfa_offset 48
 965              		.loc 1 288 0
 966 0006 0AAC     		add	r4, sp, #40
 967 0008 0646     		mov	r6, r0
ARM GAS  C:\Users\Mohamad\AppData\Local\Temp\ccbxBJoL.s 			page 18


 968 000a 54F8045B 		ldr	r5, [r4], #4
 969              		.loc 1 294 0
 970 000e 0023     		movs	r3, #0
 971              		.loc 1 288 0
 972 0010 0A46     		mov	r2, r1
 973              		.loc 1 294 0
 974 0012 01A8     		add	r0, sp, #4
 975              	.LVL159:
 976 0014 3146     		mov	r1, r6
 977              	.LVL160:
 978 0016 FFF7FEFF 		bl	msObjectInit
 979              	.LVL161:
 980              		.loc 1 299 0
 981 001a 01A8     		add	r0, sp, #4
 982              	.LVL162:
 983 001c 2946     		mov	r1, r5
 984 001e 2246     		mov	r2, r4
 985              		.loc 1 298 0
 986 0020 0094     		str	r4, [sp, #0]
 987              		.loc 1 299 0
 988 0022 FFF7FEFF 		bl	chvprintf
 989              	.LVL163:
 990              		.loc 1 303 0
 991 0026 019B     		ldr	r3, [sp, #4]
 992 0028 01A8     		add	r0, sp, #4
 993              	.LVL164:
 994 002a 9A68     		ldr	r2, [r3, #8]
 995 002c 0021     		movs	r1, #0
 996 002e 9047     		blx	r2
 997              	.LVL165:
 998              		.loc 1 304 0
 999 0030 0498     		ldr	r0, [sp, #16]
 1000              		.loc 1 305 0
 1001 0032 0138     		subs	r0, r0, #1
 1002 0034 06B0     		add	sp, sp, #24
 1003 0036 BDE87040 		pop	{r4, r5, r6, lr}
 1004 003a 02B0     		add	sp, sp, #8
 1005 003c 7047     		bx	lr
 1006              		.cfi_endproc
 1007              	.LFE12:
 1008              		.size	chsnprintf, .-chsnprintf
 1009 003e 00BF     		.section	.rodata.str1.4,"aMS",%progbits,1
 1010              		.align	2
 1011              	.LC0:
 1012 0000 286E756C 		.ascii	"(null)\000"
 1012      6C2900
 1013 0007 00       		.text
 1014              	.Letext0:
 1015              		.file 2 "c:\\chibistudio\\tools\\gnu tools arm embedded\\4.7 2014q2\\bin\\../lib/gcc/arm-none-eabi
 1016              		.file 3 "c:\\chibistudio\\tools\\gnu tools arm embedded\\4.7 2014q2\\bin\\../lib/gcc/arm-none-eabi
 1017              		.file 4 "../../chibios/os/ports/GCC/ARMCMx/chtypes.h"
 1018              		.file 5 "../../chibios/os/kernel/include/chstreams.h"
 1019              		.file 6 "c:\\chibistudio\\tools\\gnu tools arm embedded\\4.7 2014q2\\bin\\../lib/gcc/arm-none-eabi
 1020              		.file 7 "<built-in>"
 1021              		.file 8 "../../chibios/os/various/memstreams.h"
 1022              		.section	.debug_info,"",%progbits
 1023              	.Ldebug_info0:
ARM GAS  C:\Users\Mohamad\AppData\Local\Temp\ccbxBJoL.s 			page 19


 1024 0000 7F070000 		.4byte	0x77f
 1025 0004 0200     		.2byte	0x2
 1026 0006 00000000 		.4byte	.Ldebug_abbrev0
 1027 000a 04       		.byte	0x4
 1028 000b 01       		.uleb128 0x1
 1029 000c 32010000 		.4byte	.LASF41
 1030 0010 01       		.byte	0x1
 1031 0011 58020000 		.4byte	.LASF42
 1032 0015 7B010000 		.4byte	.LASF43
 1033 0019 70000000 		.4byte	.Ldebug_ranges0+0x70
 1034 001d 00000000 		.4byte	0
 1035 0021 00000000 		.4byte	0
 1036 0025 00000000 		.4byte	.Ldebug_line0
 1037 0029 02       		.uleb128 0x2
 1038 002a 08       		.byte	0x8
 1039 002b 04       		.byte	0x4
 1040 002c 71000000 		.4byte	.LASF0
 1041 0030 03       		.uleb128 0x3
 1042 0031 04       		.byte	0x4
 1043 0032 05       		.byte	0x5
 1044 0033 696E7400 		.ascii	"int\000"
 1045 0037 02       		.uleb128 0x2
 1046 0038 04       		.byte	0x4
 1047 0039 04       		.byte	0x4
 1048 003a AC010000 		.4byte	.LASF1
 1049 003e 04       		.uleb128 0x4
 1050 003f 00000000 		.4byte	.LASF4
 1051 0043 02       		.byte	0x2
 1052 0044 D5       		.byte	0xd5
 1053 0045 49000000 		.4byte	0x49
 1054 0049 02       		.uleb128 0x2
 1055 004a 04       		.byte	0x4
 1056 004b 07       		.byte	0x7
 1057 004c 9C000000 		.4byte	.LASF2
 1058 0050 02       		.uleb128 0x2
 1059 0051 01       		.byte	0x1
 1060 0052 06       		.byte	0x6
 1061 0053 39000000 		.4byte	.LASF3
 1062 0057 04       		.uleb128 0x4
 1063 0058 25020000 		.4byte	.LASF5
 1064 005c 03       		.byte	0x3
 1065 005d 2A       		.byte	0x2a
 1066 005e 62000000 		.4byte	0x62
 1067 0062 02       		.uleb128 0x2
 1068 0063 01       		.byte	0x1
 1069 0064 08       		.byte	0x8
 1070 0065 CD010000 		.4byte	.LASF6
 1071 0069 02       		.uleb128 0x2
 1072 006a 02       		.byte	0x2
 1073 006b 05       		.byte	0x5
 1074 006c DB010000 		.4byte	.LASF7
 1075 0070 02       		.uleb128 0x2
 1076 0071 02       		.byte	0x2
 1077 0072 07       		.byte	0x7
 1078 0073 D1000000 		.4byte	.LASF8
 1079 0077 04       		.uleb128 0x4
 1080 0078 C5010000 		.4byte	.LASF9
ARM GAS  C:\Users\Mohamad\AppData\Local\Temp\ccbxBJoL.s 			page 20


 1081 007c 03       		.byte	0x3
 1082 007d 4F       		.byte	0x4f
 1083 007e 82000000 		.4byte	0x82
 1084 0082 02       		.uleb128 0x2
 1085 0083 04       		.byte	0x4
 1086 0084 05       		.byte	0x5
 1087 0085 53000000 		.4byte	.LASF10
 1088 0089 02       		.uleb128 0x2
 1089 008a 04       		.byte	0x4
 1090 008b 07       		.byte	0x7
 1091 008c A9000000 		.4byte	.LASF11
 1092 0090 02       		.uleb128 0x2
 1093 0091 08       		.byte	0x8
 1094 0092 05       		.byte	0x5
 1095 0093 2B000000 		.4byte	.LASF12
 1096 0097 02       		.uleb128 0x2
 1097 0098 08       		.byte	0x8
 1098 0099 07       		.byte	0x7
 1099 009a 14000000 		.4byte	.LASF13
 1100 009e 04       		.uleb128 0x4
 1101 009f 45000000 		.4byte	.LASF14
 1102 00a3 04       		.byte	0x4
 1103 00a4 2B       		.byte	0x2b
 1104 00a5 A9000000 		.4byte	0xa9
 1105 00a9 02       		.uleb128 0x2
 1106 00aa 01       		.byte	0x1
 1107 00ab 02       		.byte	0x2
 1108 00ac BF010000 		.4byte	.LASF15
 1109 00b0 04       		.uleb128 0x4
 1110 00b1 E4000000 		.4byte	.LASF16
 1111 00b5 04       		.byte	0x4
 1112 00b6 31       		.byte	0x31
 1113 00b7 77000000 		.4byte	0x77
 1114 00bb 05       		.uleb128 0x5
 1115 00bc 04       		.byte	0x4
 1116 00bd 02       		.uleb128 0x2
 1117 00be 04       		.byte	0x4
 1118 00bf 07       		.byte	0x7
 1119 00c0 02010000 		.4byte	.LASF17
 1120 00c4 06       		.uleb128 0x6
 1121 00c5 04       		.byte	0x4
 1122 00c6 CA000000 		.4byte	0xca
 1123 00ca 07       		.uleb128 0x7
 1124 00cb CF000000 		.4byte	0xcf
 1125 00cf 02       		.uleb128 0x2
 1126 00d0 01       		.byte	0x1
 1127 00d1 08       		.byte	0x8
 1128 00d2 03020000 		.4byte	.LASF18
 1129 00d6 06       		.uleb128 0x6
 1130 00d7 04       		.byte	0x4
 1131 00d8 DC000000 		.4byte	0xdc
 1132 00dc 08       		.uleb128 0x8
 1133 00dd 01       		.byte	0x1
 1134 00de B0000000 		.4byte	0xb0
 1135 00e2 EC000000 		.4byte	0xec
 1136 00e6 09       		.uleb128 0x9
 1137 00e7 BB000000 		.4byte	0xbb
ARM GAS  C:\Users\Mohamad\AppData\Local\Temp\ccbxBJoL.s 			page 21


 1138 00eb 00       		.byte	0
 1139 00ec 06       		.uleb128 0x6
 1140 00ed 04       		.byte	0x4
 1141 00ee 57000000 		.4byte	0x57
 1142 00f2 0A       		.uleb128 0xa
 1143 00f3 E5010000 		.4byte	.LASF23
 1144 00f7 10       		.byte	0x10
 1145 00f8 05       		.byte	0x5
 1146 00f9 48       		.byte	0x48
 1147 00fa 37010000 		.4byte	0x137
 1148 00fe 0B       		.uleb128 0xb
 1149 00ff FC000000 		.4byte	.LASF19
 1150 0103 05       		.byte	0x5
 1151 0104 49       		.byte	0x49
 1152 0105 5C010000 		.4byte	0x15c
 1153 0109 02       		.byte	0x2
 1154 010a 23       		.byte	0x23
 1155 010b 00       		.uleb128 0
 1156 010c 0B       		.uleb128 0xb
 1157 010d 37020000 		.4byte	.LASF20
 1158 0111 05       		.byte	0x5
 1159 0112 49       		.byte	0x49
 1160 0113 7C010000 		.4byte	0x17c
 1161 0117 02       		.byte	0x2
 1162 0118 23       		.byte	0x23
 1163 0119 04       		.uleb128 0x4
 1164 011a 0C       		.uleb128 0xc
 1165 011b 70757400 		.ascii	"put\000"
 1166 011f 05       		.byte	0x5
 1167 0120 49       		.byte	0x49
 1168 0121 97010000 		.4byte	0x197
 1169 0125 02       		.byte	0x2
 1170 0126 23       		.byte	0x23
 1171 0127 08       		.uleb128 0x8
 1172 0128 0C       		.uleb128 0xc
 1173 0129 67657400 		.ascii	"get\000"
 1174 012d 05       		.byte	0x5
 1175 012e 49       		.byte	0x49
 1176 012f D6000000 		.4byte	0xd6
 1177 0133 02       		.byte	0x2
 1178 0134 23       		.byte	0x23
 1179 0135 0C       		.uleb128 0xc
 1180 0136 00       		.byte	0
 1181 0137 08       		.uleb128 0x8
 1182 0138 01       		.byte	0x1
 1183 0139 3E000000 		.4byte	0x3e
 1184 013d 51010000 		.4byte	0x151
 1185 0141 09       		.uleb128 0x9
 1186 0142 BB000000 		.4byte	0xbb
 1187 0146 09       		.uleb128 0x9
 1188 0147 51010000 		.4byte	0x151
 1189 014b 09       		.uleb128 0x9
 1190 014c 3E000000 		.4byte	0x3e
 1191 0150 00       		.byte	0
 1192 0151 06       		.uleb128 0x6
 1193 0152 04       		.byte	0x4
 1194 0153 57010000 		.4byte	0x157
ARM GAS  C:\Users\Mohamad\AppData\Local\Temp\ccbxBJoL.s 			page 22


 1195 0157 07       		.uleb128 0x7
 1196 0158 57000000 		.4byte	0x57
 1197 015c 06       		.uleb128 0x6
 1198 015d 04       		.byte	0x4
 1199 015e 37010000 		.4byte	0x137
 1200 0162 08       		.uleb128 0x8
 1201 0163 01       		.byte	0x1
 1202 0164 3E000000 		.4byte	0x3e
 1203 0168 7C010000 		.4byte	0x17c
 1204 016c 09       		.uleb128 0x9
 1205 016d BB000000 		.4byte	0xbb
 1206 0171 09       		.uleb128 0x9
 1207 0172 EC000000 		.4byte	0xec
 1208 0176 09       		.uleb128 0x9
 1209 0177 3E000000 		.4byte	0x3e
 1210 017b 00       		.byte	0
 1211 017c 06       		.uleb128 0x6
 1212 017d 04       		.byte	0x4
 1213 017e 62010000 		.4byte	0x162
 1214 0182 08       		.uleb128 0x8
 1215 0183 01       		.byte	0x1
 1216 0184 B0000000 		.4byte	0xb0
 1217 0188 97010000 		.4byte	0x197
 1218 018c 09       		.uleb128 0x9
 1219 018d BB000000 		.4byte	0xbb
 1220 0191 09       		.uleb128 0x9
 1221 0192 57000000 		.4byte	0x57
 1222 0196 00       		.byte	0
 1223 0197 06       		.uleb128 0x6
 1224 0198 04       		.byte	0x4
 1225 0199 82010000 		.4byte	0x182
 1226 019d 0D       		.uleb128 0xd
 1227 019e 04       		.byte	0x4
 1228 019f 05       		.byte	0x5
 1229 01a0 51       		.byte	0x51
 1230 01a1 B4010000 		.4byte	0x1b4
 1231 01a5 0C       		.uleb128 0xc
 1232 01a6 766D7400 		.ascii	"vmt\000"
 1233 01aa 05       		.byte	0x5
 1234 01ab 53       		.byte	0x53
 1235 01ac B4010000 		.4byte	0x1b4
 1236 01b0 02       		.byte	0x2
 1237 01b1 23       		.byte	0x23
 1238 01b2 00       		.uleb128 0
 1239 01b3 00       		.byte	0
 1240 01b4 06       		.uleb128 0x6
 1241 01b5 04       		.byte	0x4
 1242 01b6 BA010000 		.4byte	0x1ba
 1243 01ba 07       		.uleb128 0x7
 1244 01bb F2000000 		.4byte	0xf2
 1245 01bf 04       		.uleb128 0x4
 1246 01c0 87000000 		.4byte	.LASF21
 1247 01c4 05       		.byte	0x5
 1248 01c5 55       		.byte	0x55
 1249 01c6 9D010000 		.4byte	0x19d
 1250 01ca 04       		.uleb128 0x4
 1251 01cb 23010000 		.4byte	.LASF22
ARM GAS  C:\Users\Mohamad\AppData\Local\Temp\ccbxBJoL.s 			page 23


 1252 01cf 06       		.byte	0x6
 1253 01d0 28       		.byte	0x28
 1254 01d1 D5010000 		.4byte	0x1d5
 1255 01d5 0A       		.uleb128 0xa
 1256 01d6 67000000 		.4byte	.LASF24
 1257 01da 04       		.byte	0x4
 1258 01db 07       		.byte	0x7
 1259 01dc 00       		.byte	0
 1260 01dd EF010000 		.4byte	0x1ef
 1261 01e1 0E       		.uleb128 0xe
 1262 01e2 20020000 		.4byte	.LASF44
 1263 01e6 BB000000 		.4byte	0xbb
 1264 01ea 02       		.byte	0x2
 1265 01eb 23       		.byte	0x23
 1266 01ec 00       		.uleb128 0
 1267 01ed 01       		.byte	0x1
 1268 01ee 00       		.byte	0
 1269 01ef 04       		.uleb128 0x4
 1270 01f0 07000000 		.4byte	.LASF25
 1271 01f4 06       		.byte	0x6
 1272 01f5 66       		.byte	0x66
 1273 01f6 CA010000 		.4byte	0x1ca
 1274 01fa 0A       		.uleb128 0xa
 1275 01fb 9F010000 		.4byte	.LASF26
 1276 01ff 10       		.byte	0x10
 1277 0200 08       		.byte	0x8
 1278 0201 3D       		.byte	0x3d
 1279 0202 3F020000 		.4byte	0x23f
 1280 0206 0B       		.uleb128 0xb
 1281 0207 FC000000 		.4byte	.LASF19
 1282 020b 08       		.byte	0x8
 1283 020c 3E       		.byte	0x3e
 1284 020d 5C010000 		.4byte	0x15c
 1285 0211 02       		.byte	0x2
 1286 0212 23       		.byte	0x23
 1287 0213 00       		.uleb128 0
 1288 0214 0B       		.uleb128 0xb
 1289 0215 37020000 		.4byte	.LASF20
 1290 0219 08       		.byte	0x8
 1291 021a 3E       		.byte	0x3e
 1292 021b 7C010000 		.4byte	0x17c
 1293 021f 02       		.byte	0x2
 1294 0220 23       		.byte	0x23
 1295 0221 04       		.uleb128 0x4
 1296 0222 0C       		.uleb128 0xc
 1297 0223 70757400 		.ascii	"put\000"
 1298 0227 08       		.byte	0x8
 1299 0228 3E       		.byte	0x3e
 1300 0229 97010000 		.4byte	0x197
 1301 022d 02       		.byte	0x2
 1302 022e 23       		.byte	0x23
 1303 022f 08       		.uleb128 0x8
 1304 0230 0C       		.uleb128 0xc
 1305 0231 67657400 		.ascii	"get\000"
 1306 0235 08       		.byte	0x8
 1307 0236 3E       		.byte	0x3e
 1308 0237 D6000000 		.4byte	0xd6
ARM GAS  C:\Users\Mohamad\AppData\Local\Temp\ccbxBJoL.s 			page 24


 1309 023b 02       		.byte	0x2
 1310 023c 23       		.byte	0x23
 1311 023d 0C       		.uleb128 0xc
 1312 023e 00       		.byte	0
 1313 023f 0D       		.uleb128 0xd
 1314 0240 14       		.byte	0x14
 1315 0241 08       		.byte	0x8
 1316 0242 46       		.byte	0x46
 1317 0243 8E020000 		.4byte	0x28e
 1318 0247 0C       		.uleb128 0xc
 1319 0248 766D7400 		.ascii	"vmt\000"
 1320 024c 08       		.byte	0x8
 1321 024d 48       		.byte	0x48
 1322 024e 8E020000 		.4byte	0x28e
 1323 0252 02       		.byte	0x2
 1324 0253 23       		.byte	0x23
 1325 0254 00       		.uleb128 0
 1326 0255 0B       		.uleb128 0xb
 1327 0256 12020000 		.4byte	.LASF27
 1328 025a 08       		.byte	0x8
 1329 025b 49       		.byte	0x49
 1330 025c EC000000 		.4byte	0xec
 1331 0260 02       		.byte	0x2
 1332 0261 23       		.byte	0x23
 1333 0262 04       		.uleb128 0x4
 1334 0263 0B       		.uleb128 0xb
 1335 0264 CC000000 		.4byte	.LASF28
 1336 0268 08       		.byte	0x8
 1337 0269 49       		.byte	0x49
 1338 026a 3E000000 		.4byte	0x3e
 1339 026e 02       		.byte	0x2
 1340 026f 23       		.byte	0x23
 1341 0270 08       		.uleb128 0x8
 1342 0271 0C       		.uleb128 0xc
 1343 0272 656F7300 		.ascii	"eos\000"
 1344 0276 08       		.byte	0x8
 1345 0277 49       		.byte	0x49
 1346 0278 3E000000 		.4byte	0x3e
 1347 027c 02       		.byte	0x2
 1348 027d 23       		.byte	0x23
 1349 027e 0C       		.uleb128 0xc
 1350 027f 0B       		.uleb128 0xb
 1351 0280 19020000 		.4byte	.LASF29
 1352 0284 08       		.byte	0x8
 1353 0285 49       		.byte	0x49
 1354 0286 3E000000 		.4byte	0x3e
 1355 028a 02       		.byte	0x2
 1356 028b 23       		.byte	0x23
 1357 028c 10       		.uleb128 0x10
 1358 028d 00       		.byte	0
 1359 028e 06       		.uleb128 0x6
 1360 028f 04       		.byte	0x4
 1361 0290 94020000 		.4byte	0x294
 1362 0294 07       		.uleb128 0x7
 1363 0295 FA010000 		.4byte	0x1fa
 1364 0299 04       		.uleb128 0x4
 1365 029a B2010000 		.4byte	.LASF30
ARM GAS  C:\Users\Mohamad\AppData\Local\Temp\ccbxBJoL.s 			page 25


 1366 029e 08       		.byte	0x8
 1367 029f 4A       		.byte	0x4a
 1368 02a0 3F020000 		.4byte	0x23f
 1369 02a4 0F       		.uleb128 0xf
 1370 02a5 3C020000 		.4byte	.LASF45
 1371 02a9 01       		.byte	0x1
 1372 02aa 25       		.byte	0x25
 1373 02ab 01       		.byte	0x1
 1374 02ac 31030000 		.4byte	0x331
 1375 02b0 00000000 		.4byte	.LFB8
 1376 02b4 6C000000 		.4byte	.LFE8
 1377 02b8 00000000 		.4byte	.LLST0
 1378 02bc 01       		.byte	0x1
 1379 02bd 31030000 		.4byte	0x331
 1380 02c1 10       		.uleb128 0x10
 1381 02c2 7000     		.ascii	"p\000"
 1382 02c4 01       		.byte	0x1
 1383 02c5 25       		.byte	0x25
 1384 02c6 31030000 		.4byte	0x331
 1385 02ca 20000000 		.4byte	.LLST1
 1386 02ce 10       		.uleb128 0x10
 1387 02cf 6E756D00 		.ascii	"num\000"
 1388 02d3 01       		.byte	0x1
 1389 02d4 26       		.byte	0x26
 1390 02d5 82000000 		.4byte	0x82
 1391 02d9 49000000 		.4byte	.LLST2
 1392 02dd 11       		.uleb128 0x11
 1393 02de FD010000 		.4byte	.LASF31
 1394 02e2 01       		.byte	0x1
 1395 02e3 27       		.byte	0x27
 1396 02e4 49000000 		.4byte	0x49
 1397 02e8 6A000000 		.4byte	.LLST3
 1398 02ec 11       		.uleb128 0x11
 1399 02ed 1B010000 		.4byte	.LASF32
 1400 02f1 01       		.byte	0x1
 1401 02f2 28       		.byte	0x28
 1402 02f3 82000000 		.4byte	0x82
 1403 02f7 8B000000 		.4byte	.LLST4
 1404 02fb 12       		.uleb128 0x12
 1405 02fc 6900     		.ascii	"i\000"
 1406 02fe 01       		.byte	0x1
 1407 02ff 29       		.byte	0x29
 1408 0300 30000000 		.4byte	0x30
 1409 0304 AC000000 		.4byte	.LLST5
 1410 0308 12       		.uleb128 0x12
 1411 0309 7100     		.ascii	"q\000"
 1412 030b 01       		.byte	0x1
 1413 030c 2A       		.byte	0x2a
 1414 030d 31030000 		.4byte	0x331
 1415 0311 F5000000 		.4byte	.LLST6
 1416 0315 12       		.uleb128 0x12
 1417 0316 6C00     		.ascii	"l\000"
 1418 0318 01       		.byte	0x1
 1419 0319 2B       		.byte	0x2b
 1420 031a 82000000 		.4byte	0x82
 1421 031e 1E010000 		.4byte	.LLST7
 1422 0322 12       		.uleb128 0x12
ARM GAS  C:\Users\Mohamad\AppData\Local\Temp\ccbxBJoL.s 			page 26


 1423 0323 6C6C00   		.ascii	"ll\000"
 1424 0326 01       		.byte	0x1
 1425 0327 2B       		.byte	0x2b
 1426 0328 82000000 		.4byte	0x82
 1427 032c 47010000 		.4byte	.LLST8
 1428 0330 00       		.byte	0
 1429 0331 06       		.uleb128 0x6
 1430 0332 04       		.byte	0x4
 1431 0333 CF000000 		.4byte	0xcf
 1432 0337 13       		.uleb128 0x13
 1433 0338 EA000000 		.4byte	.LASF33
 1434 033c 01       		.byte	0x1
 1435 033d 46       		.byte	0x46
 1436 033e 01       		.byte	0x1
 1437 033f 31030000 		.4byte	0x331
 1438 0343 01       		.byte	0x1
 1439 0344 68030000 		.4byte	0x368
 1440 0348 14       		.uleb128 0x14
 1441 0349 7000     		.ascii	"p\000"
 1442 034b 01       		.byte	0x1
 1443 034c 46       		.byte	0x46
 1444 034d 31030000 		.4byte	0x331
 1445 0351 14       		.uleb128 0x14
 1446 0352 6E756D00 		.ascii	"num\000"
 1447 0356 01       		.byte	0x1
 1448 0357 46       		.byte	0x46
 1449 0358 82000000 		.4byte	0x82
 1450 035c 15       		.uleb128 0x15
 1451 035d FD010000 		.4byte	.LASF31
 1452 0361 01       		.byte	0x1
 1453 0362 46       		.byte	0x46
 1454 0363 49000000 		.4byte	0x49
 1455 0367 00       		.byte	0
 1456 0368 13       		.uleb128 0x13
 1457 0369 0F000000 		.4byte	.LASF34
 1458 036d 01       		.byte	0x1
 1459 036e 4C       		.byte	0x4c
 1460 036f 01       		.byte	0x1
 1461 0370 31030000 		.4byte	0x331
 1462 0374 01       		.byte	0x1
 1463 0375 A2030000 		.4byte	0x3a2
 1464 0379 14       		.uleb128 0x14
 1465 037a 7000     		.ascii	"p\000"
 1466 037c 01       		.byte	0x1
 1467 037d 4C       		.byte	0x4c
 1468 037e 31030000 		.4byte	0x331
 1469 0382 14       		.uleb128 0x14
 1470 0383 6E756D00 		.ascii	"num\000"
 1471 0387 01       		.byte	0x1
 1472 0388 4C       		.byte	0x4c
 1473 0389 29000000 		.4byte	0x29
 1474 038d 16       		.uleb128 0x16
 1475 038e 6C00     		.ascii	"l\000"
 1476 0390 01       		.byte	0x1
 1477 0391 4D       		.byte	0x4d
 1478 0392 82000000 		.4byte	0x82
 1479 0396 17       		.uleb128 0x17
ARM GAS  C:\Users\Mohamad\AppData\Local\Temp\ccbxBJoL.s 			page 27


 1480 0397 08020000 		.4byte	.LASF35
 1481 039b 01       		.byte	0x1
 1482 039c 4E       		.byte	0x4e
 1483 039d 89000000 		.4byte	0x89
 1484 03a1 00       		.byte	0
 1485 03a2 18       		.uleb128 0x18
 1486 03a3 01       		.byte	0x1
 1487 03a4 2D020000 		.4byte	.LASF46
 1488 03a8 01       		.byte	0x1
 1489 03a9 70       		.byte	0x70
 1490 03aa 01       		.byte	0x1
 1491 03ab 00000000 		.4byte	.LFB11
 1492 03af 36040000 		.4byte	.LFE11
 1493 03b3 65010000 		.4byte	.LLST9
 1494 03b7 01       		.byte	0x1
 1495 03b8 70060000 		.4byte	0x670
 1496 03bc 10       		.uleb128 0x10
 1497 03bd 63687000 		.ascii	"chp\000"
 1498 03c1 01       		.byte	0x1
 1499 03c2 70       		.byte	0x70
 1500 03c3 70060000 		.4byte	0x670
 1501 03c7 92010000 		.4byte	.LLST10
 1502 03cb 10       		.uleb128 0x10
 1503 03cc 666D7400 		.ascii	"fmt\000"
 1504 03d0 01       		.byte	0x1
 1505 03d1 70       		.byte	0x70
 1506 03d2 C4000000 		.4byte	0xc4
 1507 03d6 B0010000 		.4byte	.LLST11
 1508 03da 10       		.uleb128 0x10
 1509 03db 617000   		.ascii	"ap\000"
 1510 03de 01       		.byte	0x1
 1511 03df 70       		.byte	0x70
 1512 03e0 EF010000 		.4byte	0x1ef
 1513 03e4 49020000 		.4byte	.LLST12
 1514 03e8 12       		.uleb128 0x12
 1515 03e9 7000     		.ascii	"p\000"
 1516 03eb 01       		.byte	0x1
 1517 03ec 71       		.byte	0x71
 1518 03ed 31030000 		.4byte	0x331
 1519 03f1 38030000 		.4byte	.LLST13
 1520 03f5 12       		.uleb128 0x12
 1521 03f6 7300     		.ascii	"s\000"
 1522 03f8 01       		.byte	0x1
 1523 03f9 71       		.byte	0x71
 1524 03fa 31030000 		.4byte	0x331
 1525 03fe 34040000 		.4byte	.LLST14
 1526 0402 12       		.uleb128 0x12
 1527 0403 6300     		.ascii	"c\000"
 1528 0405 01       		.byte	0x1
 1529 0406 71       		.byte	0x71
 1530 0407 CF000000 		.4byte	0xcf
 1531 040b C2040000 		.4byte	.LLST15
 1532 040f 19       		.uleb128 0x19
 1533 0410 78000000 		.4byte	.LASF36
 1534 0414 01       		.byte	0x1
 1535 0415 71       		.byte	0x71
 1536 0416 CF000000 		.4byte	0xcf
ARM GAS  C:\Users\Mohamad\AppData\Local\Temp\ccbxBJoL.s 			page 28


 1537 041a CB050000 		.4byte	.LLST16
 1538 041e 12       		.uleb128 0x12
 1539 041f 6900     		.ascii	"i\000"
 1540 0421 01       		.byte	0x1
 1541 0422 72       		.byte	0x72
 1542 0423 30000000 		.4byte	0x30
 1543 0427 6E060000 		.4byte	.LLST17
 1544 042b 19       		.uleb128 0x19
 1545 042c 08020000 		.4byte	.LASF35
 1546 0430 01       		.byte	0x1
 1547 0431 72       		.byte	0x72
 1548 0432 30000000 		.4byte	0x30
 1549 0436 A4060000 		.4byte	.LLST18
 1550 043a 19       		.uleb128 0x19
 1551 043b C6000000 		.4byte	.LASF37
 1552 043f 01       		.byte	0x1
 1553 0440 72       		.byte	0x72
 1554 0441 30000000 		.4byte	0x30
 1555 0445 2B070000 		.4byte	.LLST19
 1556 0449 19       		.uleb128 0x19
 1557 044a 7F000000 		.4byte	.LASF38
 1558 044e 01       		.byte	0x1
 1559 044f 73       		.byte	0x73
 1560 0450 9E000000 		.4byte	0x9e
 1561 0454 E3070000 		.4byte	.LLST20
 1562 0458 19       		.uleb128 0x19
 1563 0459 BB000000 		.4byte	.LASF39
 1564 045d 01       		.byte	0x1
 1565 045e 73       		.byte	0x73
 1566 045f 9E000000 		.4byte	0x9e
 1567 0463 F7070000 		.4byte	.LLST21
 1568 0467 12       		.uleb128 0x12
 1569 0468 6C00     		.ascii	"l\000"
 1570 046a 01       		.byte	0x1
 1571 046b 74       		.byte	0x74
 1572 046c 82000000 		.4byte	0x82
 1573 0470 4F080000 		.4byte	.LLST22
 1574 0474 12       		.uleb128 0x12
 1575 0475 6600     		.ascii	"f\000"
 1576 0477 01       		.byte	0x1
 1577 0478 76       		.byte	0x76
 1578 0479 37000000 		.4byte	0x37
 1579 047d 78080000 		.4byte	.LLST23
 1580 0481 1A       		.uleb128 0x1a
 1581 0482 4C000000 		.4byte	.LASF40
 1582 0486 01       		.byte	0x1
 1583 0487 77       		.byte	0x77
 1584 0488 76060000 		.4byte	0x676
 1585 048c 02       		.byte	0x2
 1586 048d 91       		.byte	0x91
 1587 048e 40       		.sleb128 -64
 1588 048f 1B       		.uleb128 0x1b
 1589 0490 0B010000 		.4byte	.LASF47
 1590 0494 01       		.byte	0x1
 1591 0495 E4       		.byte	0xe4
 1592 0496 5E030000 		.4byte	.L38
 1593 049a 1C       		.uleb128 0x1c
ARM GAS  C:\Users\Mohamad\AppData\Local\Temp\ccbxBJoL.s 			page 29


 1594 049b 68030000 		.4byte	0x368
 1595 049f 74020000 		.4byte	.LBB8
 1596 04a3 00000000 		.4byte	.Ldebug_ranges0+0
 1597 04a7 01       		.byte	0x1
 1598 04a8 D6       		.byte	0xd6
 1599 04a9 12050000 		.4byte	0x512
 1600 04ad 1D       		.uleb128 0x1d
 1601 04ae 82030000 		.4byte	0x382
 1602 04b2 AC080000 		.4byte	.LLST24
 1603 04b6 1D       		.uleb128 0x1d
 1604 04b7 79030000 		.4byte	0x379
 1605 04bb C4080000 		.4byte	.LLST25
 1606 04bf 1E       		.uleb128 0x1e
 1607 04c0 20000000 		.4byte	.Ldebug_ranges0+0x20
 1608 04c4 1F       		.uleb128 0x1f
 1609 04c5 8D030000 		.4byte	0x38d
 1610 04c9 FA080000 		.4byte	.LLST26
 1611 04cd 1F       		.uleb128 0x1f
 1612 04ce 96030000 		.4byte	0x396
 1613 04d2 2A090000 		.4byte	.LLST27
 1614 04d6 20       		.uleb128 0x20
 1615 04d7 8C020000 		.4byte	.LVL85
 1616 04db A4020000 		.4byte	0x2a4
 1617 04df F4040000 		.4byte	0x4f4
 1618 04e3 21       		.uleb128 0x21
 1619 04e4 01       		.byte	0x1
 1620 04e5 53       		.byte	0x53
 1621 04e6 01       		.byte	0x1
 1622 04e7 30       		.byte	0x30
 1623 04e8 21       		.uleb128 0x21
 1624 04e9 01       		.byte	0x1
 1625 04ea 52       		.byte	0x52
 1626 04eb 01       		.byte	0x1
 1627 04ec 3A       		.byte	0x3a
 1628 04ed 21       		.uleb128 0x21
 1629 04ee 01       		.byte	0x1
 1630 04ef 50       		.byte	0x50
 1631 04f0 02       		.byte	0x2
 1632 04f1 7A       		.byte	0x7a
 1633 04f2 00       		.sleb128 0
 1634 04f3 00       		.byte	0
 1635 04f4 22       		.uleb128 0x22
 1636 04f5 D0020000 		.4byte	.LVL95
 1637 04f9 A4020000 		.4byte	0x2a4
 1638 04fd 21       		.uleb128 0x21
 1639 04fe 01       		.byte	0x1
 1640 04ff 53       		.byte	0x53
 1641 0500 03       		.byte	0x3
 1642 0501 0A       		.byte	0xa
 1643 0502 1027     		.2byte	0x2710
 1644 0504 21       		.uleb128 0x21
 1645 0505 01       		.byte	0x1
 1646 0506 52       		.byte	0x52
 1647 0507 01       		.byte	0x1
 1648 0508 3A       		.byte	0x3a
 1649 0509 21       		.uleb128 0x21
 1650 050a 01       		.byte	0x1
ARM GAS  C:\Users\Mohamad\AppData\Local\Temp\ccbxBJoL.s 			page 30


 1651 050b 50       		.byte	0x50
 1652 050c 02       		.byte	0x2
 1653 050d 7A       		.byte	0x7a
 1654 050e 00       		.sleb128 0
 1655 050f 00       		.byte	0
 1656 0510 00       		.byte	0
 1657 0511 00       		.byte	0
 1658 0512 1C       		.uleb128 0x1c
 1659 0513 37030000 		.4byte	0x337
 1660 0517 60030000 		.4byte	.LBB14
 1661 051b 40000000 		.4byte	.Ldebug_ranges0+0x40
 1662 051f 01       		.byte	0x1
 1663 0520 E9       		.byte	0xe9
 1664 0521 44050000 		.4byte	0x544
 1665 0525 23       		.uleb128 0x23
 1666 0526 5C030000 		.4byte	0x35c
 1667 052a 23       		.uleb128 0x23
 1668 052b 51030000 		.4byte	0x351
 1669 052f 23       		.uleb128 0x23
 1670 0530 48030000 		.4byte	0x348
 1671 0534 22       		.uleb128 0x22
 1672 0535 6A030000 		.4byte	.LVL122
 1673 0539 A4020000 		.4byte	0x2a4
 1674 053d 21       		.uleb128 0x21
 1675 053e 01       		.byte	0x1
 1676 053f 53       		.byte	0x53
 1677 0540 01       		.byte	0x1
 1678 0541 30       		.byte	0x30
 1679 0542 00       		.byte	0
 1680 0543 00       		.byte	0
 1681 0544 1C       		.uleb128 0x1c
 1682 0545 37030000 		.4byte	0x337
 1683 0549 8A030000 		.4byte	.LBB18
 1684 054d 58000000 		.4byte	.Ldebug_ranges0+0x58
 1685 0551 01       		.byte	0x1
 1686 0552 CD       		.byte	0xcd
 1687 0553 73050000 		.4byte	0x573
 1688 0557 1D       		.uleb128 0x1d
 1689 0558 5C030000 		.4byte	0x35c
 1690 055c 42090000 		.4byte	.LLST28
 1691 0560 1D       		.uleb128 0x1d
 1692 0561 51030000 		.4byte	0x351
 1693 0565 62090000 		.4byte	.LLST29
 1694 0569 1D       		.uleb128 0x1d
 1695 056a 48030000 		.4byte	0x348
 1696 056e 80090000 		.4byte	.LLST30
 1697 0572 00       		.byte	0
 1698 0573 24       		.uleb128 0x24
 1699 0574 3E000000 		.4byte	.LVL29
 1700 0578 83050000 		.4byte	0x583
 1701 057c 21       		.uleb128 0x21
 1702 057d 01       		.byte	0x1
 1703 057e 50       		.byte	0x50
 1704 057f 02       		.byte	0x2
 1705 0580 76       		.byte	0x76
 1706 0581 00       		.sleb128 0
 1707 0582 00       		.byte	0
ARM GAS  C:\Users\Mohamad\AppData\Local\Temp\ccbxBJoL.s 			page 31


 1708 0583 24       		.uleb128 0x24
 1709 0584 A2010000 		.4byte	.LVL59
 1710 0588 93050000 		.4byte	0x593
 1711 058c 21       		.uleb128 0x21
 1712 058d 01       		.byte	0x1
 1713 058e 50       		.byte	0x50
 1714 058f 02       		.byte	0x2
 1715 0590 76       		.byte	0x76
 1716 0591 00       		.sleb128 0
 1717 0592 00       		.byte	0
 1718 0593 24       		.uleb128 0x24
 1719 0594 C6010000 		.4byte	.LVL62
 1720 0598 A3050000 		.4byte	0x5a3
 1721 059c 21       		.uleb128 0x21
 1722 059d 01       		.byte	0x1
 1723 059e 50       		.byte	0x50
 1724 059f 02       		.byte	0x2
 1725 05a0 76       		.byte	0x76
 1726 05a1 00       		.sleb128 0
 1727 05a2 00       		.byte	0
 1728 05a3 24       		.uleb128 0x24
 1729 05a4 D6010000 		.4byte	.LVL63
 1730 05a8 B3050000 		.4byte	0x5b3
 1731 05ac 21       		.uleb128 0x21
 1732 05ad 01       		.byte	0x1
 1733 05ae 50       		.byte	0x50
 1734 05af 02       		.byte	0x2
 1735 05b0 76       		.byte	0x76
 1736 05b1 00       		.sleb128 0
 1737 05b2 00       		.byte	0
 1738 05b3 24       		.uleb128 0x24
 1739 05b4 F2010000 		.4byte	.LVL66
 1740 05b8 C9050000 		.4byte	0x5c9
 1741 05bc 21       		.uleb128 0x21
 1742 05bd 01       		.byte	0x1
 1743 05be 51       		.byte	0x51
 1744 05bf 02       		.byte	0x2
 1745 05c0 78       		.byte	0x78
 1746 05c1 00       		.sleb128 0
 1747 05c2 21       		.uleb128 0x21
 1748 05c3 01       		.byte	0x1
 1749 05c4 50       		.byte	0x50
 1750 05c5 02       		.byte	0x2
 1751 05c6 76       		.byte	0x76
 1752 05c7 00       		.sleb128 0
 1753 05c8 00       		.byte	0
 1754 05c9 24       		.uleb128 0x24
 1755 05ca 08020000 		.4byte	.LVL67
 1756 05ce DF050000 		.4byte	0x5df
 1757 05d2 21       		.uleb128 0x21
 1758 05d3 01       		.byte	0x1
 1759 05d4 51       		.byte	0x51
 1760 05d5 02       		.byte	0x2
 1761 05d6 78       		.byte	0x78
 1762 05d7 00       		.sleb128 0
 1763 05d8 21       		.uleb128 0x21
 1764 05d9 01       		.byte	0x1
ARM GAS  C:\Users\Mohamad\AppData\Local\Temp\ccbxBJoL.s 			page 32


 1765 05da 50       		.byte	0x50
 1766 05db 02       		.byte	0x2
 1767 05dc 76       		.byte	0x76
 1768 05dd 00       		.sleb128 0
 1769 05de 00       		.byte	0
 1770 05df 24       		.uleb128 0x24
 1771 05e0 18020000 		.4byte	.LVL68
 1772 05e4 F5050000 		.4byte	0x5f5
 1773 05e8 21       		.uleb128 0x21
 1774 05e9 01       		.byte	0x1
 1775 05ea 51       		.byte	0x51
 1776 05eb 02       		.byte	0x2
 1777 05ec 78       		.byte	0x78
 1778 05ed 00       		.sleb128 0
 1779 05ee 21       		.uleb128 0x21
 1780 05ef 01       		.byte	0x1
 1781 05f0 50       		.byte	0x50
 1782 05f1 02       		.byte	0x2
 1783 05f2 76       		.byte	0x76
 1784 05f3 00       		.sleb128 0
 1785 05f4 00       		.byte	0
 1786 05f5 24       		.uleb128 0x24
 1787 05f6 24020000 		.4byte	.LVL69
 1788 05fa 0B060000 		.4byte	0x60b
 1789 05fe 21       		.uleb128 0x21
 1790 05ff 01       		.byte	0x1
 1791 0600 51       		.byte	0x51
 1792 0601 02       		.byte	0x2
 1793 0602 78       		.byte	0x78
 1794 0603 00       		.sleb128 0
 1795 0604 21       		.uleb128 0x21
 1796 0605 01       		.byte	0x1
 1797 0606 50       		.byte	0x50
 1798 0607 02       		.byte	0x2
 1799 0608 76       		.byte	0x76
 1800 0609 00       		.sleb128 0
 1801 060a 00       		.byte	0
 1802 060b 24       		.uleb128 0x24
 1803 060c 20030000 		.4byte	.LVL107
 1804 0610 21060000 		.4byte	0x621
 1805 0614 21       		.uleb128 0x21
 1806 0615 01       		.byte	0x1
 1807 0616 51       		.byte	0x51
 1808 0617 02       		.byte	0x2
 1809 0618 78       		.byte	0x78
 1810 0619 00       		.sleb128 0
 1811 061a 21       		.uleb128 0x21
 1812 061b 01       		.byte	0x1
 1813 061c 50       		.byte	0x50
 1814 061d 02       		.byte	0x2
 1815 061e 76       		.byte	0x76
 1816 061f 00       		.sleb128 0
 1817 0620 00       		.byte	0
 1818 0621 24       		.uleb128 0x24
 1819 0622 3A030000 		.4byte	.LVL111
 1820 0626 37060000 		.4byte	0x637
 1821 062a 21       		.uleb128 0x21
ARM GAS  C:\Users\Mohamad\AppData\Local\Temp\ccbxBJoL.s 			page 33


 1822 062b 01       		.byte	0x1
 1823 062c 51       		.byte	0x51
 1824 062d 02       		.byte	0x2
 1825 062e 78       		.byte	0x78
 1826 062f 00       		.sleb128 0
 1827 0630 21       		.uleb128 0x21
 1828 0631 01       		.byte	0x1
 1829 0632 50       		.byte	0x50
 1830 0633 02       		.byte	0x2
 1831 0634 76       		.byte	0x76
 1832 0635 00       		.sleb128 0
 1833 0636 00       		.byte	0
 1834 0637 24       		.uleb128 0x24
 1835 0638 4A030000 		.4byte	.LVL114
 1836 063c 4D060000 		.4byte	0x64d
 1837 0640 21       		.uleb128 0x21
 1838 0641 01       		.byte	0x1
 1839 0642 51       		.byte	0x51
 1840 0643 02       		.byte	0x2
 1841 0644 78       		.byte	0x78
 1842 0645 00       		.sleb128 0
 1843 0646 21       		.uleb128 0x21
 1844 0647 01       		.byte	0x1
 1845 0648 50       		.byte	0x50
 1846 0649 02       		.byte	0x2
 1847 064a 76       		.byte	0x76
 1848 064b 00       		.sleb128 0
 1849 064c 00       		.byte	0
 1850 064d 24       		.uleb128 0x24
 1851 064e 56030000 		.4byte	.LVL116
 1852 0652 63060000 		.4byte	0x663
 1853 0656 21       		.uleb128 0x21
 1854 0657 01       		.byte	0x1
 1855 0658 51       		.byte	0x51
 1856 0659 02       		.byte	0x2
 1857 065a 78       		.byte	0x78
 1858 065b 00       		.sleb128 0
 1859 065c 21       		.uleb128 0x21
 1860 065d 01       		.byte	0x1
 1861 065e 50       		.byte	0x50
 1862 065f 02       		.byte	0x2
 1863 0660 76       		.byte	0x76
 1864 0661 00       		.sleb128 0
 1865 0662 00       		.byte	0
 1866 0663 25       		.uleb128 0x25
 1867 0664 04040000 		.4byte	.LVL147
 1868 0668 21       		.uleb128 0x21
 1869 0669 01       		.byte	0x1
 1870 066a 50       		.byte	0x50
 1871 066b 02       		.byte	0x2
 1872 066c 76       		.byte	0x76
 1873 066d 00       		.sleb128 0
 1874 066e 00       		.byte	0
 1875 066f 00       		.byte	0
 1876 0670 06       		.uleb128 0x6
 1877 0671 04       		.byte	0x4
 1878 0672 BF010000 		.4byte	0x1bf
ARM GAS  C:\Users\Mohamad\AppData\Local\Temp\ccbxBJoL.s 			page 34


 1879 0676 26       		.uleb128 0x26
 1880 0677 CF000000 		.4byte	0xcf
 1881 067b 86060000 		.4byte	0x686
 1882 067f 27       		.uleb128 0x27
 1883 0680 BD000000 		.4byte	0xbd
 1884 0684 16       		.byte	0x16
 1885 0685 00       		.byte	0
 1886 0686 28       		.uleb128 0x28
 1887 0687 01       		.byte	0x1
 1888 0688 5C000000 		.4byte	.LASF48
 1889 068c 01       		.byte	0x1
 1890 068d 2001     		.2byte	0x120
 1891 068f 01       		.byte	0x1
 1892 0690 30000000 		.4byte	0x30
 1893 0694 00000000 		.4byte	.LFB12
 1894 0698 3E000000 		.4byte	.LFE12
 1895 069c A2090000 		.4byte	.LLST31
 1896 06a0 01       		.byte	0x1
 1897 06a1 59070000 		.4byte	0x759
 1898 06a5 29       		.uleb128 0x29
 1899 06a6 73747200 		.ascii	"str\000"
 1900 06aa 01       		.byte	0x1
 1901 06ab 2001     		.2byte	0x120
 1902 06ad 31030000 		.4byte	0x331
 1903 06b1 DA090000 		.4byte	.LLST32
 1904 06b5 2A       		.uleb128 0x2a
 1905 06b6 CC000000 		.4byte	.LASF28
 1906 06ba 01       		.byte	0x1
 1907 06bb 2001     		.2byte	0x120
 1908 06bd 3E000000 		.4byte	0x3e
 1909 06c1 F8090000 		.4byte	.LLST33
 1910 06c5 2B       		.uleb128 0x2b
 1911 06c6 666D7400 		.ascii	"fmt\000"
 1912 06ca 01       		.byte	0x1
 1913 06cb 2001     		.2byte	0x120
 1914 06cd C4000000 		.4byte	0xc4
 1915 06d1 02       		.byte	0x2
 1916 06d2 91       		.byte	0x91
 1917 06d3 78       		.sleb128 -8
 1918 06d4 2C       		.uleb128 0x2c
 1919 06d5 2D       		.uleb128 0x2d
 1920 06d6 617000   		.ascii	"ap\000"
 1921 06d9 01       		.byte	0x1
 1922 06da 2101     		.2byte	0x121
 1923 06dc EF010000 		.4byte	0x1ef
 1924 06e0 02       		.byte	0x2
 1925 06e1 91       		.byte	0x91
 1926 06e2 50       		.sleb128 -48
 1927 06e3 2D       		.uleb128 0x2d
 1928 06e4 6D7300   		.ascii	"ms\000"
 1929 06e7 01       		.byte	0x1
 1930 06e8 2201     		.2byte	0x122
 1931 06ea 99020000 		.4byte	0x299
 1932 06ee 02       		.byte	0x2
 1933 06ef 91       		.byte	0x91
 1934 06f0 54       		.sleb128 -44
 1935 06f1 2E       		.uleb128 0x2e
ARM GAS  C:\Users\Mohamad\AppData\Local\Temp\ccbxBJoL.s 			page 35


 1936 06f2 63687000 		.ascii	"chp\000"
 1937 06f6 01       		.byte	0x1
 1938 06f7 2301     		.2byte	0x123
 1939 06f9 70060000 		.4byte	0x670
 1940 06fd 240A0000 		.4byte	.LLST34
 1941 0701 20       		.uleb128 0x20
 1942 0702 1A000000 		.4byte	.LVL161
 1943 0706 59070000 		.4byte	0x759
 1944 070a 27070000 		.4byte	0x727
 1945 070e 21       		.uleb128 0x21
 1946 070f 01       		.byte	0x1
 1947 0710 53       		.byte	0x53
 1948 0711 01       		.byte	0x1
 1949 0712 30       		.byte	0x30
 1950 0713 21       		.uleb128 0x21
 1951 0714 01       		.byte	0x1
 1952 0715 52       		.byte	0x52
 1953 0716 03       		.byte	0x3
 1954 0717 F3       		.byte	0xf3
 1955 0718 01       		.uleb128 0x1
 1956 0719 51       		.byte	0x51
 1957 071a 21       		.uleb128 0x21
 1958 071b 01       		.byte	0x1
 1959 071c 51       		.byte	0x51
 1960 071d 02       		.byte	0x2
 1961 071e 76       		.byte	0x76
 1962 071f 00       		.sleb128 0
 1963 0720 21       		.uleb128 0x21
 1964 0721 01       		.byte	0x1
 1965 0722 50       		.byte	0x50
 1966 0723 02       		.byte	0x2
 1967 0724 91       		.byte	0x91
 1968 0725 44       		.sleb128 -60
 1969 0726 00       		.byte	0
 1970 0727 20       		.uleb128 0x20
 1971 0728 26000000 		.4byte	.LVL163
 1972 072c A2030000 		.4byte	0x3a2
 1973 0730 47070000 		.4byte	0x747
 1974 0734 21       		.uleb128 0x21
 1975 0735 01       		.byte	0x1
 1976 0736 52       		.byte	0x52
 1977 0737 02       		.byte	0x2
 1978 0738 74       		.byte	0x74
 1979 0739 00       		.sleb128 0
 1980 073a 21       		.uleb128 0x21
 1981 073b 01       		.byte	0x1
 1982 073c 51       		.byte	0x51
 1983 073d 02       		.byte	0x2
 1984 073e 75       		.byte	0x75
 1985 073f 00       		.sleb128 0
 1986 0740 21       		.uleb128 0x21
 1987 0741 01       		.byte	0x1
 1988 0742 50       		.byte	0x50
 1989 0743 02       		.byte	0x2
 1990 0744 91       		.byte	0x91
 1991 0745 44       		.sleb128 -60
 1992 0746 00       		.byte	0
ARM GAS  C:\Users\Mohamad\AppData\Local\Temp\ccbxBJoL.s 			page 36


 1993 0747 25       		.uleb128 0x25
 1994 0748 30000000 		.4byte	.LVL165
 1995 074c 21       		.uleb128 0x21
 1996 074d 01       		.byte	0x1
 1997 074e 51       		.byte	0x51
 1998 074f 01       		.byte	0x1
 1999 0750 30       		.byte	0x30
 2000 0751 21       		.uleb128 0x21
 2001 0752 01       		.byte	0x1
 2002 0753 50       		.byte	0x50
 2003 0754 02       		.byte	0x2
 2004 0755 91       		.byte	0x91
 2005 0756 44       		.sleb128 -60
 2006 0757 00       		.byte	0
 2007 0758 00       		.byte	0
 2008 0759 2F       		.uleb128 0x2f
 2009 075a 01       		.byte	0x1
 2010 075b EF000000 		.4byte	.LASF49
 2011 075f 08       		.byte	0x8
 2012 0760 57       		.byte	0x57
 2013 0761 01       		.byte	0x1
 2014 0762 01       		.byte	0x1
 2015 0763 7C070000 		.4byte	0x77c
 2016 0767 09       		.uleb128 0x9
 2017 0768 7C070000 		.4byte	0x77c
 2018 076c 09       		.uleb128 0x9
 2019 076d EC000000 		.4byte	0xec
 2020 0771 09       		.uleb128 0x9
 2021 0772 3E000000 		.4byte	0x3e
 2022 0776 09       		.uleb128 0x9
 2023 0777 3E000000 		.4byte	0x3e
 2024 077b 00       		.byte	0
 2025 077c 06       		.uleb128 0x6
 2026 077d 04       		.byte	0x4
 2027 077e 99020000 		.4byte	0x299
 2028 0782 00       		.byte	0
 2029              		.section	.debug_abbrev,"",%progbits
 2030              	.Ldebug_abbrev0:
 2031 0000 01       		.uleb128 0x1
 2032 0001 11       		.uleb128 0x11
 2033 0002 01       		.byte	0x1
 2034 0003 25       		.uleb128 0x25
 2035 0004 0E       		.uleb128 0xe
 2036 0005 13       		.uleb128 0x13
 2037 0006 0B       		.uleb128 0xb
 2038 0007 03       		.uleb128 0x3
 2039 0008 0E       		.uleb128 0xe
 2040 0009 1B       		.uleb128 0x1b
 2041 000a 0E       		.uleb128 0xe
 2042 000b 55       		.uleb128 0x55
 2043 000c 06       		.uleb128 0x6
 2044 000d 11       		.uleb128 0x11
 2045 000e 01       		.uleb128 0x1
 2046 000f 52       		.uleb128 0x52
 2047 0010 01       		.uleb128 0x1
 2048 0011 10       		.uleb128 0x10
 2049 0012 06       		.uleb128 0x6
ARM GAS  C:\Users\Mohamad\AppData\Local\Temp\ccbxBJoL.s 			page 37


 2050 0013 00       		.byte	0
 2051 0014 00       		.byte	0
 2052 0015 02       		.uleb128 0x2
 2053 0016 24       		.uleb128 0x24
 2054 0017 00       		.byte	0
 2055 0018 0B       		.uleb128 0xb
 2056 0019 0B       		.uleb128 0xb
 2057 001a 3E       		.uleb128 0x3e
 2058 001b 0B       		.uleb128 0xb
 2059 001c 03       		.uleb128 0x3
 2060 001d 0E       		.uleb128 0xe
 2061 001e 00       		.byte	0
 2062 001f 00       		.byte	0
 2063 0020 03       		.uleb128 0x3
 2064 0021 24       		.uleb128 0x24
 2065 0022 00       		.byte	0
 2066 0023 0B       		.uleb128 0xb
 2067 0024 0B       		.uleb128 0xb
 2068 0025 3E       		.uleb128 0x3e
 2069 0026 0B       		.uleb128 0xb
 2070 0027 03       		.uleb128 0x3
 2071 0028 08       		.uleb128 0x8
 2072 0029 00       		.byte	0
 2073 002a 00       		.byte	0
 2074 002b 04       		.uleb128 0x4
 2075 002c 16       		.uleb128 0x16
 2076 002d 00       		.byte	0
 2077 002e 03       		.uleb128 0x3
 2078 002f 0E       		.uleb128 0xe
 2079 0030 3A       		.uleb128 0x3a
 2080 0031 0B       		.uleb128 0xb
 2081 0032 3B       		.uleb128 0x3b
 2082 0033 0B       		.uleb128 0xb
 2083 0034 49       		.uleb128 0x49
 2084 0035 13       		.uleb128 0x13
 2085 0036 00       		.byte	0
 2086 0037 00       		.byte	0
 2087 0038 05       		.uleb128 0x5
 2088 0039 0F       		.uleb128 0xf
 2089 003a 00       		.byte	0
 2090 003b 0B       		.uleb128 0xb
 2091 003c 0B       		.uleb128 0xb
 2092 003d 00       		.byte	0
 2093 003e 00       		.byte	0
 2094 003f 06       		.uleb128 0x6
 2095 0040 0F       		.uleb128 0xf
 2096 0041 00       		.byte	0
 2097 0042 0B       		.uleb128 0xb
 2098 0043 0B       		.uleb128 0xb
 2099 0044 49       		.uleb128 0x49
 2100 0045 13       		.uleb128 0x13
 2101 0046 00       		.byte	0
 2102 0047 00       		.byte	0
 2103 0048 07       		.uleb128 0x7
 2104 0049 26       		.uleb128 0x26
 2105 004a 00       		.byte	0
 2106 004b 49       		.uleb128 0x49
ARM GAS  C:\Users\Mohamad\AppData\Local\Temp\ccbxBJoL.s 			page 38


 2107 004c 13       		.uleb128 0x13
 2108 004d 00       		.byte	0
 2109 004e 00       		.byte	0
 2110 004f 08       		.uleb128 0x8
 2111 0050 15       		.uleb128 0x15
 2112 0051 01       		.byte	0x1
 2113 0052 27       		.uleb128 0x27
 2114 0053 0C       		.uleb128 0xc
 2115 0054 49       		.uleb128 0x49
 2116 0055 13       		.uleb128 0x13
 2117 0056 01       		.uleb128 0x1
 2118 0057 13       		.uleb128 0x13
 2119 0058 00       		.byte	0
 2120 0059 00       		.byte	0
 2121 005a 09       		.uleb128 0x9
 2122 005b 05       		.uleb128 0x5
 2123 005c 00       		.byte	0
 2124 005d 49       		.uleb128 0x49
 2125 005e 13       		.uleb128 0x13
 2126 005f 00       		.byte	0
 2127 0060 00       		.byte	0
 2128 0061 0A       		.uleb128 0xa
 2129 0062 13       		.uleb128 0x13
 2130 0063 01       		.byte	0x1
 2131 0064 03       		.uleb128 0x3
 2132 0065 0E       		.uleb128 0xe
 2133 0066 0B       		.uleb128 0xb
 2134 0067 0B       		.uleb128 0xb
 2135 0068 3A       		.uleb128 0x3a
 2136 0069 0B       		.uleb128 0xb
 2137 006a 3B       		.uleb128 0x3b
 2138 006b 0B       		.uleb128 0xb
 2139 006c 01       		.uleb128 0x1
 2140 006d 13       		.uleb128 0x13
 2141 006e 00       		.byte	0
 2142 006f 00       		.byte	0
 2143 0070 0B       		.uleb128 0xb
 2144 0071 0D       		.uleb128 0xd
 2145 0072 00       		.byte	0
 2146 0073 03       		.uleb128 0x3
 2147 0074 0E       		.uleb128 0xe
 2148 0075 3A       		.uleb128 0x3a
 2149 0076 0B       		.uleb128 0xb
 2150 0077 3B       		.uleb128 0x3b
 2151 0078 0B       		.uleb128 0xb
 2152 0079 49       		.uleb128 0x49
 2153 007a 13       		.uleb128 0x13
 2154 007b 38       		.uleb128 0x38
 2155 007c 0A       		.uleb128 0xa
 2156 007d 00       		.byte	0
 2157 007e 00       		.byte	0
 2158 007f 0C       		.uleb128 0xc
 2159 0080 0D       		.uleb128 0xd
 2160 0081 00       		.byte	0
 2161 0082 03       		.uleb128 0x3
 2162 0083 08       		.uleb128 0x8
 2163 0084 3A       		.uleb128 0x3a
ARM GAS  C:\Users\Mohamad\AppData\Local\Temp\ccbxBJoL.s 			page 39


 2164 0085 0B       		.uleb128 0xb
 2165 0086 3B       		.uleb128 0x3b
 2166 0087 0B       		.uleb128 0xb
 2167 0088 49       		.uleb128 0x49
 2168 0089 13       		.uleb128 0x13
 2169 008a 38       		.uleb128 0x38
 2170 008b 0A       		.uleb128 0xa
 2171 008c 00       		.byte	0
 2172 008d 00       		.byte	0
 2173 008e 0D       		.uleb128 0xd
 2174 008f 13       		.uleb128 0x13
 2175 0090 01       		.byte	0x1
 2176 0091 0B       		.uleb128 0xb
 2177 0092 0B       		.uleb128 0xb
 2178 0093 3A       		.uleb128 0x3a
 2179 0094 0B       		.uleb128 0xb
 2180 0095 3B       		.uleb128 0x3b
 2181 0096 0B       		.uleb128 0xb
 2182 0097 01       		.uleb128 0x1
 2183 0098 13       		.uleb128 0x13
 2184 0099 00       		.byte	0
 2185 009a 00       		.byte	0
 2186 009b 0E       		.uleb128 0xe
 2187 009c 0D       		.uleb128 0xd
 2188 009d 00       		.byte	0
 2189 009e 03       		.uleb128 0x3
 2190 009f 0E       		.uleb128 0xe
 2191 00a0 49       		.uleb128 0x49
 2192 00a1 13       		.uleb128 0x13
 2193 00a2 38       		.uleb128 0x38
 2194 00a3 0A       		.uleb128 0xa
 2195 00a4 34       		.uleb128 0x34
 2196 00a5 0C       		.uleb128 0xc
 2197 00a6 00       		.byte	0
 2198 00a7 00       		.byte	0
 2199 00a8 0F       		.uleb128 0xf
 2200 00a9 2E       		.uleb128 0x2e
 2201 00aa 01       		.byte	0x1
 2202 00ab 03       		.uleb128 0x3
 2203 00ac 0E       		.uleb128 0xe
 2204 00ad 3A       		.uleb128 0x3a
 2205 00ae 0B       		.uleb128 0xb
 2206 00af 3B       		.uleb128 0x3b
 2207 00b0 0B       		.uleb128 0xb
 2208 00b1 27       		.uleb128 0x27
 2209 00b2 0C       		.uleb128 0xc
 2210 00b3 49       		.uleb128 0x49
 2211 00b4 13       		.uleb128 0x13
 2212 00b5 11       		.uleb128 0x11
 2213 00b6 01       		.uleb128 0x1
 2214 00b7 12       		.uleb128 0x12
 2215 00b8 01       		.uleb128 0x1
 2216 00b9 40       		.uleb128 0x40
 2217 00ba 06       		.uleb128 0x6
 2218 00bb 9742     		.uleb128 0x2117
 2219 00bd 0C       		.uleb128 0xc
 2220 00be 01       		.uleb128 0x1
ARM GAS  C:\Users\Mohamad\AppData\Local\Temp\ccbxBJoL.s 			page 40


 2221 00bf 13       		.uleb128 0x13
 2222 00c0 00       		.byte	0
 2223 00c1 00       		.byte	0
 2224 00c2 10       		.uleb128 0x10
 2225 00c3 05       		.uleb128 0x5
 2226 00c4 00       		.byte	0
 2227 00c5 03       		.uleb128 0x3
 2228 00c6 08       		.uleb128 0x8
 2229 00c7 3A       		.uleb128 0x3a
 2230 00c8 0B       		.uleb128 0xb
 2231 00c9 3B       		.uleb128 0x3b
 2232 00ca 0B       		.uleb128 0xb
 2233 00cb 49       		.uleb128 0x49
 2234 00cc 13       		.uleb128 0x13
 2235 00cd 02       		.uleb128 0x2
 2236 00ce 06       		.uleb128 0x6
 2237 00cf 00       		.byte	0
 2238 00d0 00       		.byte	0
 2239 00d1 11       		.uleb128 0x11
 2240 00d2 05       		.uleb128 0x5
 2241 00d3 00       		.byte	0
 2242 00d4 03       		.uleb128 0x3
 2243 00d5 0E       		.uleb128 0xe
 2244 00d6 3A       		.uleb128 0x3a
 2245 00d7 0B       		.uleb128 0xb
 2246 00d8 3B       		.uleb128 0x3b
 2247 00d9 0B       		.uleb128 0xb
 2248 00da 49       		.uleb128 0x49
 2249 00db 13       		.uleb128 0x13
 2250 00dc 02       		.uleb128 0x2
 2251 00dd 06       		.uleb128 0x6
 2252 00de 00       		.byte	0
 2253 00df 00       		.byte	0
 2254 00e0 12       		.uleb128 0x12
 2255 00e1 34       		.uleb128 0x34
 2256 00e2 00       		.byte	0
 2257 00e3 03       		.uleb128 0x3
 2258 00e4 08       		.uleb128 0x8
 2259 00e5 3A       		.uleb128 0x3a
 2260 00e6 0B       		.uleb128 0xb
 2261 00e7 3B       		.uleb128 0x3b
 2262 00e8 0B       		.uleb128 0xb
 2263 00e9 49       		.uleb128 0x49
 2264 00ea 13       		.uleb128 0x13
 2265 00eb 02       		.uleb128 0x2
 2266 00ec 06       		.uleb128 0x6
 2267 00ed 00       		.byte	0
 2268 00ee 00       		.byte	0
 2269 00ef 13       		.uleb128 0x13
 2270 00f0 2E       		.uleb128 0x2e
 2271 00f1 01       		.byte	0x1
 2272 00f2 03       		.uleb128 0x3
 2273 00f3 0E       		.uleb128 0xe
 2274 00f4 3A       		.uleb128 0x3a
 2275 00f5 0B       		.uleb128 0xb
 2276 00f6 3B       		.uleb128 0x3b
 2277 00f7 0B       		.uleb128 0xb
ARM GAS  C:\Users\Mohamad\AppData\Local\Temp\ccbxBJoL.s 			page 41


 2278 00f8 27       		.uleb128 0x27
 2279 00f9 0C       		.uleb128 0xc
 2280 00fa 49       		.uleb128 0x49
 2281 00fb 13       		.uleb128 0x13
 2282 00fc 20       		.uleb128 0x20
 2283 00fd 0B       		.uleb128 0xb
 2284 00fe 01       		.uleb128 0x1
 2285 00ff 13       		.uleb128 0x13
 2286 0100 00       		.byte	0
 2287 0101 00       		.byte	0
 2288 0102 14       		.uleb128 0x14
 2289 0103 05       		.uleb128 0x5
 2290 0104 00       		.byte	0
 2291 0105 03       		.uleb128 0x3
 2292 0106 08       		.uleb128 0x8
 2293 0107 3A       		.uleb128 0x3a
 2294 0108 0B       		.uleb128 0xb
 2295 0109 3B       		.uleb128 0x3b
 2296 010a 0B       		.uleb128 0xb
 2297 010b 49       		.uleb128 0x49
 2298 010c 13       		.uleb128 0x13
 2299 010d 00       		.byte	0
 2300 010e 00       		.byte	0
 2301 010f 15       		.uleb128 0x15
 2302 0110 05       		.uleb128 0x5
 2303 0111 00       		.byte	0
 2304 0112 03       		.uleb128 0x3
 2305 0113 0E       		.uleb128 0xe
 2306 0114 3A       		.uleb128 0x3a
 2307 0115 0B       		.uleb128 0xb
 2308 0116 3B       		.uleb128 0x3b
 2309 0117 0B       		.uleb128 0xb
 2310 0118 49       		.uleb128 0x49
 2311 0119 13       		.uleb128 0x13
 2312 011a 00       		.byte	0
 2313 011b 00       		.byte	0
 2314 011c 16       		.uleb128 0x16
 2315 011d 34       		.uleb128 0x34
 2316 011e 00       		.byte	0
 2317 011f 03       		.uleb128 0x3
 2318 0120 08       		.uleb128 0x8
 2319 0121 3A       		.uleb128 0x3a
 2320 0122 0B       		.uleb128 0xb
 2321 0123 3B       		.uleb128 0x3b
 2322 0124 0B       		.uleb128 0xb
 2323 0125 49       		.uleb128 0x49
 2324 0126 13       		.uleb128 0x13
 2325 0127 00       		.byte	0
 2326 0128 00       		.byte	0
 2327 0129 17       		.uleb128 0x17
 2328 012a 34       		.uleb128 0x34
 2329 012b 00       		.byte	0
 2330 012c 03       		.uleb128 0x3
 2331 012d 0E       		.uleb128 0xe
 2332 012e 3A       		.uleb128 0x3a
 2333 012f 0B       		.uleb128 0xb
 2334 0130 3B       		.uleb128 0x3b
ARM GAS  C:\Users\Mohamad\AppData\Local\Temp\ccbxBJoL.s 			page 42


 2335 0131 0B       		.uleb128 0xb
 2336 0132 49       		.uleb128 0x49
 2337 0133 13       		.uleb128 0x13
 2338 0134 00       		.byte	0
 2339 0135 00       		.byte	0
 2340 0136 18       		.uleb128 0x18
 2341 0137 2E       		.uleb128 0x2e
 2342 0138 01       		.byte	0x1
 2343 0139 3F       		.uleb128 0x3f
 2344 013a 0C       		.uleb128 0xc
 2345 013b 03       		.uleb128 0x3
 2346 013c 0E       		.uleb128 0xe
 2347 013d 3A       		.uleb128 0x3a
 2348 013e 0B       		.uleb128 0xb
 2349 013f 3B       		.uleb128 0x3b
 2350 0140 0B       		.uleb128 0xb
 2351 0141 27       		.uleb128 0x27
 2352 0142 0C       		.uleb128 0xc
 2353 0143 11       		.uleb128 0x11
 2354 0144 01       		.uleb128 0x1
 2355 0145 12       		.uleb128 0x12
 2356 0146 01       		.uleb128 0x1
 2357 0147 40       		.uleb128 0x40
 2358 0148 06       		.uleb128 0x6
 2359 0149 9642     		.uleb128 0x2116
 2360 014b 0C       		.uleb128 0xc
 2361 014c 01       		.uleb128 0x1
 2362 014d 13       		.uleb128 0x13
 2363 014e 00       		.byte	0
 2364 014f 00       		.byte	0
 2365 0150 19       		.uleb128 0x19
 2366 0151 34       		.uleb128 0x34
 2367 0152 00       		.byte	0
 2368 0153 03       		.uleb128 0x3
 2369 0154 0E       		.uleb128 0xe
 2370 0155 3A       		.uleb128 0x3a
 2371 0156 0B       		.uleb128 0xb
 2372 0157 3B       		.uleb128 0x3b
 2373 0158 0B       		.uleb128 0xb
 2374 0159 49       		.uleb128 0x49
 2375 015a 13       		.uleb128 0x13
 2376 015b 02       		.uleb128 0x2
 2377 015c 06       		.uleb128 0x6
 2378 015d 00       		.byte	0
 2379 015e 00       		.byte	0
 2380 015f 1A       		.uleb128 0x1a
 2381 0160 34       		.uleb128 0x34
 2382 0161 00       		.byte	0
 2383 0162 03       		.uleb128 0x3
 2384 0163 0E       		.uleb128 0xe
 2385 0164 3A       		.uleb128 0x3a
 2386 0165 0B       		.uleb128 0xb
 2387 0166 3B       		.uleb128 0x3b
 2388 0167 0B       		.uleb128 0xb
 2389 0168 49       		.uleb128 0x49
 2390 0169 13       		.uleb128 0x13
 2391 016a 02       		.uleb128 0x2
ARM GAS  C:\Users\Mohamad\AppData\Local\Temp\ccbxBJoL.s 			page 43


 2392 016b 0A       		.uleb128 0xa
 2393 016c 00       		.byte	0
 2394 016d 00       		.byte	0
 2395 016e 1B       		.uleb128 0x1b
 2396 016f 0A       		.uleb128 0xa
 2397 0170 00       		.byte	0
 2398 0171 03       		.uleb128 0x3
 2399 0172 0E       		.uleb128 0xe
 2400 0173 3A       		.uleb128 0x3a
 2401 0174 0B       		.uleb128 0xb
 2402 0175 3B       		.uleb128 0x3b
 2403 0176 0B       		.uleb128 0xb
 2404 0177 11       		.uleb128 0x11
 2405 0178 01       		.uleb128 0x1
 2406 0179 00       		.byte	0
 2407 017a 00       		.byte	0
 2408 017b 1C       		.uleb128 0x1c
 2409 017c 1D       		.uleb128 0x1d
 2410 017d 01       		.byte	0x1
 2411 017e 31       		.uleb128 0x31
 2412 017f 13       		.uleb128 0x13
 2413 0180 52       		.uleb128 0x52
 2414 0181 01       		.uleb128 0x1
 2415 0182 55       		.uleb128 0x55
 2416 0183 06       		.uleb128 0x6
 2417 0184 58       		.uleb128 0x58
 2418 0185 0B       		.uleb128 0xb
 2419 0186 59       		.uleb128 0x59
 2420 0187 0B       		.uleb128 0xb
 2421 0188 01       		.uleb128 0x1
 2422 0189 13       		.uleb128 0x13
 2423 018a 00       		.byte	0
 2424 018b 00       		.byte	0
 2425 018c 1D       		.uleb128 0x1d
 2426 018d 05       		.uleb128 0x5
 2427 018e 00       		.byte	0
 2428 018f 31       		.uleb128 0x31
 2429 0190 13       		.uleb128 0x13
 2430 0191 02       		.uleb128 0x2
 2431 0192 06       		.uleb128 0x6
 2432 0193 00       		.byte	0
 2433 0194 00       		.byte	0
 2434 0195 1E       		.uleb128 0x1e
 2435 0196 0B       		.uleb128 0xb
 2436 0197 01       		.byte	0x1
 2437 0198 55       		.uleb128 0x55
 2438 0199 06       		.uleb128 0x6
 2439 019a 00       		.byte	0
 2440 019b 00       		.byte	0
 2441 019c 1F       		.uleb128 0x1f
 2442 019d 34       		.uleb128 0x34
 2443 019e 00       		.byte	0
 2444 019f 31       		.uleb128 0x31
 2445 01a0 13       		.uleb128 0x13
 2446 01a1 02       		.uleb128 0x2
 2447 01a2 06       		.uleb128 0x6
 2448 01a3 00       		.byte	0
ARM GAS  C:\Users\Mohamad\AppData\Local\Temp\ccbxBJoL.s 			page 44


 2449 01a4 00       		.byte	0
 2450 01a5 20       		.uleb128 0x20
 2451 01a6 898201   		.uleb128 0x4109
 2452 01a9 01       		.byte	0x1
 2453 01aa 11       		.uleb128 0x11
 2454 01ab 01       		.uleb128 0x1
 2455 01ac 31       		.uleb128 0x31
 2456 01ad 13       		.uleb128 0x13
 2457 01ae 01       		.uleb128 0x1
 2458 01af 13       		.uleb128 0x13
 2459 01b0 00       		.byte	0
 2460 01b1 00       		.byte	0
 2461 01b2 21       		.uleb128 0x21
 2462 01b3 8A8201   		.uleb128 0x410a
 2463 01b6 00       		.byte	0
 2464 01b7 02       		.uleb128 0x2
 2465 01b8 0A       		.uleb128 0xa
 2466 01b9 9142     		.uleb128 0x2111
 2467 01bb 0A       		.uleb128 0xa
 2468 01bc 00       		.byte	0
 2469 01bd 00       		.byte	0
 2470 01be 22       		.uleb128 0x22
 2471 01bf 898201   		.uleb128 0x4109
 2472 01c2 01       		.byte	0x1
 2473 01c3 11       		.uleb128 0x11
 2474 01c4 01       		.uleb128 0x1
 2475 01c5 31       		.uleb128 0x31
 2476 01c6 13       		.uleb128 0x13
 2477 01c7 00       		.byte	0
 2478 01c8 00       		.byte	0
 2479 01c9 23       		.uleb128 0x23
 2480 01ca 05       		.uleb128 0x5
 2481 01cb 00       		.byte	0
 2482 01cc 31       		.uleb128 0x31
 2483 01cd 13       		.uleb128 0x13
 2484 01ce 00       		.byte	0
 2485 01cf 00       		.byte	0
 2486 01d0 24       		.uleb128 0x24
 2487 01d1 898201   		.uleb128 0x4109
 2488 01d4 01       		.byte	0x1
 2489 01d5 11       		.uleb128 0x11
 2490 01d6 01       		.uleb128 0x1
 2491 01d7 01       		.uleb128 0x1
 2492 01d8 13       		.uleb128 0x13
 2493 01d9 00       		.byte	0
 2494 01da 00       		.byte	0
 2495 01db 25       		.uleb128 0x25
 2496 01dc 898201   		.uleb128 0x4109
 2497 01df 01       		.byte	0x1
 2498 01e0 11       		.uleb128 0x11
 2499 01e1 01       		.uleb128 0x1
 2500 01e2 00       		.byte	0
 2501 01e3 00       		.byte	0
 2502 01e4 26       		.uleb128 0x26
 2503 01e5 01       		.uleb128 0x1
 2504 01e6 01       		.byte	0x1
 2505 01e7 49       		.uleb128 0x49
ARM GAS  C:\Users\Mohamad\AppData\Local\Temp\ccbxBJoL.s 			page 45


 2506 01e8 13       		.uleb128 0x13
 2507 01e9 01       		.uleb128 0x1
 2508 01ea 13       		.uleb128 0x13
 2509 01eb 00       		.byte	0
 2510 01ec 00       		.byte	0
 2511 01ed 27       		.uleb128 0x27
 2512 01ee 21       		.uleb128 0x21
 2513 01ef 00       		.byte	0
 2514 01f0 49       		.uleb128 0x49
 2515 01f1 13       		.uleb128 0x13
 2516 01f2 2F       		.uleb128 0x2f
 2517 01f3 0B       		.uleb128 0xb
 2518 01f4 00       		.byte	0
 2519 01f5 00       		.byte	0
 2520 01f6 28       		.uleb128 0x28
 2521 01f7 2E       		.uleb128 0x2e
 2522 01f8 01       		.byte	0x1
 2523 01f9 3F       		.uleb128 0x3f
 2524 01fa 0C       		.uleb128 0xc
 2525 01fb 03       		.uleb128 0x3
 2526 01fc 0E       		.uleb128 0xe
 2527 01fd 3A       		.uleb128 0x3a
 2528 01fe 0B       		.uleb128 0xb
 2529 01ff 3B       		.uleb128 0x3b
 2530 0200 05       		.uleb128 0x5
 2531 0201 27       		.uleb128 0x27
 2532 0202 0C       		.uleb128 0xc
 2533 0203 49       		.uleb128 0x49
 2534 0204 13       		.uleb128 0x13
 2535 0205 11       		.uleb128 0x11
 2536 0206 01       		.uleb128 0x1
 2537 0207 12       		.uleb128 0x12
 2538 0208 01       		.uleb128 0x1
 2539 0209 40       		.uleb128 0x40
 2540 020a 06       		.uleb128 0x6
 2541 020b 9742     		.uleb128 0x2117
 2542 020d 0C       		.uleb128 0xc
 2543 020e 01       		.uleb128 0x1
 2544 020f 13       		.uleb128 0x13
 2545 0210 00       		.byte	0
 2546 0211 00       		.byte	0
 2547 0212 29       		.uleb128 0x29
 2548 0213 05       		.uleb128 0x5
 2549 0214 00       		.byte	0
 2550 0215 03       		.uleb128 0x3
 2551 0216 08       		.uleb128 0x8
 2552 0217 3A       		.uleb128 0x3a
 2553 0218 0B       		.uleb128 0xb
 2554 0219 3B       		.uleb128 0x3b
 2555 021a 05       		.uleb128 0x5
 2556 021b 49       		.uleb128 0x49
 2557 021c 13       		.uleb128 0x13
 2558 021d 02       		.uleb128 0x2
 2559 021e 06       		.uleb128 0x6
 2560 021f 00       		.byte	0
 2561 0220 00       		.byte	0
 2562 0221 2A       		.uleb128 0x2a
ARM GAS  C:\Users\Mohamad\AppData\Local\Temp\ccbxBJoL.s 			page 46


 2563 0222 05       		.uleb128 0x5
 2564 0223 00       		.byte	0
 2565 0224 03       		.uleb128 0x3
 2566 0225 0E       		.uleb128 0xe
 2567 0226 3A       		.uleb128 0x3a
 2568 0227 0B       		.uleb128 0xb
 2569 0228 3B       		.uleb128 0x3b
 2570 0229 05       		.uleb128 0x5
 2571 022a 49       		.uleb128 0x49
 2572 022b 13       		.uleb128 0x13
 2573 022c 02       		.uleb128 0x2
 2574 022d 06       		.uleb128 0x6
 2575 022e 00       		.byte	0
 2576 022f 00       		.byte	0
 2577 0230 2B       		.uleb128 0x2b
 2578 0231 05       		.uleb128 0x5
 2579 0232 00       		.byte	0
 2580 0233 03       		.uleb128 0x3
 2581 0234 08       		.uleb128 0x8
 2582 0235 3A       		.uleb128 0x3a
 2583 0236 0B       		.uleb128 0xb
 2584 0237 3B       		.uleb128 0x3b
 2585 0238 05       		.uleb128 0x5
 2586 0239 49       		.uleb128 0x49
 2587 023a 13       		.uleb128 0x13
 2588 023b 02       		.uleb128 0x2
 2589 023c 0A       		.uleb128 0xa
 2590 023d 00       		.byte	0
 2591 023e 00       		.byte	0
 2592 023f 2C       		.uleb128 0x2c
 2593 0240 18       		.uleb128 0x18
 2594 0241 00       		.byte	0
 2595 0242 00       		.byte	0
 2596 0243 00       		.byte	0
 2597 0244 2D       		.uleb128 0x2d
 2598 0245 34       		.uleb128 0x34
 2599 0246 00       		.byte	0
 2600 0247 03       		.uleb128 0x3
 2601 0248 08       		.uleb128 0x8
 2602 0249 3A       		.uleb128 0x3a
 2603 024a 0B       		.uleb128 0xb
 2604 024b 3B       		.uleb128 0x3b
 2605 024c 05       		.uleb128 0x5
 2606 024d 49       		.uleb128 0x49
 2607 024e 13       		.uleb128 0x13
 2608 024f 02       		.uleb128 0x2
 2609 0250 0A       		.uleb128 0xa
 2610 0251 00       		.byte	0
 2611 0252 00       		.byte	0
 2612 0253 2E       		.uleb128 0x2e
 2613 0254 34       		.uleb128 0x34
 2614 0255 00       		.byte	0
 2615 0256 03       		.uleb128 0x3
 2616 0257 08       		.uleb128 0x8
 2617 0258 3A       		.uleb128 0x3a
 2618 0259 0B       		.uleb128 0xb
 2619 025a 3B       		.uleb128 0x3b
ARM GAS  C:\Users\Mohamad\AppData\Local\Temp\ccbxBJoL.s 			page 47


 2620 025b 05       		.uleb128 0x5
 2621 025c 49       		.uleb128 0x49
 2622 025d 13       		.uleb128 0x13
 2623 025e 02       		.uleb128 0x2
 2624 025f 06       		.uleb128 0x6
 2625 0260 00       		.byte	0
 2626 0261 00       		.byte	0
 2627 0262 2F       		.uleb128 0x2f
 2628 0263 2E       		.uleb128 0x2e
 2629 0264 01       		.byte	0x1
 2630 0265 3F       		.uleb128 0x3f
 2631 0266 0C       		.uleb128 0xc
 2632 0267 03       		.uleb128 0x3
 2633 0268 0E       		.uleb128 0xe
 2634 0269 3A       		.uleb128 0x3a
 2635 026a 0B       		.uleb128 0xb
 2636 026b 3B       		.uleb128 0x3b
 2637 026c 0B       		.uleb128 0xb
 2638 026d 27       		.uleb128 0x27
 2639 026e 0C       		.uleb128 0xc
 2640 026f 3C       		.uleb128 0x3c
 2641 0270 0C       		.uleb128 0xc
 2642 0271 01       		.uleb128 0x1
 2643 0272 13       		.uleb128 0x13
 2644 0273 00       		.byte	0
 2645 0274 00       		.byte	0
 2646 0275 00       		.byte	0
 2647              		.section	.debug_loc,"",%progbits
 2648              	.Ldebug_loc0:
 2649              	.LLST0:
 2650 0000 00000000 		.4byte	.LFB8
 2651 0004 02000000 		.4byte	.LCFI0
 2652 0008 0200     		.2byte	0x2
 2653 000a 7D       		.byte	0x7d
 2654 000b 00       		.sleb128 0
 2655 000c 02000000 		.4byte	.LCFI0
 2656 0010 6C000000 		.4byte	.LFE8
 2657 0014 0200     		.2byte	0x2
 2658 0016 7D       		.byte	0x7d
 2659 0017 10       		.sleb128 16
 2660 0018 00000000 		.4byte	0
 2661 001c 00000000 		.4byte	0
 2662              	.LLST1:
 2663 0020 00000000 		.4byte	.LVL0
 2664 0024 12000000 		.4byte	.LVL4
 2665 0028 0100     		.2byte	0x1
 2666 002a 50       		.byte	0x50
 2667 002b 12000000 		.4byte	.LVL4
 2668 002f 56000000 		.4byte	.LVL21
 2669 0033 0100     		.2byte	0x1
 2670 0035 57       		.byte	0x57
 2671 0036 5E000000 		.4byte	.LVL22
 2672 003a 6C000000 		.4byte	.LFE8
 2673 003e 0100     		.2byte	0x1
 2674 0040 57       		.byte	0x57
 2675 0041 00000000 		.4byte	0
 2676 0045 00000000 		.4byte	0
ARM GAS  C:\Users\Mohamad\AppData\Local\Temp\ccbxBJoL.s 			page 48


 2677              	.LLST2:
 2678 0049 00000000 		.4byte	.LVL0
 2679 004d 12000000 		.4byte	.LVL4
 2680 0051 0100     		.2byte	0x1
 2681 0053 51       		.byte	0x51
 2682 0054 12000000 		.4byte	.LVL4
 2683 0058 6C000000 		.4byte	.LFE8
 2684 005c 0400     		.2byte	0x4
 2685 005e F3       		.byte	0xf3
 2686 005f 01       		.uleb128 0x1
 2687 0060 51       		.byte	0x51
 2688 0061 9F       		.byte	0x9f
 2689 0062 00000000 		.4byte	0
 2690 0066 00000000 		.4byte	0
 2691              	.LLST3:
 2692 006a 00000000 		.4byte	.LVL0
 2693 006e 40000000 		.4byte	.LVL16
 2694 0072 0100     		.2byte	0x1
 2695 0074 52       		.byte	0x52
 2696 0075 40000000 		.4byte	.LVL16
 2697 0079 6C000000 		.4byte	.LFE8
 2698 007d 0400     		.2byte	0x4
 2699 007f F3       		.byte	0xf3
 2700 0080 01       		.uleb128 0x1
 2701 0081 52       		.byte	0x52
 2702 0082 9F       		.byte	0x9f
 2703 0083 00000000 		.4byte	0
 2704 0087 00000000 		.4byte	0
 2705              	.LLST4:
 2706 008b 00000000 		.4byte	.LVL0
 2707 008f 08000000 		.4byte	.LVL1
 2708 0093 0100     		.2byte	0x1
 2709 0095 53       		.byte	0x53
 2710 0096 08000000 		.4byte	.LVL1
 2711 009a 6C000000 		.4byte	.LFE8
 2712 009e 0400     		.2byte	0x4
 2713 00a0 F3       		.byte	0xf3
 2714 00a1 01       		.uleb128 0x1
 2715 00a2 53       		.byte	0x53
 2716 00a3 9F       		.byte	0x9f
 2717 00a4 00000000 		.4byte	0
 2718 00a8 00000000 		.4byte	0
 2719              	.LLST5:
 2720 00ac 1A000000 		.4byte	.LVL5
 2721 00b0 1E000000 		.4byte	.LVL6
 2722 00b4 0100     		.2byte	0x1
 2723 00b6 51       		.byte	0x51
 2724 00b7 1E000000 		.4byte	.LVL6
 2725 00bb 28000000 		.4byte	.LVL8
 2726 00bf 0100     		.2byte	0x1
 2727 00c1 54       		.byte	0x54
 2728 00c2 38000000 		.4byte	.LVL13
 2729 00c6 3C000000 		.4byte	.LVL14
 2730 00ca 0600     		.2byte	0x6
 2731 00cc 7C       		.byte	0x7c
 2732 00cd 00       		.sleb128 0
 2733 00ce 70       		.byte	0x70
ARM GAS  C:\Users\Mohamad\AppData\Local\Temp\ccbxBJoL.s 			page 49


 2734 00cf 00       		.sleb128 0
 2735 00d0 1C       		.byte	0x1c
 2736 00d1 9F       		.byte	0x9f
 2737 00d2 3C000000 		.4byte	.LVL14
 2738 00d6 44000000 		.4byte	.LVL18
 2739 00da 0100     		.2byte	0x1
 2740 00dc 53       		.byte	0x53
 2741 00dd 44000000 		.4byte	.LVL18
 2742 00e1 48000000 		.4byte	.LVL19
 2743 00e5 0600     		.2byte	0x6
 2744 00e7 7C       		.byte	0x7c
 2745 00e8 00       		.sleb128 0
 2746 00e9 72       		.byte	0x72
 2747 00ea 00       		.sleb128 0
 2748 00eb 1C       		.byte	0x1c
 2749 00ec 9F       		.byte	0x9f
 2750 00ed 00000000 		.4byte	0
 2751 00f1 00000000 		.4byte	0
 2752              	.LLST6:
 2753 00f5 0E000000 		.4byte	.LVL3
 2754 00f9 12000000 		.4byte	.LVL4
 2755 00fd 0100     		.2byte	0x1
 2756 00ff 5C       		.byte	0x5c
 2757 0100 2E000000 		.4byte	.LVL10
 2758 0104 42000000 		.4byte	.LVL17
 2759 0108 0100     		.2byte	0x1
 2760 010a 50       		.byte	0x50
 2761 010b 42000000 		.4byte	.LVL17
 2762 010f 48000000 		.4byte	.LVL19
 2763 0113 0100     		.2byte	0x1
 2764 0115 52       		.byte	0x52
 2765 0116 00000000 		.4byte	0
 2766 011a 00000000 		.4byte	0
 2767              	.LLST7:
 2768 011e 0A000000 		.4byte	.LVL2
 2769 0122 1A000000 		.4byte	.LVL5
 2770 0126 0100     		.2byte	0x1
 2771 0128 51       		.byte	0x51
 2772 0129 34000000 		.4byte	.LVL12
 2773 012d 3E000000 		.4byte	.LVL15
 2774 0131 0100     		.2byte	0x1
 2775 0133 51       		.byte	0x51
 2776 0134 3E000000 		.4byte	.LVL15
 2777 0138 6C000000 		.4byte	.LFE8
 2778 013c 0100     		.2byte	0x1
 2779 013e 56       		.byte	0x56
 2780 013f 00000000 		.4byte	0
 2781 0143 00000000 		.4byte	0
 2782              	.LLST8:
 2783 0147 0A000000 		.4byte	.LVL2
 2784 014b 2C000000 		.4byte	.LVL9
 2785 014f 0100     		.2byte	0x1
 2786 0151 53       		.byte	0x53
 2787 0152 34000000 		.4byte	.LVL12
 2788 0156 3C000000 		.4byte	.LVL14
 2789 015a 0100     		.2byte	0x1
 2790 015c 53       		.byte	0x53
ARM GAS  C:\Users\Mohamad\AppData\Local\Temp\ccbxBJoL.s 			page 50


 2791 015d 00000000 		.4byte	0
 2792 0161 00000000 		.4byte	0
 2793              	.LLST9:
 2794 0165 00000000 		.4byte	.LFB11
 2795 0169 04000000 		.4byte	.LCFI1
 2796 016d 0200     		.2byte	0x2
 2797 016f 7D       		.byte	0x7d
 2798 0170 00       		.sleb128 0
 2799 0171 04000000 		.4byte	.LCFI1
 2800 0175 06000000 		.4byte	.LCFI2
 2801 0179 0200     		.2byte	0x2
 2802 017b 7D       		.byte	0x7d
 2803 017c 24       		.sleb128 36
 2804 017d 06000000 		.4byte	.LCFI2
 2805 0181 36040000 		.4byte	.LFE11
 2806 0185 0300     		.2byte	0x3
 2807 0187 7D       		.byte	0x7d
 2808 0188 D800     		.sleb128 88
 2809 018a 00000000 		.4byte	0
 2810 018e 00000000 		.4byte	0
 2811              	.LLST10:
 2812 0192 00000000 		.4byte	.LVL23
 2813 0196 26000000 		.4byte	.LVL25
 2814 019a 0100     		.2byte	0x1
 2815 019c 50       		.byte	0x50
 2816 019d 26000000 		.4byte	.LVL25
 2817 01a1 36040000 		.4byte	.LFE11
 2818 01a5 0100     		.2byte	0x1
 2819 01a7 56       		.byte	0x56
 2820 01a8 00000000 		.4byte	0
 2821 01ac 00000000 		.4byte	0
 2822              	.LLST11:
 2823 01b0 00000000 		.4byte	.LVL23
 2824 01b4 26000000 		.4byte	.LVL25
 2825 01b8 0100     		.2byte	0x1
 2826 01ba 51       		.byte	0x51
 2827 01bb 26000000 		.4byte	.LVL25
 2828 01bf 2C000000 		.4byte	.LVL26
 2829 01c3 0100     		.2byte	0x1
 2830 01c5 54       		.byte	0x54
 2831 01c6 2C000000 		.4byte	.LVL26
 2832 01ca 38000000 		.4byte	.LVL28
 2833 01ce 0100     		.2byte	0x1
 2834 01d0 55       		.byte	0x55
 2835 01d1 38000000 		.4byte	.LVL28
 2836 01d5 42000000 		.4byte	.LVL30
 2837 01d9 0100     		.2byte	0x1
 2838 01db 54       		.byte	0x54
 2839 01dc 42000000 		.4byte	.LVL30
 2840 01e0 6C000000 		.4byte	.LVL35
 2841 01e4 0100     		.2byte	0x1
 2842 01e6 55       		.byte	0x55
 2843 01e7 6C000000 		.4byte	.LVL35
 2844 01eb AA030000 		.4byte	.LVL134
 2845 01ef 0100     		.2byte	0x1
 2846 01f1 54       		.byte	0x54
 2847 01f2 AA030000 		.4byte	.LVL134
ARM GAS  C:\Users\Mohamad\AppData\Local\Temp\ccbxBJoL.s 			page 51


 2848 01f6 B2030000 		.4byte	.LVL135
 2849 01fa 0300     		.2byte	0x3
 2850 01fc 75       		.byte	0x75
 2851 01fd 01       		.sleb128 1
 2852 01fe 9F       		.byte	0x9f
 2853 01ff B2030000 		.4byte	.LVL135
 2854 0203 B4030000 		.4byte	.LVL136
 2855 0207 0100     		.2byte	0x1
 2856 0209 55       		.byte	0x55
 2857 020a B4030000 		.4byte	.LVL136
 2858 020e BA030000 		.4byte	.LVL137
 2859 0212 0100     		.2byte	0x1
 2860 0214 54       		.byte	0x54
 2861 0215 BA030000 		.4byte	.LVL137
 2862 0219 C6030000 		.4byte	.LVL141
 2863 021d 0100     		.2byte	0x1
 2864 021f 50       		.byte	0x50
 2865 0220 D4030000 		.4byte	.LVL143
 2866 0224 EC030000 		.4byte	.LVL144
 2867 0228 0100     		.2byte	0x1
 2868 022a 50       		.byte	0x50
 2869 022b EC030000 		.4byte	.LVL144
 2870 022f F6030000 		.4byte	.LVL146
 2871 0233 0100     		.2byte	0x1
 2872 0235 55       		.byte	0x55
 2873 0236 F6030000 		.4byte	.LVL146
 2874 023a 36040000 		.4byte	.LFE11
 2875 023e 0100     		.2byte	0x1
 2876 0240 54       		.byte	0x54
 2877 0241 00000000 		.4byte	0
 2878 0245 00000000 		.4byte	0
 2879              	.LLST12:
 2880 0249 00000000 		.4byte	.LVL23
 2881 024d 12000000 		.4byte	.LVL24
 2882 0251 0100     		.2byte	0x1
 2883 0253 52       		.byte	0x52
 2884 0254 26000000 		.4byte	.LVL25
 2885 0258 6E000000 		.4byte	.LVL36
 2886 025c 0300     		.2byte	0x3
 2887 025e 57       		.byte	0x57
 2888 025f 93       		.byte	0x93
 2889 0260 04       		.uleb128 0x4
 2890 0261 6E000000 		.4byte	.LVL36
 2891 0265 72000000 		.4byte	.LVL38
 2892 0269 0500     		.2byte	0x5
 2893 026b 77       		.byte	0x77
 2894 026c 04       		.sleb128 4
 2895 026d 9F       		.byte	0x9f
 2896 026e 93       		.byte	0x93
 2897 026f 04       		.uleb128 0x4
 2898 0270 72000000 		.4byte	.LVL38
 2899 0274 7C000000 		.4byte	.LVL40
 2900 0278 0300     		.2byte	0x3
 2901 027a 57       		.byte	0x57
 2902 027b 93       		.byte	0x93
 2903 027c 04       		.uleb128 0x4
 2904 027d 7C000000 		.4byte	.LVL40
ARM GAS  C:\Users\Mohamad\AppData\Local\Temp\ccbxBJoL.s 			page 52


 2905 0281 94000000 		.4byte	.LVL43
 2906 0285 0500     		.2byte	0x5
 2907 0287 77       		.byte	0x77
 2908 0288 04       		.sleb128 4
 2909 0289 9F       		.byte	0x9f
 2910 028a 93       		.byte	0x93
 2911 028b 04       		.uleb128 0x4
 2912 028c 94000000 		.4byte	.LVL43
 2913 0290 2E010000 		.4byte	.LVL48
 2914 0294 0300     		.2byte	0x3
 2915 0296 57       		.byte	0x57
 2916 0297 93       		.byte	0x93
 2917 0298 04       		.uleb128 0x4
 2918 0299 2E010000 		.4byte	.LVL48
 2919 029d 54020000 		.4byte	.LVL75
 2920 02a1 0300     		.2byte	0x3
 2921 02a3 57       		.byte	0x57
 2922 02a4 93       		.byte	0x93
 2923 02a5 04       		.uleb128 0x4
 2924 02a6 54020000 		.4byte	.LVL75
 2925 02aa 58020000 		.4byte	.LVL76
 2926 02ae 0500     		.2byte	0x5
 2927 02b0 77       		.byte	0x77
 2928 02b1 79       		.sleb128 -7
 2929 02b2 9F       		.byte	0x9f
 2930 02b3 93       		.byte	0x93
 2931 02b4 04       		.uleb128 0x4
 2932 02b5 64020000 		.4byte	.LVL78
 2933 02b9 DE020000 		.4byte	.LVL97
 2934 02bd 0300     		.2byte	0x3
 2935 02bf 57       		.byte	0x57
 2936 02c0 93       		.byte	0x93
 2937 02c1 04       		.uleb128 0x4
 2938 02c2 DE020000 		.4byte	.LVL97
 2939 02c6 EA020000 		.4byte	.LVL100
 2940 02ca 0500     		.2byte	0x5
 2941 02cc 77       		.byte	0x77
 2942 02cd 04       		.sleb128 4
 2943 02ce 9F       		.byte	0x9f
 2944 02cf 93       		.byte	0x93
 2945 02d0 04       		.uleb128 0x4
 2946 02d1 EA020000 		.4byte	.LVL100
 2947 02d5 64030000 		.4byte	.LVL121
 2948 02d9 0300     		.2byte	0x3
 2949 02db 57       		.byte	0x57
 2950 02dc 93       		.byte	0x93
 2951 02dd 04       		.uleb128 0x4
 2952 02de 64030000 		.4byte	.LVL121
 2953 02e2 84030000 		.4byte	.LVL127
 2954 02e6 0300     		.2byte	0x3
 2955 02e8 57       		.byte	0x57
 2956 02e9 93       		.byte	0x93
 2957 02ea 04       		.uleb128 0x4
 2958 02eb 84030000 		.4byte	.LVL127
 2959 02ef B4030000 		.4byte	.LVL136
 2960 02f3 0300     		.2byte	0x3
 2961 02f5 57       		.byte	0x57
ARM GAS  C:\Users\Mohamad\AppData\Local\Temp\ccbxBJoL.s 			page 53


 2962 02f6 93       		.byte	0x93
 2963 02f7 04       		.uleb128 0x4
 2964 02f8 B4030000 		.4byte	.LVL136
 2965 02fc BE030000 		.4byte	.LVL139
 2966 0300 0500     		.2byte	0x5
 2967 0302 77       		.byte	0x77
 2968 0303 04       		.sleb128 4
 2969 0304 9F       		.byte	0x9f
 2970 0305 93       		.byte	0x93
 2971 0306 04       		.uleb128 0x4
 2972 0307 BE030000 		.4byte	.LVL139
 2973 030b C6030000 		.4byte	.LVL141
 2974 030f 0300     		.2byte	0x3
 2975 0311 57       		.byte	0x57
 2976 0312 93       		.byte	0x93
 2977 0313 04       		.uleb128 0x4
 2978 0314 C6030000 		.4byte	.LVL141
 2979 0318 EC030000 		.4byte	.LVL144
 2980 031c 0500     		.2byte	0x5
 2981 031e 77       		.byte	0x77
 2982 031f 04       		.sleb128 4
 2983 0320 9F       		.byte	0x9f
 2984 0321 93       		.byte	0x93
 2985 0322 04       		.uleb128 0x4
 2986 0323 EC030000 		.4byte	.LVL144
 2987 0327 36040000 		.4byte	.LFE11
 2988 032b 0300     		.2byte	0x3
 2989 032d 57       		.byte	0x57
 2990 032e 93       		.byte	0x93
 2991 032f 04       		.uleb128 0x4
 2992 0330 00000000 		.4byte	0
 2993 0334 00000000 		.4byte	0
 2994              	.LLST13:
 2995 0338 4C000000 		.4byte	.LVL32
 2996 033c 34010000 		.4byte	.LVL49
 2997 0340 0300     		.2byte	0x3
 2998 0342 91       		.byte	0x91
 2999 0343 B07F     		.sleb128 -80
 3000 0345 34010000 		.4byte	.LVL49
 3001 0349 50010000 		.4byte	.LVL50
 3002 034d 0100     		.2byte	0x1
 3003 034f 5A       		.byte	0x5a
 3004 0350 50010000 		.4byte	.LVL50
 3005 0354 70010000 		.4byte	.LVL52
 3006 0358 0100     		.2byte	0x1
 3007 035a 5B       		.byte	0x5b
 3008 035b 2A020000 		.4byte	.LVL70
 3009 035f 32020000 		.4byte	.LVL71
 3010 0363 0100     		.2byte	0x1
 3011 0365 52       		.byte	0x52
 3012 0366 32020000 		.4byte	.LVL71
 3013 036a 4C020000 		.4byte	.LVL73
 3014 036e 0100     		.2byte	0x1
 3015 0370 5B       		.byte	0x5b
 3016 0371 4C020000 		.4byte	.LVL73
 3017 0375 52020000 		.4byte	.LVL74
 3018 0379 0100     		.2byte	0x1
ARM GAS  C:\Users\Mohamad\AppData\Local\Temp\ccbxBJoL.s 			page 54


 3019 037b 52       		.byte	0x52
 3020 037c 52020000 		.4byte	.LVL74
 3021 0380 74020000 		.4byte	.LVL81
 3022 0384 0300     		.2byte	0x3
 3023 0386 91       		.byte	0x91
 3024 0387 B07F     		.sleb128 -80
 3025 0389 74020000 		.4byte	.LVL81
 3026 038d 8E020000 		.4byte	.LVL86
 3027 0391 0100     		.2byte	0x1
 3028 0393 5A       		.byte	0x5a
 3029 0394 DE020000 		.4byte	.LVL97
 3030 0398 E8020000 		.4byte	.LVL99
 3031 039c 0300     		.2byte	0x3
 3032 039e 91       		.byte	0x91
 3033 039f B07F     		.sleb128 -80
 3034 03a1 E8020000 		.4byte	.LVL99
 3035 03a5 F2020000 		.4byte	.LVL101
 3036 03a9 0300     		.2byte	0x3
 3037 03ab 91       		.byte	0x91
 3038 03ac AC7F     		.sleb128 -84
 3039 03ae 5C030000 		.4byte	.LVL118
 3040 03b2 64030000 		.4byte	.LVL121
 3041 03b6 0300     		.2byte	0x3
 3042 03b8 91       		.byte	0x91
 3043 03b9 B07F     		.sleb128 -80
 3044 03bb 64030000 		.4byte	.LVL121
 3045 03bf 69030000 		.4byte	.LVL122-1
 3046 03c3 0100     		.2byte	0x1
 3047 03c5 50       		.byte	0x50
 3048 03c6 78030000 		.4byte	.LVL123
 3049 03ca 92030000 		.4byte	.LVL130
 3050 03ce 0300     		.2byte	0x3
 3051 03d0 91       		.byte	0x91
 3052 03d1 B07F     		.sleb128 -80
 3053 03d3 92030000 		.4byte	.LVL130
 3054 03d7 9C030000 		.4byte	.LVL131
 3055 03db 0300     		.2byte	0x3
 3056 03dd 91       		.byte	0x91
 3057 03de AC7F     		.sleb128 -84
 3058 03e0 9C030000 		.4byte	.LVL131
 3059 03e4 F6030000 		.4byte	.LVL146
 3060 03e8 0300     		.2byte	0x3
 3061 03ea 91       		.byte	0x91
 3062 03eb B07F     		.sleb128 -80
 3063 03ed 0E040000 		.4byte	.LVL150
 3064 03f1 18040000 		.4byte	.LVL152
 3065 03f5 0300     		.2byte	0x3
 3066 03f7 91       		.byte	0x91
 3067 03f8 B07F     		.sleb128 -80
 3068 03fa 18040000 		.4byte	.LVL152
 3069 03fe 1E040000 		.4byte	.LVL153
 3070 0402 0300     		.2byte	0x3
 3071 0404 91       		.byte	0x91
 3072 0405 AC7F     		.sleb128 -84
 3073 0407 1E040000 		.4byte	.LVL153
 3074 040b 24040000 		.4byte	.LVL154
 3075 040f 0300     		.2byte	0x3
ARM GAS  C:\Users\Mohamad\AppData\Local\Temp\ccbxBJoL.s 			page 55


 3076 0411 91       		.byte	0x91
 3077 0412 B07F     		.sleb128 -80
 3078 0414 24040000 		.4byte	.LVL154
 3079 0418 2E040000 		.4byte	.LVL157
 3080 041c 0300     		.2byte	0x3
 3081 041e 91       		.byte	0x91
 3082 041f AC7F     		.sleb128 -84
 3083 0421 2E040000 		.4byte	.LVL157
 3084 0425 36040000 		.4byte	.LFE11
 3085 0429 0100     		.2byte	0x1
 3086 042b 5A       		.byte	0x5a
 3087 042c 00000000 		.4byte	0
 3088 0430 00000000 		.4byte	0
 3089              	.LLST14:
 3090 0434 4C000000 		.4byte	.LVL32
 3091 0438 2E010000 		.4byte	.LVL48
 3092 043c 0300     		.2byte	0x3
 3093 043e 91       		.byte	0x91
 3094 043f B07F     		.sleb128 -80
 3095 0441 2E010000 		.4byte	.LVL48
 3096 0445 A0010000 		.4byte	.LVL58
 3097 0449 0100     		.2byte	0x1
 3098 044b 5A       		.byte	0x5a
 3099 044c A0010000 		.4byte	.LVL58
 3100 0450 A1010000 		.4byte	.LVL59-1
 3101 0454 0400     		.2byte	0x4
 3102 0456 7E       		.byte	0x7e
 3103 0457 00       		.sleb128 0
 3104 0458 20       		.byte	0x20
 3105 0459 9F       		.byte	0x9f
 3106 045a A1010000 		.4byte	.LVL59-1
 3107 045e B0010000 		.4byte	.LVL61
 3108 0462 0300     		.2byte	0x3
 3109 0464 79       		.byte	0x79
 3110 0465 7F       		.sleb128 -1
 3111 0466 9F       		.byte	0x9f
 3112 0467 2A020000 		.4byte	.LVL70
 3113 046b 52020000 		.4byte	.LVL74
 3114 046f 0100     		.2byte	0x1
 3115 0471 5A       		.byte	0x5a
 3116 0472 52020000 		.4byte	.LVL74
 3117 0476 F2020000 		.4byte	.LVL101
 3118 047a 0300     		.2byte	0x3
 3119 047c 91       		.byte	0x91
 3120 047d B07F     		.sleb128 -80
 3121 047f F2020000 		.4byte	.LVL101
 3122 0483 26030000 		.4byte	.LVL109
 3123 0487 0100     		.2byte	0x1
 3124 0489 5A       		.byte	0x5a
 3125 048a 5C030000 		.4byte	.LVL118
 3126 048e F6030000 		.4byte	.LVL146
 3127 0492 0300     		.2byte	0x3
 3128 0494 91       		.byte	0x91
 3129 0495 B07F     		.sleb128 -80
 3130 0497 F6030000 		.4byte	.LVL146
 3131 049b 0E040000 		.4byte	.LVL150
 3132 049f 0100     		.2byte	0x1
ARM GAS  C:\Users\Mohamad\AppData\Local\Temp\ccbxBJoL.s 			page 56


 3133 04a1 5A       		.byte	0x5a
 3134 04a2 0E040000 		.4byte	.LVL150
 3135 04a6 2E040000 		.4byte	.LVL157
 3136 04aa 0300     		.2byte	0x3
 3137 04ac 91       		.byte	0x91
 3138 04ad B07F     		.sleb128 -80
 3139 04af 2E040000 		.4byte	.LVL157
 3140 04b3 36040000 		.4byte	.LFE11
 3141 04b7 0100     		.2byte	0x1
 3142 04b9 5A       		.byte	0x5a
 3143 04ba 00000000 		.4byte	0
 3144 04be 00000000 		.4byte	0
 3145              	.LLST15:
 3146 04c2 2C000000 		.4byte	.LVL26
 3147 04c6 2E000000 		.4byte	.LVL27
 3148 04ca 0200     		.2byte	0x2
 3149 04cc 74       		.byte	0x74
 3150 04cd 00       		.sleb128 0
 3151 04ce 42000000 		.4byte	.LVL30
 3152 04d2 46000000 		.4byte	.LVL31
 3153 04d6 0200     		.2byte	0x2
 3154 04d8 74       		.byte	0x74
 3155 04d9 00       		.sleb128 0
 3156 04da 6E000000 		.4byte	.LVL36
 3157 04de 70000000 		.4byte	.LVL37
 3158 04e2 0100     		.2byte	0x1
 3159 04e4 53       		.byte	0x53
 3160 04e5 70000000 		.4byte	.LVL37
 3161 04e9 72000000 		.4byte	.LVL38
 3162 04ed 0200     		.2byte	0x2
 3163 04ef 77       		.byte	0x77
 3164 04f0 00       		.sleb128 0
 3165 04f1 72000000 		.4byte	.LVL38
 3166 04f5 7C000000 		.4byte	.LVL40
 3167 04f9 0100     		.2byte	0x1
 3168 04fb 51       		.byte	0x51
 3169 04fc 7C000000 		.4byte	.LVL40
 3170 0500 1A010000 		.4byte	.LVL46
 3171 0504 0100     		.2byte	0x1
 3172 0506 53       		.byte	0x53
 3173 0507 1A010000 		.4byte	.LVL46
 3174 050b 2C010000 		.4byte	.LVL47
 3175 050f 0400     		.2byte	0x4
 3176 0511 70       		.byte	0x70
 3177 0512 C400     		.sleb128 68
 3178 0514 9F       		.byte	0x9f
 3179 0515 52020000 		.4byte	.LVL74
 3180 0519 5F020000 		.4byte	.LVL77-1
 3181 051d 0100     		.2byte	0x1
 3182 051f 53       		.byte	0x53
 3183 0520 DE020000 		.4byte	.LVL97
 3184 0524 E0020000 		.4byte	.LVL98
 3185 0528 0100     		.2byte	0x1
 3186 052a 53       		.byte	0x53
 3187 052b E0020000 		.4byte	.LVL98
 3188 052f F2020000 		.4byte	.LVL101
 3189 0533 0400     		.2byte	0x4
ARM GAS  C:\Users\Mohamad\AppData\Local\Temp\ccbxBJoL.s 			page 57


 3190 0535 70       		.byte	0x70
 3191 0536 C400     		.sleb128 68
 3192 0538 9F       		.byte	0x9f
 3193 0539 5C030000 		.4byte	.LVL118
 3194 053d 5E030000 		.4byte	.LVL119
 3195 0541 0100     		.2byte	0x1
 3196 0543 53       		.byte	0x53
 3197 0544 78030000 		.4byte	.LVL123
 3198 0548 7C030000 		.4byte	.LVL124
 3199 054c 0100     		.2byte	0x1
 3200 054e 53       		.byte	0x53
 3201 054f 7C030000 		.4byte	.LVL124
 3202 0553 80030000 		.4byte	.LVL125
 3203 0557 0200     		.2byte	0x2
 3204 0559 38       		.byte	0x38
 3205 055a 9F       		.byte	0x9f
 3206 055b 80030000 		.4byte	.LVL125
 3207 055f A4030000 		.4byte	.LVL132
 3208 0563 0100     		.2byte	0x1
 3209 0565 53       		.byte	0x53
 3210 0566 A4030000 		.4byte	.LVL132
 3211 056a A6030000 		.4byte	.LVL133
 3212 056e 0200     		.2byte	0x2
 3213 0570 74       		.byte	0x74
 3214 0571 00       		.sleb128 0
 3215 0572 A6030000 		.4byte	.LVL133
 3216 0576 AA030000 		.4byte	.LVL134
 3217 057a 0200     		.2byte	0x2
 3218 057c 74       		.byte	0x74
 3219 057d 7F       		.sleb128 -1
 3220 057e B4030000 		.4byte	.LVL136
 3221 0582 BA030000 		.4byte	.LVL137
 3222 0586 0100     		.2byte	0x1
 3223 0588 53       		.byte	0x53
 3224 0589 BA030000 		.4byte	.LVL137
 3225 058d BC030000 		.4byte	.LVL138
 3226 0591 0200     		.2byte	0x2
 3227 0593 70       		.byte	0x70
 3228 0594 7F       		.sleb128 -1
 3229 0595 BC030000 		.4byte	.LVL138
 3230 0599 BE030000 		.4byte	.LVL139
 3231 059d 0200     		.2byte	0x2
 3232 059f 77       		.byte	0x77
 3233 05a0 00       		.sleb128 0
 3234 05a1 BE030000 		.4byte	.LVL139
 3235 05a5 C6030000 		.4byte	.LVL141
 3236 05a9 0100     		.2byte	0x1
 3237 05ab 52       		.byte	0x52
 3238 05ac CA030000 		.4byte	.LVL142
 3239 05b0 EC030000 		.4byte	.LVL144
 3240 05b4 0200     		.2byte	0x2
 3241 05b6 70       		.byte	0x70
 3242 05b7 7F       		.sleb128 -1
 3243 05b8 1E040000 		.4byte	.LVL153
 3244 05bc 2E040000 		.4byte	.LVL157
 3245 05c0 0100     		.2byte	0x1
 3246 05c2 53       		.byte	0x53
ARM GAS  C:\Users\Mohamad\AppData\Local\Temp\ccbxBJoL.s 			page 58


 3247 05c3 00000000 		.4byte	0
 3248 05c7 00000000 		.4byte	0
 3249              	.LLST16:
 3250 05cb 58000000 		.4byte	.LVL33
 3251 05cf 68000000 		.4byte	.LVL34
 3252 05d3 0300     		.2byte	0x3
 3253 05d5 08       		.byte	0x8
 3254 05d6 20       		.byte	0x20
 3255 05d7 9F       		.byte	0x9f
 3256 05d8 68000000 		.4byte	.LVL34
 3257 05dc 18010000 		.4byte	.LVL45
 3258 05e0 0100     		.2byte	0x1
 3259 05e2 58       		.byte	0x58
 3260 05e3 18010000 		.4byte	.LVL45
 3261 05e7 74010000 		.4byte	.LVL53
 3262 05eb 0300     		.2byte	0x3
 3263 05ed 08       		.byte	0x8
 3264 05ee 20       		.byte	0x20
 3265 05ef 9F       		.byte	0x9f
 3266 05f0 74010000 		.4byte	.LVL53
 3267 05f4 84010000 		.4byte	.LVL56
 3268 05f8 0100     		.2byte	0x1
 3269 05fa 58       		.byte	0x58
 3270 05fb 2A020000 		.4byte	.LVL70
 3271 05ff 52020000 		.4byte	.LVL74
 3272 0603 0300     		.2byte	0x3
 3273 0605 08       		.byte	0x8
 3274 0606 20       		.byte	0x20
 3275 0607 9F       		.byte	0x9f
 3276 0608 52020000 		.4byte	.LVL74
 3277 060c DE020000 		.4byte	.LVL97
 3278 0610 0100     		.2byte	0x1
 3279 0612 58       		.byte	0x58
 3280 0613 DE020000 		.4byte	.LVL97
 3281 0617 F2020000 		.4byte	.LVL101
 3282 061b 0300     		.2byte	0x3
 3283 061d 08       		.byte	0x8
 3284 061e 20       		.byte	0x20
 3285 061f 9F       		.byte	0x9f
 3286 0620 F2020000 		.4byte	.LVL101
 3287 0624 02030000 		.4byte	.LVL104
 3288 0628 0100     		.2byte	0x1
 3289 062a 58       		.byte	0x58
 3290 062b 5C030000 		.4byte	.LVL118
 3291 062f AA030000 		.4byte	.LVL134
 3292 0633 0100     		.2byte	0x1
 3293 0635 58       		.byte	0x58
 3294 0636 AA030000 		.4byte	.LVL134
 3295 063a B4030000 		.4byte	.LVL136
 3296 063e 0300     		.2byte	0x3
 3297 0640 08       		.byte	0x8
 3298 0641 30       		.byte	0x30
 3299 0642 9F       		.byte	0x9f
 3300 0643 B4030000 		.4byte	.LVL136
 3301 0647 EC030000 		.4byte	.LVL144
 3302 064b 0100     		.2byte	0x1
 3303 064d 58       		.byte	0x58
ARM GAS  C:\Users\Mohamad\AppData\Local\Temp\ccbxBJoL.s 			page 59


 3304 064e 0E040000 		.4byte	.LVL150
 3305 0652 2E040000 		.4byte	.LVL157
 3306 0656 0100     		.2byte	0x1
 3307 0658 58       		.byte	0x58
 3308 0659 2E040000 		.4byte	.LVL157
 3309 065d 36040000 		.4byte	.LFE11
 3310 0661 0300     		.2byte	0x3
 3311 0663 08       		.byte	0x8
 3312 0664 20       		.byte	0x20
 3313 0665 9F       		.byte	0x9f
 3314 0666 00000000 		.4byte	0
 3315 066a 00000000 		.4byte	0
 3316              	.LLST17:
 3317 066e 74010000 		.4byte	.LVL53
 3318 0672 84010000 		.4byte	.LVL56
 3319 0676 0100     		.2byte	0x1
 3320 0678 5B       		.byte	0x5b
 3321 0679 84010000 		.4byte	.LVL56
 3322 067d 96010000 		.4byte	.LVL57
 3323 0681 0300     		.2byte	0x3
 3324 0683 7B       		.byte	0x7b
 3325 0684 7F       		.sleb128 -1
 3326 0685 9F       		.byte	0x9f
 3327 0686 F2020000 		.4byte	.LVL101
 3328 068a 26030000 		.4byte	.LVL109
 3329 068e 0100     		.2byte	0x1
 3330 0690 5B       		.byte	0x5b
 3331 0691 F6030000 		.4byte	.LVL146
 3332 0695 0E040000 		.4byte	.LVL150
 3333 0699 0100     		.2byte	0x1
 3334 069b 5B       		.byte	0x5b
 3335 069c 00000000 		.4byte	0
 3336 06a0 00000000 		.4byte	0
 3337              	.LLST18:
 3338 06a4 8C000000 		.4byte	.LVL42
 3339 06a8 94000000 		.4byte	.LVL43
 3340 06ac 0200     		.2byte	0x2
 3341 06ae 30       		.byte	0x30
 3342 06af 9F       		.byte	0x9f
 3343 06b0 94000000 		.4byte	.LVL43
 3344 06b4 34010000 		.4byte	.LVL49
 3345 06b8 0100     		.2byte	0x1
 3346 06ba 51       		.byte	0x51
 3347 06bb 52020000 		.4byte	.LVL74
 3348 06bf 5F020000 		.4byte	.LVL77-1
 3349 06c3 0100     		.2byte	0x1
 3350 06c5 51       		.byte	0x51
 3351 06c6 DE020000 		.4byte	.LVL97
 3352 06ca F2020000 		.4byte	.LVL101
 3353 06ce 0100     		.2byte	0x1
 3354 06d0 51       		.byte	0x51
 3355 06d1 5C030000 		.4byte	.LVL118
 3356 06d5 60030000 		.4byte	.LVL120
 3357 06d9 0100     		.2byte	0x1
 3358 06db 51       		.byte	0x51
 3359 06dc 78030000 		.4byte	.LVL123
 3360 06e0 82030000 		.4byte	.LVL126
ARM GAS  C:\Users\Mohamad\AppData\Local\Temp\ccbxBJoL.s 			page 60


 3361 06e4 0100     		.2byte	0x1
 3362 06e6 51       		.byte	0x51
 3363 06e7 8E030000 		.4byte	.LVL129
 3364 06eb AA030000 		.4byte	.LVL134
 3365 06ef 0100     		.2byte	0x1
 3366 06f1 51       		.byte	0x51
 3367 06f2 B4030000 		.4byte	.LVL136
 3368 06f6 BA030000 		.4byte	.LVL137
 3369 06fa 0200     		.2byte	0x2
 3370 06fc 30       		.byte	0x30
 3371 06fd 9F       		.byte	0x9f
 3372 06fe BA030000 		.4byte	.LVL137
 3373 0702 C2030000 		.4byte	.LVL140
 3374 0706 0100     		.2byte	0x1
 3375 0708 51       		.byte	0x51
 3376 0709 C2030000 		.4byte	.LVL140
 3377 070d C6030000 		.4byte	.LVL141
 3378 0711 0500     		.2byte	0x5
 3379 0713 74       		.byte	0x74
 3380 0714 00       		.sleb128 0
 3381 0715 31       		.byte	0x31
 3382 0716 24       		.byte	0x24
 3383 0717 9F       		.byte	0x9f
 3384 0718 C6030000 		.4byte	.LVL141
 3385 071c EC030000 		.4byte	.LVL144
 3386 0720 0100     		.2byte	0x1
 3387 0722 51       		.byte	0x51
 3388 0723 00000000 		.4byte	0
 3389 0727 00000000 		.4byte	0
 3390              	.LLST19:
 3391 072b 68000000 		.4byte	.LVL34
 3392 072f 6E000000 		.4byte	.LVL36
 3393 0733 0200     		.2byte	0x2
 3394 0735 30       		.byte	0x30
 3395 0736 9F       		.byte	0x9f
 3396 0737 6E000000 		.4byte	.LVL36
 3397 073b 76000000 		.4byte	.LVL39
 3398 073f 0100     		.2byte	0x1
 3399 0741 55       		.byte	0x55
 3400 0742 7C000000 		.4byte	.LVL40
 3401 0746 A8010000 		.4byte	.LVL60
 3402 074a 0100     		.2byte	0x1
 3403 074c 55       		.byte	0x55
 3404 074d DA010000 		.4byte	.LVL64
 3405 0751 E8010000 		.4byte	.LVL65
 3406 0755 0100     		.2byte	0x1
 3407 0757 55       		.byte	0x55
 3408 0758 E8010000 		.4byte	.LVL65
 3409 075c F1010000 		.4byte	.LVL66-1
 3410 0760 0300     		.2byte	0x3
 3411 0762 73       		.byte	0x73
 3412 0763 01       		.sleb128 1
 3413 0764 9F       		.byte	0x9f
 3414 0765 F1010000 		.4byte	.LVL66-1
 3415 0769 08020000 		.4byte	.LVL67
 3416 076d 0300     		.2byte	0x3
 3417 076f 75       		.byte	0x75
ARM GAS  C:\Users\Mohamad\AppData\Local\Temp\ccbxBJoL.s 			page 61


 3418 0770 01       		.sleb128 1
 3419 0771 9F       		.byte	0x9f
 3420 0772 2A020000 		.4byte	.LVL70
 3421 0776 22030000 		.4byte	.LVL108
 3422 077a 0100     		.2byte	0x1
 3423 077c 55       		.byte	0x55
 3424 077d 22030000 		.4byte	.LVL108
 3425 0781 26030000 		.4byte	.LVL109
 3426 0785 0300     		.2byte	0x3
 3427 0787 75       		.byte	0x75
 3428 0788 7F       		.sleb128 -1
 3429 0789 9F       		.byte	0x9f
 3430 078a 30030000 		.4byte	.LVL110
 3431 078e 3A030000 		.4byte	.LVL111
 3432 0792 0100     		.2byte	0x1
 3433 0794 55       		.byte	0x55
 3434 0795 3A030000 		.4byte	.LVL111
 3435 0799 3C030000 		.4byte	.LVL112
 3436 079d 0300     		.2byte	0x3
 3437 079f 75       		.byte	0x75
 3438 07a0 01       		.sleb128 1
 3439 07a1 9F       		.byte	0x9f
 3440 07a2 3C030000 		.4byte	.LVL112
 3441 07a6 4E030000 		.4byte	.LVL115
 3442 07aa 0100     		.2byte	0x1
 3443 07ac 55       		.byte	0x55
 3444 07ad 56030000 		.4byte	.LVL116
 3445 07b1 58030000 		.4byte	.LVL117
 3446 07b5 0300     		.2byte	0x3
 3447 07b7 75       		.byte	0x75
 3448 07b8 01       		.sleb128 1
 3449 07b9 9F       		.byte	0x9f
 3450 07ba 58030000 		.4byte	.LVL117
 3451 07be AA030000 		.4byte	.LVL134
 3452 07c2 0100     		.2byte	0x1
 3453 07c4 55       		.byte	0x55
 3454 07c5 B4030000 		.4byte	.LVL136
 3455 07c9 EC030000 		.4byte	.LVL144
 3456 07cd 0100     		.2byte	0x1
 3457 07cf 55       		.byte	0x55
 3458 07d0 F6030000 		.4byte	.LVL146
 3459 07d4 36040000 		.4byte	.LFE11
 3460 07d8 0100     		.2byte	0x1
 3461 07da 55       		.byte	0x55
 3462 07db 00000000 		.4byte	0
 3463 07df 00000000 		.4byte	0
 3464              	.LLST20:
 3465 07e3 9C030000 		.4byte	.LVL131
 3466 07e7 AA030000 		.4byte	.LVL134
 3467 07eb 0200     		.2byte	0x2
 3468 07ed 31       		.byte	0x31
 3469 07ee 9F       		.byte	0x9f
 3470 07ef 00000000 		.4byte	0
 3471 07f3 00000000 		.4byte	0
 3472              	.LLST21:
 3473 07f7 4C000000 		.4byte	.LVL32
 3474 07fb 58000000 		.4byte	.LVL33
ARM GAS  C:\Users\Mohamad\AppData\Local\Temp\ccbxBJoL.s 			page 62


 3475 07ff 0200     		.2byte	0x2
 3476 0801 30       		.byte	0x30
 3477 0802 9F       		.byte	0x9f
 3478 0803 58000000 		.4byte	.LVL33
 3479 0807 84010000 		.4byte	.LVL56
 3480 080b 0100     		.2byte	0x1
 3481 080d 59       		.byte	0x59
 3482 080e 2A020000 		.4byte	.LVL70
 3483 0812 1E030000 		.4byte	.LVL106
 3484 0816 0100     		.2byte	0x1
 3485 0818 59       		.byte	0x59
 3486 0819 5C030000 		.4byte	.LVL118
 3487 081d EC030000 		.4byte	.LVL144
 3488 0821 0100     		.2byte	0x1
 3489 0823 59       		.byte	0x59
 3490 0824 EC030000 		.4byte	.LVL144
 3491 0828 EE030000 		.4byte	.LVL145
 3492 082c 0200     		.2byte	0x2
 3493 082e 30       		.byte	0x30
 3494 082f 9F       		.byte	0x9f
 3495 0830 EE030000 		.4byte	.LVL145
 3496 0834 F6030000 		.4byte	.LVL146
 3497 0838 0200     		.2byte	0x2
 3498 083a 31       		.byte	0x31
 3499 083b 9F       		.byte	0x9f
 3500 083c F6030000 		.4byte	.LVL146
 3501 0840 36040000 		.4byte	.LFE11
 3502 0844 0100     		.2byte	0x1
 3503 0846 59       		.byte	0x59
 3504 0847 00000000 		.4byte	0
 3505 084b 00000000 		.4byte	0
 3506              	.LLST22:
 3507 084f 60030000 		.4byte	.LVL120
 3508 0853 69030000 		.4byte	.LVL122-1
 3509 0857 0100     		.2byte	0x1
 3510 0859 51       		.byte	0x51
 3511 085a 82030000 		.4byte	.LVL126
 3512 085e 8E030000 		.4byte	.LVL129
 3513 0862 0100     		.2byte	0x1
 3514 0864 51       		.byte	0x51
 3515 0865 1E040000 		.4byte	.LVL153
 3516 0869 2E040000 		.4byte	.LVL157
 3517 086d 0100     		.2byte	0x1
 3518 086f 51       		.byte	0x51
 3519 0870 00000000 		.4byte	0
 3520 0874 00000000 		.4byte	0
 3521              	.LLST23:
 3522 0878 66020000 		.4byte	.LVL79
 3523 087c 69020000 		.4byte	.LVL80-1
 3524 0880 0100     		.2byte	0x1
 3525 0882 50       		.byte	0x50
 3526 0883 69020000 		.4byte	.LVL80-1
 3527 0887 9E020000 		.4byte	.LVL90
 3528 088b 0100     		.2byte	0x1
 3529 088d 5B       		.byte	0x5b
 3530 088e 0E040000 		.4byte	.LVL150
 3531 0892 14040000 		.4byte	.LVL151
ARM GAS  C:\Users\Mohamad\AppData\Local\Temp\ccbxBJoL.s 			page 63


 3532 0896 0100     		.2byte	0x1
 3533 0898 5B       		.byte	0x5b
 3534 0899 18040000 		.4byte	.LVL152
 3535 089d 1E040000 		.4byte	.LVL153
 3536 08a1 0100     		.2byte	0x1
 3537 08a3 5B       		.byte	0x5b
 3538 08a4 00000000 		.4byte	0
 3539 08a8 00000000 		.4byte	0
 3540              	.LLST24:
 3541 08ac 74020000 		.4byte	.LVL81
 3542 08b0 9E020000 		.4byte	.LVL90
 3543 08b4 0600     		.2byte	0x6
 3544 08b6 F5       		.byte	0xf5
 3545 08b7 0B       		.uleb128 0xb
 3546 08b8 37       		.uleb128 0x37
 3547 08b9 F7       		.byte	0xf7
 3548 08ba 29       		.uleb128 0x29
 3549 08bb 9F       		.byte	0x9f
 3550 08bc 00000000 		.4byte	0
 3551 08c0 00000000 		.4byte	0
 3552              	.LLST25:
 3553 08c4 74020000 		.4byte	.LVL81
 3554 08c8 8C020000 		.4byte	.LVL85
 3555 08cc 0100     		.2byte	0x1
 3556 08ce 5A       		.byte	0x5a
 3557 08cf 8C020000 		.4byte	.LVL85
 3558 08d3 94020000 		.4byte	.LVL87
 3559 08d7 0100     		.2byte	0x1
 3560 08d9 50       		.byte	0x50
 3561 08da 94020000 		.4byte	.LVL87
 3562 08de 96020000 		.4byte	.LVL88
 3563 08e2 0300     		.2byte	0x3
 3564 08e4 70       		.byte	0x70
 3565 08e5 01       		.sleb128 1
 3566 08e6 9F       		.byte	0x9f
 3567 08e7 96020000 		.4byte	.LVL88
 3568 08eb D8020000 		.4byte	.LVL96
 3569 08ef 0100     		.2byte	0x1
 3570 08f1 5A       		.byte	0x5a
 3571 08f2 00000000 		.4byte	0
 3572 08f6 00000000 		.4byte	0
 3573              	.LLST26:
 3574 08fa 7C020000 		.4byte	.LVL83
 3575 08fe 82020000 		.4byte	.LVL84
 3576 0902 0100     		.2byte	0x1
 3577 0904 50       		.byte	0x50
 3578 0905 82020000 		.4byte	.LVL84
 3579 0909 8B020000 		.4byte	.LVL85-1
 3580 090d 0100     		.2byte	0x1
 3581 090f 51       		.byte	0x51
 3582 0910 BE020000 		.4byte	.LVL93
 3583 0914 C1020000 		.4byte	.LVL94-1
 3584 0918 0800     		.2byte	0x8
 3585 091a F5       		.byte	0xf5
 3586 091b 00       		.uleb128 0
 3587 091c 29       		.uleb128 0x29
 3588 091d F7       		.byte	0xf7
ARM GAS  C:\Users\Mohamad\AppData\Local\Temp\ccbxBJoL.s 			page 64


 3589 091e 30       		.uleb128 0x30
 3590 091f F7       		.byte	0xf7
 3591 0920 00       		.uleb128 0
 3592 0921 9F       		.byte	0x9f
 3593 0922 00000000 		.4byte	0
 3594 0926 00000000 		.4byte	0
 3595              	.LLST27:
 3596 092a 74020000 		.4byte	.LVL81
 3597 092e DE020000 		.4byte	.LVL97
 3598 0932 0600     		.2byte	0x6
 3599 0934 0C       		.byte	0xc
 3600 0935 A0860100 		.4byte	0x186a0
 3601 0939 9F       		.byte	0x9f
 3602 093a 00000000 		.4byte	0
 3603 093e 00000000 		.4byte	0
 3604              	.LLST28:
 3605 0942 8A030000 		.4byte	.LVL128
 3606 0946 8E030000 		.4byte	.LVL129
 3607 094a 0200     		.2byte	0x2
 3608 094c 3A       		.byte	0x3a
 3609 094d 9F       		.byte	0x9f
 3610 094e 2A040000 		.4byte	.LVL156
 3611 0952 2E040000 		.4byte	.LVL157
 3612 0956 0200     		.2byte	0x2
 3613 0958 3A       		.byte	0x3a
 3614 0959 9F       		.byte	0x9f
 3615 095a 00000000 		.4byte	0
 3616 095e 00000000 		.4byte	0
 3617              	.LLST29:
 3618 0962 8A030000 		.4byte	.LVL128
 3619 0966 8E030000 		.4byte	.LVL129
 3620 096a 0100     		.2byte	0x1
 3621 096c 51       		.byte	0x51
 3622 096d 2A040000 		.4byte	.LVL156
 3623 0971 2E040000 		.4byte	.LVL157
 3624 0975 0100     		.2byte	0x1
 3625 0977 51       		.byte	0x51
 3626 0978 00000000 		.4byte	0
 3627 097c 00000000 		.4byte	0
 3628              	.LLST30:
 3629 0980 8A030000 		.4byte	.LVL128
 3630 0984 8E030000 		.4byte	.LVL129
 3631 0988 0300     		.2byte	0x3
 3632 098a 91       		.byte	0x91
 3633 098b B07F     		.sleb128 -80
 3634 098d 2A040000 		.4byte	.LVL156
 3635 0991 2E040000 		.4byte	.LVL157
 3636 0995 0300     		.2byte	0x3
 3637 0997 91       		.byte	0x91
 3638 0998 AC7F     		.sleb128 -84
 3639 099a 00000000 		.4byte	0
 3640 099e 00000000 		.4byte	0
 3641              	.LLST31:
 3642 09a2 00000000 		.4byte	.LFB12
 3643 09a6 02000000 		.4byte	.LCFI3
 3644 09aa 0200     		.2byte	0x2
 3645 09ac 7D       		.byte	0x7d
ARM GAS  C:\Users\Mohamad\AppData\Local\Temp\ccbxBJoL.s 			page 65


 3646 09ad 00       		.sleb128 0
 3647 09ae 02000000 		.4byte	.LCFI3
 3648 09b2 04000000 		.4byte	.LCFI4
 3649 09b6 0200     		.2byte	0x2
 3650 09b8 7D       		.byte	0x7d
 3651 09b9 08       		.sleb128 8
 3652 09ba 04000000 		.4byte	.LCFI4
 3653 09be 06000000 		.4byte	.LCFI5
 3654 09c2 0200     		.2byte	0x2
 3655 09c4 7D       		.byte	0x7d
 3656 09c5 18       		.sleb128 24
 3657 09c6 06000000 		.4byte	.LCFI5
 3658 09ca 3E000000 		.4byte	.LFE12
 3659 09ce 0200     		.2byte	0x2
 3660 09d0 7D       		.byte	0x7d
 3661 09d1 30       		.sleb128 48
 3662 09d2 00000000 		.4byte	0
 3663 09d6 00000000 		.4byte	0
 3664              	.LLST32:
 3665 09da 00000000 		.4byte	.LVL158
 3666 09de 14000000 		.4byte	.LVL159
 3667 09e2 0100     		.2byte	0x1
 3668 09e4 50       		.byte	0x50
 3669 09e5 14000000 		.4byte	.LVL159
 3670 09e9 3E000000 		.4byte	.LFE12
 3671 09ed 0100     		.2byte	0x1
 3672 09ef 56       		.byte	0x56
 3673 09f0 00000000 		.4byte	0
 3674 09f4 00000000 		.4byte	0
 3675              	.LLST33:
 3676 09f8 00000000 		.4byte	.LVL158
 3677 09fc 16000000 		.4byte	.LVL160
 3678 0a00 0100     		.2byte	0x1
 3679 0a02 51       		.byte	0x51
 3680 0a03 16000000 		.4byte	.LVL160
 3681 0a07 19000000 		.4byte	.LVL161-1
 3682 0a0b 0100     		.2byte	0x1
 3683 0a0d 52       		.byte	0x52
 3684 0a0e 19000000 		.4byte	.LVL161-1
 3685 0a12 3E000000 		.4byte	.LFE12
 3686 0a16 0400     		.2byte	0x4
 3687 0a18 F3       		.byte	0xf3
 3688 0a19 01       		.uleb128 0x1
 3689 0a1a 51       		.byte	0x51
 3690 0a1b 9F       		.byte	0x9f
 3691 0a1c 00000000 		.4byte	0
 3692 0a20 00000000 		.4byte	0
 3693              	.LLST34:
 3694 0a24 1A000000 		.4byte	.LVL161
 3695 0a28 1C000000 		.4byte	.LVL162
 3696 0a2c 0300     		.2byte	0x3
 3697 0a2e 91       		.byte	0x91
 3698 0a2f 44       		.sleb128 -60
 3699 0a30 9F       		.byte	0x9f
 3700 0a31 1C000000 		.4byte	.LVL162
 3701 0a35 25000000 		.4byte	.LVL163-1
 3702 0a39 0100     		.2byte	0x1
ARM GAS  C:\Users\Mohamad\AppData\Local\Temp\ccbxBJoL.s 			page 66


 3703 0a3b 50       		.byte	0x50
 3704 0a3c 25000000 		.4byte	.LVL163-1
 3705 0a40 2A000000 		.4byte	.LVL164
 3706 0a44 0300     		.2byte	0x3
 3707 0a46 91       		.byte	0x91
 3708 0a47 44       		.sleb128 -60
 3709 0a48 9F       		.byte	0x9f
 3710 0a49 2A000000 		.4byte	.LVL164
 3711 0a4d 2F000000 		.4byte	.LVL165-1
 3712 0a51 0100     		.2byte	0x1
 3713 0a53 50       		.byte	0x50
 3714 0a54 2F000000 		.4byte	.LVL165-1
 3715 0a58 3E000000 		.4byte	.LFE12
 3716 0a5c 0300     		.2byte	0x3
 3717 0a5e 91       		.byte	0x91
 3718 0a5f 44       		.sleb128 -60
 3719 0a60 9F       		.byte	0x9f
 3720 0a61 00000000 		.4byte	0
 3721 0a65 00000000 		.4byte	0
 3722              		.section	.debug_aranges,"",%progbits
 3723 0000 2C000000 		.4byte	0x2c
 3724 0004 0200     		.2byte	0x2
 3725 0006 00000000 		.4byte	.Ldebug_info0
 3726 000a 04       		.byte	0x4
 3727 000b 00       		.byte	0
 3728 000c 0000     		.2byte	0
 3729 000e 0000     		.2byte	0
 3730 0010 00000000 		.4byte	.LFB8
 3731 0014 6C000000 		.4byte	.LFE8-.LFB8
 3732 0018 00000000 		.4byte	.LFB11
 3733 001c 36040000 		.4byte	.LFE11-.LFB11
 3734 0020 00000000 		.4byte	.LFB12
 3735 0024 3E000000 		.4byte	.LFE12-.LFB12
 3736 0028 00000000 		.4byte	0
 3737 002c 00000000 		.4byte	0
 3738              		.section	.debug_ranges,"",%progbits
 3739              	.Ldebug_ranges0:
 3740 0000 74020000 		.4byte	.LBB8
 3741 0004 94020000 		.4byte	.LBE8
 3742 0008 9A020000 		.4byte	.LBB12
 3743 000c 9E020000 		.4byte	.LBE12
 3744 0010 A2020000 		.4byte	.LBB13
 3745 0014 D4020000 		.4byte	.LBE13
 3746 0018 00000000 		.4byte	0
 3747 001c 00000000 		.4byte	0
 3748 0020 74020000 		.4byte	.LBB9
 3749 0024 94020000 		.4byte	.LBE9
 3750 0028 9A020000 		.4byte	.LBB10
 3751 002c 9E020000 		.4byte	.LBE10
 3752 0030 A2020000 		.4byte	.LBB11
 3753 0034 D4020000 		.4byte	.LBE11
 3754 0038 00000000 		.4byte	0
 3755 003c 00000000 		.4byte	0
 3756 0040 60030000 		.4byte	.LBB14
 3757 0044 62030000 		.4byte	.LBE14
 3758 0048 64030000 		.4byte	.LBB17
 3759 004c 6E030000 		.4byte	.LBE17
ARM GAS  C:\Users\Mohamad\AppData\Local\Temp\ccbxBJoL.s 			page 67


 3760 0050 00000000 		.4byte	0
 3761 0054 00000000 		.4byte	0
 3762 0058 8A030000 		.4byte	.LBB18
 3763 005c 8E030000 		.4byte	.LBE18
 3764 0060 2A040000 		.4byte	.LBB21
 3765 0064 2E040000 		.4byte	.LBE21
 3766 0068 00000000 		.4byte	0
 3767 006c 00000000 		.4byte	0
 3768 0070 00000000 		.4byte	.LFB8
 3769 0074 6C000000 		.4byte	.LFE8
 3770 0078 00000000 		.4byte	.LFB11
 3771 007c 36040000 		.4byte	.LFE11
 3772 0080 00000000 		.4byte	.LFB12
 3773 0084 3E000000 		.4byte	.LFE12
 3774 0088 00000000 		.4byte	0
 3775 008c 00000000 		.4byte	0
 3776              		.section	.debug_line,"",%progbits
 3777              	.Ldebug_line0:
 3778 0000 92030000 		.section	.debug_str,"MS",%progbits,1
 3778      0200B801 
 3778      00000201 
 3778      FB0E0D00 
 3778      01010101 
 3779              	.LASF4:
 3780 0000 73697A65 		.ascii	"size_t\000"
 3780      5F7400
 3781              	.LASF25:
 3782 0007 76615F6C 		.ascii	"va_list\000"
 3782      69737400 
 3783              	.LASF34:
 3784 000f 66746F61 		.ascii	"ftoa\000"
 3784      00
 3785              	.LASF13:
 3786 0014 6C6F6E67 		.ascii	"long long unsigned int\000"
 3786      206C6F6E 
 3786      6720756E 
 3786      7369676E 
 3786      65642069 
 3787              	.LASF12:
 3788 002b 6C6F6E67 		.ascii	"long long int\000"
 3788      206C6F6E 
 3788      6720696E 
 3788      7400
 3789              	.LASF3:
 3790 0039 7369676E 		.ascii	"signed char\000"
 3790      65642063 
 3790      68617200 
 3791              	.LASF14:
 3792 0045 626F6F6C 		.ascii	"bool_t\000"
 3792      5F7400
 3793              	.LASF40:
 3794 004c 746D7062 		.ascii	"tmpbuf\000"
 3794      756600
 3795              	.LASF10:
 3796 0053 6C6F6E67 		.ascii	"long int\000"
 3796      20696E74 
 3796      00
ARM GAS  C:\Users\Mohamad\AppData\Local\Temp\ccbxBJoL.s 			page 68


 3797              	.LASF48:
 3798 005c 6368736E 		.ascii	"chsnprintf\000"
 3798      7072696E 
 3798      746600
 3799              	.LASF24:
 3800 0067 5F5F7661 		.ascii	"__va_list\000"
 3800      5F6C6973 
 3800      7400
 3801              	.LASF0:
 3802 0071 646F7562 		.ascii	"double\000"
 3802      6C6500
 3803              	.LASF36:
 3804 0078 66696C6C 		.ascii	"filler\000"
 3804      657200
 3805              	.LASF38:
 3806 007f 69735F6C 		.ascii	"is_long\000"
 3806      6F6E6700 
 3807              	.LASF21:
 3808 0087 42617365 		.ascii	"BaseSequentialStream\000"
 3808      53657175 
 3808      656E7469 
 3808      616C5374 
 3808      7265616D 
 3809              	.LASF2:
 3810 009c 756E7369 		.ascii	"unsigned int\000"
 3810      676E6564 
 3810      20696E74 
 3810      00
 3811              	.LASF11:
 3812 00a9 6C6F6E67 		.ascii	"long unsigned int\000"
 3812      20756E73 
 3812      69676E65 
 3812      6420696E 
 3812      7400
 3813              	.LASF39:
 3814 00bb 6C656674 		.ascii	"left_align\000"
 3814      5F616C69 
 3814      676E00
 3815              	.LASF37:
 3816 00c6 77696474 		.ascii	"width\000"
 3816      6800
 3817              	.LASF28:
 3818 00cc 73697A65 		.ascii	"size\000"
 3818      00
 3819              	.LASF8:
 3820 00d1 73686F72 		.ascii	"short unsigned int\000"
 3820      7420756E 
 3820      7369676E 
 3820      65642069 
 3820      6E7400
 3821              	.LASF16:
 3822 00e4 6D73675F 		.ascii	"msg_t\000"
 3822      7400
 3823              	.LASF33:
 3824 00ea 6C746F61 		.ascii	"ltoa\000"
 3824      00
 3825              	.LASF49:
ARM GAS  C:\Users\Mohamad\AppData\Local\Temp\ccbxBJoL.s 			page 69


 3826 00ef 6D734F62 		.ascii	"msObjectInit\000"
 3826      6A656374 
 3826      496E6974 
 3826      00
 3827              	.LASF19:
 3828 00fc 77726974 		.ascii	"write\000"
 3828      6500
 3829              	.LASF17:
 3830 0102 73697A65 		.ascii	"sizetype\000"
 3830      74797065 
 3830      00
 3831              	.LASF47:
 3832 010b 756E7369 		.ascii	"unsigned_common\000"
 3832      676E6564 
 3832      5F636F6D 
 3832      6D6F6E00 
 3833              	.LASF32:
 3834 011b 64697669 		.ascii	"divisor\000"
 3834      736F7200 
 3835              	.LASF22:
 3836 0123 5F5F676E 		.ascii	"__gnuc_va_list\000"
 3836      75635F76 
 3836      615F6C69 
 3836      737400
 3837              	.LASF41:
 3838 0132 474E5520 		.ascii	"GNU C 4.7.4 20140401 (release) [ARM/embedded-4_7-br"
 3838      4320342E 
 3838      372E3420 
 3838      32303134 
 3838      30343031 
 3839 0165 616E6368 		.ascii	"anch revision 209195]\000"
 3839      20726576 
 3839      6973696F 
 3839      6E203230 
 3839      39313935 
 3840              	.LASF43:
 3841 017b 433A5C43 		.ascii	"C:\\ChibiStudio\\workspace\\DCM_test_3\000"
 3841      68696269 
 3841      53747564 
 3841      696F5C77 
 3841      6F726B73 
 3842              	.LASF26:
 3843 019f 4D656D53 		.ascii	"MemStreamVMT\000"
 3843      74726561 
 3843      6D564D54 
 3843      00
 3844              	.LASF1:
 3845 01ac 666C6F61 		.ascii	"float\000"
 3845      7400
 3846              	.LASF30:
 3847 01b2 4D656D6F 		.ascii	"MemoryStream\000"
 3847      72795374 
 3847      7265616D 
 3847      00
 3848              	.LASF15:
 3849 01bf 5F426F6F 		.ascii	"_Bool\000"
 3849      6C00
ARM GAS  C:\Users\Mohamad\AppData\Local\Temp\ccbxBJoL.s 			page 70


 3850              	.LASF9:
 3851 01c5 696E7433 		.ascii	"int32_t\000"
 3851      325F7400 
 3852              	.LASF6:
 3853 01cd 756E7369 		.ascii	"unsigned char\000"
 3853      676E6564 
 3853      20636861 
 3853      7200
 3854              	.LASF7:
 3855 01db 73686F72 		.ascii	"short int\000"
 3855      7420696E 
 3855      7400
 3856              	.LASF23:
 3857 01e5 42617365 		.ascii	"BaseSequentialStreamVMT\000"
 3857      53657175 
 3857      656E7469 
 3857      616C5374 
 3857      7265616D 
 3858              	.LASF31:
 3859 01fd 72616469 		.ascii	"radix\000"
 3859      7800
 3860              	.LASF18:
 3861 0203 63686172 		.ascii	"char\000"
 3861      00
 3862              	.LASF35:
 3863 0208 70726563 		.ascii	"precision\000"
 3863      6973696F 
 3863      6E00
 3864              	.LASF27:
 3865 0212 62756666 		.ascii	"buffer\000"
 3865      657200
 3866              	.LASF29:
 3867 0219 6F666673 		.ascii	"offset\000"
 3867      657400
 3868              	.LASF44:
 3869 0220 5F5F6170 		.ascii	"__ap\000"
 3869      00
 3870              	.LASF5:
 3871 0225 75696E74 		.ascii	"uint8_t\000"
 3871      385F7400 
 3872              	.LASF46:
 3873 022d 63687670 		.ascii	"chvprintf\000"
 3873      72696E74 
 3873      6600
 3874              	.LASF20:
 3875 0237 72656164 		.ascii	"read\000"
 3875      00
 3876              	.LASF45:
 3877 023c 6C6F6E67 		.ascii	"long_to_string_with_divisor\000"
 3877      5F746F5F 
 3877      73747269 
 3877      6E675F77 
 3877      6974685F 
 3878              	.LASF42:
 3879 0258 2E2E2F2E 		.ascii	"../../chibios/os/various/chprintf.c\000"
 3879      2E2F6368 
 3879      6962696F 
ARM GAS  C:\Users\Mohamad\AppData\Local\Temp\ccbxBJoL.s 			page 71


 3879      732F6F73 
 3879      2F766172 
 3880              		.ident	"GCC: (GNU Tools for ARM Embedded Processors) 4.7.4 20140401 (release) [ARM/embedded-4_7-br
ARM GAS  C:\Users\Mohamad\AppData\Local\Temp\ccbxBJoL.s 			page 72


DEFINED SYMBOLS
                            *ABS*:00000000 chprintf.c
C:\Users\Mohamad\AppData\Local\Temp\ccbxBJoL.s:19     .text.long_to_string_with_divisor:00000000 $t
C:\Users\Mohamad\AppData\Local\Temp\ccbxBJoL.s:24     .text.long_to_string_with_divisor:00000000 long_to_string_with_divisor
C:\Users\Mohamad\AppData\Local\Temp\ccbxBJoL.s:136    .text.chvprintf:00000000 $t
C:\Users\Mohamad\AppData\Local\Temp\ccbxBJoL.s:142    .text.chvprintf:00000000 chvprintf
C:\Users\Mohamad\AppData\Local\Temp\ccbxBJoL.s:289    .text.chvprintf:000000ae $d
C:\Users\Mohamad\AppData\Local\Temp\ccbxBJoL.s:345    .text.chvprintf:00000118 $t
C:\Users\Mohamad\AppData\Local\Temp\ccbxBJoL.s:866    .text.chvprintf:000003e0 $d
C:\Users\Mohamad\AppData\Local\Temp\ccbxBJoL.s:872    .text.chvprintf:000003ec $t
C:\Users\Mohamad\AppData\Local\Temp\ccbxBJoL.s:937    .text.chsnprintf:00000000 $t
C:\Users\Mohamad\AppData\Local\Temp\ccbxBJoL.s:943    .text.chsnprintf:00000000 chsnprintf
C:\Users\Mohamad\AppData\Local\Temp\ccbxBJoL.s:1010   .rodata.str1.4:00000000 $d
                     .debug_frame:00000010 $d

UNDEFINED SYMBOLS
__aeabi_d2f
__aeabi_fcmplt
__aeabi_f2iz
__aeabi_f2d
__aeabi_i2d
__aeabi_dsub
__aeabi_dmul
__aeabi_d2iz
msObjectInit
