ARM GAS  C:\Users\Mohamad\AppData\Local\Temp\ccbxBJoL.s 			page 1


   1              		.syntax unified
   2              		.cpu cortex-m4
   3              		.fpu softvfp
   4              		.eabi_attribute 20, 1
   5              		.eabi_attribute 21, 1
   6              		.eabi_attribute 23, 3
   7              		.eabi_attribute 24, 1
   8              		.eabi_attribute 25, 1
   9              		.eabi_attribute 26, 1
  10              		.eabi_attribute 30, 2
  11              		.eabi_attribute 34, 1
  12              		.eabi_attribute 18, 4
  13              		.thumb
  14              		.file	"chprintf.c"
  15              		.text
  16              	.Ltext0:
  17              		.cfi_sections	.debug_frame
  18              		.section	.text.long_to_string_with_divisor,"ax",%progbits
  19              		.align	2
  20              		.p2align 4,,15
  21              		.thumb
  22              		.thumb_func
  23              		.type	long_to_string_with_divisor, %function
  24              	long_to_string_with_divisor:
  25              	.LFB8:
  26              		.file 1 "../../chibios/os/various/chprintf.c"
  27              		.loc 1 40 0
  28              		.cfi_startproc
  29              		@ args = 0, pretend = 0, frame = 0
  30              		@ frame_needed = 0, uses_anonymous_args = 0
  31              		@ link register save eliminated.
  32              	.LVL0:
  33 0000 F0B4     		push	{r4, r5, r6, r7}
  34              	.LCFI0:
  35              		.cfi_def_cfa_offset 16
  36              		.cfi_offset 4, -16
  37              		.cfi_offset 5, -12
  38              		.cfi_offset 6, -8
  39              		.cfi_offset 7, -4
  40              		.loc 1 47 0
  41 0002 002B     		cmp	r3, #0
  42 0004 08BF     		it	eq
  43 0006 0B46     		moveq	r3, r1
  44              	.LVL1:
  45              		.loc 1 40 0
  46 0008 0746     		mov	r7, r0
  47              	.LVL2:
  48              		.loc 1 52 0
  49 000a 00F10B0C 		add	ip, r0, #11
  50              	.LVL3:
  51              		.loc 1 37 0
  52 000e 00F10A05 		add	r5, r0, #10
  53              	.LVL4:
  54              	.L4:
  55              		.loc 1 54 0
  56 0012 B1FBF2F6 		udiv	r6, r1, r2
  57 0016 02FB1611 		mls	r1, r2, r6, r1
ARM GAS  C:\Users\Mohamad\AppData\Local\Temp\ccbxBJoL.s 			page 2


  58              	.LVL5:
  59              		.loc 1 55 0
  60 001a 01F13004 		add	r4, r1, #48
  61              	.LVL6:
  62              		.loc 1 56 0
  63 001e 392C     		cmp	r4, #57
  64              		.loc 1 57 0
  65 0020 C8BF     		it	gt
  66 0022 01F13704 		addgt	r4, r1, #55
  67              	.LVL7:
  68              		.loc 1 58 0
  69 0026 E4B2     		uxtb	r4, r4
  70              	.LVL8:
  71              		.loc 1 60 0
  72 0028 B3FBF2F3 		udiv	r3, r3, r2
  73              	.LVL9:
  74              		.loc 1 58 0
  75 002c 2846     		mov	r0, r5
  76              	.LVL10:
  77              		.loc 1 59 0
  78 002e 3146     		mov	r1, r6
  79              	.LVL11:
  80              		.loc 1 58 0
  81 0030 05F80149 		strb	r4, [r5], #-1
  82              	.LVL12:
  83              		.loc 1 60 0
  84 0034 002B     		cmp	r3, #0
  85 0036 ECD1     		bne	.L4
  86              	.LVL13:
  87              		.loc 1 62 0
  88 0038 C0EB0C03 		rsb	r3, r0, ip
  89              	.LVL14:
  90 003c F943     		mvns	r1, r7
  91              	.LVL15:
  92 003e 0246     		mov	r2, r0
  93              	.LVL16:
  94              		.loc 1 37 0
  95 0040 F818     		adds	r0, r7, r3
  96              	.LVL17:
  97 0042 4318     		adds	r3, r0, r1
  98              	.LVL18:
  99 0044 DB07     		lsls	r3, r3, #31
 100 0046 0AD5     		bpl	.L6
 101              	.LVL19:
 102              		.loc 1 64 0
 103 0048 07F8014B 		strb	r4, [r7], #1
 104              	.LVL20:
 105 004c 12F8014F 		ldrb	r4, [r2, #1]!	@ zero_extendqisi2
 106 0050 05E0     		b	.L6
 107              	.L17:
 108 0052 12F8014F 		ldrb	r4, [r2, #1]!	@ zero_extendqisi2
 109              	.LVL21:
 110 0056 7C70     		strb	r4, [r7, #1]
 111 0058 12F8014F 		ldrb	r4, [r2, #1]!	@ zero_extendqisi2
 112 005c 5F1C     		adds	r7, r3, #1
 113              	.LVL22:
 114              	.L6:
ARM GAS  C:\Users\Mohamad\AppData\Local\Temp\ccbxBJoL.s 			page 3


 115              		.loc 1 64 0 is_stmt 0 discriminator 1
 116 005e 3B46     		mov	r3, r7
 117 0060 03F8014B 		strb	r4, [r3], #1
 118              		.loc 1 65 0 is_stmt 1 discriminator 1
 119 0064 8342     		cmp	r3, r0
 120 0066 F4D1     		bne	.L17
 121              		.loc 1 68 0
 122 0068 F0BC     		pop	{r4, r5, r6, r7}
 123 006a 7047     		bx	lr
 124              		.cfi_endproc
 125              	.LFE8:
 126              		.size	long_to_string_with_divisor, .-long_to_string_with_divisor
 127              		.global	__aeabi_d2f
 128              		.global	__aeabi_fcmplt
 129              		.global	__aeabi_f2iz
 130              		.global	__aeabi_f2d
 131              		.global	__aeabi_i2d
 132              		.global	__aeabi_dsub
 133              		.global	__aeabi_dmul
 134              		.global	__aeabi_d2iz
 135 006c AFF30080 		.section	.text.chvprintf,"ax",%progbits
 136              		.align	2
 137              		.p2align 4,,15
 138              		.global	chvprintf
 139              		.thumb
 140              		.thumb_func
 141              		.type	chvprintf, %function
 142              	chvprintf:
 143              	.LFB11:
 144              		.loc 1 112 0
 145              		.cfi_startproc
 146              		@ args = 0, pretend = 0, frame = 48
 147              		@ frame_needed = 0, uses_anonymous_args = 0
 148              	.LVL23:
 149 0000 2DE9F04F 		push	{r4, r5, r6, r7, r8, r9, sl, fp, lr}
 150              	.LCFI1:
 151              		.cfi_def_cfa_offset 36
 152              		.cfi_offset 4, -36
 153              		.cfi_offset 5, -32
 154              		.cfi_offset 6, -28
 155              		.cfi_offset 7, -24
 156              		.cfi_offset 8, -20
 157              		.cfi_offset 9, -16
 158              		.cfi_offset 10, -12
 159              		.cfi_offset 11, -8
 160              		.cfi_offset 14, -4
 161 0004 8DB0     		sub	sp, sp, #52
 162              	.LCFI2:
 163              		.cfi_def_cfa_offset 88
 164              		.loc 1 132 0
 165 0006 0DF1180C 		add	ip, sp, #24
 166 000a CDF808C0 		str	ip, [sp, #8]
 167              		.loc 1 112 0
 168 000e 1746     		mov	r7, r2
 169 0010 029A     		ldr	r2, [sp, #8]
 170              	.LVL24:
 171              		.loc 1 236 0
ARM GAS  C:\Users\Mohamad\AppData\Local\Temp\ccbxBJoL.s 			page 4


 172 0012 0DF1190C 		add	ip, sp, #25
 173 0016 CDF804C0 		str	ip, [sp, #4]
 174 001a C2EB0C0C 		rsb	ip, r2, ip
 175              		.loc 1 112 0
 176 001e 0646     		mov	r6, r0
 177 0020 0C46     		mov	r4, r1
 178 0022 CDF80CC0 		str	ip, [sp, #12]
 179              	.LVL25:
 180              	.L119:
 181              		.loc 1 125 0
 182 0026 2546     		mov	r5, r4
 183 0028 15F8011B 		ldrb	r1, [r5], #1	@ zero_extendqisi2
 184              	.LVL26:
 185              		.loc 1 126 0
 186 002c 59B1     		cbz	r1, .L18
 187              	.LVL27:
 188              	.L135:
 189              		.loc 1 128 0
 190 002e 2529     		cmp	r1, #37
 191 0030 0CD0     		beq	.L21
 192              		.loc 1 129 0
 193 0032 3368     		ldr	r3, [r6, #0]
 194              		.loc 1 125 0
 195 0034 2C46     		mov	r4, r5
 196 0036 2546     		mov	r5, r4
 197              	.LVL28:
 198              		.loc 1 129 0
 199 0038 3046     		mov	r0, r6
 200 003a 9A68     		ldr	r2, [r3, #8]
 201 003c 9047     		blx	r2
 202              	.LVL29:
 203              		.loc 1 125 0
 204 003e 15F8011B 		ldrb	r1, [r5], #1	@ zero_extendqisi2
 205              	.LVL30:
 206              		.loc 1 126 0
 207 0042 0029     		cmp	r1, #0
 208 0044 F3D1     		bne	.L135
 209              	.LVL31:
 210              	.L18:
 211              		.loc 1 261 0
 212 0046 0DB0     		add	sp, sp, #52
 213 0048 BDE8F08F 		pop	{r4, r5, r6, r7, r8, r9, sl, fp, pc}
 214              	.L21:
 215              	.LVL32:
 216              		.loc 1 135 0
 217 004c 6378     		ldrb	r3, [r4, #1]	@ zero_extendqisi2
 218 004e 2D2B     		cmp	r3, #45
 219 0050 00F0CC81 		beq	.L136
 220              		.loc 1 134 0
 221 0054 4FF00009 		mov	r9, #0
 222              	.LVL33:
 223              	.L23:
 224              		.loc 1 140 0
 225 0058 2E2B     		cmp	r3, #46
 226 005a 00F0A681 		beq	.L24
 227              		.loc 1 140 0 is_stmt 0 discriminator 1
 228 005e 302B     		cmp	r3, #48
ARM GAS  C:\Users\Mohamad\AppData\Local\Temp\ccbxBJoL.s 			page 5


 229 0060 00F0A381 		beq	.L24
 230              		.loc 1 139 0 is_stmt 1
 231 0064 4FF02008 		mov	r8, #32
 232              	.LVL34:
 233              	.L25:
 234              		.loc 1 142 0
 235 0068 2C46     		mov	r4, r5
 236              		.loc 1 144 0
 237 006a 0025     		movs	r5, #0
 238              	.LVL35:
 239 006c 06E0     		b	.L28
 240              	.LVL36:
 241              	.L137:
 242              		.loc 1 150 0
 243 006e 3978     		ldrb	r1, [r7, #0]	@ zero_extendqisi2
 244              	.LVL37:
 245 0070 0437     		adds	r7, r7, #4
 246              	.LVL38:
 247              	.L26:
 248              		.loc 1 153 0
 249 0072 05EB8505 		add	r5, r5, r5, lsl #2
 250              	.LVL39:
 251 0076 2378     		ldrb	r3, [r4, #0]	@ zero_extendqisi2
 252 0078 01EB4505 		add	r5, r1, r5, lsl #1
 253              	.LVL40:
 254              	.L28:
 255              		.loc 1 147 0
 256 007c A3F13000 		sub	r0, r3, #48
 257 0080 C1B2     		uxtb	r1, r0
 258              		.loc 1 146 0
 259 0082 0134     		adds	r4, r4, #1
 260              	.LVL41:
 261              		.loc 1 147 0
 262 0084 0929     		cmp	r1, #9
 263 0086 F4D9     		bls	.L26
 264              		.loc 1 149 0
 265 0088 2A2B     		cmp	r3, #42
 266 008a F0D0     		beq	.L137
 267              	.LVL42:
 268              		.loc 1 156 0
 269 008c 2E2B     		cmp	r3, #46
 270 008e 00F09181 		beq	.L138
 271              		.loc 1 155 0
 272 0092 0021     		movs	r1, #0
 273              	.LVL43:
 274              	.L29:
 275              		.loc 1 170 0
 276 0094 6C2B     		cmp	r3, #108
 277 0096 00F08181 		beq	.L32
 278              		.loc 1 170 0 is_stmt 0 discriminator 1
 279 009a 4C2B     		cmp	r3, #76
 280 009c 00F07E81 		beq	.L32
 281              	.LVL44:
 282              	.L34:
 283              		.loc 1 179 0 is_stmt 1
 284 00a0 A3F14400 		sub	r0, r3, #68
 285 00a4 3428     		cmp	r0, #52
ARM GAS  C:\Users\Mohamad\AppData\Local\Temp\ccbxBJoL.s 			page 6


 286 00a6 00F27281 		bhi	.L35
 287 00aa DFE810F0 		tbh	[pc, r0, lsl #1]
 288              	.L43:
 289 00ae 6901     		.2byte	(.L36-.L43)/2
 290 00b0 7001     		.2byte	(.L35-.L43)/2
 291 00b2 7001     		.2byte	(.L35-.L43)/2
 292 00b4 7001     		.2byte	(.L35-.L43)/2
 293 00b6 7001     		.2byte	(.L35-.L43)/2
 294 00b8 6901     		.2byte	(.L36-.L43)/2
 295 00ba 7001     		.2byte	(.L35-.L43)/2
 296 00bc 7001     		.2byte	(.L35-.L43)/2
 297 00be 7001     		.2byte	(.L35-.L43)/2
 298 00c0 7001     		.2byte	(.L35-.L43)/2
 299 00c2 7001     		.2byte	(.L35-.L43)/2
 300 00c4 6701     		.2byte	(.L37-.L43)/2
 301 00c6 7001     		.2byte	(.L35-.L43)/2
 302 00c8 7001     		.2byte	(.L35-.L43)/2
 303 00ca 7001     		.2byte	(.L35-.L43)/2
 304 00cc 7001     		.2byte	(.L35-.L43)/2
 305 00ce 7001     		.2byte	(.L35-.L43)/2
 306 00d0 6501     		.2byte	(.L68-.L43)/2
 307 00d2 7001     		.2byte	(.L35-.L43)/2
 308 00d4 7001     		.2byte	(.L35-.L43)/2
 309 00d6 5701     		.2byte	(.L39-.L43)/2
 310 00d8 7001     		.2byte	(.L35-.L43)/2
 311 00da 7001     		.2byte	(.L35-.L43)/2
 312 00dc 7001     		.2byte	(.L35-.L43)/2
 313 00de 7001     		.2byte	(.L35-.L43)/2
 314 00e0 7001     		.2byte	(.L35-.L43)/2
 315 00e2 7001     		.2byte	(.L35-.L43)/2
 316 00e4 7001     		.2byte	(.L35-.L43)/2
 317 00e6 7001     		.2byte	(.L35-.L43)/2
 318 00e8 7001     		.2byte	(.L35-.L43)/2
 319 00ea 7001     		.2byte	(.L35-.L43)/2
 320 00ec 1801     		.2byte	(.L40-.L43)/2
 321 00ee 6901     		.2byte	(.L36-.L43)/2
 322 00f0 7001     		.2byte	(.L35-.L43)/2
 323 00f2 D200     		.2byte	(.L41-.L43)/2
 324 00f4 7001     		.2byte	(.L35-.L43)/2
 325 00f6 7001     		.2byte	(.L35-.L43)/2
 326 00f8 6901     		.2byte	(.L36-.L43)/2
 327 00fa 7001     		.2byte	(.L35-.L43)/2
 328 00fc 7001     		.2byte	(.L35-.L43)/2
 329 00fe 7001     		.2byte	(.L35-.L43)/2
 330 0100 7001     		.2byte	(.L35-.L43)/2
 331 0102 7001     		.2byte	(.L35-.L43)/2
 332 0104 6701     		.2byte	(.L37-.L43)/2
 333 0106 7001     		.2byte	(.L35-.L43)/2
 334 0108 7001     		.2byte	(.L35-.L43)/2
 335 010a 7001     		.2byte	(.L35-.L43)/2
 336 010c 3500     		.2byte	(.L42-.L43)/2
 337 010e 7001     		.2byte	(.L35-.L43)/2
 338 0110 6501     		.2byte	(.L68-.L43)/2
 339 0112 7001     		.2byte	(.L35-.L43)/2
 340 0114 7001     		.2byte	(.L35-.L43)/2
 341 0116 5701     		.2byte	(.L39-.L43)/2
 342              	.L42:
ARM GAS  C:\Users\Mohamad\AppData\Local\Temp\ccbxBJoL.s 			page 7


 343              	.LVL45:
 344              		.loc 1 186 0
 345 0118 3B68     		ldr	r3, [r7, #0]
 346              	.LVL46:
 347              		.loc 1 187 0
 348 011a B34A     		ldr	r2, .L145+8
 349 011c 002B     		cmp	r3, #0
 350 011e 14BF     		ite	ne
 351 0120 9A46     		movne	sl, r3
 352 0122 9246     		moveq	sl, r2
 353              		.loc 1 189 0
 354 0124 47F6FF73 		movw	r3, #32767
 355              		.loc 1 190 0
 356 0128 9AF80000 		ldrb	r0, [sl, #0]	@ zero_extendqisi2
 357              	.LVL47:
 358              		.loc 1 186 0
 359 012c 0437     		adds	r7, r7, #4
 360              	.LVL48:
 361              		.loc 1 189 0
 362 012e 0029     		cmp	r1, #0
 363 0130 08BF     		it	eq
 364 0132 1946     		moveq	r1, r3
 365              	.LVL49:
 366              		.loc 1 190 0
 367 0134 0028     		cmp	r0, #0
 368 0136 00F07A81 		beq	.L71
 369              		.loc 1 112 0
 370 013a 0AEB0100 		add	r0, sl, r1
 371              		.loc 1 190 0
 372 013e 9AF80130 		ldrb	r3, [sl, #1]	@ zero_extendqisi2
 373 0142 6FEA0A01 		mvn	r1, sl
 374 0146 0A18     		adds	r2, r1, r0
 375 0148 02F00101 		and	r1, r2, #1
 376              		.loc 1 112 0
 377 014c 0AF1010B 		add	fp, sl, #1
 378              	.LVL50:
 379              		.loc 1 190 0
 380 0150 63B1     		cbz	r3, .L122
 381 0152 8345     		cmp	fp, r0
 382 0154 5B46     		mov	r3, fp
 383 0156 09D0     		beq	.L122
 384 0158 0029     		cmp	r1, #0
 385 015a 6ED0     		beq	.L48
 386 015c 9BF80130 		ldrb	r3, [fp, #1]	@ zero_extendqisi2
 387              		.loc 1 112 0
 388 0160 0BF1010B 		add	fp, fp, #1
 389              	.LVL51:
 390              		.loc 1 190 0
 391 0164 13B1     		cbz	r3, .L122
 392 0166 8345     		cmp	fp, r0
 393 0168 5B46     		mov	r3, fp
 394 016a 66D1     		bne	.L48
 395              	.L122:
 396 016c CAEB0B0B 		rsb	fp, sl, fp
 397              	.LVL52:
 398              		.loc 1 185 0
 399 0170 4FF02008 		mov	r8, #32
ARM GAS  C:\Users\Mohamad\AppData\Local\Temp\ccbxBJoL.s 			page 8


 400              	.L140:
 401              	.LVL53:
 402              		.loc 1 240 0
 403 0174 CBEB0505 		rsb	r5, fp, r5
 404              	.LVL54:
 405 0178 25EAE575 		bic	r5, r5, r5, asr #31
 406              	.LVL55:
 407              		.loc 1 242 0
 408 017c B9F1000F 		cmp	r9, #0
 409 0180 00F0BF80 		beq	.L139
 410              	.LVL56:
 411              	.L56:
 412              		.loc 1 253 0 discriminator 1
 413 0184 BBF1000F 		cmp	fp, #0
 414 0188 27DD     		ble	.L62
 415              		.loc 1 254 0
 416 018a D146     		mov	r9, sl
 417 018c 3068     		ldr	r0, [r6, #0]
 418 018e 19F8011B 		ldrb	r1, [r9], #1	@ zero_extendqisi2
 419 0192 8368     		ldr	r3, [r0, #8]
 420              		.loc 1 112 0
 421 0194 D344     		add	fp, sl, fp
 422              	.LVL57:
 423 0196 6FEA0A0E 		mvn	lr, sl
 424              		.loc 1 254 0
 425 019a 3046     		mov	r0, r6
 426 019c 0BEB0E0A 		add	sl, fp, lr
 427              	.LVL58:
 428 01a0 9847     		blx	r3
 429              	.LVL59:
 430              		.loc 1 253 0
 431 01a2 D945     		cmp	r9, fp
 432 01a4 0AF0010A 		and	sl, sl, #1
 433              	.LVL60:
 434 01a8 17D0     		beq	.L62
 435 01aa BAF1000F 		cmp	sl, #0
 436 01ae 03D0     		beq	.L61
 437              	.LVL61:
 438              		.loc 1 254 0
 439 01b0 3268     		ldr	r2, [r6, #0]
 440 01b2 19F8011B 		ldrb	r1, [r9], #1	@ zero_extendqisi2
 441 01b6 0BE0     		b	.L134
 442              	.L61:
 443 01b8 3068     		ldr	r0, [r6, #0]
 444 01ba CA46     		mov	sl, r9
 445 01bc 8268     		ldr	r2, [r0, #8]
 446 01be 1AF8011B 		ldrb	r1, [sl], #1	@ zero_extendqisi2
 447 01c2 3046     		mov	r0, r6
 448 01c4 9047     		blx	r2
 449              	.LVL62:
 450 01c6 3268     		ldr	r2, [r6, #0]
 451 01c8 99F80110 		ldrb	r1, [r9, #1]	@ zero_extendqisi2
 452 01cc 0AF10109 		add	r9, sl, #1
 453              	.L134:
 454 01d0 9368     		ldr	r3, [r2, #8]
 455 01d2 3046     		mov	r0, r6
 456 01d4 9847     		blx	r3
ARM GAS  C:\Users\Mohamad\AppData\Local\Temp\ccbxBJoL.s 			page 9


 457              	.LVL63:
 458              		.loc 1 253 0
 459 01d6 D945     		cmp	r9, fp
 460 01d8 EED1     		bne	.L61
 461              	.L62:
 462              	.LVL64:
 463              		.loc 1 256 0
 464 01da 002D     		cmp	r5, #0
 465 01dc 3FF423AF 		beq	.L119
 466              		.loc 1 257 0
 467 01e0 3168     		ldr	r1, [r6, #0]
 468 01e2 6B1E     		subs	r3, r5, #1
 469 01e4 8A68     		ldr	r2, [r1, #8]
 470              		.loc 1 256 0
 471 01e6 1D46     		mov	r5, r3
 472              	.LVL65:
 473              		.loc 1 257 0
 474 01e8 3046     		mov	r0, r6
 475 01ea 4146     		mov	r1, r8
 476 01ec 03F00109 		and	r9, r3, #1
 477 01f0 9047     		blx	r2
 478              	.LVL66:
 479              		.loc 1 256 0
 480 01f2 002D     		cmp	r5, #0
 481 01f4 3FF417AF 		beq	.L119
 482 01f8 B9F1000F 		cmp	r9, #0
 483 01fc 07D0     		beq	.L81
 484              		.loc 1 257 0
 485 01fe 3168     		ldr	r1, [r6, #0]
 486 0200 3046     		mov	r0, r6
 487 0202 8B68     		ldr	r3, [r1, #8]
 488 0204 4146     		mov	r1, r8
 489 0206 9847     		blx	r3
 490              	.LVL67:
 491              		.loc 1 256 0
 492 0208 013D     		subs	r5, r5, #1
 493 020a 3FF40CAF 		beq	.L119
 494              	.L81:
 495              		.loc 1 257 0
 496 020e 3068     		ldr	r0, [r6, #0]
 497 0210 4146     		mov	r1, r8
 498 0212 8268     		ldr	r2, [r0, #8]
 499 0214 3046     		mov	r0, r6
 500 0216 9047     		blx	r2
 501              	.LVL68:
 502 0218 3168     		ldr	r1, [r6, #0]
 503              		.loc 1 258 0
 504 021a 013D     		subs	r5, r5, #1
 505              		.loc 1 257 0
 506 021c 8B68     		ldr	r3, [r1, #8]
 507 021e 3046     		mov	r0, r6
 508 0220 4146     		mov	r1, r8
 509 0222 9847     		blx	r3
 510              	.LVL69:
 511              		.loc 1 256 0
 512 0224 013D     		subs	r5, r5, #1
 513 0226 F2D1     		bne	.L81
ARM GAS  C:\Users\Mohamad\AppData\Local\Temp\ccbxBJoL.s 			page 10


 514 0228 FDE6     		b	.L119
 515              	.LVL70:
 516              	.L47:
 517              		.loc 1 190 0 discriminator 2
 518 022a 9BF80110 		ldrb	r1, [fp, #1]	@ zero_extendqisi2
 519              		.loc 1 112 0 discriminator 2
 520 022e 0BF1010B 		add	fp, fp, #1
 521              	.LVL71:
 522              		.loc 1 190 0 discriminator 2
 523 0232 0029     		cmp	r1, #0
 524 0234 9AD0     		beq	.L122
 525              		.loc 1 190 0 is_stmt 0
 526 0236 8345     		cmp	fp, r0
 527 0238 98D0     		beq	.L122
 528              	.L48:
 529              		.loc 1 112 0 is_stmt 1 discriminator 1
 530 023a 03F1010B 		add	fp, r3, #1
 531              	.LVL72:
 532              		.loc 1 190 0 discriminator 1
 533 023e 5978     		ldrb	r1, [r3, #1]	@ zero_extendqisi2
 534 0240 5A46     		mov	r2, fp
 535 0242 531C     		adds	r3, r2, #1
 536 0244 0029     		cmp	r1, #0
 537 0246 F0D1     		bne	.L47
 538 0248 CAEB0B0B 		rsb	fp, sl, fp
 539              	.LVL73:
 540              		.loc 1 185 0
 541 024c 4FF02008 		mov	r8, #32
 542 0250 90E7     		b	.L140
 543              	.LVL74:
 544              	.L41:
 545              		.loc 1 209 0
 546 0252 0737     		adds	r7, r7, #7
 547              	.LVL75:
 548 0254 27F00707 		bic	r7, r7, #7
 549              	.LVL76:
 550 0258 D7E90001 		ldrd	r0, [r7]
 551 025c FFF7FEFF 		bl	__aeabi_d2f
 552              	.LVL77:
 553              		.loc 1 210 0
 554 0260 0021     		movs	r1, #0
 555              		.loc 1 209 0
 556 0262 0837     		adds	r7, r7, #8
 557              	.LVL78:
 558 0264 8346     		mov	fp, r0
 559              	.LVL79:
 560              		.loc 1 210 0
 561 0266 FFF7FEFF 		bl	__aeabi_fcmplt
 562              	.LVL80:
 563 026a 0028     		cmp	r0, #0
 564 026c 40F0CF80 		bne	.L141
 565              		.loc 1 132 0
 566 0270 0DF1180A 		add	sl, sp, #24
 567              	.LVL81:
 568              	.L52:
 569              	.LBB8:
 570              	.LBB9:
ARM GAS  C:\Users\Mohamad\AppData\Local\Temp\ccbxBJoL.s 			page 11


 571              		.loc 1 80 0
 572 0274 5846     		mov	r0, fp
 573 0276 FFF7FEFF 		bl	__aeabi_f2iz
 574              	.LVL82:
 575 027a 8446     		mov	ip, r0
 576              	.LVL83:
 577              		.loc 1 81 0
 578 027c 6146     		mov	r1, ip
 579 027e 0023     		movs	r3, #0
 580 0280 5046     		mov	r0, sl
 581              	.LVL84:
 582 0282 0A22     		movs	r2, #10
 583 0284 CDF800C0 		str	ip, [sp, #0]
 584 0288 FFF7FEFF 		bl	long_to_string_with_divisor
 585              	.LVL85:
 586              		.loc 1 82 0
 587 028c 8246     		mov	sl, r0
 588              	.LVL86:
 589 028e 2E22     		movs	r2, #46
 590 0290 0AF8012B 		strb	r2, [sl], #1
 591              	.LVL87:
 592              	.LBE9:
 593              	.LBE8:
 594              		.loc 1 214 0
 595 0294 5846     		mov	r0, fp
 596              	.LVL88:
 597 0296 FFF7FEFF 		bl	__aeabi_f2d
 598              	.LVL89:
 599              	.LBB12:
 600              	.LBB10:
 601              		.loc 1 83 0
 602 029a DDF800B0 		ldr	fp, [sp, #0]
 603              	.LVL90:
 604              	.LBE10:
 605              	.LBE12:
 606              		.loc 1 214 0
 607 029e CDE90401 		strd	r0, [sp, #16]
 608              	.LBB13:
 609              	.LBB11:
 610              		.loc 1 83 0
 611 02a2 5846     		mov	r0, fp
 612 02a4 FFF7FEFF 		bl	__aeabi_i2d
 613              	.LVL91:
 614 02a8 0246     		mov	r2, r0
 615 02aa 0B46     		mov	r3, r1
 616 02ac DDE90401 		ldrd	r0, [sp, #16]
 617 02b0 FFF7FEFF 		bl	__aeabi_dsub
 618              	.LVL92:
 619 02b4 4AA3     		adr	r3, .L145
 620 02b6 D3E90023 		ldrd	r2, [r3]
 621 02ba FFF7FEFF 		bl	__aeabi_dmul
 622              	.LVL93:
 623 02be FFF7FEFF 		bl	__aeabi_d2iz
 624              	.LVL94:
 625              		.loc 1 84 0
 626 02c2 0A22     		movs	r2, #10
 627              		.loc 1 83 0
ARM GAS  C:\Users\Mohamad\AppData\Local\Temp\ccbxBJoL.s 			page 12


 628 02c4 0146     		mov	r1, r0
 629              		.loc 1 84 0
 630 02c6 42F21073 		movw	r3, #10000
 631 02ca 5046     		mov	r0, sl
 632 02cc FFF7FEFF 		bl	long_to_string_with_divisor
 633              	.LVL95:
 634 02d0 DDF808C0 		ldr	ip, [sp, #8]
 635              	.LBE11:
 636              	.LBE13:
 637              		.loc 1 133 0
 638 02d4 0DF1180A 		add	sl, sp, #24
 639              	.LVL96:
 640 02d8 CCEB000B 		rsb	fp, ip, r0
 641              		.loc 1 215 0
 642 02dc 09E0     		b	.L44
 643              	.LVL97:
 644              	.L40:
 645              		.loc 1 182 0
 646 02de 3B68     		ldr	r3, [r7, #0]
 647              	.LVL98:
 648 02e0 DDF80CB0 		ldr	fp, [sp, #12]
 649 02e4 8DF81830 		strb	r3, [sp, #24]
 650              	.LVL99:
 651 02e8 0437     		adds	r7, r7, #4
 652              	.LVL100:
 653              		.loc 1 181 0
 654 02ea 4FF02008 		mov	r8, #32
 655              		.loc 1 133 0
 656 02ee 0DF1180A 		add	sl, sp, #24
 657              	.LVL101:
 658              	.L44:
 659              		.loc 1 240 0
 660 02f2 CBEB0505 		rsb	r5, fp, r5
 661              	.LVL102:
 662 02f6 25EAE575 		bic	r5, r5, r5, asr #31
 663              	.LVL103:
 664              		.loc 1 242 0
 665 02fa B9F1000F 		cmp	r9, #0
 666 02fe 7FF441AF 		bne	.L56
 667              	.LVL104:
 668              	.L139:
 669              		.loc 1 243 0
 670 0302 6D42     		negs	r5, r5
 671              	.LVL105:
 672              		.loc 1 244 0
 673 0304 002D     		cmp	r5, #0
 674 0306 3FF43DAF 		beq	.L56
 675              		.loc 1 245 0
 676 030a 9AF80010 		ldrb	r1, [sl, #0]	@ zero_extendqisi2
 677 030e 2D29     		cmp	r1, #45
 678 0310 71D0     		beq	.L142
 679              	.L106:
 680              		.loc 1 250 0
 681 0312 3168     		ldr	r1, [r6, #0]
 682 0314 3046     		mov	r0, r6
 683 0316 8A68     		ldr	r2, [r1, #8]
 684 0318 4146     		mov	r1, r8
ARM GAS  C:\Users\Mohamad\AppData\Local\Temp\ccbxBJoL.s 			page 13


 685 031a 6FEA0509 		mvn	r9, r5
 686              	.LVL106:
 687 031e 9047     		blx	r2
 688              	.LVL107:
 689              		.loc 1 251 0
 690 0320 0135     		adds	r5, r5, #1
 691              	.LVL108:
 692 0322 09F00109 		and	r9, r9, #1
 693              	.LVL109:
 694 0326 3FF42DAF 		beq	.L56
 695 032a B9F1000F 		cmp	r9, #0
 696 032e 07D0     		beq	.L82
 697              	.LVL110:
 698              		.loc 1 250 0
 699 0330 3368     		ldr	r3, [r6, #0]
 700 0332 3046     		mov	r0, r6
 701 0334 9A68     		ldr	r2, [r3, #8]
 702 0336 4146     		mov	r1, r8
 703 0338 9047     		blx	r2
 704              	.LVL111:
 705              		.loc 1 251 0
 706 033a 0135     		adds	r5, r5, #1
 707              	.LVL112:
 708 033c 3FF422AF 		beq	.L56
 709              	.LVL113:
 710              	.L82:
 711              		.loc 1 250 0 discriminator 1
 712 0340 3068     		ldr	r0, [r6, #0]
 713 0342 4146     		mov	r1, r8
 714 0344 8368     		ldr	r3, [r0, #8]
 715 0346 3046     		mov	r0, r6
 716 0348 9847     		blx	r3
 717              	.LVL114:
 718 034a 3168     		ldr	r1, [r6, #0]
 719              		.loc 1 251 0 discriminator 1
 720 034c 0135     		adds	r5, r5, #1
 721              	.LVL115:
 722              		.loc 1 250 0 discriminator 1
 723 034e 8A68     		ldr	r2, [r1, #8]
 724 0350 3046     		mov	r0, r6
 725 0352 4146     		mov	r1, r8
 726 0354 9047     		blx	r2
 727              	.LVL116:
 728              		.loc 1 251 0 discriminator 1
 729 0356 0135     		adds	r5, r5, #1
 730              	.LVL117:
 731 0358 F2D1     		bne	.L82
 732 035a 13E7     		b	.L56
 733              	.LVL118:
 734              	.L39:
 735              		.loc 1 179 0
 736 035c 1022     		movs	r2, #16
 737              	.LVL119:
 738              	.L38:
 739              		.loc 1 230 0
 740 035e 3968     		ldr	r1, [r7, #0]
 741              	.LVL120:
ARM GAS  C:\Users\Mohamad\AppData\Local\Temp\ccbxBJoL.s 			page 14


 742              	.LBB14:
 743              	.LBB15:
 744              		.loc 1 72 0
 745 0360 06A8     		add	r0, sp, #24
 746              	.LBE15:
 747              	.LBE14:
 748              		.loc 1 230 0
 749 0362 0437     		adds	r7, r7, #4
 750              	.LVL121:
 751              	.L132:
 752              	.LBB17:
 753              	.LBB16:
 754              		.loc 1 72 0
 755 0364 0023     		movs	r3, #0
 756 0366 FFF7FEFF 		bl	long_to_string_with_divisor
 757              	.LVL122:
 758 036a DDF808B0 		ldr	fp, [sp, #8]
 759              	.LBE16:
 760              	.LBE17:
 761              		.loc 1 133 0
 762 036e 0DF1180A 		add	sl, sp, #24
 763 0372 CBEB000B 		rsb	fp, fp, r0
 764              		.loc 1 234 0
 765 0376 BCE7     		b	.L44
 766              	.LVL123:
 767              	.L68:
 768              		.loc 1 179 0
 769 0378 0A22     		movs	r2, #10
 770 037a F0E7     		b	.L38
 771              	.L37:
 772              	.LVL124:
 773 037c 0822     		movs	r2, #8
 774 037e EEE7     		b	.L38
 775              	.LVL125:
 776              	.L36:
 777              		.loc 1 198 0
 778 0380 3968     		ldr	r1, [r7, #0]
 779              	.LVL126:
 780 0382 0437     		adds	r7, r7, #4
 781              	.LVL127:
 782              		.loc 1 201 0
 783 0384 0029     		cmp	r1, #0
 784 0386 4ADB     		blt	.L143
 785              		.loc 1 132 0
 786 0388 06A8     		add	r0, sp, #24
 787              	.LVL128:
 788              	.LBB18:
 789              	.LBB19:
 790              		.loc 1 72 0
 791 038a 0A22     		movs	r2, #10
 792 038c EAE7     		b	.L132
 793              	.LVL129:
 794              	.L35:
 795              	.LBE19:
 796              	.LBE18:
 797              		.loc 1 236 0
 798 038e 8DF81830 		strb	r3, [sp, #24]
ARM GAS  C:\Users\Mohamad\AppData\Local\Temp\ccbxBJoL.s 			page 15


 799              	.LVL130:
 800 0392 DDF80CB0 		ldr	fp, [sp, #12]
 801              		.loc 1 133 0
 802 0396 0DF1180A 		add	sl, sp, #24
 803              		.loc 1 237 0
 804 039a AAE7     		b	.L44
 805              	.LVL131:
 806              	.L32:
 807              		.loc 1 172 0
 808 039c 2278     		ldrb	r2, [r4, #0]	@ zero_extendqisi2
 809 039e 002A     		cmp	r2, #0
 810 03a0 3FF47EAE 		beq	.L34
 811              	.LVL132:
 812              		.loc 1 173 0
 813 03a4 0134     		adds	r4, r4, #1
 814              	.LVL133:
 815 03a6 1346     		mov	r3, r2
 816 03a8 7AE6     		b	.L34
 817              	.LVL134:
 818              	.L24:
 819 03aa 6B78     		ldrb	r3, [r5, #1]	@ zero_extendqisi2
 820              		.loc 1 142 0
 821 03ac 4FF03008 		mov	r8, #48
 822              		.loc 1 141 0
 823 03b0 0135     		adds	r5, r5, #1
 824              	.LVL135:
 825 03b2 59E6     		b	.L25
 826              	.LVL136:
 827              	.L138:
 828 03b4 2046     		mov	r0, r4
 829              		.loc 1 156 0
 830 03b6 0021     		movs	r1, #0
 831 03b8 05E0     		b	.L31
 832              	.LVL137:
 833              	.L144:
 834              		.loc 1 162 0
 835 03ba 3A78     		ldrb	r2, [r7, #0]	@ zero_extendqisi2
 836              	.LVL138:
 837 03bc 0437     		adds	r7, r7, #4
 838              	.LVL139:
 839              	.L30:
 840              		.loc 1 165 0
 841 03be 01EB8104 		add	r4, r1, r1, lsl #2
 842              	.LVL140:
 843              		.loc 1 166 0
 844 03c2 02EB4401 		add	r1, r2, r4, lsl #1
 845              	.LVL141:
 846              	.L31:
 847              		.loc 1 158 0
 848 03c6 10F8013B 		ldrb	r3, [r0], #1	@ zero_extendqisi2
 849              	.LVL142:
 850              		.loc 1 159 0
 851 03ca A3F13004 		sub	r4, r3, #48
 852 03ce E2B2     		uxtb	r2, r4
 853 03d0 092A     		cmp	r2, #9
 854              		.loc 1 158 0
 855 03d2 0446     		mov	r4, r0
ARM GAS  C:\Users\Mohamad\AppData\Local\Temp\ccbxBJoL.s 			page 16


 856              	.LVL143:
 857              		.loc 1 159 0
 858 03d4 F3D9     		bls	.L30
 859              		.loc 1 161 0
 860 03d6 2A2B     		cmp	r3, #42
 861 03d8 EFD0     		beq	.L144
 862 03da 5BE6     		b	.L29
 863              	.L146:
 864 03dc AFF30080 		.align	3
 865              	.L145:
 866 03e0 00000000 		.word	0
 867 03e4 006AF840 		.word	1090021888
 868 03e8 00000000 		.word	.LC0
 869              	.LVL144:
 870              	.L136:
 871              		.loc 1 136 0
 872 03ec A51C     		adds	r5, r4, #2
 873              	.LVL145:
 874 03ee A378     		ldrb	r3, [r4, #2]	@ zero_extendqisi2
 875              		.loc 1 137 0
 876 03f0 4FF00109 		mov	r9, #1
 877 03f4 30E6     		b	.L23
 878              	.LVL146:
 879              	.L142:
 880              		.loc 1 245 0 discriminator 1
 881 03f6 B8F1300F 		cmp	r8, #48
 882 03fa 8AD1     		bne	.L106
 883              		.loc 1 246 0
 884 03fc 3268     		ldr	r2, [r6, #0]
 885 03fe 3046     		mov	r0, r6
 886 0400 9368     		ldr	r3, [r2, #8]
 887 0402 9847     		blx	r3
 888              	.LVL147:
 889 0404 0AF1010A 		add	sl, sl, #1
 890              	.LVL148:
 891              		.loc 1 247 0
 892 0408 0BF1FF3B 		add	fp, fp, #-1
 893              	.LVL149:
 894 040c 81E7     		b	.L106
 895              	.LVL150:
 896              	.L141:
 897              		.loc 1 211 0
 898 040e 2D20     		movs	r0, #45
 899              		.loc 1 212 0
 900 0410 0BF1004B 		add	fp, fp, #-2147483648
 901              	.LVL151:
 902              		.loc 1 211 0
 903 0414 8DF81800 		strb	r0, [sp, #24]
 904              	.LVL152:
 905 0418 0DF1190A 		add	sl, sp, #25
 906 041c 2AE7     		b	.L52
 907              	.LVL153:
 908              	.L143:
 909              		.loc 1 202 0
 910 041e 2D20     		movs	r0, #45
 911 0420 8DF81800 		strb	r0, [sp, #24]
 912              	.LVL154:
ARM GAS  C:\Users\Mohamad\AppData\Local\Temp\ccbxBJoL.s 			page 17


 913              		.loc 1 203 0
 914 0424 4942     		negs	r1, r1
 915              	.LVL155:
 916              		.loc 1 202 0
 917 0426 0DF11900 		add	r0, sp, #25
 918              	.LVL156:
 919              	.LBB21:
 920              	.LBB20:
 921              		.loc 1 72 0
 922 042a 0A22     		movs	r2, #10
 923 042c 9AE7     		b	.L132
 924              	.LVL157:
 925              	.L71:
 926              	.LBE20:
 927              	.LBE21:
 928              		.loc 1 190 0
 929 042e 8346     		mov	fp, r0
 930              		.loc 1 185 0
 931 0430 4FF02008 		mov	r8, #32
 932 0434 5DE7     		b	.L44
 933              		.cfi_endproc
 934              	.LFE11:
 935              		.size	chvprintf, .-chvprintf
 936 0436 00BFAFF3 		.section	.text.chsnprintf,"ax",%progbits
 936      0080AFF3 
 936      0080
 937              		.align	2
 938              		.p2align 4,,15
 939              		.global	chsnprintf
 940              		.thumb
 941              		.thumb_func
 942              		.type	chsnprintf, %function
 943              	chsnprintf:
 944              	.LFB12:
 945              		.loc 1 288 0
 946              		.cfi_startproc
 947              		@ args = 4, pretend = 8, frame = 24
 948              		@ frame_needed = 0, uses_anonymous_args = 1
 949              	.LVL158:
 950 0000 0CB4     		push	{r2, r3}
 951              	.LCFI3:
 952              		.cfi_def_cfa_offset 8
 953              		.cfi_offset 2, -8
 954              		.cfi_offset 3, -4
 955 0002 70B5     		push	{r4, r5, r6, lr}
 956              	.LCFI4:
 957              		.cfi_def_cfa_offset 24
 958              		.cfi_offset 4, -24
 959              		.cfi_offset 5, -20
 960              		.cfi_offset 6, -16
 961              		.cfi_offset 14, -12
 962 0004 86B0     		sub	sp, sp, #24
 963              	.LCFI5:
 964              		.cfi_def_cfa_offset 48
 965              		.loc 1 288 0
 966 0006 0AAC     		add	r4, sp, #40
 967 0008 0646     		mov	r6, r0
ARM GAS  C:\Users\Mohamad\AppData\Local\Temp\ccbxBJoL.s 			page 18


 968 000a 54F8045B 		ldr	r5, [r4], #4
 969              		.loc 1 294 0
 970 000e 0023     		movs	r3, #0
 971              		.loc 1 288 0
 972 0010 0A46     		mov	r2, r1
 973              		.loc 1 294 0
 974 0012 01A8     		add	r0, sp, #4
 975              	.LVL159:
 976 0014 3146     		mov	r1, r6
 977              	.LVL160:
 978 0016 FFF7FEFF 		bl	msObjectInit
 979              	.LVL161:
 980              		.loc 1 299 0
 981 001a 01A8     		add	r0, sp, #4
 982              	.LVL162:
 983 001c 2946     		mov	r1, r5
 984 001e 2246     		mov	r2, r4
 985              		.loc 1 298 0
 986 0020 0094     		str	r4, [sp, #0]
 987              		.loc 1 299 0
 988 0022 FFF7FEFF 		bl	chvprintf
 989              	.LVL163:
 990              		.loc 1 303 0
 991 0026 019B     		ldr	r3, [sp, #4]
 992 0028 01A8     		add	r0, sp, #4
 993              	.LVL164:
 994 002a 9A68     		ldr	r2, [r3, #8]
 995 002c 0021     		movs	r1, #0
 996 002e 9047     		blx	r2
 997              	.LVL165:
 998              		.loc 1 304 0
 999 0030 0498     		ldr	r0, [sp, #16]
 1000              		.loc 1 305 0
 1001 0032 0138     		subs	r0, r0, #1
 1002 0034 06B0     		add	sp, sp, #24
 1003 0036 BDE87040 		pop	{r4, r5, r6, lr}
 1004 003a 02B0     		add	sp, sp, #8
 1005 003c 7047     		bx	lr
 1006              		.cfi_endproc
 1007              	.LFE12:
 1008              		.size	chsnprintf, .-chsnprintf
 1009 003e 00BF     		.section	.rodata.str1.4,"aMS",%progbits,1
 1010              		.align	2
 1011              	.LC0:
 1012 0000 286E756C 		.ascii	"(null)\000"
 1012      6C2900
 1013 0007 00       		.text
 1014              	.Letext0:
 1015              		.file 2 "c:\\chibistudio\\tools\\gnu tools arm embedded\\4.7 2014q2\\bin\\../lib/gcc/arm-none-eabi
 1016              		.file 3 "c:\\chibistudio\\tools\\gnu tools arm embedded\\4.7 2014q2\\bin\\../lib/gcc/arm-none-eabi
 1017              		.file 4 "../../chibios/os/ports/GCC/ARMCMx/chtypes.h"
 1018              		.file 5 "../../chibios/os/kernel/include/chstreams.h"
 1019              		.file 6 "c:\\chibistudio\\tools\\gnu tools arm embedded\\4.7 2014q2\\bin\\../lib/gcc/arm-none-eabi
 1020              		.file 7 "<built-in>"
 1021              		.file 8 "../../chibios/os/various/memstreams.h"