ARM GAS  C:\Users\Mohamad\AppData\Local\Temp\ccObaWQo.s 			page 1


   1              		.syntax unified
   2              		.cpu cortex-m4
   3              		.fpu softvfp
   4              		.eabi_attribute 20, 1
   5              		.eabi_attribute 21, 1
   6              		.eabi_attribute 23, 3
   7              		.eabi_attribute 24, 1
   8              		.eabi_attribute 25, 1
   9              		.eabi_attribute 26, 1
  10              		.eabi_attribute 30, 2
  11              		.eabi_attribute 34, 1
  12              		.eabi_attribute 18, 4
  13              		.thumb
  14              		.file	"Common.c"
  15              		.text
  16              	.Ltext0:
  17              		.cfi_sections	.debug_frame
  18              		.section	.text.wrap_360_cd,"ax",%progbits
  19              		.align	2
  20              		.p2align 4,,15
  21              		.global	wrap_360_cd
  22              		.thumb
  23              		.thumb_func
  24              		.type	wrap_360_cd, %function
  25              	wrap_360_cd:
  26              	.LFB118:
  27              		.file 1 "Common.c"
  28              		.loc 1 37 0
  29              		.cfi_startproc
  30              		@ args = 0, pretend = 0, frame = 0
  31              		@ frame_needed = 0, uses_anonymous_args = 0
  32              		@ link register save eliminated.
  33              	.LVL0:
  34              		.loc 1 38 0
  35 0000 00F5AF22 		add	r2, r0, #358400
  36 0004 4FF68043 		movw	r3, #64640
  37 0008 02F5C861 		add	r1, r2, #1600
  38 000c C0F20A03 		movt	r3, 10
  39 0010 9942     		cmp	r1, r3
  40 0012 29D9     		bls	.L2
  41              		.loc 1 40 0
  42 0014 42F66B13 		movw	r3, #10603
  43 0018 C7F28243 		movt	r3, 29826
  44 001c 83FB0013 		smull	r1, r3, r3, r0
  45 0020 C217     		asrs	r2, r0, #31
  46 0022 C2EBA331 		rsb	r1, r2, r3, asr #14
  47 0026 48F6A043 		movw	r3, #36000
  48 002a 03FB1100 		mls	r0, r3, r1, r0
  49              	.LVL1:
  50              	.L3:
  51              		.loc 1 43 0 discriminator 1
  52 002e 0028     		cmp	r0, #0
  53 0030 19DA     		bge	.L5
  54 0032 C243     		mvns	r2, r0
  55 0034 45F2D521 		movw	r1, #21205
  56              		.loc 1 43 0 is_stmt 0
  57 0038 00F50C40 		add	r0, r0, #35840
ARM GAS  C:\Users\Mohamad\AppData\Local\Temp\ccObaWQo.s 			page 2


  58              	.LVL2:
  59 003c CEF60411 		movt	r1, 59652
  60 0040 A030     		adds	r0, r0, #160
  61              	.LVL3:
  62 0042 A1FB0213 		umull	r1, r3, r1, r2
  63 0046 0028     		cmp	r0, #0
  64 0048 C3F3C031 		ubfx	r1, r3, #15, #1
  65 004c 2ADA     		bge	.L24
  66 004e 21B1     		cbz	r1, .L7
  67 0050 00F50C40 		add	r0, r0, #35840
  68              	.LVL4:
  69 0054 A030     		adds	r0, r0, #160
  70              	.LVL5:
  71 0056 0028     		cmp	r0, #0
  72 0058 25DA     		bge	.L25
  73              	.L7:
  74              		.loc 1 43 0 discriminator 2
  75 005a 00F58C30 		add	r0, r0, #71680
  76              	.LVL6:
  77 005e 00F5A070 		add	r0, r0, #320
  78              	.LVL7:
  79 0062 0028     		cmp	r0, #0
  80 0064 F9DB     		blt	.L7
  81              	.L5:
  82              		.loc 1 45 0 is_stmt 1
  83 0066 7047     		bx	lr
  84              	.L2:
  85              		.loc 1 42 0 discriminator 1
  86 0068 48F69F43 		movw	r3, #35999
  87 006c 9842     		cmp	r0, r3
  88 006e DEDD     		ble	.L3
  89 0070 A0F50C40 		sub	r0, r0, #35840
  90              	.LVL8:
  91 0074 45F2D522 		movw	r2, #21205
  92              	.LVL9:
  93 0078 A038     		subs	r0, r0, #160
  94 007a CEF60412 		movt	r2, 59652
  95 007e A2FB0012 		umull	r1, r2, r2, r0
  96              	.LVL10:
  97              		.loc 1 42 0 is_stmt 0 discriminator 2
  98 0082 9842     		cmp	r0, r3
  99 0084 C2F3C031 		ubfx	r1, r2, #15, #1
 100 0088 D1DD     		ble	.L3
 101 008a 21B1     		cbz	r1, .L8
 102              		.loc 1 42 0
 103 008c A0F50C40 		sub	r0, r0, #35840
 104              	.LVL11:
 105 0090 A038     		subs	r0, r0, #160
 106              	.LVL12:
 107 0092 9842     		cmp	r0, r3
 108 0094 CBDD     		ble	.L3
 109              	.L8:
 110              		.loc 1 42 0 discriminator 2
 111 0096 A0F58C30 		sub	r0, r0, #71680
 112              	.LVL13:
 113 009a A0F5A070 		sub	r0, r0, #320
 114              	.LVL14:
ARM GAS  C:\Users\Mohamad\AppData\Local\Temp\ccObaWQo.s 			page 3


 115 009e 9842     		cmp	r0, r3
 116 00a0 F9DC     		bgt	.L8
 117 00a2 C4E7     		b	.L3
 118              	.L24:
 119 00a4 7047     		bx	lr
 120              	.L25:
 121 00a6 7047     		bx	lr
 122              		.cfi_endproc
 123              	.LFE118:
 124              		.size	wrap_360_cd, .-wrap_360_cd
 125 00a8 AFF30080 		.section	.text.wrap_180_cd,"ax",%progbits
 125      AFF30080 
 126              		.align	2
 127              		.p2align 4,,15
 128              		.global	wrap_180_cd
 129              		.thumb
 130              		.thumb_func
 131              		.type	wrap_180_cd, %function
 132              	wrap_180_cd:
 133              	.LFB119:
 134              		.loc 1 51 0 is_stmt 1
 135              		.cfi_startproc
 136              		@ args = 0, pretend = 0, frame = 0
 137              		@ frame_needed = 0, uses_anonymous_args = 0
 138              		@ link register save eliminated.
 139              	.LVL15:
 140              		.loc 1 52 0
 141 0000 00F5AF22 		add	r2, r0, #358400
 142 0004 4FF68043 		movw	r3, #64640
 143 0008 02F5C861 		add	r1, r2, #1600
 144 000c C0F20A03 		movt	r3, 10
 145 0010 9942     		cmp	r1, r3
 146              		.loc 1 51 0
 147 0012 10B4     		push	{r4}
 148              	.LCFI0:
 149              		.cfi_def_cfa_offset 4
 150              		.cfi_offset 4, -4
 151              		.loc 1 52 0
 152 0014 0CD9     		bls	.L27
 153              		.loc 1 54 0
 154 0016 42F66B12 		movw	r2, #10603
 155 001a C7F28242 		movt	r2, 29826
 156 001e 82FB0023 		smull	r2, r3, r2, r0
 157 0022 C117     		asrs	r1, r0, #31
 158 0024 C1EBA333 		rsb	r3, r1, r3, asr #14
 159 0028 48F6A042 		movw	r2, #36000
 160 002c 02FB1300 		mls	r0, r2, r3, r0
 161              	.LVL16:
 162              	.L27:
 163              		.loc 1 56 0 discriminator 1
 164 0030 44F25063 		movw	r3, #18000
 165 0034 9842     		cmp	r0, r3
 166 0036 1BDD     		ble	.L28
 167 0038 A0F58C44 		sub	r4, r0, #17920
 168 003c 45F2D521 		movw	r1, #21205
 169              		.loc 1 56 0 is_stmt 0 discriminator 2
 170 0040 A0F50C40 		sub	r0, r0, #35840
ARM GAS  C:\Users\Mohamad\AppData\Local\Temp\ccObaWQo.s 			page 4


 171              	.LVL17:
 172 0044 513C     		subs	r4, r4, #81
 173 0046 CEF60411 		movt	r1, 59652
 174 004a A038     		subs	r0, r0, #160
 175              	.LVL18:
 176 004c A1FB0442 		umull	r4, r2, r1, r4
 177 0050 9842     		cmp	r0, r3
 178 0052 C2F3C034 		ubfx	r4, r2, #15, #1
 179 0056 0BDD     		ble	.L28
 180 0058 24B1     		cbz	r4, .L33
 181              		.loc 1 56 0
 182 005a A0F50C40 		sub	r0, r0, #35840
 183              	.LVL19:
 184 005e A038     		subs	r0, r0, #160
 185              	.LVL20:
 186 0060 9842     		cmp	r0, r3
 187 0062 05DD     		ble	.L28
 188              	.L33:
 189              		.loc 1 56 0 discriminator 2
 190 0064 A0F58C30 		sub	r0, r0, #71680
 191              	.LVL21:
 192 0068 A0F5A070 		sub	r0, r0, #320
 193              	.LVL22:
 194 006c 9842     		cmp	r0, r3
 195 006e F9DC     		bgt	.L33
 196              	.L28:
 197              		.loc 1 57 0 is_stmt 1 discriminator 1
 198 0070 4BF6B013 		movw	r3, #47536
 199 0074 CFF6FF73 		movt	r3, 65535
 200 0078 9842     		cmp	r0, r3
 201 007a 1CDA     		bge	.L30
 202 007c C143     		mvns	r1, r0
 203 007e A1F58C42 		sub	r2, r1, #17920
 204 0082 45F2D524 		movw	r4, #21205
 205              		.loc 1 57 0 is_stmt 0 discriminator 2
 206 0086 00F50C40 		add	r0, r0, #35840
 207              	.LVL23:
 208 008a 503A     		subs	r2, r2, #80
 209 008c CEF60414 		movt	r4, 59652
 210 0090 A030     		adds	r0, r0, #160
 211              	.LVL24:
 212 0092 A4FB0241 		umull	r4, r1, r4, r2
 213 0096 9842     		cmp	r0, r3
 214 0098 C1F3C032 		ubfx	r2, r1, #15, #1
 215 009c 0BDA     		bge	.L30
 216 009e 22B1     		cbz	r2, .L32
 217              		.loc 1 57 0
 218 00a0 00F50C40 		add	r0, r0, #35840
 219              	.LVL25:
 220 00a4 A030     		adds	r0, r0, #160
 221              	.LVL26:
 222 00a6 9842     		cmp	r0, r3
 223 00a8 05DA     		bge	.L30
 224              	.L32:
 225              		.loc 1 57 0 discriminator 2
 226 00aa 00F58C30 		add	r0, r0, #71680
 227              	.LVL27:
ARM GAS  C:\Users\Mohamad\AppData\Local\Temp\ccObaWQo.s 			page 5


 228 00ae 00F5A070 		add	r0, r0, #320
 229              	.LVL28:
 230 00b2 9842     		cmp	r0, r3
 231 00b4 F9DB     		blt	.L32
 232              	.L30:
 233              		.loc 1 59 0 is_stmt 1
 234 00b6 10BC     		pop	{r4}
 235 00b8 7047     		bx	lr
 236              		.cfi_endproc
 237              	.LFE119:
 238              		.size	wrap_180_cd, .-wrap_180_cd
 239              		.global	__aeabi_fcmpge
 240              		.global	__aeabi_fcmplt
 241              		.global	__aeabi_f2d
 242              		.global	__aeabi_d2f
 243              		.global	__aeabi_fsub
 244              		.global	__aeabi_fadd
 245 00ba 00BFAFF3 		.section	.text.wrap_360_cd_float,"ax",%progbits
 245      0080
 246              		.align	2
 247              		.p2align 4,,15
 248              		.global	wrap_360_cd_float
 249              		.thumb
 250              		.thumb_func
 251              		.type	wrap_360_cd_float, %function
 252              	wrap_360_cd_float:
 253              	.LFB120:
 254              		.loc 1 66 0
 255              		.cfi_startproc
 256              		@ args = 0, pretend = 0, frame = 0
 257              		@ frame_needed = 0, uses_anonymous_args = 0
 258              	.LVL29:
 259              		.loc 1 67 0
 260 0000 4FF42041 		mov	r1, #40960
 261              		.loc 1 66 0
 262 0004 10B5     		push	{r4, lr}
 263              	.LCFI1:
 264              		.cfi_def_cfa_offset 8
 265              		.cfi_offset 4, -8
 266              		.cfi_offset 14, -4
 267              		.loc 1 67 0
 268 0006 C4F28C71 		movt	r1, 18316
 269              		.loc 1 66 0
 270 000a 0446     		mov	r4, r0
 271              		.loc 1 67 0
 272 000c FFF7FEFF 		bl	__aeabi_fcmpge
 273              	.LVL30:
 274 0010 30BB     		cbnz	r0, .L49
 275              		.loc 1 67 0 is_stmt 0 discriminator 1
 276 0012 4FF42041 		mov	r1, #40960
 277 0016 2046     		mov	r0, r4
 278 0018 CCF20C71 		movt	r1, 50956
 279 001c FFF7FEFF 		bl	__aeabi_fcmplt
 280              	.LVL31:
 281 0020 F0B9     		cbnz	r0, .L49
 282              	.L50:
 283              		.loc 1 71 0 is_stmt 1
ARM GAS  C:\Users\Mohamad\AppData\Local\Temp\ccObaWQo.s 			page 6


 284 0022 4FF42041 		mov	r1, #40960
 285 0026 2046     		mov	r0, r4
 286 0028 C4F20C71 		movt	r1, 18188
 287 002c FFF7FEFF 		bl	__aeabi_fcmpge
 288              	.LVL32:
 289 0030 38B1     		cbz	r0, .L52
 290              		.loc 1 71 0 is_stmt 0 discriminator 1
 291 0032 4FF42041 		mov	r1, #40960
 292 0036 2046     		mov	r0, r4
 293 0038 C4F20C71 		movt	r1, 18188
 294 003c FFF7FEFF 		bl	__aeabi_fsub
 295              	.LVL33:
 296 0040 0446     		mov	r4, r0
 297              	.LVL34:
 298              	.L52:
 299              		.loc 1 72 0 is_stmt 1
 300 0042 2046     		mov	r0, r4
 301 0044 0021     		movs	r1, #0
 302 0046 FFF7FEFF 		bl	__aeabi_fcmplt
 303              	.LVL35:
 304 004a 38B1     		cbz	r0, .L54
 305              		.loc 1 72 0 is_stmt 0 discriminator 1
 306 004c 4FF42041 		mov	r1, #40960
 307 0050 2046     		mov	r0, r4
 308 0052 C4F20C71 		movt	r1, 18188
 309 0056 FFF7FEFF 		bl	__aeabi_fadd
 310              	.LVL36:
 311 005a 0446     		mov	r4, r0
 312              	.LVL37:
 313              	.L54:
 314              		.loc 1 74 0 is_stmt 1
 315 005c 2046     		mov	r0, r4
 316 005e 10BD     		pop	{r4, pc}
 317              	.L49:
 318              		.loc 1 69 0
 319 0060 2046     		mov	r0, r4
 320 0062 FFF7FEFF 		bl	__aeabi_f2d
 321              	.LVL38:
 322 0066 04A3     		adr	r3, .L58
 323 0068 D3E90023 		ldrd	r2, [r3]
 324 006c FFF7FEFF 		bl	fmod
 325              	.LVL39:
 326 0070 FFF7FEFF 		bl	__aeabi_d2f
 327              	.LVL40:
 328 0074 0446     		mov	r4, r0
 329              	.LVL41:
 330 0076 D4E7     		b	.L50
 331              	.L59:
 332              		.align	3
 333              	.L58:
 334 0078 00000000 		.word	0
 335 007c 0094E140 		.word	1088525312
 336              		.cfi_endproc
 337              	.LFE120:
 338              		.size	wrap_360_cd_float, .-wrap_360_cd_float
 339              		.global	__aeabi_fcmpgt
 340              		.section	.text.wrap_180_cd_float,"ax",%progbits
ARM GAS  C:\Users\Mohamad\AppData\Local\Temp\ccObaWQo.s 			page 7


 341              		.align	2
 342              		.p2align 4,,15
 343              		.global	wrap_180_cd_float
 344              		.thumb
 345              		.thumb_func
 346              		.type	wrap_180_cd_float, %function
 347              	wrap_180_cd_float:
 348              	.LFB121:
 349              		.loc 1 80 0
 350              		.cfi_startproc
 351              		@ args = 0, pretend = 0, frame = 0
 352              		@ frame_needed = 0, uses_anonymous_args = 0
 353              	.LVL42:
 354              		.loc 1 81 0
 355 0000 4FF47041 		mov	r1, #61440
 356              		.loc 1 80 0
 357 0004 10B5     		push	{r4, lr}
 358              	.LCFI2:
 359              		.cfi_def_cfa_offset 8
 360              		.cfi_offset 4, -8
 361              		.cfi_offset 14, -4
 362              		.loc 1 81 0
 363 0006 C4F25271 		movt	r1, 18258
 364              		.loc 1 80 0
 365 000a 0446     		mov	r4, r0
 366              		.loc 1 81 0
 367 000c FFF7FEFF 		bl	__aeabi_fcmpgt
 368              	.LVL43:
 369 0010 48BB     		cbnz	r0, .L61
 370              		.loc 1 81 0 is_stmt 0 discriminator 1
 371 0012 4FF47041 		mov	r1, #61440
 372 0016 2046     		mov	r0, r4
 373 0018 CCF25271 		movt	r1, 51026
 374 001c FFF7FEFF 		bl	__aeabi_fcmplt
 375              	.LVL44:
 376 0020 08BB     		cbnz	r0, .L61
 377              	.L62:
 378              		.loc 1 85 0 is_stmt 1
 379 0022 4FF42041 		mov	r1, #40960
 380 0026 2046     		mov	r0, r4
 381 0028 C4F28C61 		movt	r1, 18060
 382 002c FFF7FEFF 		bl	__aeabi_fcmpgt
 383              	.LVL45:
 384 0030 38B1     		cbz	r0, .L64
 385              		.loc 1 85 0 is_stmt 0 discriminator 1
 386 0032 4FF42041 		mov	r1, #40960
 387 0036 2046     		mov	r0, r4
 388 0038 C4F20C71 		movt	r1, 18188
 389 003c FFF7FEFF 		bl	__aeabi_fsub
 390              	.LVL46:
 391 0040 0446     		mov	r4, r0
 392              	.LVL47:
 393              	.L64:
 394              		.loc 1 86 0 is_stmt 1
 395 0042 4FF42041 		mov	r1, #40960
 396 0046 2046     		mov	r0, r4
 397 0048 CCF28C61 		movt	r1, 50828
ARM GAS  C:\Users\Mohamad\AppData\Local\Temp\ccObaWQo.s 			page 8


 398 004c FFF7FEFF 		bl	__aeabi_fcmplt
 399              	.LVL48:
 400 0050 38B1     		cbz	r0, .L66
 401              		.loc 1 86 0 is_stmt 0 discriminator 1
 402 0052 4FF42041 		mov	r1, #40960
 403 0056 2046     		mov	r0, r4
 404 0058 C4F20C71 		movt	r1, 18188
 405 005c FFF7FEFF 		bl	__aeabi_fadd
 406              	.LVL49:
 407 0060 0446     		mov	r4, r0
 408              	.LVL50:
 409              	.L66:
 410              		.loc 1 88 0 is_stmt 1
 411 0062 2046     		mov	r0, r4
 412 0064 10BD     		pop	{r4, pc}
 413              	.L61:
 414              		.loc 1 83 0
 415 0066 2046     		mov	r0, r4
 416 0068 FFF7FEFF 		bl	__aeabi_f2d
 417              	.LVL51:
 418 006c 04A3     		adr	r3, .L70
 419 006e D3E90023 		ldrd	r2, [r3]
 420 0072 FFF7FEFF 		bl	fmod
 421              	.LVL52:
 422 0076 FFF7FEFF 		bl	__aeabi_d2f
 423              	.LVL53:
 424 007a 0446     		mov	r4, r0
 425              	.LVL54:
 426 007c D1E7     		b	.L62
 427              	.L71:
 428 007e 00BF     		.align	3
 429              	.L70:
 430 0080 00000000 		.word	0
 431 0084 0094E140 		.word	1088525312
 432              		.cfi_endproc
 433              	.LFE121:
 434              		.size	wrap_180_cd_float, .-wrap_180_cd_float
 435              		.global	__aeabi_dcmpgt
 436              		.global	__aeabi_dcmplt
 437              		.global	__aeabi_dsub
 438              		.global	__aeabi_dadd
 439 0088 AFF30080 		.section	.text.wrap_PI,"ax",%progbits
 439      AFF30080 
 440              		.align	2
 441              		.p2align 4,,15
 442              		.global	wrap_PI
 443              		.thumb
 444              		.thumb_func
 445              		.type	wrap_PI, %function
 446              	wrap_PI:
 447              	.LFB122:
 448              		.loc 1 94 0
 449              		.cfi_startproc
 450              		@ args = 0, pretend = 0, frame = 0
 451              		@ frame_needed = 0, uses_anonymous_args = 0
 452              	.LVL55:
 453 0000 70B5     		push	{r4, r5, r6, lr}
ARM GAS  C:\Users\Mohamad\AppData\Local\Temp\ccObaWQo.s 			page 9


 454              	.LCFI3:
 455              		.cfi_def_cfa_offset 16
 456              		.cfi_offset 4, -16
 457              		.cfi_offset 5, -12
 458              		.cfi_offset 6, -8
 459              		.cfi_offset 14, -4
 460              		.loc 1 94 0
 461 0002 0646     		mov	r6, r0
 462              		.loc 1 95 0
 463 0004 FFF7FEFF 		bl	__aeabi_f2d
 464              	.LVL56:
 465 0008 2DA3     		adr	r3, .L86
 466 000a D3E90023 		ldrd	r2, [r3]
 467 000e 0446     		mov	r4, r0
 468 0010 0D46     		mov	r5, r1
 469 0012 FFF7FEFF 		bl	__aeabi_dcmpgt
 470              	.LVL57:
 471 0016 0028     		cmp	r0, #0
 472 0018 44D1     		bne	.L73
 473              		.loc 1 95 0 is_stmt 0 discriminator 1
 474 001a 2046     		mov	r0, r4
 475 001c 2946     		mov	r1, r5
 476 001e 2AA3     		adr	r3, .L86+8
 477 0020 D3E90023 		ldrd	r2, [r3]
 478 0024 FFF7FEFF 		bl	__aeabi_dcmplt
 479              	.LVL58:
 480 0028 0028     		cmp	r0, #0
 481 002a 3BD1     		bne	.L73
 482              	.L74:
 483              		.loc 1 99 0 is_stmt 1 discriminator 1
 484 002c 2046     		mov	r0, r4
 485 002e 2946     		mov	r1, r5
 486 0030 27A3     		adr	r3, .L86+16
 487 0032 D3E90023 		ldrd	r2, [r3]
 488 0036 FFF7FEFF 		bl	__aeabi_dcmpgt
 489              	.LVL59:
 490 003a A0B1     		cbz	r0, .L76
 491              	.LVL60:
 492              	.L83:
 493              		.loc 1 99 0 is_stmt 0 discriminator 2
 494 003c 26A3     		adr	r3, .L86+24
 495 003e D3E90023 		ldrd	r2, [r3]
 496 0042 2046     		mov	r0, r4
 497 0044 2946     		mov	r1, r5
 498 0046 FFF7FEFF 		bl	__aeabi_dsub
 499              	.LVL61:
 500 004a FFF7FEFF 		bl	__aeabi_d2f
 501              	.LVL62:
 502 004e 0646     		mov	r6, r0
 503 0050 FFF7FEFF 		bl	__aeabi_f2d
 504              	.LVL63:
 505 0054 1EA3     		adr	r3, .L86+16
 506 0056 D3E90023 		ldrd	r2, [r3]
 507 005a 0446     		mov	r4, r0
 508 005c 0D46     		mov	r5, r1
 509 005e FFF7FEFF 		bl	__aeabi_dcmpgt
 510              	.LVL64:
ARM GAS  C:\Users\Mohamad\AppData\Local\Temp\ccObaWQo.s 			page 10


 511 0062 0028     		cmp	r0, #0
 512 0064 EAD1     		bne	.L83
 513              	.L76:
 514              	.LVL65:
 515              		.loc 1 100 0 is_stmt 1 discriminator 1
 516 0066 2046     		mov	r0, r4
 517 0068 2946     		mov	r1, r5
 518 006a 1DA3     		adr	r3, .L86+32
 519 006c D3E90023 		ldrd	r2, [r3]
 520 0070 FFF7FEFF 		bl	__aeabi_dcmplt
 521              	.LVL66:
 522 0074 A0B1     		cbz	r0, .L79
 523              	.LVL67:
 524              	.L82:
 525              		.loc 1 100 0 is_stmt 0 discriminator 2
 526 0076 18A3     		adr	r3, .L86+24
 527 0078 D3E90023 		ldrd	r2, [r3]
 528 007c 2046     		mov	r0, r4
 529 007e 2946     		mov	r1, r5
 530 0080 FFF7FEFF 		bl	__aeabi_dadd
 531              	.LVL68:
 532 0084 FFF7FEFF 		bl	__aeabi_d2f
 533              	.LVL69:
 534 0088 0646     		mov	r6, r0
 535 008a FFF7FEFF 		bl	__aeabi_f2d
 536              	.LVL70:
 537 008e 14A3     		adr	r3, .L86+32
 538 0090 D3E90023 		ldrd	r2, [r3]
 539 0094 0446     		mov	r4, r0
 540 0096 0D46     		mov	r5, r1
 541 0098 FFF7FEFF 		bl	__aeabi_dcmplt
 542              	.LVL71:
 543 009c 0028     		cmp	r0, #0
 544 009e EAD1     		bne	.L82
 545              	.L79:
 546              		.loc 1 102 0 is_stmt 1
 547 00a0 3046     		mov	r0, r6
 548 00a2 70BD     		pop	{r4, r5, r6, pc}
 549              	.LVL72:
 550              	.L73:
 551              		.loc 1 97 0
 552 00a4 40F6DB71 		movw	r1, #4059
 553 00a8 C4F2C901 		movt	r1, 16585
 554 00ac 3046     		mov	r0, r6
 555 00ae FFF7FEFF 		bl	fmodf
 556              	.LVL73:
 557 00b2 0646     		mov	r6, r0
 558              	.LVL74:
 559 00b4 FFF7FEFF 		bl	__aeabi_f2d
 560              	.LVL75:
 561 00b8 0446     		mov	r4, r0
 562 00ba 0D46     		mov	r5, r1
 563 00bc B6E7     		b	.L74
 564              	.L87:
 565 00be 00BF     		.align	3
 566              	.L86:
 567 00c0 5E385529 		.word	693450846
ARM GAS  C:\Users\Mohamad\AppData\Local\Temp\ccObaWQo.s 			page 11


 568 00c4 7A6A3F40 		.word	1077897850
 569 00c8 5E385529 		.word	693450846
 570 00cc 7A6A3FC0 		.word	-1069585798
 571 00d0 182D4454 		.word	1413754136
 572 00d4 FB210940 		.word	1074340347
 573 00d8 182D4454 		.word	1413754136
 574 00dc FB211940 		.word	1075388923
 575 00e0 182D4454 		.word	1413754136
 576 00e4 FB2109C0 		.word	-1073143301
 577              		.cfi_endproc
 578              	.LFE122:
 579              		.size	wrap_PI, .-wrap_PI
 580              		.global	__aeabi_ui2d
 581              		.global	__aeabi_ddiv
 582              		.global	__aeabi_dmul
 583              		.global	__aeabi_d2uiz
 584 00e8 AFF30080 		.section	.text.hal_get_millis,"ax",%progbits
 584      AFF30080 
 585              		.align	2
 586              		.p2align 4,,15
 587              		.global	hal_get_millis
 588              		.thumb
 589              		.thumb_func
 590              		.type	hal_get_millis, %function
 591              	hal_get_millis:
 592              	.LFB123:
 593              		.loc 1 105 0
 594              		.cfi_startproc
 595              		@ args = 0, pretend = 0, frame = 0
 596              		@ frame_needed = 0, uses_anonymous_args = 0
 597 0000 08B5     		push	{r3, lr}
 598              	.LCFI4:
 599              		.cfi_def_cfa_offset 8
 600              		.cfi_offset 3, -8
 601              		.cfi_offset 14, -4
 602              		.loc 1 106 0
 603 0002 4FF48053 		mov	r3, #4096
 604 0006 CEF20003 		movt	r3, 57344
 605 000a 5868     		ldr	r0, [r3, #4]
 606 000c FFF7FEFF 		bl	__aeabi_ui2d
 607              	.LVL76:
 608 0010 09A3     		adr	r3, .L89
 609 0012 D3E90023 		ldrd	r2, [r3]
 610 0016 FFF7FEFF 		bl	__aeabi_ddiv
 611              	.LVL77:
 612 001a 4FF48043 		mov	r3, #16384
 613 001e 0022     		movs	r2, #0
 614 0020 C4F28F03 		movt	r3, 16527
 615 0024 FFF7FEFF 		bl	__aeabi_dmul
 616              	.LVL78:
 617 0028 FFF7FEFF 		bl	floor
 618              	.LVL79:
 619 002c FFF7FEFF 		bl	__aeabi_d2uiz
 620              	.LVL80:
 621              		.loc 1 107 0
 622 0030 08BD     		pop	{r3, pc}
 623              	.L90:
ARM GAS  C:\Users\Mohamad\AppData\Local\Temp\ccObaWQo.s 			page 12


 624 0032 00BFAFF3 		.align	3
 624      0080
 625              	.L89:
 626 0038 00000000 		.word	0
 627 003c F406A441 		.word	1101268724
 628              		.cfi_endproc
 629              	.LFE123:
 630              		.size	hal_get_millis, .-hal_get_millis
 631              		.section	.text.hal_get_micros,"ax",%progbits
 632              		.align	2
 633              		.p2align 4,,15
 634              		.global	hal_get_micros
 635              		.thumb
 636              		.thumb_func
 637              		.type	hal_get_micros, %function
 638              	hal_get_micros:
 639              	.LFB124:
 640              		.loc 1 110 0
 641              		.cfi_startproc
 642              		@ args = 0, pretend = 0, frame = 0
 643              		@ frame_needed = 0, uses_anonymous_args = 0
 644 0000 08B5     		push	{r3, lr}
 645              	.LCFI5:
 646              		.cfi_def_cfa_offset 8
 647              		.cfi_offset 3, -8
 648              		.cfi_offset 14, -4
 649              		.loc 1 111 0
 650 0002 4FF48053 		mov	r3, #4096
 651 0006 CEF20003 		movt	r3, 57344
 652 000a 5868     		ldr	r0, [r3, #4]
 653 000c FFF7FEFF 		bl	__aeabi_ui2d
 654              	.LVL81:
 655 0010 07A3     		adr	r3, .L92
 656 0012 D3E90023 		ldrd	r2, [r3]
 657 0016 FFF7FEFF 		bl	__aeabi_ddiv
 658              	.LVL82:
 659 001a 07A3     		adr	r3, .L92+8
 660 001c D3E90023 		ldrd	r2, [r3]
 661 0020 FFF7FEFF 		bl	__aeabi_dmul
 662              	.LVL83:
 663 0024 FFF7FEFF 		bl	floor
 664              	.LVL84:
 665 0028 FFF7FEFF 		bl	__aeabi_d2uiz
 666              	.LVL85:
 667              		.loc 1 112 0
 668 002c 08BD     		pop	{r3, pc}
 669              	.L93:
 670 002e 00BF     		.align	3
 671              	.L92:
 672 0030 00000000 		.word	0
 673 0034 F406A441 		.word	1101268724
 674 0038 00000000 		.word	0
 675 003c 80842E41 		.word	1093567616
 676              		.cfi_endproc
 677              	.LFE124:
 678              		.size	hal_get_micros, .-hal_get_micros
 679              		.global	_kp
ARM GAS  C:\Users\Mohamad\AppData\Local\Temp\ccObaWQo.s 			page 13


 680              		.global	_kp_yaw
 681              		.section	.data._kp_yaw,"aw",%progbits
 682              		.align	2
 683              		.type	_kp_yaw, %object
 684              		.size	_kp_yaw, 4
 685              	_kp_yaw:
 686 0000 9A99993F 		.word	1067030938
 687              		.section	.data._kp,"aw",%progbits
 688              		.align	2
 689              		.type	_kp, %object
 690              		.size	_kp, 4
 691              	_kp:
 692 0000 CDCCCC3E 		.word	1053609165
 693              		.text
 694              	.Letext0:
 695              		.file 2 "c:\\chibistudio\\tools\\gnu tools arm embedded\\4.7 2014q2\\bin\\../lib/gcc/arm-none-eabi
 696              		.file 3 "../../chibios/os/ports/common/ARMCMx/nvic.h"
 697              		.file 4 "../../chibios/os/ports/common/ARMCMx/CMSIS/include/core_cm4.h"
 698              		.file 5 "c:\\chibistudio\\tools\\gnu tools arm embedded\\4.7 2014q2\\bin\\../lib/gcc/arm-none-eabi