ARM GAS  C:\Users\Mohamad\AppData\Local\Temp\cc3j2Cx6.s 			page 1


   1              		.syntax unified
   2              		.cpu cortex-m4
   3              		.fpu softvfp
   4              		.eabi_attribute 20, 1
   5              		.eabi_attribute 21, 1
   6              		.eabi_attribute 23, 3
   7              		.eabi_attribute 24, 1
   8              		.eabi_attribute 25, 1
   9              		.eabi_attribute 26, 1
  10              		.eabi_attribute 30, 2
  11              		.eabi_attribute 34, 1
  12              		.eabi_attribute 18, 4
  13              		.thumb
  14              		.file	"DCMmath.c"
  15              		.text
  16              	.Ltext0:
  17              		.cfi_sections	.debug_frame
  18              		.global	__aeabi_fmul
  19              		.global	__aeabi_fsub
  20              		.global	__aeabi_fadd
  21              		.section	.text.from_euler,"ax",%progbits
  22              		.align	2
  23              		.p2align 4,,15
  24              		.global	from_euler
  25              		.thumb
  26              		.thumb_func
  27              		.type	from_euler, %function
  28              	from_euler:
  29              	.LFB118:
  30              		.file 1 "DCMmath.c"
  31              		.loc 1 19 0
  32              		.cfi_startproc
  33              		@ args = 0, pretend = 0, frame = 8
  34              		@ frame_needed = 0, uses_anonymous_args = 0
  35              	.LVL0:
  36 0000 2DE9F04F 		push	{r4, r5, r6, r7, r8, r9, sl, fp, lr}
  37              	.LCFI0:
  38              		.cfi_def_cfa_offset 36
  39              		.cfi_offset 4, -36
  40              		.cfi_offset 5, -32
  41              		.cfi_offset 6, -28
  42              		.cfi_offset 7, -24
  43              		.cfi_offset 8, -20
  44              		.cfi_offset 9, -16
  45              		.cfi_offset 10, -12
  46              		.cfi_offset 11, -8
  47              		.cfi_offset 14, -4
  48 0004 0446     		mov	r4, r0
  49 0006 83B0     		sub	sp, sp, #12
  50              	.LCFI1:
  51              		.cfi_def_cfa_offset 48
  52              		.loc 1 21 0
  53 0008 1046     		mov	r0, r2
  54              	.LVL1:
  55              		.loc 1 19 0
  56 000a 1D46     		mov	r5, r3
  57 000c 9046     		mov	r8, r2
ARM GAS  C:\Users\Mohamad\AppData\Local\Temp\cc3j2Cx6.s 			page 2


  58 000e 0E46     		mov	r6, r1
  59              		.loc 1 21 0
  60 0010 FFF7FEFF 		bl	cosf
  61              	.LVL2:
  62 0014 0746     		mov	r7, r0
  63              	.LVL3:
  64              		.loc 1 22 0
  65 0016 4046     		mov	r0, r8
  66              	.LVL4:
  67 0018 FFF7FEFF 		bl	sinf
  68              	.LVL5:
  69 001c 8246     		mov	sl, r0
  70              	.LVL6:
  71              		.loc 1 23 0
  72 001e 3046     		mov	r0, r6
  73              	.LVL7:
  74 0020 FFF7FEFF 		bl	sinf
  75              	.LVL8:
  76 0024 8146     		mov	r9, r0
  77              	.LVL9:
  78              		.loc 1 24 0
  79 0026 3046     		mov	r0, r6
  80              	.LVL10:
  81 0028 FFF7FEFF 		bl	cosf
  82              	.LVL11:
  83 002c 8046     		mov	r8, r0
  84              	.LVL12:
  85              		.loc 1 25 0
  86 002e 2846     		mov	r0, r5
  87              	.LVL13:
  88 0030 FFF7FEFF 		bl	sinf
  89              	.LVL14:
  90 0034 0646     		mov	r6, r0
  91              	.LVL15:
  92              		.loc 1 26 0
  93 0036 2846     		mov	r0, r5
  94              	.LVL16:
  95 0038 FFF7FEFF 		bl	cosf
  96              	.LVL17:
  97 003c 0546     		mov	r5, r0
  98              	.LVL18:
  99              		.loc 1 28 0
 100 003e 2946     		mov	r1, r5
 101 0040 3846     		mov	r0, r7
 102              	.LVL19:
 103 0042 FFF7FEFF 		bl	__aeabi_fmul
 104              	.LVL20:
 105              		.loc 1 29 0
 106 0046 5146     		mov	r1, sl
 107              		.loc 1 28 0
 108 0048 2060     		str	r0, [r4, #0]	@ float
 109              		.loc 1 29 0
 110 004a 4846     		mov	r0, r9
 111 004c FFF7FEFF 		bl	__aeabi_fmul
 112              	.LVL21:
 113 0050 2946     		mov	r1, r5
 114 0052 0090     		str	r0, [sp, #0]
ARM GAS  C:\Users\Mohamad\AppData\Local\Temp\cc3j2Cx6.s 			page 3


 115 0054 FFF7FEFF 		bl	__aeabi_fmul
 116              	.LVL22:
 117 0058 3146     		mov	r1, r6
 118 005a 8346     		mov	fp, r0
 119 005c 4046     		mov	r0, r8
 120 005e FFF7FEFF 		bl	__aeabi_fmul
 121              	.LVL23:
 122 0062 0146     		mov	r1, r0
 123 0064 5846     		mov	r0, fp
 124 0066 FFF7FEFF 		bl	__aeabi_fsub
 125              	.LVL24:
 126              		.loc 1 30 0
 127 006a 5146     		mov	r1, sl
 128              		.loc 1 29 0
 129 006c 6060     		str	r0, [r4, #4]	@ float
 130              		.loc 1 30 0
 131 006e 4046     		mov	r0, r8
 132 0070 FFF7FEFF 		bl	__aeabi_fmul
 133              	.LVL25:
 134 0074 2946     		mov	r1, r5
 135 0076 8346     		mov	fp, r0
 136 0078 FFF7FEFF 		bl	__aeabi_fmul
 137              	.LVL26:
 138 007c 3146     		mov	r1, r6
 139 007e 0246     		mov	r2, r0
 140 0080 4846     		mov	r0, r9
 141 0082 0192     		str	r2, [sp, #4]
 142 0084 FFF7FEFF 		bl	__aeabi_fmul
 143              	.LVL27:
 144 0088 0146     		mov	r1, r0
 145 008a 0198     		ldr	r0, [sp, #4]
 146 008c FFF7FEFF 		bl	__aeabi_fadd
 147              	.LVL28:
 148              		.loc 1 31 0
 149 0090 3146     		mov	r1, r6
 150              		.loc 1 30 0
 151 0092 A060     		str	r0, [r4, #8]	@ float
 152              		.loc 1 31 0
 153 0094 3846     		mov	r0, r7
 154 0096 FFF7FEFF 		bl	__aeabi_fmul
 155              	.LVL29:
 156              		.loc 1 32 0
 157 009a 0099     		ldr	r1, [sp, #0]
 158              		.loc 1 31 0
 159 009c E060     		str	r0, [r4, #12]	@ float
 160              		.loc 1 32 0
 161 009e 3046     		mov	r0, r6
 162 00a0 FFF7FEFF 		bl	__aeabi_fmul
 163              	.LVL30:
 164 00a4 2946     		mov	r1, r5
 165 00a6 0346     		mov	r3, r0
 166 00a8 4046     		mov	r0, r8
 167 00aa 0093     		str	r3, [sp, #0]
 168 00ac FFF7FEFF 		bl	__aeabi_fmul
 169              	.LVL31:
 170 00b0 009A     		ldr	r2, [sp, #0]
 171 00b2 0146     		mov	r1, r0
ARM GAS  C:\Users\Mohamad\AppData\Local\Temp\cc3j2Cx6.s 			page 4


 172 00b4 1046     		mov	r0, r2
 173 00b6 FFF7FEFF 		bl	__aeabi_fadd
 174              	.LVL32:
 175              		.loc 1 33 0
 176 00ba 5946     		mov	r1, fp
 177              		.loc 1 32 0
 178 00bc 2061     		str	r0, [r4, #16]	@ float
 179              		.loc 1 33 0
 180 00be 3046     		mov	r0, r6
 181 00c0 FFF7FEFF 		bl	__aeabi_fmul
 182              	.LVL33:
 183 00c4 2946     		mov	r1, r5
 184 00c6 0646     		mov	r6, r0
 185              	.LVL34:
 186 00c8 4846     		mov	r0, r9
 187 00ca FFF7FEFF 		bl	__aeabi_fmul
 188              	.LVL35:
 189 00ce 0146     		mov	r1, r0
 190 00d0 3046     		mov	r0, r6
 191 00d2 FFF7FEFF 		bl	__aeabi_fsub
 192              	.LVL36:
 193              		.loc 1 34 0
 194 00d6 0AF1004A 		add	sl, sl, #-2147483648
 195              	.LVL37:
 196              		.loc 1 33 0
 197 00da 6061     		str	r0, [r4, #20]	@ float
 198              		.loc 1 35 0
 199 00dc 3946     		mov	r1, r7
 200              		.loc 1 34 0
 201 00de C4F818A0 		str	sl, [r4, #24]	@ float
 202              		.loc 1 35 0
 203 00e2 4846     		mov	r0, r9
 204 00e4 FFF7FEFF 		bl	__aeabi_fmul
 205              	.LVL38:
 206              		.loc 1 36 0
 207 00e8 3946     		mov	r1, r7
 208              		.loc 1 35 0
 209 00ea E061     		str	r0, [r4, #28]	@ float
 210              		.loc 1 36 0
 211 00ec 4046     		mov	r0, r8
 212 00ee FFF7FEFF 		bl	__aeabi_fmul
 213              	.LVL39:
 214 00f2 2062     		str	r0, [r4, #32]	@ float
 215              		.loc 1 37 0
 216 00f4 03B0     		add	sp, sp, #12
 217 00f6 BDE8F08F 		pop	{r4, r5, r6, r7, r8, r9, sl, fp, pc}
 218              		.cfi_endproc
 219              	.LFE118:
 220              		.size	from_euler, .-from_euler
 221 00fa 00BFAFF3 		.section	.text.to_euler,"ax",%progbits
 221      0080
 222              		.align	2
 223              		.p2align 4,,15
 224              		.global	to_euler
 225              		.thumb
 226              		.thumb_func
 227              		.type	to_euler, %function
ARM GAS  C:\Users\Mohamad\AppData\Local\Temp\cc3j2Cx6.s 			page 5


 228              	to_euler:
 229              	.LFB119:
 230              		.loc 1 40 0
 231              		.cfi_startproc
 232              		@ args = 48, pretend = 16, frame = 0
 233              		@ frame_needed = 0, uses_anonymous_args = 0
 234              	.LVL40:
 235 0000 84B0     		sub	sp, sp, #16
 236              	.LCFI2:
 237              		.cfi_def_cfa_offset 16
 238 0002 F8B5     		push	{r3, r4, r5, r6, r7, lr}
 239              	.LCFI3:
 240              		.cfi_def_cfa_offset 40
 241              		.cfi_offset 3, -40
 242              		.cfi_offset 4, -36
 243              		.cfi_offset 5, -32
 244              		.cfi_offset 6, -28
 245              		.cfi_offset 7, -24
 246              		.cfi_offset 14, -20
 247              		.loc 1 40 0
 248 0004 109E     		ldr	r6, [sp, #64]
 249 0006 0F9D     		ldr	r5, [sp, #60]
 250 0008 119C     		ldr	r4, [sp, #68]
 251 000a 06AF     		add	r7, sp, #24
 252 000c 87E80F00 		stmia	r7, {r0, r1, r2, r3}
 253              		.loc 1 41 0
 254 0010 2EB1     		cbz	r6, .L3
 255              		.loc 1 42 0
 256 0012 0C98     		ldr	r0, [sp, #48]	@ float
 257 0014 FFF7FEFF 		bl	safe_asin
 258              	.LVL41:
 259 0018 00F10040 		add	r0, r0, #-2147483648
 260 001c 3060     		str	r0, [r6, #0]	@ float
 261              	.L3:
 262              		.loc 1 44 0
 263 001e 25B1     		cbz	r5, .L4
 264              		.loc 1 45 0
 265 0020 0D98     		ldr	r0, [sp, #52]	@ float
 266 0022 0E99     		ldr	r1, [sp, #56]	@ float
 267 0024 FFF7FEFF 		bl	atan2f
 268              	.LVL42:
 269 0028 2860     		str	r0, [r5, #0]	@ float
 270              	.L4:
 271              		.loc 1 48 0
 272 002a 24B1     		cbz	r4, .L2
 273              		.loc 1 49 0
 274 002c 0998     		ldr	r0, [sp, #36]	@ float
 275 002e 0699     		ldr	r1, [sp, #24]	@ float
 276 0030 FFF7FEFF 		bl	atan2f
 277              	.LVL43:
 278 0034 2060     		str	r0, [r4, #0]	@ float
 279              	.L2:
 280              		.loc 1 51 0
 281 0036 BDE8F840 		pop	{r3, r4, r5, r6, r7, lr}
 282 003a 04B0     		add	sp, sp, #16
 283 003c 7047     		bx	lr
 284              		.cfi_endproc
ARM GAS  C:\Users\Mohamad\AppData\Local\Temp\cc3j2Cx6.s 			page 6


 285              	.LFE119:
 286              		.size	to_euler, .-to_euler
 287 003e 00BF     		.section	.text.Mat_rotate,"ax",%progbits
 288              		.align	2
 289              		.p2align 4,,15
 290              		.global	Mat_rotate
 291              		.thumb
 292              		.thumb_func
 293              		.type	Mat_rotate, %function
 294              	Mat_rotate:
 295              	.LFB120:
 296              		.loc 1 58 0
 297              		.cfi_startproc
 298              		@ args = 0, pretend = 0, frame = 16
 299              		@ frame_needed = 0, uses_anonymous_args = 0
 300              	.LVL44:
 301 0000 2DE9F041 		push	{r4, r5, r6, r7, r8, lr}
 302              	.LCFI4:
 303              		.cfi_def_cfa_offset 24
 304              		.cfi_offset 4, -24
 305              		.cfi_offset 5, -20
 306              		.cfi_offset 6, -16
 307              		.cfi_offset 7, -12
 308              		.cfi_offset 8, -8
 309              		.cfi_offset 14, -4
 310 0004 84B0     		sub	sp, sp, #16
 311              	.LCFI5:
 312              		.cfi_def_cfa_offset 40
 313              		.loc 1 58 0
 314 0006 04AC     		add	r4, sp, #16
 315 0008 04E90E00 		stmdb	r4, {r1, r2, r3}
 316              		.loc 1 60 0
 317 000c 0568     		ldr	r5, [r0, #0]	@ float
 318              		.loc 1 58 0
 319 000e 0446     		mov	r4, r0
 320              		.loc 1 60 0
 321 0010 4068     		ldr	r0, [r0, #4]	@ float
 322              	.LVL45:
 323 0012 0399     		ldr	r1, [sp, #12]	@ float
 324 0014 D4F80880 		ldr	r8, [r4, #8]	@ float
 325 0018 029F     		ldr	r7, [sp, #8]	@ float
 326 001a FFF7FEFF 		bl	__aeabi_fmul
 327              	.LVL46:
 328 001e 3946     		mov	r1, r7
 329 0020 0646     		mov	r6, r0
 330 0022 4046     		mov	r0, r8
 331 0024 FFF7FEFF 		bl	__aeabi_fmul
 332              	.LVL47:
 333 0028 0146     		mov	r1, r0
 334 002a 3046     		mov	r0, r6
 335 002c FFF7FEFF 		bl	__aeabi_fsub
 336              	.LVL48:
 337 0030 0146     		mov	r1, r0
 338 0032 2846     		mov	r0, r5
 339 0034 FFF7FEFF 		bl	__aeabi_fadd
 340              	.LVL49:
 341 0038 2060     		str	r0, [r4, #0]	@ float
ARM GAS  C:\Users\Mohamad\AppData\Local\Temp\cc3j2Cx6.s 			page 7


 342              		.loc 1 61 0
 343 003a 6568     		ldr	r5, [r4, #4]	@ float
 344 003c A068     		ldr	r0, [r4, #8]	@ float
 345 003e 0199     		ldr	r1, [sp, #4]	@ float
 346 0040 D4F80080 		ldr	r8, [r4, #0]	@ float
 347 0044 039F     		ldr	r7, [sp, #12]	@ float
 348 0046 FFF7FEFF 		bl	__aeabi_fmul
 349              	.LVL50:
 350 004a 3946     		mov	r1, r7
 351 004c 0646     		mov	r6, r0
 352 004e 4046     		mov	r0, r8
 353 0050 FFF7FEFF 		bl	__aeabi_fmul
 354              	.LVL51:
 355 0054 0146     		mov	r1, r0
 356 0056 3046     		mov	r0, r6
 357 0058 FFF7FEFF 		bl	__aeabi_fsub
 358              	.LVL52:
 359 005c 0146     		mov	r1, r0
 360 005e 2846     		mov	r0, r5
 361 0060 FFF7FEFF 		bl	__aeabi_fadd
 362              	.LVL53:
 363 0064 6060     		str	r0, [r4, #4]	@ float
 364              		.loc 1 62 0
 365 0066 A568     		ldr	r5, [r4, #8]	@ float
 366 0068 2068     		ldr	r0, [r4, #0]	@ float
 367 006a 0299     		ldr	r1, [sp, #8]	@ float
 368 006c D4F80480 		ldr	r8, [r4, #4]	@ float
 369 0070 019F     		ldr	r7, [sp, #4]	@ float
 370 0072 FFF7FEFF 		bl	__aeabi_fmul
 371              	.LVL54:
 372 0076 3946     		mov	r1, r7
 373 0078 0646     		mov	r6, r0
 374 007a 4046     		mov	r0, r8
 375 007c FFF7FEFF 		bl	__aeabi_fmul
 376              	.LVL55:
 377 0080 0146     		mov	r1, r0
 378 0082 3046     		mov	r0, r6
 379 0084 FFF7FEFF 		bl	__aeabi_fsub
 380              	.LVL56:
 381 0088 0146     		mov	r1, r0
 382 008a 2846     		mov	r0, r5
 383 008c FFF7FEFF 		bl	__aeabi_fadd
 384              	.LVL57:
 385 0090 A060     		str	r0, [r4, #8]	@ float
 386              		.loc 1 63 0
 387 0092 E568     		ldr	r5, [r4, #12]	@ float
 388 0094 2069     		ldr	r0, [r4, #16]	@ float
 389 0096 0399     		ldr	r1, [sp, #12]	@ float
 390 0098 D4F81480 		ldr	r8, [r4, #20]	@ float
 391 009c 029F     		ldr	r7, [sp, #8]	@ float
 392 009e FFF7FEFF 		bl	__aeabi_fmul
 393              	.LVL58:
 394 00a2 3946     		mov	r1, r7
 395 00a4 0646     		mov	r6, r0
 396 00a6 4046     		mov	r0, r8
 397 00a8 FFF7FEFF 		bl	__aeabi_fmul
 398              	.LVL59:
ARM GAS  C:\Users\Mohamad\AppData\Local\Temp\cc3j2Cx6.s 			page 8


 399 00ac 0146     		mov	r1, r0
 400 00ae 3046     		mov	r0, r6
 401 00b0 FFF7FEFF 		bl	__aeabi_fsub
 402              	.LVL60:
 403 00b4 0146     		mov	r1, r0
 404 00b6 2846     		mov	r0, r5
 405 00b8 FFF7FEFF 		bl	__aeabi_fadd
 406              	.LVL61:
 407 00bc E060     		str	r0, [r4, #12]	@ float
 408              		.loc 1 64 0
 409 00be 2569     		ldr	r5, [r4, #16]	@ float
 410 00c0 6069     		ldr	r0, [r4, #20]	@ float
 411 00c2 0199     		ldr	r1, [sp, #4]	@ float
 412 00c4 D4F80C80 		ldr	r8, [r4, #12]	@ float
 413 00c8 039F     		ldr	r7, [sp, #12]	@ float
 414 00ca FFF7FEFF 		bl	__aeabi_fmul
 415              	.LVL62:
 416 00ce 3946     		mov	r1, r7
 417 00d0 0646     		mov	r6, r0
 418 00d2 4046     		mov	r0, r8
 419 00d4 FFF7FEFF 		bl	__aeabi_fmul
 420              	.LVL63:
 421 00d8 0146     		mov	r1, r0
 422 00da 3046     		mov	r0, r6
 423 00dc FFF7FEFF 		bl	__aeabi_fsub
 424              	.LVL64:
 425 00e0 0146     		mov	r1, r0
 426 00e2 2846     		mov	r0, r5
 427 00e4 FFF7FEFF 		bl	__aeabi_fadd
 428              	.LVL65:
 429 00e8 2061     		str	r0, [r4, #16]	@ float
 430              		.loc 1 65 0
 431 00ea 6569     		ldr	r5, [r4, #20]	@ float
 432 00ec E068     		ldr	r0, [r4, #12]	@ float
 433 00ee 0299     		ldr	r1, [sp, #8]	@ float
 434 00f0 D4F81080 		ldr	r8, [r4, #16]	@ float
 435 00f4 019F     		ldr	r7, [sp, #4]	@ float
 436 00f6 FFF7FEFF 		bl	__aeabi_fmul
 437              	.LVL66:
 438 00fa 3946     		mov	r1, r7
 439 00fc 0646     		mov	r6, r0
 440 00fe 4046     		mov	r0, r8
 441 0100 FFF7FEFF 		bl	__aeabi_fmul
 442              	.LVL67:
 443 0104 0146     		mov	r1, r0
 444 0106 3046     		mov	r0, r6
 445 0108 FFF7FEFF 		bl	__aeabi_fsub
 446              	.LVL68:
 447 010c 0146     		mov	r1, r0
 448 010e 2846     		mov	r0, r5
 449 0110 FFF7FEFF 		bl	__aeabi_fadd
 450              	.LVL69:
 451 0114 6061     		str	r0, [r4, #20]	@ float
 452              		.loc 1 66 0
 453 0116 A569     		ldr	r5, [r4, #24]	@ float
 454 0118 E069     		ldr	r0, [r4, #28]	@ float
 455 011a 0399     		ldr	r1, [sp, #12]	@ float
ARM GAS  C:\Users\Mohamad\AppData\Local\Temp\cc3j2Cx6.s 			page 9


 456 011c D4F82080 		ldr	r8, [r4, #32]	@ float
 457 0120 029F     		ldr	r7, [sp, #8]	@ float
 458 0122 FFF7FEFF 		bl	__aeabi_fmul
 459              	.LVL70:
 460 0126 3946     		mov	r1, r7
 461 0128 0646     		mov	r6, r0
 462 012a 4046     		mov	r0, r8
 463 012c FFF7FEFF 		bl	__aeabi_fmul
 464              	.LVL71:
 465 0130 0146     		mov	r1, r0
 466 0132 3046     		mov	r0, r6
 467 0134 FFF7FEFF 		bl	__aeabi_fsub
 468              	.LVL72:
 469 0138 0146     		mov	r1, r0
 470 013a 2846     		mov	r0, r5
 471 013c FFF7FEFF 		bl	__aeabi_fadd
 472              	.LVL73:
 473 0140 A061     		str	r0, [r4, #24]	@ float
 474              		.loc 1 67 0
 475 0142 E569     		ldr	r5, [r4, #28]	@ float
 476 0144 206A     		ldr	r0, [r4, #32]	@ float
 477 0146 0199     		ldr	r1, [sp, #4]	@ float
 478 0148 D4F81880 		ldr	r8, [r4, #24]	@ float
 479 014c 039F     		ldr	r7, [sp, #12]	@ float
 480 014e FFF7FEFF 		bl	__aeabi_fmul
 481              	.LVL74:
 482 0152 3946     		mov	r1, r7
 483 0154 0646     		mov	r6, r0
 484 0156 4046     		mov	r0, r8
 485 0158 FFF7FEFF 		bl	__aeabi_fmul
 486              	.LVL75:
 487 015c 0146     		mov	r1, r0
 488 015e 3046     		mov	r0, r6
 489 0160 FFF7FEFF 		bl	__aeabi_fsub
 490              	.LVL76:
 491 0164 0146     		mov	r1, r0
 492 0166 2846     		mov	r0, r5
 493 0168 FFF7FEFF 		bl	__aeabi_fadd
 494              	.LVL77:
 495 016c E061     		str	r0, [r4, #28]	@ float
 496              		.loc 1 68 0
 497 016e 256A     		ldr	r5, [r4, #32]	@ float
 498 0170 A069     		ldr	r0, [r4, #24]	@ float
 499 0172 0299     		ldr	r1, [sp, #8]	@ float
 500 0174 D4F81C80 		ldr	r8, [r4, #28]	@ float
 501 0178 019F     		ldr	r7, [sp, #4]	@ float
 502 017a FFF7FEFF 		bl	__aeabi_fmul
 503              	.LVL78:
 504 017e 3946     		mov	r1, r7
 505 0180 0646     		mov	r6, r0
 506 0182 4046     		mov	r0, r8
 507 0184 FFF7FEFF 		bl	__aeabi_fmul
 508              	.LVL79:
 509 0188 0146     		mov	r1, r0
 510 018a 3046     		mov	r0, r6
 511 018c FFF7FEFF 		bl	__aeabi_fsub
 512              	.LVL80:
ARM GAS  C:\Users\Mohamad\AppData\Local\Temp\cc3j2Cx6.s 			page 10


 513 0190 0146     		mov	r1, r0
 514 0192 2846     		mov	r0, r5
 515 0194 FFF7FEFF 		bl	__aeabi_fadd
 516              	.LVL81:
 517 0198 2062     		str	r0, [r4, #32]	@ float
 518              		.loc 1 70 0
 519 019a 04B0     		add	sp, sp, #16
 520 019c BDE8F081 		pop	{r4, r5, r6, r7, r8, pc}
 521              		.cfi_endproc
 522              	.LFE120:
 523              		.size	Mat_rotate, .-Mat_rotate
 524              		.section	.text.Mat_rotateXY,"ax",%progbits
 525              		.align	2
 526              		.p2align 4,,15
 527              		.global	Mat_rotateXY
 528              		.thumb
 529              		.thumb_func
 530              		.type	Mat_rotateXY, %function
 531              	Mat_rotateXY:
 532              	.LFB121:
 533              		.loc 1 78 0
 534              		.cfi_startproc
 535              		@ args = 0, pretend = 0, frame = 16
 536              		@ frame_needed = 0, uses_anonymous_args = 0
 537              	.LVL82:
 538 0000 2DE9F041 		push	{r4, r5, r6, r7, r8, lr}
 539              	.LCFI6:
 540              		.cfi_def_cfa_offset 24
 541              		.cfi_offset 4, -24
 542              		.cfi_offset 5, -20
 543              		.cfi_offset 6, -16
 544              		.cfi_offset 7, -12
 545              		.cfi_offset 8, -8
 546              		.cfi_offset 14, -4
 547 0004 84B0     		sub	sp, sp, #16
 548              	.LCFI7:
 549              		.cfi_def_cfa_offset 40
 550              		.loc 1 78 0
 551 0006 04AC     		add	r4, sp, #16
 552 0008 04E90E00 		stmdb	r4, {r1, r2, r3}
 553              		.loc 1 79 0
 554 000c 0568     		ldr	r5, [r0, #0]	@ float
 555              		.loc 1 78 0
 556 000e 0446     		mov	r4, r0
 557              		.loc 1 79 0
 558 0010 8068     		ldr	r0, [r0, #8]	@ float
 559              	.LVL83:
 560 0012 0299     		ldr	r1, [sp, #8]	@ float
 561 0014 00F10040 		add	r0, r0, #-2147483648
 562 0018 FFF7FEFF 		bl	__aeabi_fmul
 563              	.LVL84:
 564 001c 0146     		mov	r1, r0
 565 001e 2846     		mov	r0, r5
 566 0020 FFF7FEFF 		bl	__aeabi_fadd
 567              	.LVL85:
 568 0024 2060     		str	r0, [r4, #0]	@ float
 569              		.loc 1 80 0
ARM GAS  C:\Users\Mohamad\AppData\Local\Temp\cc3j2Cx6.s 			page 11


 570 0026 6668     		ldr	r6, [r4, #4]	@ float
 571 0028 A068     		ldr	r0, [r4, #8]	@ float
 572 002a 0199     		ldr	r1, [sp, #4]	@ float
 573 002c FFF7FEFF 		bl	__aeabi_fmul
 574              	.LVL86:
 575 0030 0146     		mov	r1, r0
 576 0032 3046     		mov	r0, r6
 577 0034 FFF7FEFF 		bl	__aeabi_fadd
 578              	.LVL87:
 579 0038 6060     		str	r0, [r4, #4]	@ float
 580              		.loc 1 81 0
 581 003a A568     		ldr	r5, [r4, #8]	@ float
 582 003c 2068     		ldr	r0, [r4, #0]	@ float
 583 003e 0299     		ldr	r1, [sp, #8]	@ float
 584 0040 D4F80480 		ldr	r8, [r4, #4]	@ float
 585 0044 019F     		ldr	r7, [sp, #4]	@ float
 586 0046 FFF7FEFF 		bl	__aeabi_fmul
 587              	.LVL88:
 588 004a 3946     		mov	r1, r7
 589 004c 0646     		mov	r6, r0
 590 004e 4046     		mov	r0, r8
 591 0050 FFF7FEFF 		bl	__aeabi_fmul
 592              	.LVL89:
 593 0054 0146     		mov	r1, r0
 594 0056 3046     		mov	r0, r6
 595 0058 FFF7FEFF 		bl	__aeabi_fsub
 596              	.LVL90:
 597 005c 0146     		mov	r1, r0
 598 005e 2846     		mov	r0, r5
 599 0060 FFF7FEFF 		bl	__aeabi_fadd
 600              	.LVL91:
 601 0064 A060     		str	r0, [r4, #8]	@ float
 602              		.loc 1 82 0
 603 0066 E568     		ldr	r5, [r4, #12]	@ float
 604 0068 6269     		ldr	r2, [r4, #20]	@ float
 605 006a 0299     		ldr	r1, [sp, #8]	@ float
 606 006c 02F10040 		add	r0, r2, #-2147483648
 607 0070 FFF7FEFF 		bl	__aeabi_fmul
 608              	.LVL92:
 609 0074 0146     		mov	r1, r0
 610 0076 2846     		mov	r0, r5
 611 0078 FFF7FEFF 		bl	__aeabi_fadd
 612              	.LVL93:
 613 007c E060     		str	r0, [r4, #12]	@ float
 614              		.loc 1 83 0
 615 007e 2769     		ldr	r7, [r4, #16]	@ float
 616 0080 6069     		ldr	r0, [r4, #20]	@ float
 617 0082 0199     		ldr	r1, [sp, #4]	@ float
 618 0084 FFF7FEFF 		bl	__aeabi_fmul
 619              	.LVL94:
 620 0088 0146     		mov	r1, r0
 621 008a 3846     		mov	r0, r7
 622 008c FFF7FEFF 		bl	__aeabi_fadd
 623              	.LVL95:
 624 0090 2061     		str	r0, [r4, #16]	@ float
 625              		.loc 1 84 0
 626 0092 6569     		ldr	r5, [r4, #20]	@ float
ARM GAS  C:\Users\Mohamad\AppData\Local\Temp\cc3j2Cx6.s 			page 12


 627 0094 E068     		ldr	r0, [r4, #12]	@ float
 628 0096 0299     		ldr	r1, [sp, #8]	@ float
 629 0098 D4F81080 		ldr	r8, [r4, #16]	@ float
 630 009c 019F     		ldr	r7, [sp, #4]	@ float
 631 009e FFF7FEFF 		bl	__aeabi_fmul
 632              	.LVL96:
 633 00a2 3946     		mov	r1, r7
 634 00a4 0646     		mov	r6, r0
 635 00a6 4046     		mov	r0, r8
 636 00a8 FFF7FEFF 		bl	__aeabi_fmul
 637              	.LVL97:
 638 00ac 0146     		mov	r1, r0
 639 00ae 3046     		mov	r0, r6
 640 00b0 FFF7FEFF 		bl	__aeabi_fsub
 641              	.LVL98:
 642 00b4 0146     		mov	r1, r0
 643 00b6 2846     		mov	r0, r5
 644 00b8 FFF7FEFF 		bl	__aeabi_fadd
 645              	.LVL99:
 646 00bc 6061     		str	r0, [r4, #20]	@ float
 647              		.loc 1 85 0
 648 00be A569     		ldr	r5, [r4, #24]	@ float
 649 00c0 236A     		ldr	r3, [r4, #32]	@ float
 650 00c2 0299     		ldr	r1, [sp, #8]	@ float
 651 00c4 03F10040 		add	r0, r3, #-2147483648
 652 00c8 FFF7FEFF 		bl	__aeabi_fmul
 653              	.LVL100:
 654 00cc 0146     		mov	r1, r0
 655 00ce 2846     		mov	r0, r5
 656 00d0 FFF7FEFF 		bl	__aeabi_fadd
 657              	.LVL101:
 658 00d4 A061     		str	r0, [r4, #24]	@ float
 659              		.loc 1 86 0
 660 00d6 E769     		ldr	r7, [r4, #28]	@ float
 661 00d8 206A     		ldr	r0, [r4, #32]	@ float
 662 00da 0199     		ldr	r1, [sp, #4]	@ float
 663 00dc FFF7FEFF 		bl	__aeabi_fmul
 664              	.LVL102:
 665 00e0 0146     		mov	r1, r0
 666 00e2 3846     		mov	r0, r7
 667 00e4 FFF7FEFF 		bl	__aeabi_fadd
 668              	.LVL103:
 669 00e8 E061     		str	r0, [r4, #28]	@ float
 670              		.loc 1 87 0
 671 00ea 256A     		ldr	r5, [r4, #32]	@ float
 672 00ec A069     		ldr	r0, [r4, #24]	@ float
 673 00ee 0299     		ldr	r1, [sp, #8]	@ float
 674 00f0 D4F81C80 		ldr	r8, [r4, #28]	@ float
 675 00f4 019F     		ldr	r7, [sp, #4]	@ float
 676 00f6 FFF7FEFF 		bl	__aeabi_fmul
 677              	.LVL104:
 678 00fa 3946     		mov	r1, r7
 679 00fc 0646     		mov	r6, r0
 680 00fe 4046     		mov	r0, r8
 681 0100 FFF7FEFF 		bl	__aeabi_fmul
 682              	.LVL105:
 683 0104 0146     		mov	r1, r0
ARM GAS  C:\Users\Mohamad\AppData\Local\Temp\cc3j2Cx6.s 			page 13


 684 0106 3046     		mov	r0, r6
 685 0108 FFF7FEFF 		bl	__aeabi_fsub
 686              	.LVL106:
 687 010c 0146     		mov	r1, r0
 688 010e 2846     		mov	r0, r5
 689 0110 FFF7FEFF 		bl	__aeabi_fadd
 690              	.LVL107:
 691 0114 2062     		str	r0, [r4, #32]	@ float
 692              		.loc 1 88 0
 693 0116 04B0     		add	sp, sp, #16
 694 0118 BDE8F081 		pop	{r4, r5, r6, r7, r8, pc}
 695              		.cfi_endproc
 696              	.LFE121:
 697              		.size	Mat_rotateXY, .-Mat_rotateXY
 698 011c AFF30080 		.section	.text.Mat_rotateXYinv,"ax",%progbits
 699              		.align	2
 700              		.p2align 4,,15
 701              		.global	Mat_rotateXYinv
 702              		.thumb
 703              		.thumb_func
 704              		.type	Mat_rotateXYinv, %function
 705              	Mat_rotateXYinv:
 706              	.LFB122:
 707              		.loc 1 91 0
 708              		.cfi_startproc
 709              		@ args = 0, pretend = 0, frame = 16
 710              		@ frame_needed = 0, uses_anonymous_args = 0
 711              	.LVL108:
 712 0000 F0B5     		push	{r4, r5, r6, r7, lr}
 713              	.LCFI8:
 714              		.cfi_def_cfa_offset 20
 715              		.cfi_offset 4, -20
 716              		.cfi_offset 5, -16
 717              		.cfi_offset 6, -12
 718              		.cfi_offset 7, -8
 719              		.cfi_offset 14, -4
 720 0002 85B0     		sub	sp, sp, #20
 721              	.LCFI9:
 722              		.cfi_def_cfa_offset 40
 723              		.loc 1 91 0
 724 0004 04AC     		add	r4, sp, #16
 725 0006 04E90E00 		stmdb	r4, {r1, r2, r3}
 726 000a 0446     		mov	r4, r0
 727              		.loc 1 92 0
 728 000c 8068     		ldr	r0, [r0, #8]	@ float
 729              	.LVL109:
 730 000e 0299     		ldr	r1, [sp, #8]	@ float
 731 0010 FFF7FEFF 		bl	__aeabi_fmul
 732              	.LVL110:
 733 0014 2060     		str	r0, [r4, #0]	@ float
 734              		.loc 1 93 0
 735 0016 A068     		ldr	r0, [r4, #8]	@ float
 736 0018 0199     		ldr	r1, [sp, #4]	@ float
 737 001a 00F10040 		add	r0, r0, #-2147483648
 738 001e FFF7FEFF 		bl	__aeabi_fmul
 739              	.LVL111:
 740 0022 6060     		str	r0, [r4, #4]	@ float
ARM GAS  C:\Users\Mohamad\AppData\Local\Temp\cc3j2Cx6.s 			page 14


 741              		.loc 1 94 0
 742 0024 2268     		ldr	r2, [r4, #0]	@ float
 743 0026 0299     		ldr	r1, [sp, #8]	@ float
 744 0028 6768     		ldr	r7, [r4, #4]	@ float
 745 002a 019E     		ldr	r6, [sp, #4]	@ float
 746 002c 02F10040 		add	r0, r2, #-2147483648
 747 0030 FFF7FEFF 		bl	__aeabi_fmul
 748              	.LVL112:
 749 0034 3146     		mov	r1, r6
 750 0036 0546     		mov	r5, r0
 751 0038 3846     		mov	r0, r7
 752 003a FFF7FEFF 		bl	__aeabi_fmul
 753              	.LVL113:
 754 003e 0146     		mov	r1, r0
 755 0040 2846     		mov	r0, r5
 756 0042 FFF7FEFF 		bl	__aeabi_fadd
 757              	.LVL114:
 758 0046 A060     		str	r0, [r4, #8]	@ float
 759              		.loc 1 95 0
 760 0048 6069     		ldr	r0, [r4, #20]	@ float
 761 004a 0299     		ldr	r1, [sp, #8]	@ float
 762 004c FFF7FEFF 		bl	__aeabi_fmul
 763              	.LVL115:
 764 0050 E060     		str	r0, [r4, #12]	@ float
 765              		.loc 1 96 0
 766 0052 6369     		ldr	r3, [r4, #20]	@ float
 767 0054 0199     		ldr	r1, [sp, #4]	@ float
 768 0056 03F10040 		add	r0, r3, #-2147483648
 769 005a FFF7FEFF 		bl	__aeabi_fmul
 770              	.LVL116:
 771 005e 2061     		str	r0, [r4, #16]	@ float
 772              		.loc 1 97 0
 773 0060 E068     		ldr	r0, [r4, #12]	@ float
 774 0062 0299     		ldr	r1, [sp, #8]	@ float
 775 0064 2769     		ldr	r7, [r4, #16]	@ float
 776 0066 019E     		ldr	r6, [sp, #4]	@ float
 777 0068 00F10040 		add	r0, r0, #-2147483648
 778 006c FFF7FEFF 		bl	__aeabi_fmul
 779              	.LVL117:
 780 0070 3146     		mov	r1, r6
 781 0072 0546     		mov	r5, r0
 782 0074 3846     		mov	r0, r7
 783 0076 FFF7FEFF 		bl	__aeabi_fmul
 784              	.LVL118:
 785 007a 0146     		mov	r1, r0
 786 007c 2846     		mov	r0, r5
 787 007e FFF7FEFF 		bl	__aeabi_fadd
 788              	.LVL119:
 789 0082 6061     		str	r0, [r4, #20]	@ float
 790              		.loc 1 98 0
 791 0084 206A     		ldr	r0, [r4, #32]	@ float
 792 0086 0299     		ldr	r1, [sp, #8]	@ float
 793 0088 FFF7FEFF 		bl	__aeabi_fmul
 794              	.LVL120:
 795 008c A061     		str	r0, [r4, #24]	@ float
 796              		.loc 1 99 0
 797 008e 226A     		ldr	r2, [r4, #32]	@ float
ARM GAS  C:\Users\Mohamad\AppData\Local\Temp\cc3j2Cx6.s 			page 15


 798 0090 0199     		ldr	r1, [sp, #4]	@ float
 799 0092 02F10040 		add	r0, r2, #-2147483648
 800 0096 FFF7FEFF 		bl	__aeabi_fmul
 801              	.LVL121:
 802 009a E061     		str	r0, [r4, #28]	@ float
 803              		.loc 1 100 0
 804 009c A369     		ldr	r3, [r4, #24]	@ float
 805 009e 0299     		ldr	r1, [sp, #8]	@ float
 806 00a0 E769     		ldr	r7, [r4, #28]	@ float
 807 00a2 019E     		ldr	r6, [sp, #4]	@ float
 808 00a4 03F10040 		add	r0, r3, #-2147483648
 809 00a8 FFF7FEFF 		bl	__aeabi_fmul
 810              	.LVL122:
 811 00ac 3146     		mov	r1, r6
 812 00ae 0546     		mov	r5, r0
 813 00b0 3846     		mov	r0, r7
 814 00b2 FFF7FEFF 		bl	__aeabi_fmul
 815              	.LVL123:
 816 00b6 0146     		mov	r1, r0
 817 00b8 2846     		mov	r0, r5
 818 00ba FFF7FEFF 		bl	__aeabi_fadd
 819              	.LVL124:
 820 00be 2062     		str	r0, [r4, #32]	@ float
 821              		.loc 1 101 0
 822 00c0 05B0     		add	sp, sp, #20
 823 00c2 F0BD     		pop	{r4, r5, r6, r7, pc}
 824              		.cfi_endproc
 825              	.LFE122:
 826              		.size	Mat_rotateXYinv, .-Mat_rotateXYinv
 827 00c4 AFF30080 		.section	.text.mul_Mat3f_to_Vec3f,"ax",%progbits
 827      AFF30080 
 827      AFF30080 
 828              		.align	2
 829              		.p2align 4,,15
 830              		.global	mul_Mat3f_to_Vec3f
 831              		.thumb
 832              		.thumb_func
 833              		.type	mul_Mat3f_to_Vec3f, %function
 834              	mul_Mat3f_to_Vec3f:
 835              	.LFB123:
 836              		.loc 1 107 0
 837              		.cfi_startproc
 838              		@ args = 52, pretend = 16, frame = 0
 839              		@ frame_needed = 0, uses_anonymous_args = 0
 840              	.LVL125:
 841 0000 84B0     		sub	sp, sp, #16
 842              	.LCFI10:
 843              		.cfi_def_cfa_offset 16
 844 0002 2DE9F843 		push	{r3, r4, r5, r6, r7, r8, r9, lr}
 845              	.LCFI11:
 846              		.cfi_def_cfa_offset 48
 847              		.cfi_offset 3, -48
 848              		.cfi_offset 4, -44
 849              		.cfi_offset 5, -40
 850              		.cfi_offset 6, -36
 851              		.cfi_offset 7, -32
 852              		.cfi_offset 8, -28
ARM GAS  C:\Users\Mohamad\AppData\Local\Temp\cc3j2Cx6.s 			page 16


 853              		.cfi_offset 9, -24
 854              		.cfi_offset 14, -20
 855              		.loc 1 107 0
 856 0006 09AC     		add	r4, sp, #36
 857 0008 84E80E00 		stmia	r4, {r1, r2, r3}
 858              		.loc 1 109 0
 859 000c 099B     		ldr	r3, [sp, #36]	@ float
 860 000e 1299     		ldr	r1, [sp, #72]	@ float
 861 0010 DDF82890 		ldr	r9, [sp, #40]	@ float
 862 0014 DDF84C80 		ldr	r8, [sp, #76]	@ float
 863 0018 0B9F     		ldr	r7, [sp, #44]	@ float
 864 001a 149E     		ldr	r6, [sp, #80]	@ float
 865              		.loc 1 107 0
 866 001c 0446     		mov	r4, r0
 867              		.loc 1 109 0
 868 001e 1846     		mov	r0, r3
 869              	.LVL126:
 870 0020 FFF7FEFF 		bl	__aeabi_fmul
 871              	.LVL127:
 872 0024 4146     		mov	r1, r8
 873 0026 0546     		mov	r5, r0
 874 0028 4846     		mov	r0, r9
 875 002a FFF7FEFF 		bl	__aeabi_fmul
 876              	.LVL128:
 877 002e 0146     		mov	r1, r0
 878 0030 2846     		mov	r0, r5
 879 0032 FFF7FEFF 		bl	__aeabi_fadd
 880              	.LVL129:
 881 0036 3146     		mov	r1, r6
 882 0038 0546     		mov	r5, r0
 883 003a 3846     		mov	r0, r7
 884 003c FFF7FEFF 		bl	__aeabi_fmul
 885              	.LVL130:
 886 0040 0146     		mov	r1, r0
 887 0042 2846     		mov	r0, r5
 888 0044 FFF7FEFF 		bl	__aeabi_fadd
 889              	.LVL131:
 890 0048 2060     		str	r0, [r4, #0]	@ float
 891              		.loc 1 110 0
 892 004a 0C98     		ldr	r0, [sp, #48]	@ float
 893 004c 1299     		ldr	r1, [sp, #72]	@ float
 894 004e DDF83490 		ldr	r9, [sp, #52]	@ float
 895 0052 DDF84C80 		ldr	r8, [sp, #76]	@ float
 896 0056 0E9F     		ldr	r7, [sp, #56]	@ float
 897 0058 149E     		ldr	r6, [sp, #80]	@ float
 898 005a FFF7FEFF 		bl	__aeabi_fmul
 899              	.LVL132:
 900 005e 4146     		mov	r1, r8
 901 0060 0546     		mov	r5, r0
 902 0062 4846     		mov	r0, r9
 903 0064 FFF7FEFF 		bl	__aeabi_fmul
 904              	.LVL133:
 905 0068 0146     		mov	r1, r0
 906 006a 2846     		mov	r0, r5
 907 006c FFF7FEFF 		bl	__aeabi_fadd
 908              	.LVL134:
 909 0070 3146     		mov	r1, r6
ARM GAS  C:\Users\Mohamad\AppData\Local\Temp\cc3j2Cx6.s 			page 17


 910 0072 0546     		mov	r5, r0
 911 0074 3846     		mov	r0, r7
 912 0076 FFF7FEFF 		bl	__aeabi_fmul
 913              	.LVL135:
 914 007a 0146     		mov	r1, r0
 915 007c 2846     		mov	r0, r5
 916 007e FFF7FEFF 		bl	__aeabi_fadd
 917              	.LVL136:
 918 0082 6060     		str	r0, [r4, #4]	@ float
 919              		.loc 1 111 0
 920 0084 0F98     		ldr	r0, [sp, #60]	@ float
 921 0086 1299     		ldr	r1, [sp, #72]	@ float
 922 0088 DDF84090 		ldr	r9, [sp, #64]	@ float
 923 008c DDF84C80 		ldr	r8, [sp, #76]	@ float
 924 0090 119F     		ldr	r7, [sp, #68]	@ float
 925 0092 149E     		ldr	r6, [sp, #80]	@ float
 926 0094 FFF7FEFF 		bl	__aeabi_fmul
 927              	.LVL137:
 928 0098 4146     		mov	r1, r8
 929 009a 0546     		mov	r5, r0
 930 009c 4846     		mov	r0, r9
 931 009e FFF7FEFF 		bl	__aeabi_fmul
 932              	.LVL138:
 933 00a2 0146     		mov	r1, r0
 934 00a4 2846     		mov	r0, r5
 935 00a6 FFF7FEFF 		bl	__aeabi_fadd
 936              	.LVL139:
 937 00aa 3146     		mov	r1, r6
 938 00ac 0546     		mov	r5, r0
 939 00ae 3846     		mov	r0, r7
 940 00b0 FFF7FEFF 		bl	__aeabi_fmul
 941              	.LVL140:
 942 00b4 0146     		mov	r1, r0
 943 00b6 2846     		mov	r0, r5
 944 00b8 FFF7FEFF 		bl	__aeabi_fadd
 945              	.LVL141:
 946 00bc A060     		str	r0, [r4, #8]	@ float
 947              		.loc 1 113 0
 948 00be 2046     		mov	r0, r4
 949 00c0 BDE8F843 		pop	{r3, r4, r5, r6, r7, r8, r9, lr}
 950 00c4 04B0     		add	sp, sp, #16
 951 00c6 7047     		bx	lr
 952              		.cfi_endproc
 953              	.LFE123:
 954              		.size	mul_Mat3f_to_Vec3f, .-mul_Mat3f_to_Vec3f
 955 00c8 AFF30080 		.section	.text.mat_mulXY,"ax",%progbits
 955      AFF30080 
 956              		.align	2
 957              		.p2align 4,,15
 958              		.global	mat_mulXY
 959              		.thumb
 960              		.thumb_func
 961              		.type	mat_mulXY, %function
 962              	mat_mulXY:
 963              	.LFB124:
 964              		.loc 1 117 0
 965              		.cfi_startproc
ARM GAS  C:\Users\Mohamad\AppData\Local\Temp\cc3j2Cx6.s 			page 18


 966              		@ args = 52, pretend = 16, frame = 16
 967              		@ frame_needed = 0, uses_anonymous_args = 0
 968              	.LVL142:
 969 0000 84B0     		sub	sp, sp, #16
 970              	.LCFI12:
 971              		.cfi_def_cfa_offset 16
 972 0002 2DE9F04F 		push	{r4, r5, r6, r7, r8, r9, sl, fp, lr}
 973              	.LCFI13:
 974              		.cfi_def_cfa_offset 52
 975              		.cfi_offset 4, -52
 976              		.cfi_offset 5, -48
 977              		.cfi_offset 6, -44
 978              		.cfi_offset 7, -40
 979              		.cfi_offset 8, -36
 980              		.cfi_offset 9, -32
 981              		.cfi_offset 10, -28
 982              		.cfi_offset 11, -24
 983              		.cfi_offset 14, -20
 984 0006 85B0     		sub	sp, sp, #20
 985              	.LCFI14:
 986              		.cfi_def_cfa_offset 72
 987              		.loc 1 117 0
 988 0008 0FAC     		add	r4, sp, #60
 989 000a 84E80E00 		stmia	r4, {r1, r2, r3}
 990              		.loc 1 119 0
 991 000e 0F9B     		ldr	r3, [sp, #60]	@ float
 992 0010 1899     		ldr	r1, [sp, #96]	@ float
 993 0012 DDF840C0 		ldr	ip, [sp, #64]	@ float
 994 0016 199A     		ldr	r2, [sp, #100]	@ float
 995 0018 DDF844B0 		ldr	fp, [sp, #68]	@ float
 996 001c DDF868A0 		ldr	sl, [sp, #104]	@ float
 997              	.LVL143:
 998              		.loc 1 120 0
 999 0020 DDF84880 		ldr	r8, [sp, #72]	@ float
 1000 0024 DDF86090 		ldr	r9, [sp, #96]	@ float
 1001 0028 139F     		ldr	r7, [sp, #76]	@ float
 1002 002a 199E     		ldr	r6, [sp, #100]	@ float
 1003 002c 149D     		ldr	r5, [sp, #80]	@ float
 1004 002e 1A9C     		ldr	r4, [sp, #104]	@ float
 1005              		.loc 1 119 0
 1006 0030 0192     		str	r2, [sp, #4]
 1007              		.loc 1 120 0
 1008 0032 0394     		str	r4, [sp, #12]	@ float
 1009              	.LVL144:
 1010              		.loc 1 117 0
 1011 0034 0446     		mov	r4, r0
 1012              	.LVL145:
 1013              		.loc 1 119 0
 1014 0036 1846     		mov	r0, r3
 1015              	.LVL146:
 1016 0038 CDF808C0 		str	ip, [sp, #8]
 1017 003c FFF7FEFF 		bl	__aeabi_fmul
 1018              	.LVL147:
 1019 0040 DDF808C0 		ldr	ip, [sp, #8]
 1020 0044 0199     		ldr	r1, [sp, #4]
 1021 0046 0346     		mov	r3, r0
 1022 0048 6046     		mov	r0, ip
ARM GAS  C:\Users\Mohamad\AppData\Local\Temp\cc3j2Cx6.s 			page 19


 1023 004a 0293     		str	r3, [sp, #8]
 1024 004c FFF7FEFF 		bl	__aeabi_fmul
 1025              	.LVL148:
 1026 0050 0146     		mov	r1, r0
 1027 0052 0298     		ldr	r0, [sp, #8]
 1028 0054 FFF7FEFF 		bl	__aeabi_fadd
 1029              	.LVL149:
 1030 0058 5146     		mov	r1, sl
 1031 005a 0246     		mov	r2, r0
 1032 005c 5846     		mov	r0, fp
 1033 005e 0292     		str	r2, [sp, #8]
 1034 0060 FFF7FEFF 		bl	__aeabi_fmul
 1035              	.LVL150:
 1036 0064 029B     		ldr	r3, [sp, #8]
 1037 0066 0146     		mov	r1, r0
 1038 0068 1846     		mov	r0, r3
 1039 006a FFF7FEFF 		bl	__aeabi_fadd
 1040              	.LVL151:
 1041              		.loc 1 120 0
 1042 006e 4946     		mov	r1, r9
 1043              		.loc 1 121 0
 1044 0070 2060     		str	r0, [r4, #0]	@ float
 1045              		.loc 1 120 0
 1046 0072 4046     		mov	r0, r8
 1047 0074 FFF7FEFF 		bl	__aeabi_fmul
 1048              	.LVL152:
 1049 0078 3146     		mov	r1, r6
 1050 007a 8046     		mov	r8, r0
 1051              	.LVL153:
 1052 007c 3846     		mov	r0, r7
 1053 007e FFF7FEFF 		bl	__aeabi_fmul
 1054              	.LVL154:
 1055 0082 0146     		mov	r1, r0
 1056 0084 4046     		mov	r0, r8
 1057 0086 FFF7FEFF 		bl	__aeabi_fadd
 1058              	.LVL155:
 1059 008a 0399     		ldr	r1, [sp, #12]	@ float
 1060 008c 0646     		mov	r6, r0
 1061 008e 2846     		mov	r0, r5
 1062 0090 FFF7FEFF 		bl	__aeabi_fmul
 1063              	.LVL156:
 1064 0094 0146     		mov	r1, r0
 1065 0096 3046     		mov	r0, r6
 1066 0098 FFF7FEFF 		bl	__aeabi_fadd
 1067              	.LVL157:
 1068              		.loc 1 121 0
 1069 009c 6060     		str	r0, [r4, #4]	@ float
 1070              		.loc 1 122 0
 1071 009e 2046     		mov	r0, r4
 1072 00a0 05B0     		add	sp, sp, #20
 1073 00a2 BDE8F04F 		pop	{r4, r5, r6, r7, r8, r9, sl, fp, lr}
 1074 00a6 04B0     		add	sp, sp, #16
 1075 00a8 7047     		bx	lr
 1076              		.cfi_endproc
 1077              	.LFE124:
 1078              		.size	mat_mulXY, .-mat_mulXY
 1079 00aa 00BFAFF3 		.section	.text.mul_transpose,"ax",%progbits
ARM GAS  C:\Users\Mohamad\AppData\Local\Temp\cc3j2Cx6.s 			page 20


 1079      0080
 1080              		.align	2
 1081              		.p2align 4,,15
 1082              		.global	mul_transpose
 1083              		.thumb
 1084              		.thumb_func
 1085              		.type	mul_transpose, %function
 1086              	mul_transpose:
 1087              	.LFB125:
 1088              		.loc 1 126 0
 1089              		.cfi_startproc
 1090              		@ args = 52, pretend = 16, frame = 0
 1091              		@ frame_needed = 0, uses_anonymous_args = 0
 1092              	.LVL158:
 1093 0000 84B0     		sub	sp, sp, #16
 1094              	.LCFI15:
 1095              		.cfi_def_cfa_offset 16
 1096 0002 2DE9F843 		push	{r3, r4, r5, r6, r7, r8, r9, lr}
 1097              	.LCFI16:
 1098              		.cfi_def_cfa_offset 48
 1099              		.cfi_offset 3, -48
 1100              		.cfi_offset 4, -44
 1101              		.cfi_offset 5, -40
 1102              		.cfi_offset 6, -36
 1103              		.cfi_offset 7, -32
 1104              		.cfi_offset 8, -28
 1105              		.cfi_offset 9, -24
 1106              		.cfi_offset 14, -20
 1107              		.loc 1 126 0
 1108 0006 09AC     		add	r4, sp, #36
 1109 0008 84E80E00 		stmia	r4, {r1, r2, r3}
 1110              		.loc 1 128 0
 1111 000c 099B     		ldr	r3, [sp, #36]	@ float
 1112 000e 1299     		ldr	r1, [sp, #72]	@ float
 1113 0010 DDF83090 		ldr	r9, [sp, #48]	@ float
 1114 0014 DDF84C80 		ldr	r8, [sp, #76]	@ float
 1115 0018 0F9F     		ldr	r7, [sp, #60]	@ float
 1116 001a 149E     		ldr	r6, [sp, #80]	@ float
 1117              		.loc 1 126 0
 1118 001c 0446     		mov	r4, r0
 1119              		.loc 1 128 0
 1120 001e 1846     		mov	r0, r3
 1121              	.LVL159:
 1122 0020 FFF7FEFF 		bl	__aeabi_fmul
 1123              	.LVL160:
 1124 0024 4146     		mov	r1, r8
 1125 0026 0546     		mov	r5, r0
 1126 0028 4846     		mov	r0, r9
 1127 002a FFF7FEFF 		bl	__aeabi_fmul
 1128              	.LVL161:
 1129 002e 0146     		mov	r1, r0
 1130 0030 2846     		mov	r0, r5
 1131 0032 FFF7FEFF 		bl	__aeabi_fadd
 1132              	.LVL162:
 1133 0036 3146     		mov	r1, r6
 1134 0038 0546     		mov	r5, r0
 1135 003a 3846     		mov	r0, r7
ARM GAS  C:\Users\Mohamad\AppData\Local\Temp\cc3j2Cx6.s 			page 21


 1136 003c FFF7FEFF 		bl	__aeabi_fmul
 1137              	.LVL163:
 1138 0040 0146     		mov	r1, r0
 1139 0042 2846     		mov	r0, r5
 1140 0044 FFF7FEFF 		bl	__aeabi_fadd
 1141              	.LVL164:
 1142 0048 2060     		str	r0, [r4, #0]	@ float
 1143              		.loc 1 129 0
 1144 004a 0A98     		ldr	r0, [sp, #40]	@ float
 1145 004c 1299     		ldr	r1, [sp, #72]	@ float
 1146 004e DDF83490 		ldr	r9, [sp, #52]	@ float
 1147 0052 DDF84C80 		ldr	r8, [sp, #76]	@ float
 1148 0056 109F     		ldr	r7, [sp, #64]	@ float
 1149 0058 149E     		ldr	r6, [sp, #80]	@ float
 1150 005a FFF7FEFF 		bl	__aeabi_fmul
 1151              	.LVL165:
 1152 005e 4146     		mov	r1, r8
 1153 0060 0546     		mov	r5, r0
 1154 0062 4846     		mov	r0, r9
 1155 0064 FFF7FEFF 		bl	__aeabi_fmul
 1156              	.LVL166:
 1157 0068 0146     		mov	r1, r0
 1158 006a 2846     		mov	r0, r5
 1159 006c FFF7FEFF 		bl	__aeabi_fadd
 1160              	.LVL167:
 1161 0070 3146     		mov	r1, r6
 1162 0072 0546     		mov	r5, r0
 1163 0074 3846     		mov	r0, r7
 1164 0076 FFF7FEFF 		bl	__aeabi_fmul
 1165              	.LVL168:
 1166 007a 0146     		mov	r1, r0
 1167 007c 2846     		mov	r0, r5
 1168 007e FFF7FEFF 		bl	__aeabi_fadd
 1169              	.LVL169:
 1170 0082 6060     		str	r0, [r4, #4]	@ float
 1171              		.loc 1 130 0
 1172 0084 0B98     		ldr	r0, [sp, #44]	@ float
 1173 0086 1299     		ldr	r1, [sp, #72]	@ float
 1174 0088 DDF83890 		ldr	r9, [sp, #56]	@ float
 1175 008c DDF84C80 		ldr	r8, [sp, #76]	@ float
 1176 0090 119F     		ldr	r7, [sp, #68]	@ float
 1177 0092 149E     		ldr	r6, [sp, #80]	@ float
 1178 0094 FFF7FEFF 		bl	__aeabi_fmul
 1179              	.LVL170:
 1180 0098 4146     		mov	r1, r8
 1181 009a 0546     		mov	r5, r0
 1182 009c 4846     		mov	r0, r9
 1183 009e FFF7FEFF 		bl	__aeabi_fmul
 1184              	.LVL171:
 1185 00a2 0146     		mov	r1, r0
 1186 00a4 2846     		mov	r0, r5
 1187 00a6 FFF7FEFF 		bl	__aeabi_fadd
 1188              	.LVL172:
 1189 00aa 3146     		mov	r1, r6
 1190 00ac 0546     		mov	r5, r0
 1191 00ae 3846     		mov	r0, r7
 1192 00b0 FFF7FEFF 		bl	__aeabi_fmul
ARM GAS  C:\Users\Mohamad\AppData\Local\Temp\cc3j2Cx6.s 			page 22


 1193              	.LVL173:
 1194 00b4 0146     		mov	r1, r0
 1195 00b6 2846     		mov	r0, r5
 1196 00b8 FFF7FEFF 		bl	__aeabi_fadd
 1197              	.LVL174:
 1198 00bc A060     		str	r0, [r4, #8]	@ float
 1199              		.loc 1 132 0
 1200 00be 2046     		mov	r0, r4
 1201 00c0 BDE8F843 		pop	{r3, r4, r5, r6, r7, r8, r9, lr}
 1202 00c4 04B0     		add	sp, sp, #16
 1203 00c6 7047     		bx	lr
 1204              		.cfi_endproc
 1205              	.LFE125:
 1206              		.size	mul_transpose, .-mul_transpose
 1207 00c8 AFF30080 		.section	.text.mult_Matrix3f,"ax",%progbits
 1207      AFF30080 
 1208              		.align	2
 1209              		.p2align 4,,15
 1210              		.global	mult_Matrix3f
 1211              		.thumb
 1212              		.thumb_func
 1213              		.type	mult_Matrix3f, %function
 1214              	mult_Matrix3f:
 1215              	.LFB126:
 1216              		.loc 1 136 0
 1217              		.cfi_startproc
 1218              		@ args = 76, pretend = 16, frame = 0
 1219              		@ frame_needed = 0, uses_anonymous_args = 0
 1220              	.LVL175:
 1221 0000 84B0     		sub	sp, sp, #16
 1222              	.LCFI17:
 1223              		.cfi_def_cfa_offset 16
 1224 0002 2DE9F843 		push	{r3, r4, r5, r6, r7, r8, r9, lr}
 1225              	.LCFI18:
 1226              		.cfi_def_cfa_offset 48
 1227              		.cfi_offset 3, -48
 1228              		.cfi_offset 4, -44
 1229              		.cfi_offset 5, -40
 1230              		.cfi_offset 6, -36
 1231              		.cfi_offset 7, -32
 1232              		.cfi_offset 8, -28
 1233              		.cfi_offset 9, -24
 1234              		.cfi_offset 14, -20
 1235              		.loc 1 136 0
 1236 0006 09AC     		add	r4, sp, #36
 1237 0008 84E80E00 		stmia	r4, {r1, r2, r3}
 1238              		.loc 1 138 0
 1239 000c 099B     		ldr	r3, [sp, #36]	@ float
 1240 000e 1299     		ldr	r1, [sp, #72]	@ float
 1241 0010 DDF82890 		ldr	r9, [sp, #40]	@ float
 1242 0014 DDF85480 		ldr	r8, [sp, #84]	@ float
 1243 0018 0B9F     		ldr	r7, [sp, #44]	@ float
 1244 001a 189E     		ldr	r6, [sp, #96]	@ float
 1245              		.loc 1 136 0
 1246 001c 0446     		mov	r4, r0
 1247              		.loc 1 138 0
 1248 001e 1846     		mov	r0, r3
ARM GAS  C:\Users\Mohamad\AppData\Local\Temp\cc3j2Cx6.s 			page 23


 1249              	.LVL176:
 1250 0020 FFF7FEFF 		bl	__aeabi_fmul
 1251              	.LVL177:
 1252 0024 4146     		mov	r1, r8
 1253 0026 0546     		mov	r5, r0
 1254 0028 4846     		mov	r0, r9
 1255 002a FFF7FEFF 		bl	__aeabi_fmul
 1256              	.LVL178:
 1257 002e 0146     		mov	r1, r0
 1258 0030 2846     		mov	r0, r5
 1259 0032 FFF7FEFF 		bl	__aeabi_fadd
 1260              	.LVL179:
 1261 0036 3146     		mov	r1, r6
 1262 0038 0546     		mov	r5, r0
 1263 003a 3846     		mov	r0, r7
 1264 003c FFF7FEFF 		bl	__aeabi_fmul
 1265              	.LVL180:
 1266 0040 0146     		mov	r1, r0
 1267 0042 2846     		mov	r0, r5
 1268 0044 FFF7FEFF 		bl	__aeabi_fadd
 1269              	.LVL181:
 1270 0048 2060     		str	r0, [r4, #0]	@ float
 1271              		.loc 1 139 0
 1272 004a 0998     		ldr	r0, [sp, #36]	@ float
 1273 004c 1399     		ldr	r1, [sp, #76]	@ float
 1274 004e DDF82890 		ldr	r9, [sp, #40]	@ float
 1275 0052 DDF85880 		ldr	r8, [sp, #88]	@ float
 1276 0056 0B9F     		ldr	r7, [sp, #44]	@ float
 1277 0058 199E     		ldr	r6, [sp, #100]	@ float
 1278 005a FFF7FEFF 		bl	__aeabi_fmul
 1279              	.LVL182:
 1280 005e 4146     		mov	r1, r8
 1281 0060 0546     		mov	r5, r0
 1282 0062 4846     		mov	r0, r9
 1283 0064 FFF7FEFF 		bl	__aeabi_fmul
 1284              	.LVL183:
 1285 0068 0146     		mov	r1, r0
 1286 006a 2846     		mov	r0, r5
 1287 006c FFF7FEFF 		bl	__aeabi_fadd
 1288              	.LVL184:
 1289 0070 3146     		mov	r1, r6
 1290 0072 0546     		mov	r5, r0
 1291 0074 3846     		mov	r0, r7
 1292 0076 FFF7FEFF 		bl	__aeabi_fmul
 1293              	.LVL185:
 1294 007a 0146     		mov	r1, r0
 1295 007c 2846     		mov	r0, r5
 1296 007e FFF7FEFF 		bl	__aeabi_fadd
 1297              	.LVL186:
 1298 0082 6060     		str	r0, [r4, #4]	@ float
 1299              		.loc 1 140 0
 1300 0084 0998     		ldr	r0, [sp, #36]	@ float
 1301 0086 1499     		ldr	r1, [sp, #80]	@ float
 1302 0088 DDF82890 		ldr	r9, [sp, #40]	@ float
 1303 008c DDF85C80 		ldr	r8, [sp, #92]	@ float
 1304 0090 0B9F     		ldr	r7, [sp, #44]	@ float
 1305 0092 1A9E     		ldr	r6, [sp, #104]	@ float
ARM GAS  C:\Users\Mohamad\AppData\Local\Temp\cc3j2Cx6.s 			page 24


 1306 0094 FFF7FEFF 		bl	__aeabi_fmul
 1307              	.LVL187:
 1308 0098 4146     		mov	r1, r8
 1309 009a 0546     		mov	r5, r0
 1310 009c 4846     		mov	r0, r9
 1311 009e FFF7FEFF 		bl	__aeabi_fmul
 1312              	.LVL188:
 1313 00a2 0146     		mov	r1, r0
 1314 00a4 2846     		mov	r0, r5
 1315 00a6 FFF7FEFF 		bl	__aeabi_fadd
 1316              	.LVL189:
 1317 00aa 3146     		mov	r1, r6
 1318 00ac 0546     		mov	r5, r0
 1319 00ae 3846     		mov	r0, r7
 1320 00b0 FFF7FEFF 		bl	__aeabi_fmul
 1321              	.LVL190:
 1322 00b4 0146     		mov	r1, r0
 1323 00b6 2846     		mov	r0, r5
 1324 00b8 FFF7FEFF 		bl	__aeabi_fadd
 1325              	.LVL191:
 1326 00bc A060     		str	r0, [r4, #8]	@ float
 1327              		.loc 1 142 0
 1328 00be 0C98     		ldr	r0, [sp, #48]	@ float
 1329 00c0 1299     		ldr	r1, [sp, #72]	@ float
 1330 00c2 DDF83490 		ldr	r9, [sp, #52]	@ float
 1331 00c6 DDF85480 		ldr	r8, [sp, #84]	@ float
 1332 00ca 0E9F     		ldr	r7, [sp, #56]	@ float
 1333 00cc 189E     		ldr	r6, [sp, #96]	@ float
 1334 00ce FFF7FEFF 		bl	__aeabi_fmul
 1335              	.LVL192:
 1336 00d2 4146     		mov	r1, r8
 1337 00d4 0546     		mov	r5, r0
 1338 00d6 4846     		mov	r0, r9
 1339 00d8 FFF7FEFF 		bl	__aeabi_fmul
 1340              	.LVL193:
 1341 00dc 0146     		mov	r1, r0
 1342 00de 2846     		mov	r0, r5
 1343 00e0 FFF7FEFF 		bl	__aeabi_fadd
 1344              	.LVL194:
 1345 00e4 3146     		mov	r1, r6
 1346 00e6 0546     		mov	r5, r0
 1347 00e8 3846     		mov	r0, r7
 1348 00ea FFF7FEFF 		bl	__aeabi_fmul
 1349              	.LVL195:
 1350 00ee 0146     		mov	r1, r0
 1351 00f0 2846     		mov	r0, r5
 1352 00f2 FFF7FEFF 		bl	__aeabi_fadd
 1353              	.LVL196:
 1354 00f6 E060     		str	r0, [r4, #12]	@ float
 1355              		.loc 1 143 0
 1356 00f8 0C98     		ldr	r0, [sp, #48]	@ float
 1357 00fa 1399     		ldr	r1, [sp, #76]	@ float
 1358 00fc DDF83490 		ldr	r9, [sp, #52]	@ float
 1359 0100 DDF85880 		ldr	r8, [sp, #88]	@ float
 1360 0104 0E9F     		ldr	r7, [sp, #56]	@ float
 1361 0106 199E     		ldr	r6, [sp, #100]	@ float
 1362 0108 FFF7FEFF 		bl	__aeabi_fmul
ARM GAS  C:\Users\Mohamad\AppData\Local\Temp\cc3j2Cx6.s 			page 25


 1363              	.LVL197:
 1364 010c 4146     		mov	r1, r8
 1365 010e 0546     		mov	r5, r0
 1366 0110 4846     		mov	r0, r9
 1367 0112 FFF7FEFF 		bl	__aeabi_fmul
 1368              	.LVL198:
 1369 0116 0146     		mov	r1, r0
 1370 0118 2846     		mov	r0, r5
 1371 011a FFF7FEFF 		bl	__aeabi_fadd
 1372              	.LVL199:
 1373 011e 3146     		mov	r1, r6
 1374 0120 0546     		mov	r5, r0
 1375 0122 3846     		mov	r0, r7
 1376 0124 FFF7FEFF 		bl	__aeabi_fmul
 1377              	.LVL200:
 1378 0128 0146     		mov	r1, r0
 1379 012a 2846     		mov	r0, r5
 1380 012c FFF7FEFF 		bl	__aeabi_fadd
 1381              	.LVL201:
 1382 0130 2061     		str	r0, [r4, #16]	@ float
 1383              		.loc 1 144 0
 1384 0132 0C98     		ldr	r0, [sp, #48]	@ float
 1385 0134 1499     		ldr	r1, [sp, #80]	@ float
 1386 0136 DDF83490 		ldr	r9, [sp, #52]	@ float
 1387 013a DDF85C80 		ldr	r8, [sp, #92]	@ float
 1388 013e 0E9F     		ldr	r7, [sp, #56]	@ float
 1389 0140 1A9E     		ldr	r6, [sp, #104]	@ float
 1390 0142 FFF7FEFF 		bl	__aeabi_fmul
 1391              	.LVL202:
 1392 0146 4146     		mov	r1, r8
 1393 0148 0546     		mov	r5, r0
 1394 014a 4846     		mov	r0, r9
 1395 014c FFF7FEFF 		bl	__aeabi_fmul
 1396              	.LVL203:
 1397 0150 0146     		mov	r1, r0
 1398 0152 2846     		mov	r0, r5
 1399 0154 FFF7FEFF 		bl	__aeabi_fadd
 1400              	.LVL204:
 1401 0158 3146     		mov	r1, r6
 1402 015a 0546     		mov	r5, r0
 1403 015c 3846     		mov	r0, r7
 1404 015e FFF7FEFF 		bl	__aeabi_fmul
 1405              	.LVL205:
 1406 0162 0146     		mov	r1, r0
 1407 0164 2846     		mov	r0, r5
 1408 0166 FFF7FEFF 		bl	__aeabi_fadd
 1409              	.LVL206:
 1410 016a 6061     		str	r0, [r4, #20]	@ float
 1411              		.loc 1 146 0
 1412 016c 0F98     		ldr	r0, [sp, #60]	@ float
 1413 016e 1299     		ldr	r1, [sp, #72]	@ float
 1414 0170 DDF84090 		ldr	r9, [sp, #64]	@ float
 1415 0174 DDF85480 		ldr	r8, [sp, #84]	@ float
 1416 0178 119F     		ldr	r7, [sp, #68]	@ float
 1417 017a 189E     		ldr	r6, [sp, #96]	@ float
 1418 017c FFF7FEFF 		bl	__aeabi_fmul
 1419              	.LVL207:
ARM GAS  C:\Users\Mohamad\AppData\Local\Temp\cc3j2Cx6.s 			page 26


 1420 0180 4146     		mov	r1, r8
 1421 0182 0546     		mov	r5, r0
 1422 0184 4846     		mov	r0, r9
 1423 0186 FFF7FEFF 		bl	__aeabi_fmul
 1424              	.LVL208:
 1425 018a 0146     		mov	r1, r0
 1426 018c 2846     		mov	r0, r5
 1427 018e FFF7FEFF 		bl	__aeabi_fadd
 1428              	.LVL209:
 1429 0192 3146     		mov	r1, r6
 1430 0194 0546     		mov	r5, r0
 1431 0196 3846     		mov	r0, r7
 1432 0198 FFF7FEFF 		bl	__aeabi_fmul
 1433              	.LVL210:
 1434 019c 0146     		mov	r1, r0
 1435 019e 2846     		mov	r0, r5
 1436 01a0 FFF7FEFF 		bl	__aeabi_fadd
 1437              	.LVL211:
 1438 01a4 A061     		str	r0, [r4, #24]	@ float
 1439              		.loc 1 147 0
 1440 01a6 0F98     		ldr	r0, [sp, #60]	@ float
 1441 01a8 1399     		ldr	r1, [sp, #76]	@ float
 1442 01aa DDF84090 		ldr	r9, [sp, #64]	@ float
 1443 01ae DDF85880 		ldr	r8, [sp, #88]	@ float
 1444 01b2 119F     		ldr	r7, [sp, #68]	@ float
 1445 01b4 199E     		ldr	r6, [sp, #100]	@ float
 1446 01b6 FFF7FEFF 		bl	__aeabi_fmul
 1447              	.LVL212:
 1448 01ba 4146     		mov	r1, r8
 1449 01bc 0546     		mov	r5, r0
 1450 01be 4846     		mov	r0, r9
 1451 01c0 FFF7FEFF 		bl	__aeabi_fmul
 1452              	.LVL213:
 1453 01c4 0146     		mov	r1, r0
 1454 01c6 2846     		mov	r0, r5
 1455 01c8 FFF7FEFF 		bl	__aeabi_fadd
 1456              	.LVL214:
 1457 01cc 3146     		mov	r1, r6
 1458 01ce 0546     		mov	r5, r0
 1459 01d0 3846     		mov	r0, r7
 1460 01d2 FFF7FEFF 		bl	__aeabi_fmul
 1461              	.LVL215:
 1462 01d6 0146     		mov	r1, r0
 1463 01d8 2846     		mov	r0, r5
 1464 01da FFF7FEFF 		bl	__aeabi_fadd
 1465              	.LVL216:
 1466 01de E061     		str	r0, [r4, #28]	@ float
 1467              		.loc 1 148 0
 1468 01e0 0F98     		ldr	r0, [sp, #60]	@ float
 1469 01e2 1499     		ldr	r1, [sp, #80]	@ float
 1470 01e4 DDF84090 		ldr	r9, [sp, #64]	@ float
 1471 01e8 DDF85C80 		ldr	r8, [sp, #92]	@ float
 1472 01ec 119F     		ldr	r7, [sp, #68]	@ float
 1473 01ee 1A9E     		ldr	r6, [sp, #104]	@ float
 1474 01f0 FFF7FEFF 		bl	__aeabi_fmul
 1475              	.LVL217:
 1476 01f4 4146     		mov	r1, r8
ARM GAS  C:\Users\Mohamad\AppData\Local\Temp\cc3j2Cx6.s 			page 27


 1477 01f6 0546     		mov	r5, r0
 1478 01f8 4846     		mov	r0, r9
 1479 01fa FFF7FEFF 		bl	__aeabi_fmul
 1480              	.LVL218:
 1481 01fe 0146     		mov	r1, r0
 1482 0200 2846     		mov	r0, r5
 1483 0202 FFF7FEFF 		bl	__aeabi_fadd
 1484              	.LVL219:
 1485 0206 3146     		mov	r1, r6
 1486 0208 0546     		mov	r5, r0
 1487 020a 3846     		mov	r0, r7
 1488 020c FFF7FEFF 		bl	__aeabi_fmul
 1489              	.LVL220:
 1490 0210 0146     		mov	r1, r0
 1491 0212 2846     		mov	r0, r5
 1492 0214 FFF7FEFF 		bl	__aeabi_fadd
 1493              	.LVL221:
 1494 0218 2062     		str	r0, [r4, #32]	@ float
 1495              		.loc 1 152 0
 1496 021a 2046     		mov	r0, r4
 1497 021c BDE8F843 		pop	{r3, r4, r5, r6, r7, r8, r9, lr}
 1498 0220 04B0     		add	sp, sp, #16
 1499 0222 7047     		bx	lr
 1500              		.cfi_endproc
 1501              	.LFE126:
 1502              		.size	mult_Matrix3f, .-mult_Matrix3f
 1503 0224 AFF30080 		.section	.text.transposed,"ax",%progbits
 1503      AFF30080 
 1503      AFF30080 
 1504              		.align	2
 1505              		.p2align 4,,15
 1506              		.global	transposed
 1507              		.thumb
 1508              		.thumb_func
 1509              		.type	transposed, %function
 1510              	transposed:
 1511              	.LFB127:
 1512              		.loc 1 156 0
 1513              		.cfi_startproc
 1514              		@ args = 0, pretend = 0, frame = 0
 1515              		@ frame_needed = 0, uses_anonymous_args = 0
 1516              		@ link register save eliminated.
 1517              	.LVL222:
 1518 0000 30B4     		push	{r4, r5}
 1519              	.LCFI19:
 1520              		.cfi_def_cfa_offset 8
 1521              		.cfi_offset 4, -8
 1522              		.cfi_offset 5, -4
 1523              		.loc 1 158 0
 1524 0002 40F20004 		movw	r4, #:lower16:.LANCHOR0
 1525 0006 C0F20004 		movt	r4, #:upper16:.LANCHOR0
 1526 000a 40F20001 		movw	r1, #:lower16:.LANCHOR1
 1527 000e 2268     		ldr	r2, [r4, #0]	@ float
 1528 0010 C0F20001 		movt	r1, #:upper16:.LANCHOR1
 1529 0014 0260     		str	r2, [r0, #0]	@ float
 1530 0016 0D68     		ldr	r5, [r1, #0]	@ float
 1531 0018 40F20002 		movw	r2, #:lower16:.LANCHOR2
ARM GAS  C:\Users\Mohamad\AppData\Local\Temp\cc3j2Cx6.s 			page 28


 1532 001c C0F20002 		movt	r2, #:upper16:.LANCHOR2
 1533 0020 4560     		str	r5, [r0, #4]	@ float
 1534 0022 1568     		ldr	r5, [r2, #0]	@ float
 1535 0024 8560     		str	r5, [r0, #8]	@ float
 1536              		.loc 1 159 0
 1537 0026 6568     		ldr	r5, [r4, #4]	@ float
 1538 0028 C560     		str	r5, [r0, #12]	@ float
 1539 002a 4D68     		ldr	r5, [r1, #4]	@ float
 1540 002c 0561     		str	r5, [r0, #16]	@ float
 1541 002e 5568     		ldr	r5, [r2, #4]	@ float
 1542 0030 4561     		str	r5, [r0, #20]	@ float
 1543              		.loc 1 160 0
 1544 0032 A468     		ldr	r4, [r4, #8]	@ float
 1545 0034 8461     		str	r4, [r0, #24]	@ float
 1546 0036 8968     		ldr	r1, [r1, #8]	@ float
 1547 0038 C161     		str	r1, [r0, #28]	@ float
 1548 003a 9268     		ldr	r2, [r2, #8]	@ float
 1549 003c 0262     		str	r2, [r0, #32]	@ float
 1550              		.loc 1 162 0
 1551 003e 30BC     		pop	{r4, r5}
 1552 0040 7047     		bx	lr
 1553              		.cfi_endproc
 1554              	.LFE127:
 1555              		.size	transposed, .-transposed
 1556 0042 00BFAFF3 		.section	.text.zero,"ax",%progbits
 1556      0080AFF3 
 1556      0080AFF3 
 1556      0080
 1557              		.align	2
 1558              		.p2align 4,,15
 1559              		.global	zero
 1560              		.thumb
 1561              		.thumb_func
 1562              		.type	zero, %function
 1563              	zero:
 1564              	.LFB128:
 1565              		.loc 1 165 0
 1566              		.cfi_startproc
 1567              		@ args = 0, pretend = 0, frame = 0
 1568              		@ frame_needed = 0, uses_anonymous_args = 0
 1569              		@ link register save eliminated.
 1570              	.LVL223:
 1571              		.loc 1 166 0
 1572 0000 0023     		movs	r3, #0
 1573 0002 0360     		str	r3, [r0, #0]	@ float
 1574 0004 4360     		str	r3, [r0, #4]	@ float
 1575 0006 8360     		str	r3, [r0, #8]	@ float
 1576              		.loc 1 167 0
 1577 0008 C360     		str	r3, [r0, #12]	@ float
 1578 000a 0361     		str	r3, [r0, #16]	@ float
 1579 000c 4361     		str	r3, [r0, #20]	@ float
 1580              		.loc 1 168 0
 1581 000e 8361     		str	r3, [r0, #24]	@ float
 1582 0010 C361     		str	r3, [r0, #28]	@ float
 1583 0012 0362     		str	r3, [r0, #32]	@ float
 1584 0014 7047     		bx	lr
 1585              		.cfi_endproc
ARM GAS  C:\Users\Mohamad\AppData\Local\Temp\cc3j2Cx6.s 			page 29


 1586              	.LFE128:
 1587              		.size	zero, .-zero
 1588 0016 00BFAFF3 		.section	.text.matrix_colX,"ax",%progbits
 1588      0080AFF3 
 1588      0080
 1589              		.align	2
 1590              		.p2align 4,,15
 1591              		.global	matrix_colX
 1592              		.thumb
 1593              		.thumb_func
 1594              		.type	matrix_colX, %function
 1595              	matrix_colX:
 1596              	.LFB129:
 1597              		.loc 1 173 0
 1598              		.cfi_startproc
 1599              		@ args = 40, pretend = 16, frame = 0
 1600              		@ frame_needed = 0, uses_anonymous_args = 0
 1601              		@ link register save eliminated.
 1602              	.LVL224:
 1603 0000 84B0     		sub	sp, sp, #16
 1604              	.LCFI20:
 1605              		.cfi_def_cfa_offset 16
 1606 0002 10B4     		push	{r4}
 1607              	.LCFI21:
 1608              		.cfi_def_cfa_offset 20
 1609              		.cfi_offset 4, -20
 1610              		.loc 1 173 0
 1611 0004 02AC     		add	r4, sp, #8
 1612 0006 84E80E00 		stmia	r4, {r1, r2, r3}
 1613              		.loc 1 174 0
 1614 000a 029A     		ldr	r2, [sp, #8]	@ float
 1615 000c 0260     		str	r2, [r0, #0]	@ float
 1616 000e 0599     		ldr	r1, [sp, #20]	@ float
 1617 0010 4160     		str	r1, [r0, #4]	@ float
 1618 0012 089A     		ldr	r2, [sp, #32]	@ float
 1619 0014 8260     		str	r2, [r0, #8]	@ float
 1620              		.loc 1 176 0
 1621 0016 10BC     		pop	{r4}
 1622 0018 04B0     		add	sp, sp, #16
 1623 001a 7047     		bx	lr
 1624              		.cfi_endproc
 1625              	.LFE129:
 1626              		.size	matrix_colX, .-matrix_colX
 1627 001c AFF30080 		.section	.text.matrix_colY,"ax",%progbits
 1628              		.align	2
 1629              		.p2align 4,,15
 1630              		.global	matrix_colY
 1631              		.thumb
 1632              		.thumb_func
 1633              		.type	matrix_colY, %function
 1634              	matrix_colY:
 1635              	.LFB130:
 1636              		.loc 1 180 0
 1637              		.cfi_startproc
 1638              		@ args = 40, pretend = 16, frame = 0
 1639              		@ frame_needed = 0, uses_anonymous_args = 0
 1640              		@ link register save eliminated.
ARM GAS  C:\Users\Mohamad\AppData\Local\Temp\cc3j2Cx6.s 			page 30


 1641              	.LVL225:
 1642 0000 84B0     		sub	sp, sp, #16
 1643              	.LCFI22:
 1644              		.cfi_def_cfa_offset 16
 1645 0002 10B4     		push	{r4}
 1646              	.LCFI23:
 1647              		.cfi_def_cfa_offset 20
 1648              		.cfi_offset 4, -20
 1649              		.loc 1 180 0
 1650 0004 02AC     		add	r4, sp, #8
 1651 0006 84E80E00 		stmia	r4, {r1, r2, r3}
 1652              		.loc 1 181 0
 1653 000a 039A     		ldr	r2, [sp, #12]	@ float
 1654 000c 0260     		str	r2, [r0, #0]	@ float
 1655 000e 0699     		ldr	r1, [sp, #24]	@ float
 1656 0010 4160     		str	r1, [r0, #4]	@ float
 1657 0012 099A     		ldr	r2, [sp, #36]	@ float
 1658 0014 8260     		str	r2, [r0, #8]	@ float
 1659              		.loc 1 183 0
 1660 0016 10BC     		pop	{r4}
 1661 0018 04B0     		add	sp, sp, #16
 1662 001a 7047     		bx	lr
 1663              		.cfi_endproc
 1664              	.LFE130:
 1665              		.size	matrix_colY, .-matrix_colY
 1666 001c AFF30080 		.section	.text.matrix_colZ,"ax",%progbits
 1667              		.align	2
 1668              		.p2align 4,,15
 1669              		.global	matrix_colZ
 1670              		.thumb
 1671              		.thumb_func
 1672              		.type	matrix_colZ, %function
 1673              	matrix_colZ:
 1674              	.LFB131:
 1675              		.loc 1 187 0
 1676              		.cfi_startproc
 1677              		@ args = 40, pretend = 16, frame = 0
 1678              		@ frame_needed = 0, uses_anonymous_args = 0
 1679              		@ link register save eliminated.
 1680              	.LVL226:
 1681 0000 84B0     		sub	sp, sp, #16
 1682              	.LCFI24:
 1683              		.cfi_def_cfa_offset 16
 1684 0002 10B4     		push	{r4}
 1685              	.LCFI25:
 1686              		.cfi_def_cfa_offset 20
 1687              		.cfi_offset 4, -20
 1688              		.loc 1 187 0
 1689 0004 02AC     		add	r4, sp, #8
 1690 0006 84E80E00 		stmia	r4, {r1, r2, r3}
 1691              		.loc 1 188 0
 1692 000a 039A     		ldr	r2, [sp, #12]	@ float
 1693 000c 0260     		str	r2, [r0, #0]	@ float
 1694 000e 0699     		ldr	r1, [sp, #24]	@ float
 1695 0010 4160     		str	r1, [r0, #4]	@ float
 1696 0012 099A     		ldr	r2, [sp, #36]	@ float
 1697 0014 8260     		str	r2, [r0, #8]	@ float
ARM GAS  C:\Users\Mohamad\AppData\Local\Temp\cc3j2Cx6.s 			page 31


 1698              		.loc 1 190 0
 1699 0016 10BC     		pop	{r4}
 1700 0018 04B0     		add	sp, sp, #16
 1701 001a 7047     		bx	lr
 1702              		.cfi_endproc
 1703              	.LFE131:
 1704              		.size	matrix_colZ, .-matrix_colZ
 1705 001c AFF30080 		.section	.text.matrix_isnan,"ax",%progbits
 1706              		.align	2
 1707              		.p2align 4,,15
 1708              		.global	matrix_isnan
 1709              		.thumb
 1710              		.thumb_func
 1711              		.type	matrix_isnan, %function
 1712              	matrix_isnan:
 1713              	.LFB132:
 1714              		.loc 1 192 0
 1715              		.cfi_startproc
 1716              		@ args = 36, pretend = 16, frame = 0
 1717              		@ frame_needed = 0, uses_anonymous_args = 0
 1718 0000 84B0     		sub	sp, sp, #16
 1719              	.LCFI26:
 1720              		.cfi_def_cfa_offset 16
 1721 0002 10B5     		push	{r4, lr}
 1722              	.LCFI27:
 1723              		.cfi_def_cfa_offset 24
 1724              		.cfi_offset 4, -24
 1725              		.cfi_offset 14, -20
 1726              		.loc 1 192 0
 1727 0004 02AC     		add	r4, sp, #8
 1728 0006 84E80F00 		stmia	r4, {r0, r1, r2, r3}
 1729              		.loc 1 193 0
 1730 000a 94E80700 		ldmia	r4, {r0, r1, r2}
 1731 000e FFF7FEFF 		bl	Vector3f_isnan
 1732              	.LVL227:
 1733 0012 20B1     		cbz	r0, .L32
 1734              	.L30:
 1735              		.loc 1 194 0 discriminator 4
 1736 0014 0120     		movs	r0, #1
 1737 0016 BDE81040 		pop	{r4, lr}
 1738 001a 04B0     		add	sp, sp, #16
 1739 001c 7047     		bx	lr
 1740              	.L32:
 1741              		.loc 1 193 0 discriminator 2
 1742 001e 05AB     		add	r3, sp, #20
 1743 0020 93E80700 		ldmia	r3, {r0, r1, r2}
 1744 0024 FFF7FEFF 		bl	Vector3f_isnan
 1745              	.LVL228:
 1746 0028 0028     		cmp	r0, #0
 1747 002a F3D1     		bne	.L30
 1748              		.loc 1 193 0 is_stmt 0 discriminator 1
 1749 002c 08A8     		add	r0, sp, #32
 1750 002e 07C8     		ldmia	r0, {r0, r1, r2}
 1751              		.loc 1 194 0 is_stmt 1 discriminator 1
 1752 0030 BDE81040 		pop	{r4, lr}
 1753 0034 04B0     		add	sp, sp, #16
 1754              		.loc 1 193 0 discriminator 1
ARM GAS  C:\Users\Mohamad\AppData\Local\Temp\cc3j2Cx6.s 			page 32


 1755 0036 FFF7FEBF 		b	Vector3f_isnan
 1756              	.LVL229:
 1757              		.cfi_endproc
 1758              	.LFE132:
 1759              		.size	matrix_isnan, .-matrix_isnan
 1760 003a 00BFAFF3 		.section	.text.matrix_identity,"ax",%progbits
 1760      0080
 1761              		.align	2
 1762              		.p2align 4,,15
 1763              		.global	matrix_identity
 1764              		.thumb
 1765              		.thumb_func
 1766              		.type	matrix_identity, %function
 1767              	matrix_identity:
 1768              	.LFB133:
 1769              		.loc 1 197 0
 1770              		.cfi_startproc
 1771              		@ args = 0, pretend = 0, frame = 0
 1772              		@ frame_needed = 0, uses_anonymous_args = 0
 1773              		@ link register save eliminated.
 1774              	.LVL230:
 1775              		.loc 1 199 0
 1776 0000 0023     		movs	r3, #0
 1777              		.loc 1 198 0
 1778 0002 4FF07E52 		mov	r2, #1065353216
 1779 0006 0262     		str	r2, [r0, #32]	@ float
 1780 0008 0261     		str	r2, [r0, #16]	@ float
 1781 000a 0260     		str	r2, [r0, #0]	@ float
 1782              		.loc 1 199 0
 1783 000c 8360     		str	r3, [r0, #8]	@ float
 1784 000e 4360     		str	r3, [r0, #4]	@ float
 1785              		.loc 1 200 0
 1786 0010 4361     		str	r3, [r0, #20]	@ float
 1787 0012 C360     		str	r3, [r0, #12]	@ float
 1788              		.loc 1 201 0
 1789 0014 C361     		str	r3, [r0, #28]	@ float
 1790 0016 8361     		str	r3, [r0, #24]	@ float
 1791 0018 7047     		bx	lr
 1792              		.cfi_endproc
 1793              	.LFE133:
 1794              		.size	matrix_identity, .-matrix_identity
 1795              		.global	c
 1796              		.global	b
 1797              		.global	a
 1798 001a 00BFAFF3 		.section	.bss.a,"aw",%nobits
 1798      0080
 1799              		.align	2
 1800              		.set	.LANCHOR0,. + 0
 1801              		.type	a, %object
 1802              		.size	a, 12
 1803              	a:
 1804 0000 00000000 		.space	12
 1804      00000000 
 1804      00000000 
 1805              		.section	.bss.b,"aw",%nobits
 1806              		.align	2
 1807              		.set	.LANCHOR1,. + 0
ARM GAS  C:\Users\Mohamad\AppData\Local\Temp\cc3j2Cx6.s 			page 33


 1808              		.type	b, %object
 1809              		.size	b, 12
 1810              	b:
 1811 0000 00000000 		.space	12
 1811      00000000 
 1811      00000000 
 1812              		.section	.bss.c,"aw",%nobits
 1813              		.align	2
 1814              		.set	.LANCHOR2,. + 0
 1815              		.type	c, %object
 1816              		.size	c, 12
 1817              	c:
 1818 0000 00000000 		.space	12
 1818      00000000 
 1818      00000000 
 1819              		.text
 1820              	.Letext0:
 1821              		.file 2 "c:\\chibistudio\\tools\\gnu tools arm embedded\\4.7 2014q2\\bin\\../lib/gcc/arm-none-eabi
 1822              		.file 3 "../../chibios/os/ports/GCC/ARMCMx/chtypes.h"
 1823              		.file 4 "DP_Math.h"
 1824              		.file 5 "DP_Math_Vector2f.h"
 1825              		.file 6 "DCMmath.h"
 1826              		.file 7 "c:\\chibistudio\\tools\\gnu tools arm embedded\\4.7 2014q2\\bin\\../lib/gcc/arm-none-eabi
 1827              		.file 8 "../../chibios/os/ports/common/ARMCMx/CMSIS/include/core_cm4.h"