ARM GAS  C:\Users\Mohamad\AppData\Local\Temp\ccRh62w4.s 			page 1


   1              		.syntax unified
   2              		.cpu cortex-m4
   3              		.fpu softvfp
   4              		.eabi_attribute 20, 1
   5              		.eabi_attribute 21, 1
   6              		.eabi_attribute 23, 3
   7              		.eabi_attribute 24, 1
   8              		.eabi_attribute 25, 1
   9              		.eabi_attribute 26, 1
  10              		.eabi_attribute 30, 2
  11              		.eabi_attribute 34, 1
  12              		.eabi_attribute 18, 4
  13              		.thumb
  14              		.file	"DP_Math.c"
  15              		.text
  16              	.Ltext0:
  17              		.cfi_sections	.debug_frame
  18              		.global	__aeabi_fcmpge
  19              		.global	__aeabi_fcmple
  20              		.section	.text.safe_asin,"ax",%progbits
  21              		.align	2
  22              		.p2align 4,,15
  23              		.global	safe_asin
  24              		.thumb
  25              		.thumb_func
  26              		.type	safe_asin, %function
  27              	safe_asin:
  28              	.LFB119:
  29              		.file 1 "DP_Math.c"
  30              		.loc 1 17 0
  31              		.cfi_startproc
  32              		@ args = 0, pretend = 0, frame = 0
  33              		@ frame_needed = 0, uses_anonymous_args = 0
  34              	.LVL0:
  35 0000 10B5     		push	{r4, lr}
  36              	.LCFI0:
  37              		.cfi_def_cfa_offset 8
  38              		.cfi_offset 4, -8
  39              		.cfi_offset 14, -4
  40              		.loc 1 17 0
  41 0002 0446     		mov	r4, r0
  42              		.loc 1 18 0
  43 0004 FFF7FEFF 		bl	__fpclassifyf
  44              	.LVL1:
  45 0008 B0B1     		cbz	r0, .L3
  46              		.loc 1 22 0
  47 000a 2046     		mov	r0, r4
  48 000c 4FF07E51 		mov	r1, #1065353216
  49 0010 FFF7FEFF 		bl	__aeabi_fcmpge
  50              	.LVL2:
  51 0014 20B1     		cbz	r0, .L7
  52              		.loc 1 23 0
  53 0016 40F6DB70 		movw	r0, #4059
  54 001a C3F6C970 		movt	r0, 16329
  55 001e 10BD     		pop	{r4, pc}
  56              	.L7:
  57              		.loc 1 26 0
ARM GAS  C:\Users\Mohamad\AppData\Local\Temp\ccRh62w4.s 			page 2


  58 0020 0021     		movs	r1, #0
  59 0022 2046     		mov	r0, r4
  60 0024 CBF68071 		movt	r1, 49024
  61 0028 FFF7FEFF 		bl	__aeabi_fcmple
  62              	.LVL3:
  63 002c 30B9     		cbnz	r0, .L5
  64              		.loc 1 30 0
  65 002e 2046     		mov	r0, r4
  66              		.loc 1 31 0
  67 0030 BDE81040 		pop	{r4, lr}
  68              		.loc 1 30 0
  69 0034 FFF7FEBF 		b	asinf
  70              	.LVL4:
  71              	.L3:
  72              		.loc 1 19 0
  73 0038 0020     		movs	r0, #0
  74 003a 10BD     		pop	{r4, pc}
  75              	.L5:
  76              		.loc 1 27 0
  77 003c 40F6DB70 		movw	r0, #4059
  78 0040 CBF6C970 		movt	r0, 49097
  79              		.loc 1 31 0
  80 0044 10BD     		pop	{r4, pc}
  81              		.cfi_endproc
  82              	.LFE119:
  83              		.size	safe_asin, .-safe_asin
  84 0046 00BFAFF3 		.section	.text.safe_sqrt,"ax",%progbits
  84      0080AFF3 
  84      0080
  85              		.align	2
  86              		.p2align 4,,15
  87              		.global	safe_sqrt
  88              		.thumb
  89              		.thumb_func
  90              		.type	safe_sqrt, %function
  91              	safe_sqrt:
  92              	.LFB120:
  93              		.loc 1 39 0
  94              		.cfi_startproc
  95              		@ args = 0, pretend = 0, frame = 0
  96              		@ frame_needed = 0, uses_anonymous_args = 0
  97              	.LVL5:
  98 0000 10B5     		push	{r4, lr}
  99              	.LCFI1:
 100              		.cfi_def_cfa_offset 8
 101              		.cfi_offset 4, -8
 102              		.cfi_offset 14, -4
 103              		.loc 1 40 0
 104 0002 FFF7FEFF 		bl	sqrtf
 105              	.LVL6:
 106 0006 0446     		mov	r4, r0
 107              	.LVL7:
 108              		.loc 1 41 0
 109 0008 FFF7FEFF 		bl	__fpclassifyf
 110              	.LVL8:
 111 000c 00B9     		cbnz	r0, .L9
 112              		.loc 1 42 0
ARM GAS  C:\Users\Mohamad\AppData\Local\Temp\ccRh62w4.s 			page 3


 113 000e 0024     		movs	r4, #0
 114              	.LVL9:
 115              	.L9:
 116              		.loc 1 45 0
 117 0010 2046     		mov	r0, r4
 118 0012 10BD     		pop	{r4, pc}
 119              		.cfi_endproc
 120              	.LFE120:
 121              		.size	safe_sqrt, .-safe_sqrt
 122              		.global	__aeabi_fadd
 123 0014 AFF30080 		.section	.text.Vector3f_Sum,"ax",%progbits
 123      AFF30080 
 123      AFF30080 
 124              		.align	2
 125              		.p2align 4,,15
 126              		.global	Vector3f_Sum
 127              		.thumb
 128              		.thumb_func
 129              		.type	Vector3f_Sum, %function
 130              	Vector3f_Sum:
 131              	.LFB121:
 132              		.loc 1 50 0
 133              		.cfi_startproc
 134              		@ args = 12, pretend = 0, frame = 16
 135              		@ frame_needed = 0, uses_anonymous_args = 0
 136              	.LVL10:
 137 0000 10B5     		push	{r4, lr}
 138              	.LCFI2:
 139              		.cfi_def_cfa_offset 8
 140              		.cfi_offset 4, -8
 141              		.cfi_offset 14, -4
 142 0002 84B0     		sub	sp, sp, #16
 143              	.LCFI3:
 144              		.cfi_def_cfa_offset 24
 145              		.loc 1 50 0
 146 0004 04AC     		add	r4, sp, #16
 147 0006 04E90E00 		stmdb	r4, {r1, r2, r3}
 148              		.loc 1 52 0
 149 000a 019B     		ldr	r3, [sp, #4]	@ float
 150 000c 0699     		ldr	r1, [sp, #24]	@ float
 151              		.loc 1 50 0
 152 000e 0446     		mov	r4, r0
 153              		.loc 1 52 0
 154 0010 1846     		mov	r0, r3
 155              	.LVL11:
 156 0012 FFF7FEFF 		bl	__aeabi_fadd
 157              	.LVL12:
 158 0016 2060     		str	r0, [r4, #0]	@ float
 159              		.loc 1 53 0
 160 0018 0298     		ldr	r0, [sp, #8]	@ float
 161 001a 0799     		ldr	r1, [sp, #28]	@ float
 162 001c FFF7FEFF 		bl	__aeabi_fadd
 163              	.LVL13:
 164 0020 6060     		str	r0, [r4, #4]	@ float
 165              		.loc 1 54 0
 166 0022 0398     		ldr	r0, [sp, #12]	@ float
 167 0024 0899     		ldr	r1, [sp, #32]	@ float
ARM GAS  C:\Users\Mohamad\AppData\Local\Temp\ccRh62w4.s 			page 4


 168 0026 FFF7FEFF 		bl	__aeabi_fadd
 169              	.LVL14:
 170 002a A060     		str	r0, [r4, #8]	@ float
 171              		.loc 1 56 0
 172 002c 2046     		mov	r0, r4
 173 002e 04B0     		add	sp, sp, #16
 174 0030 10BD     		pop	{r4, pc}
 175              		.cfi_endproc
 176              	.LFE121:
 177              		.size	Vector3f_Sum, .-Vector3f_Sum
 178              		.global	__aeabi_fsub
 179 0032 00BFAFF3 		.section	.text.Vector3f_Sub,"ax",%progbits
 179      0080AFF3 
 179      0080AFF3 
 179      0080
 180              		.align	2
 181              		.p2align 4,,15
 182              		.global	Vector3f_Sub
 183              		.thumb
 184              		.thumb_func
 185              		.type	Vector3f_Sub, %function
 186              	Vector3f_Sub:
 187              	.LFB122:
 188              		.loc 1 59 0
 189              		.cfi_startproc
 190              		@ args = 12, pretend = 0, frame = 16
 191              		@ frame_needed = 0, uses_anonymous_args = 0
 192              	.LVL15:
 193 0000 10B5     		push	{r4, lr}
 194              	.LCFI4:
 195              		.cfi_def_cfa_offset 8
 196              		.cfi_offset 4, -8
 197              		.cfi_offset 14, -4
 198 0002 84B0     		sub	sp, sp, #16
 199              	.LCFI5:
 200              		.cfi_def_cfa_offset 24
 201              		.loc 1 59 0
 202 0004 04AC     		add	r4, sp, #16
 203 0006 04E90E00 		stmdb	r4, {r1, r2, r3}
 204              		.loc 1 61 0
 205 000a 019B     		ldr	r3, [sp, #4]	@ float
 206 000c 0699     		ldr	r1, [sp, #24]	@ float
 207              		.loc 1 59 0
 208 000e 0446     		mov	r4, r0
 209              		.loc 1 61 0
 210 0010 1846     		mov	r0, r3
 211              	.LVL16:
 212 0012 FFF7FEFF 		bl	__aeabi_fsub
 213              	.LVL17:
 214 0016 2060     		str	r0, [r4, #0]	@ float
 215              		.loc 1 62 0
 216 0018 0298     		ldr	r0, [sp, #8]	@ float
 217 001a 0799     		ldr	r1, [sp, #28]	@ float
 218 001c FFF7FEFF 		bl	__aeabi_fsub
 219              	.LVL18:
 220 0020 6060     		str	r0, [r4, #4]	@ float
 221              		.loc 1 63 0
ARM GAS  C:\Users\Mohamad\AppData\Local\Temp\ccRh62w4.s 			page 5


 222 0022 0398     		ldr	r0, [sp, #12]	@ float
 223 0024 0899     		ldr	r1, [sp, #32]	@ float
 224 0026 FFF7FEFF 		bl	__aeabi_fsub
 225              	.LVL19:
 226 002a A060     		str	r0, [r4, #8]	@ float
 227              		.loc 1 65 0
 228 002c 2046     		mov	r0, r4
 229 002e 04B0     		add	sp, sp, #16
 230 0030 10BD     		pop	{r4, pc}
 231              		.cfi_endproc
 232              	.LFE122:
 233              		.size	Vector3f_Sub, .-Vector3f_Sub
 234              		.global	__aeabi_fmul
 235 0032 00BFAFF3 		.section	.text.Vector3f_dot_prod,"ax",%progbits
 235      0080AFF3 
 235      0080AFF3 
 235      0080
 236              		.align	2
 237              		.p2align 4,,15
 238              		.global	Vector3f_dot_prod
 239              		.thumb
 240              		.thumb_func
 241              		.type	Vector3f_dot_prod, %function
 242              	Vector3f_dot_prod:
 243              	.LFB123:
 244              		.loc 1 69 0
 245              		.cfi_startproc
 246              		@ args = 16, pretend = 8, frame = 16
 247              		@ frame_needed = 0, uses_anonymous_args = 0
 248 0000 82B0     		sub	sp, sp, #8
 249              	.LCFI6:
 250              		.cfi_def_cfa_offset 8
 251 0002 2DE9F041 		push	{r4, r5, r6, r7, r8, lr}
 252              	.LCFI7:
 253              		.cfi_def_cfa_offset 32
 254              		.cfi_offset 4, -32
 255              		.cfi_offset 5, -28
 256              		.cfi_offset 6, -24
 257              		.cfi_offset 7, -20
 258              		.cfi_offset 8, -16
 259              		.cfi_offset 14, -12
 260 0006 84B0     		sub	sp, sp, #16
 261              	.LCFI8:
 262              		.cfi_def_cfa_offset 48
 263              		.loc 1 69 0
 264 0008 04AC     		add	r4, sp, #16
 265 000a 04E90700 		stmdb	r4, {r0, r1, r2}
 266 000e 0B93     		str	r3, [sp, #44]
 267              		.loc 1 70 0
 268 0010 0198     		ldr	r0, [sp, #4]	@ float
 269 0012 0B99     		ldr	r1, [sp, #44]	@ float
 270 0014 DDF80880 		ldr	r8, [sp, #8]	@ float
 271 0018 0C9F     		ldr	r7, [sp, #48]	@ float
 272 001a 039E     		ldr	r6, [sp, #12]	@ float
 273 001c 0D9D     		ldr	r5, [sp, #52]	@ float
 274              	.LVL20:
 275 001e FFF7FEFF 		bl	__aeabi_fmul
ARM GAS  C:\Users\Mohamad\AppData\Local\Temp\ccRh62w4.s 			page 6


 276              	.LVL21:
 277 0022 3946     		mov	r1, r7
 278 0024 0446     		mov	r4, r0
 279 0026 4046     		mov	r0, r8
 280 0028 FFF7FEFF 		bl	__aeabi_fmul
 281              	.LVL22:
 282 002c 0146     		mov	r1, r0
 283 002e 2046     		mov	r0, r4
 284 0030 FFF7FEFF 		bl	__aeabi_fadd
 285              	.LVL23:
 286 0034 2946     		mov	r1, r5
 287 0036 0446     		mov	r4, r0
 288 0038 3046     		mov	r0, r6
 289 003a FFF7FEFF 		bl	__aeabi_fmul
 290              	.LVL24:
 291 003e 0146     		mov	r1, r0
 292 0040 2046     		mov	r0, r4
 293 0042 FFF7FEFF 		bl	__aeabi_fadd
 294              	.LVL25:
 295              		.loc 1 73 0
 296 0046 04B0     		add	sp, sp, #16
 297 0048 BDE8F041 		pop	{r4, r5, r6, r7, r8, lr}
 298 004c 02B0     		add	sp, sp, #8
 299 004e 7047     		bx	lr
 300              		.cfi_endproc
 301              	.LFE123:
 302              		.size	Vector3f_dot_prod, .-Vector3f_dot_prod
 303              		.section	.text.Vector3f_cross_prod,"ax",%progbits
 304              		.align	2
 305              		.p2align 4,,15
 306              		.global	Vector3f_cross_prod
 307              		.thumb
 308              		.thumb_func
 309              		.type	Vector3f_cross_prod, %function
 310              	Vector3f_cross_prod:
 311              	.LFB124:
 312              		.loc 1 77 0
 313              		.cfi_startproc
 314              		@ args = 12, pretend = 0, frame = 16
 315              		@ frame_needed = 0, uses_anonymous_args = 0
 316              	.LVL26:
 317 0000 F0B5     		push	{r4, r5, r6, r7, lr}
 318              	.LCFI9:
 319              		.cfi_def_cfa_offset 20
 320              		.cfi_offset 4, -20
 321              		.cfi_offset 5, -16
 322              		.cfi_offset 6, -12
 323              		.cfi_offset 7, -8
 324              		.cfi_offset 14, -4
 325 0002 85B0     		sub	sp, sp, #20
 326              	.LCFI10:
 327              		.cfi_def_cfa_offset 40
 328              		.loc 1 77 0
 329 0004 04AC     		add	r4, sp, #16
 330 0006 04E90E00 		stmdb	r4, {r1, r2, r3}
 331              		.loc 1 78 0
 332 000a 029B     		ldr	r3, [sp, #8]	@ float
ARM GAS  C:\Users\Mohamad\AppData\Local\Temp\ccRh62w4.s 			page 7


 333 000c 0C99     		ldr	r1, [sp, #48]	@ float
 334 000e 039F     		ldr	r7, [sp, #12]	@ float
 335 0010 0B9E     		ldr	r6, [sp, #44]	@ float
 336              		.loc 1 77 0
 337 0012 0446     		mov	r4, r0
 338              		.loc 1 78 0
 339 0014 1846     		mov	r0, r3
 340              	.LVL27:
 341 0016 FFF7FEFF 		bl	__aeabi_fmul
 342              	.LVL28:
 343 001a 3146     		mov	r1, r6
 344 001c 0546     		mov	r5, r0
 345 001e 3846     		mov	r0, r7
 346 0020 FFF7FEFF 		bl	__aeabi_fmul
 347              	.LVL29:
 348 0024 0146     		mov	r1, r0
 349 0026 2846     		mov	r0, r5
 350 0028 FFF7FEFF 		bl	__aeabi_fsub
 351              	.LVL30:
 352 002c 2060     		str	r0, [r4, #0]	@ float
 353 002e 0398     		ldr	r0, [sp, #12]	@ float
 354 0030 0A99     		ldr	r1, [sp, #40]	@ float
 355 0032 019F     		ldr	r7, [sp, #4]	@ float
 356 0034 0C9E     		ldr	r6, [sp, #48]	@ float
 357 0036 FFF7FEFF 		bl	__aeabi_fmul
 358              	.LVL31:
 359 003a 3146     		mov	r1, r6
 360 003c 0546     		mov	r5, r0
 361 003e 3846     		mov	r0, r7
 362 0040 FFF7FEFF 		bl	__aeabi_fmul
 363              	.LVL32:
 364 0044 0146     		mov	r1, r0
 365 0046 2846     		mov	r0, r5
 366 0048 FFF7FEFF 		bl	__aeabi_fsub
 367              	.LVL33:
 368 004c 6060     		str	r0, [r4, #4]	@ float
 369 004e 0198     		ldr	r0, [sp, #4]	@ float
 370 0050 0B99     		ldr	r1, [sp, #44]	@ float
 371 0052 029F     		ldr	r7, [sp, #8]	@ float
 372 0054 0A9E     		ldr	r6, [sp, #40]	@ float
 373 0056 FFF7FEFF 		bl	__aeabi_fmul
 374              	.LVL34:
 375 005a 3146     		mov	r1, r6
 376 005c 0546     		mov	r5, r0
 377 005e 3846     		mov	r0, r7
 378 0060 FFF7FEFF 		bl	__aeabi_fmul
 379              	.LVL35:
 380 0064 0146     		mov	r1, r0
 381 0066 2846     		mov	r0, r5
 382 0068 FFF7FEFF 		bl	__aeabi_fsub
 383              	.LVL36:
 384 006c A060     		str	r0, [r4, #8]	@ float
 385              		.loc 1 80 0
 386 006e 2046     		mov	r0, r4
 387 0070 05B0     		add	sp, sp, #20
 388 0072 F0BD     		pop	{r4, r5, r6, r7, pc}
 389              		.cfi_endproc
ARM GAS  C:\Users\Mohamad\AppData\Local\Temp\ccRh62w4.s 			page 8


 390              	.LFE124:
 391              		.size	Vector3f_cross_prod, .-Vector3f_cross_prod
 392 0074 AFF30080 		.section	.text.Vector3f_Mult_to_float,"ax",%progbits
 392      AFF30080 
 392      AFF30080 
 393              		.align	2
 394              		.p2align 4,,15
 395              		.global	Vector3f_Mult_to_float
 396              		.thumb
 397              		.thumb_func
 398              		.type	Vector3f_Mult_to_float, %function
 399              	Vector3f_Mult_to_float:
 400              	.LFB125:
 401              		.loc 1 83 0
 402              		.cfi_startproc
 403              		@ args = 4, pretend = 0, frame = 16
 404              		@ frame_needed = 0, uses_anonymous_args = 0
 405              	.LVL37:
 406 0000 30B5     		push	{r4, r5, lr}
 407              	.LCFI11:
 408              		.cfi_def_cfa_offset 12
 409              		.cfi_offset 4, -12
 410              		.cfi_offset 5, -8
 411              		.cfi_offset 14, -4
 412 0002 85B0     		sub	sp, sp, #20
 413              	.LCFI12:
 414              		.cfi_def_cfa_offset 32
 415              		.loc 1 83 0
 416 0004 04AC     		add	r4, sp, #16
 417 0006 04E90E00 		stmdb	r4, {r1, r2, r3}
 418 000a 089D     		ldr	r5, [sp, #32]	@ float
 419              		.loc 1 85 0
 420 000c 019B     		ldr	r3, [sp, #4]	@ float
 421              		.loc 1 83 0
 422 000e 0446     		mov	r4, r0
 423              		.loc 1 85 0
 424 0010 2946     		mov	r1, r5
 425 0012 1846     		mov	r0, r3
 426              	.LVL38:
 427 0014 FFF7FEFF 		bl	__aeabi_fmul
 428              	.LVL39:
 429 0018 2060     		str	r0, [r4, #0]	@ float
 430              		.loc 1 86 0
 431 001a 0298     		ldr	r0, [sp, #8]	@ float
 432 001c 2946     		mov	r1, r5
 433 001e FFF7FEFF 		bl	__aeabi_fmul
 434              	.LVL40:
 435 0022 6060     		str	r0, [r4, #4]	@ float
 436              		.loc 1 87 0
 437 0024 0398     		ldr	r0, [sp, #12]	@ float
 438 0026 2946     		mov	r1, r5
 439 0028 FFF7FEFF 		bl	__aeabi_fmul
 440              	.LVL41:
 441 002c A060     		str	r0, [r4, #8]	@ float
 442              		.loc 1 89 0
 443 002e 2046     		mov	r0, r4
 444 0030 05B0     		add	sp, sp, #20
ARM GAS  C:\Users\Mohamad\AppData\Local\Temp\ccRh62w4.s 			page 9


 445 0032 30BD     		pop	{r4, r5, pc}
 446              		.cfi_endproc
 447              	.LFE125:
 448              		.size	Vector3f_Mult_to_float, .-Vector3f_Mult_to_float
 449 0034 AFF30080 		.section	.text.Vector3f_isnan,"ax",%progbits
 449      AFF30080 
 449      AFF30080 
 450              		.align	2
 451              		.p2align 4,,15
 452              		.global	Vector3f_isnan
 453              		.thumb
 454              		.thumb_func
 455              		.type	Vector3f_isnan, %function
 456              	Vector3f_isnan:
 457              	.LFB126:
 458              		.loc 1 91 0
 459              		.cfi_startproc
 460              		@ args = 0, pretend = 0, frame = 16
 461              		@ frame_needed = 0, uses_anonymous_args = 0
 462 0000 00B5     		push	{lr}
 463              	.LCFI13:
 464              		.cfi_def_cfa_offset 4
 465              		.cfi_offset 14, -4
 466 0002 85B0     		sub	sp, sp, #20
 467              	.LCFI14:
 468              		.cfi_def_cfa_offset 24
 469              		.loc 1 91 0
 470 0004 04AB     		add	r3, sp, #16
 471 0006 03E90700 		stmdb	r3, {r0, r1, r2}
 472              		.loc 1 92 0
 473 000a 0198     		ldr	r0, [sp, #4]	@ float
 474 000c FFF7FEFF 		bl	__fpclassifyf
 475              	.LVL42:
 476 0010 10B9     		cbnz	r0, .L16
 477              	.L18:
 478              		.loc 1 91 0
 479 0012 0120     		movs	r0, #1
 480              	.L17:
 481              		.loc 1 93 0 discriminator 4
 482 0014 05B0     		add	sp, sp, #20
 483 0016 00BD     		pop	{pc}
 484              	.L16:
 485              		.loc 1 92 0 discriminator 2
 486 0018 0298     		ldr	r0, [sp, #8]	@ float
 487 001a FFF7FEFF 		bl	__fpclassifyf
 488              	.LVL43:
 489 001e 0028     		cmp	r0, #0
 490 0020 F7D0     		beq	.L18
 491              		.loc 1 92 0 is_stmt 0 discriminator 1
 492 0022 0398     		ldr	r0, [sp, #12]	@ float
 493 0024 FFF7FEFF 		bl	__fpclassifyf
 494              	.LVL44:
 495 0028 D0F10100 		rsbs	r0, r0, #1
 496 002c 38BF     		it	cc
 497 002e 0020     		movcc	r0, #0
 498 0030 F0E7     		b	.L17
 499              		.cfi_endproc
ARM GAS  C:\Users\Mohamad\AppData\Local\Temp\ccRh62w4.s 			page 10


 500              	.LFE126:
 501              		.size	Vector3f_isnan, .-Vector3f_isnan
 502 0032 00BFAFF3 		.section	.text.Vector3f_isinf,"ax",%progbits
 502      0080AFF3 
 502      0080AFF3 
 502      0080
 503              		.align	2
 504              		.p2align 4,,15
 505              		.global	Vector3f_isinf
 506              		.thumb
 507              		.thumb_func
 508              		.type	Vector3f_isinf, %function
 509              	Vector3f_isinf:
 510              	.LFB127:
 511              		.loc 1 95 0 is_stmt 1
 512              		.cfi_startproc
 513              		@ args = 0, pretend = 0, frame = 16
 514              		@ frame_needed = 0, uses_anonymous_args = 0
 515 0000 00B5     		push	{lr}
 516              	.LCFI15:
 517              		.cfi_def_cfa_offset 4
 518              		.cfi_offset 14, -4
 519 0002 85B0     		sub	sp, sp, #20
 520              	.LCFI16:
 521              		.cfi_def_cfa_offset 24
 522              		.loc 1 95 0
 523 0004 04AB     		add	r3, sp, #16
 524 0006 03E90700 		stmdb	r3, {r0, r1, r2}
 525              		.loc 1 96 0
 526 000a 0198     		ldr	r0, [sp, #4]	@ float
 527 000c FFF7FEFF 		bl	__fpclassifyf
 528              	.LVL45:
 529 0010 0128     		cmp	r0, #1
 530 0012 0BD0     		beq	.L25
 531              		.loc 1 96 0 is_stmt 0 discriminator 2
 532 0014 0298     		ldr	r0, [sp, #8]	@ float
 533 0016 FFF7FEFF 		bl	__fpclassifyf
 534              	.LVL46:
 535 001a 0128     		cmp	r0, #1
 536 001c 06D0     		beq	.L25
 537              		.loc 1 96 0 discriminator 1
 538 001e 0398     		ldr	r0, [sp, #12]	@ float
 539 0020 FFF7FEFF 		bl	__fpclassifyf
 540              	.LVL47:
 541 0024 411E     		subs	r1, r0, #1
 542 0026 4842     		rsbs	r0, r1, #0
 543 0028 4841     		adcs	r0, r0, r1
 544 002a 00E0     		b	.L24
 545              	.L25:
 546              		.loc 1 95 0 is_stmt 1
 547 002c 0120     		movs	r0, #1
 548              	.L24:
 549              		.loc 1 97 0 discriminator 4
 550 002e 05B0     		add	sp, sp, #20
 551 0030 00BD     		pop	{pc}
 552              		.cfi_endproc
 553              	.LFE127:
ARM GAS  C:\Users\Mohamad\AppData\Local\Temp\ccRh62w4.s 			page 11


 554              		.size	Vector3f_isinf, .-Vector3f_isinf
 555 0032 00BFAFF3 		.section	.text.Vector3f_zero,"ax",%progbits
 555      0080AFF3 
 555      0080AFF3 
 555      0080
 556              		.align	2
 557              		.p2align 4,,15
 558              		.global	Vector3f_zero
 559              		.thumb
 560              		.thumb_func
 561              		.type	Vector3f_zero, %function
 562              	Vector3f_zero:
 563              	.LFB128:
 564              		.loc 1 100 0
 565              		.cfi_startproc
 566              		@ args = 0, pretend = 0, frame = 0
 567              		@ frame_needed = 0, uses_anonymous_args = 0
 568              		@ link register save eliminated.
 569              	.LVL48:
 570              		.loc 1 101 0
 571 0000 0023     		movs	r3, #0
 572 0002 8360     		str	r3, [r0, #8]	@ float
 573 0004 4360     		str	r3, [r0, #4]	@ float
 574 0006 0360     		str	r3, [r0, #0]	@ float
 575 0008 7047     		bx	lr
 576              		.cfi_endproc
 577              	.LFE128:
 578              		.size	Vector3f_zero, .-Vector3f_zero
 579              		.global	__aeabi_fcmpeq
 580 000a 00BFAFF3 		.section	.text.Vector3f_iszero,"ax",%progbits
 580      0080
 581              		.align	2
 582              		.p2align 4,,15
 583              		.global	Vector3f_iszero
 584              		.thumb
 585              		.thumb_func
 586              		.type	Vector3f_iszero, %function
 587              	Vector3f_iszero:
 588              	.LFB129:
 589              		.loc 1 105 0
 590              		.cfi_startproc
 591              		@ args = 0, pretend = 0, frame = 16
 592              		@ frame_needed = 0, uses_anonymous_args = 0
 593 0000 00B5     		push	{lr}
 594              	.LCFI17:
 595              		.cfi_def_cfa_offset 4
 596              		.cfi_offset 14, -4
 597 0002 85B0     		sub	sp, sp, #20
 598              	.LCFI18:
 599              		.cfi_def_cfa_offset 24
 600              		.loc 1 105 0
 601 0004 04AB     		add	r3, sp, #16
 602 0006 03E90700 		stmdb	r3, {r0, r1, r2}
 603              		.loc 1 106 0
 604 000a 0021     		movs	r1, #0
 605 000c 0198     		ldr	r0, [sp, #4]	@ float
 606 000e FFF7FEFF 		bl	__aeabi_fcmpeq
ARM GAS  C:\Users\Mohamad\AppData\Local\Temp\ccRh62w4.s 			page 12


 607              	.LVL49:
 608 0012 58B1     		cbz	r0, .L31
 609              		.loc 1 106 0 is_stmt 0 discriminator 1
 610 0014 0298     		ldr	r0, [sp, #8]	@ float
 611 0016 0021     		movs	r1, #0
 612 0018 FFF7FEFF 		bl	__aeabi_fcmpeq
 613              	.LVL50:
 614 001c 30B1     		cbz	r0, .L31
 615 001e 0021     		movs	r1, #0
 616 0020 0398     		ldr	r0, [sp, #12]	@ float
 617 0022 FFF7FEFF 		bl	__aeabi_fcmpeq
 618              	.LVL51:
 619 0026 0121     		movs	r1, #1
 620 0028 10B1     		cbz	r0, .L41
 621 002a C8B2     		uxtb	r0, r1
 622              	.L31:
 623              		.loc 1 107 0 is_stmt 1 discriminator 4
 624 002c 05B0     		add	sp, sp, #20
 625 002e 00BD     		pop	{pc}
 626              	.L41:
 627              		.loc 1 106 0 discriminator 1
 628 0030 0146     		mov	r1, r0
 629 0032 C8B2     		uxtb	r0, r1
 630 0034 FAE7     		b	.L31
 631              		.cfi_endproc
 632              	.LFE129:
 633              		.size	Vector3f_iszero, .-Vector3f_iszero
 634 0036 00BFAFF3 		.section	.text.pythagorous3,"ax",%progbits
 634      0080AFF3 
 634      0080
 635              		.align	2
 636              		.p2align 4,,15
 637              		.global	pythagorous3
 638              		.thumb
 639              		.thumb_func
 640              		.type	pythagorous3, %function
 641              	pythagorous3:
 642              	.LFB131:
 643              		.loc 1 116 0
 644              		.cfi_startproc
 645              		@ args = 0, pretend = 0, frame = 0
 646              		@ frame_needed = 0, uses_anonymous_args = 0
 647              	.LVL52:
 648 0000 70B5     		push	{r4, r5, r6, lr}
 649              	.LCFI19:
 650              		.cfi_def_cfa_offset 16
 651              		.cfi_offset 4, -16
 652              		.cfi_offset 5, -12
 653              		.cfi_offset 6, -8
 654              		.cfi_offset 14, -4
 655              		.loc 1 116 0
 656 0002 0C46     		mov	r4, r1
 657              		.loc 1 117 0
 658 0004 0146     		mov	r1, r0
 659              	.LVL53:
 660              		.loc 1 116 0
 661 0006 1546     		mov	r5, r2
ARM GAS  C:\Users\Mohamad\AppData\Local\Temp\ccRh62w4.s 			page 13


 662              		.loc 1 117 0
 663 0008 FFF7FEFF 		bl	__aeabi_fmul
 664              	.LVL54:
 665 000c 2146     		mov	r1, r4
 666 000e 0646     		mov	r6, r0
 667 0010 2046     		mov	r0, r4
 668 0012 FFF7FEFF 		bl	__aeabi_fmul
 669              	.LVL55:
 670 0016 0146     		mov	r1, r0
 671 0018 3046     		mov	r0, r6
 672 001a FFF7FEFF 		bl	__aeabi_fadd
 673              	.LVL56:
 674 001e 2946     		mov	r1, r5
 675 0020 0446     		mov	r4, r0
 676              	.LVL57:
 677 0022 2846     		mov	r0, r5
 678 0024 FFF7FEFF 		bl	__aeabi_fmul
 679              	.LVL58:
 680 0028 0146     		mov	r1, r0
 681 002a 2046     		mov	r0, r4
 682 002c FFF7FEFF 		bl	__aeabi_fadd
 683              	.LVL59:
 684              		.loc 1 118 0
 685 0030 BDE87040 		pop	{r4, r5, r6, lr}
 686              		.loc 1 117 0
 687 0034 FFF7FEBF 		b	sqrtf
 688              	.LVL60:
 689              		.cfi_endproc
 690              	.LFE131:
 691              		.size	pythagorous3, .-pythagorous3
 692 0038 AFF30080 		.section	.text.Vector3f_lenght,"ax",%progbits
 692      AFF30080 
 693              		.align	2
 694              		.p2align 4,,15
 695              		.global	Vector3f_lenght
 696              		.thumb
 697              		.thumb_func
 698              		.type	Vector3f_lenght, %function
 699              	Vector3f_lenght:
 700              	.LFB130:
 701              		.loc 1 111 0
 702              		.cfi_startproc
 703              		@ args = 0, pretend = 0, frame = 16
 704              		@ frame_needed = 0, uses_anonymous_args = 0
 705              		@ link register save eliminated.
 706 0000 84B0     		sub	sp, sp, #16
 707              	.LCFI20:
 708              		.cfi_def_cfa_offset 16
 709              		.loc 1 111 0
 710 0002 04AB     		add	r3, sp, #16
 711 0004 03E90700 		stmdb	r3, {r0, r1, r2}
 712              		.loc 1 112 0
 713 0008 0198     		ldr	r0, [sp, #4]	@ float
 714 000a 0299     		ldr	r1, [sp, #8]	@ float
 715 000c 039A     		ldr	r2, [sp, #12]	@ float
 716              		.loc 1 113 0
 717 000e 04B0     		add	sp, sp, #16
ARM GAS  C:\Users\Mohamad\AppData\Local\Temp\ccRh62w4.s 			page 14


 718              		.loc 1 112 0
 719 0010 FFF7FEBF 		b	pythagorous3
 720              	.LVL61:
 721              		.cfi_endproc
 722              	.LFE130:
 723              		.size	Vector3f_lenght, .-Vector3f_lenght
 724              		.global	__aeabi_fdiv
 725 0014 AFF30080 		.section	.text.Vector3f_normalize,"ax",%progbits
 725      AFF30080 
 725      AFF30080 
 726              		.align	2
 727              		.p2align 4,,15
 728              		.global	Vector3f_normalize
 729              		.thumb
 730              		.thumb_func
 731              		.type	Vector3f_normalize, %function
 732              	Vector3f_normalize:
 733              	.LFB132:
 734              		.loc 1 121 0
 735              		.cfi_startproc
 736              		@ args = 0, pretend = 0, frame = 16
 737              		@ frame_needed = 0, uses_anonymous_args = 0
 738              	.LVL62:
 739 0000 30B5     		push	{r4, r5, lr}
 740              	.LCFI21:
 741              		.cfi_def_cfa_offset 12
 742              		.cfi_offset 4, -12
 743              		.cfi_offset 5, -8
 744              		.cfi_offset 14, -4
 745 0002 0446     		mov	r4, r0
 746 0004 07C8     		ldmia	r0, {r0, r1, r2}
 747              	.LVL63:
 748 0006 85B0     		sub	sp, sp, #20
 749              	.LCFI22:
 750              		.cfi_def_cfa_offset 32
 751 0008 04AB     		add	r3, sp, #16
 752 000a 03E90700 		stmdb	r3, {r0, r1, r2}
 753              	.LBB4:
 754              	.LBB5:
 755              		.loc 1 112 0
 756 000e 0198     		ldr	r0, [sp, #4]	@ float
 757 0010 0299     		ldr	r1, [sp, #8]	@ float
 758 0012 039A     		ldr	r2, [sp, #12]	@ float
 759 0014 FFF7FEFF 		bl	pythagorous3
 760              	.LVL64:
 761 0018 0546     		mov	r5, r0
 762              	.LBE5:
 763              	.LBE4:
 764              		.loc 1 123 0
 765 001a 2946     		mov	r1, r5
 766 001c 2068     		ldr	r0, [r4, #0]	@ float
 767 001e FFF7FEFF 		bl	__aeabi_fdiv
 768              	.LVL65:
 769 0022 2060     		str	r0, [r4, #0]	@ float
 770 0024 6068     		ldr	r0, [r4, #4]	@ float
 771 0026 2946     		mov	r1, r5
 772 0028 FFF7FEFF 		bl	__aeabi_fdiv
ARM GAS  C:\Users\Mohamad\AppData\Local\Temp\ccRh62w4.s 			page 15


 773              	.LVL66:
 774 002c 6060     		str	r0, [r4, #4]	@ float
 775 002e A068     		ldr	r0, [r4, #8]	@ float
 776 0030 2946     		mov	r1, r5
 777 0032 FFF7FEFF 		bl	__aeabi_fdiv
 778              	.LVL67:
 779 0036 A060     		str	r0, [r4, #8]	@ float
 780              		.loc 1 124 0
 781 0038 05B0     		add	sp, sp, #20
 782 003a 30BD     		pop	{r4, r5, pc}
 783              		.cfi_endproc
 784              	.LFE132:
 785              		.size	Vector3f_normalize, .-Vector3f_normalize
 786 003c AFF30080 		.section	.text.Vector3f_div_to_float,"ax",%progbits
 787              		.align	2
 788              		.p2align 4,,15
 789              		.global	Vector3f_div_to_float
 790              		.thumb
 791              		.thumb_func
 792              		.type	Vector3f_div_to_float, %function
 793              	Vector3f_div_to_float:
 794              	.LFB133:
 795              		.loc 1 127 0
 796              		.cfi_startproc
 797              		@ args = 4, pretend = 0, frame = 16
 798              		@ frame_needed = 0, uses_anonymous_args = 0
 799              	.LVL68:
 800 0000 30B5     		push	{r4, r5, lr}
 801              	.LCFI23:
 802              		.cfi_def_cfa_offset 12
 803              		.cfi_offset 4, -12
 804              		.cfi_offset 5, -8
 805              		.cfi_offset 14, -4
 806 0002 85B0     		sub	sp, sp, #20
 807              	.LCFI24:
 808              		.cfi_def_cfa_offset 32
 809              		.loc 1 127 0
 810 0004 04AC     		add	r4, sp, #16
 811 0006 04E90E00 		stmdb	r4, {r1, r2, r3}
 812 000a 089D     		ldr	r5, [sp, #32]	@ float
 813              		.loc 1 129 0
 814 000c 019B     		ldr	r3, [sp, #4]	@ float
 815              		.loc 1 127 0
 816 000e 0446     		mov	r4, r0
 817              		.loc 1 129 0
 818 0010 2946     		mov	r1, r5
 819 0012 1846     		mov	r0, r3
 820              	.LVL69:
 821 0014 FFF7FEFF 		bl	__aeabi_fdiv
 822              	.LVL70:
 823 0018 2060     		str	r0, [r4, #0]	@ float
 824              		.loc 1 130 0
 825 001a 0298     		ldr	r0, [sp, #8]	@ float
 826 001c 2946     		mov	r1, r5
 827 001e FFF7FEFF 		bl	__aeabi_fdiv
 828              	.LVL71:
 829 0022 6060     		str	r0, [r4, #4]	@ float
ARM GAS  C:\Users\Mohamad\AppData\Local\Temp\ccRh62w4.s 			page 16


 830              		.loc 1 131 0
 831 0024 0398     		ldr	r0, [sp, #12]	@ float
 832 0026 2946     		mov	r1, r5
 833 0028 FFF7FEFF 		bl	__aeabi_fdiv
 834              	.LVL72:
 835 002c A060     		str	r0, [r4, #8]	@ float
 836              		.loc 1 133 0
 837 002e 2046     		mov	r0, r4
 838 0030 05B0     		add	sp, sp, #20
 839 0032 30BD     		pop	{r4, r5, pc}
 840              		.cfi_endproc
 841              	.LFE133:
 842              		.size	Vector3f_div_to_float, .-Vector3f_div_to_float
 843              		.global	__aeabi_fcmplt
 844              		.global	__aeabi_fcmpgt
 845 0034 AFF30080 		.section	.text.constrain_float,"ax",%progbits
 845      AFF30080 
 845      AFF30080 
 846              		.align	2
 847              		.p2align 4,,15
 848              		.global	constrain_float
 849              		.thumb
 850              		.thumb_func
 851              		.type	constrain_float, %function
 852              	constrain_float:
 853              	.LFB134:
 854              		.loc 1 140 0
 855              		.cfi_startproc
 856              		@ args = 0, pretend = 0, frame = 0
 857              		@ frame_needed = 0, uses_anonymous_args = 0
 858              	.LVL73:
 859 0000 70B5     		push	{r4, r5, r6, lr}
 860              	.LCFI25:
 861              		.cfi_def_cfa_offset 16
 862              		.cfi_offset 4, -16
 863              		.cfi_offset 5, -12
 864              		.cfi_offset 6, -8
 865              		.cfi_offset 14, -4
 866              		.loc 1 140 0
 867 0002 0546     		mov	r5, r0
 868 0004 0C46     		mov	r4, r1
 869 0006 1646     		mov	r6, r2
 870              		.loc 1 145 0
 871 0008 FFF7FEFF 		bl	__fpclassifyf
 872              	.LVL74:
 873 000c 70B1     		cbz	r0, .L53
 874              		.loc 1 148 0
 875 000e 2846     		mov	r0, r5
 876 0010 2146     		mov	r1, r4
 877 0012 FFF7FEFF 		bl	__aeabi_fcmplt
 878              	.LVL75:
 879 0016 08B1     		cbz	r0, .L54
 880              		.loc 1 149 0
 881 0018 2046     		mov	r0, r4
 882 001a 70BD     		pop	{r4, r5, r6, pc}
 883              	.L54:
 884              		.loc 1 148 0 discriminator 2
ARM GAS  C:\Users\Mohamad\AppData\Local\Temp\ccRh62w4.s 			page 17


 885 001c 2846     		mov	r0, r5
 886 001e 3146     		mov	r1, r6
 887 0020 FFF7FEFF 		bl	__aeabi_fcmpgt
 888              	.LVL76:
 889 0024 68B1     		cbz	r0, .L52
 890              		.loc 1 148 0 is_stmt 0
 891 0026 3446     		mov	r4, r6
 892              	.LVL77:
 893              		.loc 1 149 0 is_stmt 1
 894 0028 2046     		mov	r0, r4
 895 002a 70BD     		pop	{r4, r5, r6, pc}
 896              	.LVL78:
 897              	.L53:
 898              		.loc 1 146 0
 899 002c 3146     		mov	r1, r6
 900 002e 2046     		mov	r0, r4
 901 0030 FFF7FEFF 		bl	__aeabi_fadd
 902              	.LVL79:
 903 0034 4FF07C51 		mov	r1, #1056964608
 904 0038 FFF7FEFF 		bl	__aeabi_fmul
 905              	.LVL80:
 906 003c 0446     		mov	r4, r0
 907              	.LVL81:
 908              		.loc 1 149 0
 909 003e 2046     		mov	r0, r4
 910 0040 70BD     		pop	{r4, r5, r6, pc}
 911              	.LVL82:
 912              	.L52:
 913              		.loc 1 148 0
 914 0042 2C46     		mov	r4, r5
 915              	.LVL83:
 916              		.loc 1 149 0
 917 0044 2046     		mov	r0, r4
 918 0046 70BD     		pop	{r4, r5, r6, pc}
 919              		.cfi_endproc
 920              	.LFE134:
 921              		.size	constrain_float, .-constrain_float
 922 0048 AFF30080 		.text
 922      AFF30080 
 923              	.Letext0:
 924              		.file 2 "c:\\chibistudio\\tools\\gnu tools arm embedded\\4.7 2014q2\\bin\\../lib/gcc/arm-none-eabi
 925              		.file 3 "../../chibios/os/ports/GCC/ARMCMx/chtypes.h"
 926              		.file 4 "DP_Math.h"
 927              		.file 5 "c:\\chibistudio\\tools\\gnu tools arm embedded\\4.7 2014q2\\bin\\../lib/gcc/arm-none-eabi
 928              		.file 6 "../../chibios/os/ports/common/ARMCMx/CMSIS/include/core_cm4.h"