ARM GAS  C:\Users\Mohamad\AppData\Local\Temp\ccEruOYc.s 			page 1


   1              		.syntax unified
   2              		.cpu cortex-m4
   3              		.fpu softvfp
   4              		.eabi_attribute 20, 1
   5              		.eabi_attribute 21, 1
   6              		.eabi_attribute 23, 3
   7              		.eabi_attribute 24, 1
   8              		.eabi_attribute 25, 1
   9              		.eabi_attribute 26, 1
  10              		.eabi_attribute 30, 2
  11              		.eabi_attribute 34, 1
  12              		.eabi_attribute 18, 4
  13              		.thumb
  14              		.file	"ext.c"
  15              		.text
  16              	.Ltext0:
  17              		.cfi_sections	.debug_frame
  18              		.section	.text.extInit,"ax",%progbits
  19              		.align	2
  20              		.p2align 4,,15
  21              		.global	extInit
  22              		.thumb
  23              		.thumb_func
  24              		.type	extInit, %function
  25              	extInit:
  26              	.LFB118:
  27              		.file 1 "../../chibios/os/hal/src/ext.c"
  28              		.loc 1 68 0
  29              		.cfi_startproc
  30              		@ args = 0, pretend = 0, frame = 0
  31              		@ frame_needed = 0, uses_anonymous_args = 0
  32              		@ link register save eliminated.
  33              		.loc 1 71 0
  34              		.loc 1 70 0
  35 0000 FFF7FEBF 		b	ext_lld_init
  36              	.LVL0:
  37              		.cfi_endproc
  38              	.LFE118:
  39              		.size	extInit, .-extInit
  40 0004 AFF30080 		.section	.text.extObjectInit,"ax",%progbits
  40      AFF30080 
  40      AFF30080 
  41              		.align	2
  42              		.p2align 4,,15
  43              		.global	extObjectInit
  44              		.thumb
  45              		.thumb_func
  46              		.type	extObjectInit, %function
  47              	extObjectInit:
  48              	.LFB119:
  49              		.loc 1 80 0
  50              		.cfi_startproc
  51              		@ args = 0, pretend = 0, frame = 0
  52              		@ frame_needed = 0, uses_anonymous_args = 0
  53              		@ link register save eliminated.
  54              	.LVL1:
  55              		.loc 1 82 0
ARM GAS  C:\Users\Mohamad\AppData\Local\Temp\ccEruOYc.s 			page 2


  56 0000 0123     		movs	r3, #1
  57              		.loc 1 83 0
  58 0002 0021     		movs	r1, #0
  59              		.loc 1 82 0
  60 0004 0370     		strb	r3, [r0, #0]
  61              		.loc 1 83 0
  62 0006 4160     		str	r1, [r0, #4]
  63 0008 7047     		bx	lr
  64              		.cfi_endproc
  65              	.LFE119:
  66              		.size	extObjectInit, .-extObjectInit
  67 000a 00BFAFF3 		.section	.text.extStart,"ax",%progbits
  67      0080
  68              		.align	2
  69              		.p2align 4,,15
  70              		.global	extStart
  71              		.thumb
  72              		.thumb_func
  73              		.type	extStart, %function
  74              	extStart:
  75              	.LFB120:
  76              		.loc 1 96 0
  77              		.cfi_startproc
  78              		@ args = 0, pretend = 0, frame = 0
  79              		@ frame_needed = 0, uses_anonymous_args = 0
  80              	.LVL2:
  81 0000 10B5     		push	{r4, lr}
  82              	.LCFI0:
  83              		.cfi_def_cfa_offset 8
  84              		.cfi_offset 4, -8
  85              		.cfi_offset 14, -4
  86              	.LBB2:
  87              		.loc 1 100 0
  88 0002 2023     		movs	r3, #32
  89              	.LVL3:
  90              	.LBE2:
  91              		.loc 1 96 0
  92 0004 0446     		mov	r4, r0
  93              	.LBB3:
  94              		.loc 1 100 0
  95              	@ 100 "../../chibios/os/hal/src/ext.c" 1
  96 0006 83F31188 		msr     BASEPRI, r3
  97              	@ 0 "" 2
  98              	.LVL4:
  99              		.thumb
 100              	.LBE3:
 101              		.loc 1 103 0
 102 000a 4160     		str	r1, [r0, #4]
 103              		.loc 1 104 0
 104 000c FFF7FEFF 		bl	ext_lld_start
 105              	.LVL5:
 106              		.loc 1 105 0
 107 0010 0223     		movs	r3, #2
 108 0012 2370     		strb	r3, [r4, #0]
 109              	.LBB4:
 110              		.loc 1 106 0
 111 0014 0023     		movs	r3, #0
ARM GAS  C:\Users\Mohamad\AppData\Local\Temp\ccEruOYc.s 			page 3


 112              	.LVL6:
 113              	@ 106 "../../chibios/os/hal/src/ext.c" 1
 114 0016 83F31188 		msr     BASEPRI, r3
 115              	@ 0 "" 2
 116              	.LVL7:
 117              		.thumb
 118 001a 10BD     		pop	{r4, pc}
 119              	.LBE4:
 120              		.cfi_endproc
 121              	.LFE120:
 122              		.size	extStart, .-extStart
 123 001c AFF30080 		.section	.text.extStop,"ax",%progbits
 124              		.align	2
 125              		.p2align 4,,15
 126              		.global	extStop
 127              		.thumb
 128              		.thumb_func
 129              		.type	extStop, %function
 130              	extStop:
 131              	.LFB121:
 132              		.loc 1 116 0
 133              		.cfi_startproc
 134              		@ args = 0, pretend = 0, frame = 0
 135              		@ frame_needed = 0, uses_anonymous_args = 0
 136              	.LVL8:
 137 0000 10B5     		push	{r4, lr}
 138              	.LCFI1:
 139              		.cfi_def_cfa_offset 8
 140              		.cfi_offset 4, -8
 141              		.cfi_offset 14, -4
 142              	.LBB5:
 143              		.loc 1 120 0
 144 0002 2023     		movs	r3, #32
 145              	.LVL9:
 146              	.LBE5:
 147              		.loc 1 116 0
 148 0004 0446     		mov	r4, r0
 149              	.LBB6:
 150              		.loc 1 120 0
 151              	@ 120 "../../chibios/os/hal/src/ext.c" 1
 152 0006 83F31188 		msr     BASEPRI, r3
 153              	@ 0 "" 2
 154              	.LVL10:
 155              		.thumb
 156              	.LBE6:
 157              		.loc 1 123 0
 158 000a FFF7FEFF 		bl	ext_lld_stop
 159              	.LVL11:
 160              		.loc 1 124 0
 161 000e 0123     		movs	r3, #1
 162 0010 2370     		strb	r3, [r4, #0]
 163              	.LBB7:
 164              		.loc 1 125 0
 165 0012 0023     		movs	r3, #0
 166              	.LVL12:
 167              	@ 125 "../../chibios/os/hal/src/ext.c" 1
 168 0014 83F31188 		msr     BASEPRI, r3
ARM GAS  C:\Users\Mohamad\AppData\Local\Temp\ccEruOYc.s 			page 4


 169              	@ 0 "" 2
 170              	.LVL13:
 171              		.thumb
 172 0018 10BD     		pop	{r4, pc}
 173              	.LBE7:
 174              		.cfi_endproc
 175              	.LFE121:
 176              		.size	extStop, .-extStop
 177 001a 00BFAFF3 		.section	.text.extChannelEnable,"ax",%progbits
 177      0080
 178              		.align	2
 179              		.p2align 4,,15
 180              		.global	extChannelEnable
 181              		.thumb
 182              		.thumb_func
 183              		.type	extChannelEnable, %function
 184              	extChannelEnable:
 185              	.LFB122:
 186              		.loc 1 137 0
 187              		.cfi_startproc
 188              		@ args = 0, pretend = 0, frame = 0
 189              		@ frame_needed = 0, uses_anonymous_args = 0
 190              	.LVL14:
 191 0000 08B5     		push	{r3, lr}
 192              	.LCFI2:
 193              		.cfi_def_cfa_offset 8
 194              		.cfi_offset 3, -8
 195              		.cfi_offset 14, -4
 196              	.LBB8:
 197              		.loc 1 142 0
 198 0002 2023     		movs	r3, #32
 199              	.LVL15:
 200              	@ 142 "../../chibios/os/hal/src/ext.c" 1
 201 0004 83F31188 		msr     BASEPRI, r3
 202              	@ 0 "" 2
 203              	.LVL16:
 204              		.thumb
 205              	.LBE8:
 206              		.loc 1 147 0
 207 0008 FFF7FEFF 		bl	ext_lld_channel_enable
 208              	.LVL17:
 209              	.LBB9:
 210              		.loc 1 148 0
 211 000c 0023     		movs	r3, #0
 212              	.LVL18:
 213              	@ 148 "../../chibios/os/hal/src/ext.c" 1
 214 000e 83F31188 		msr     BASEPRI, r3
 215              	@ 0 "" 2
 216              	.LVL19:
 217              		.thumb
 218 0012 08BD     		pop	{r3, pc}
 219              	.LBE9:
 220              		.cfi_endproc
 221              	.LFE122:
 222              		.size	extChannelEnable, .-extChannelEnable
 223 0014 AFF30080 		.section	.text.extChannelDisable,"ax",%progbits
 223      AFF30080 
ARM GAS  C:\Users\Mohamad\AppData\Local\Temp\ccEruOYc.s 			page 5


 223      AFF30080 
 224              		.align	2
 225              		.p2align 4,,15
 226              		.global	extChannelDisable
 227              		.thumb
 228              		.thumb_func
 229              		.type	extChannelDisable, %function
 230              	extChannelDisable:
 231              	.LFB123:
 232              		.loc 1 160 0
 233              		.cfi_startproc
 234              		@ args = 0, pretend = 0, frame = 0
 235              		@ frame_needed = 0, uses_anonymous_args = 0
 236              	.LVL20:
 237 0000 08B5     		push	{r3, lr}
 238              	.LCFI3:
 239              		.cfi_def_cfa_offset 8
 240              		.cfi_offset 3, -8
 241              		.cfi_offset 14, -4
 242              	.LBB10:
 243              		.loc 1 165 0
 244 0002 2023     		movs	r3, #32
 245              	.LVL21:
 246              	@ 165 "../../chibios/os/hal/src/ext.c" 1
 247 0004 83F31188 		msr     BASEPRI, r3
 248              	@ 0 "" 2
 249              	.LVL22:
 250              		.thumb
 251              	.LBE10:
 252              		.loc 1 170 0
 253 0008 FFF7FEFF 		bl	ext_lld_channel_disable
 254              	.LVL23:
 255              	.LBB11:
 256              		.loc 1 171 0
 257 000c 0023     		movs	r3, #0
 258              	.LVL24:
 259              	@ 171 "../../chibios/os/hal/src/ext.c" 1
 260 000e 83F31188 		msr     BASEPRI, r3
 261              	@ 0 "" 2
 262              	.LVL25:
 263              		.thumb
 264 0012 08BD     		pop	{r3, pc}
 265              	.LBE11:
 266              		.cfi_endproc
 267              	.LFE123:
 268              		.size	extChannelDisable, .-extChannelDisable
 269 0014 AFF30080 		.section	.text.extSetChannelModeI,"ax",%progbits
 269      AFF30080 
 269      AFF30080 
 270              		.align	2
 271              		.p2align 4,,15
 272              		.global	extSetChannelModeI
 273              		.thumb
 274              		.thumb_func
 275              		.type	extSetChannelModeI, %function
 276              	extSetChannelModeI:
 277              	.LFB124:
ARM GAS  C:\Users\Mohamad\AppData\Local\Temp\ccEruOYc.s 			page 6


 278              		.loc 1 193 0
 279              		.cfi_startproc
 280              		@ args = 0, pretend = 0, frame = 0
 281              		@ frame_needed = 0, uses_anonymous_args = 0
 282              		@ link register save eliminated.
 283              	.LVL26:
 284 0000 30B4     		push	{r4, r5}
 285              	.LCFI4:
 286              		.cfi_def_cfa_offset 8
 287              		.cfi_offset 4, -8
 288              		.cfi_offset 5, -4
 289              		.loc 1 193 0
 290 0002 0B46     		mov	r3, r1
 291              	.LVL27:
 292              		.loc 1 208 0
 293 0004 4568     		ldr	r5, [r0, #4]
 294              		.loc 1 193 0
 295 0006 0446     		mov	r4, r0
 296              		.loc 1 208 0
 297 0008 92E80300 		ldmia	r2, {r0, r1}
 298              	.LVL28:
 299 000c 05EBC302 		add	r2, r5, r3, lsl #3
 300              	.LVL29:
 301 0010 82E80300 		stmia	r2, {r0, r1}
 302              		.loc 1 209 0
 303 0014 2046     		mov	r0, r4
 304 0016 1946     		mov	r1, r3
 305              		.loc 1 210 0
 306 0018 30BC     		pop	{r4, r5}
 307              		.loc 1 209 0
 308 001a FFF7FEBF 		b	ext_lld_channel_enable
 309              	.LVL30:
 310              		.cfi_endproc
 311              	.LFE124:
 312              		.size	extSetChannelModeI, .-extSetChannelModeI
 313 001e 00BF     		.text
 314              	.Letext0:
 315              		.file 2 "c:\\chibistudio\\tools\\gnu tools arm embedded\\4.7 2014q2\\bin\\../lib/gcc/arm-none-eabi
 316              		.file 3 "../../chibios/os/hal/include/ext.h"
 317              		.file 4 "../../chibios/os/hal/platforms/STM32/ext_lld.h"
 318              		.file 5 "../../chibios/os/ports/common/ARMCMx/CMSIS/include/core_cm4.h"