ARM GAS  C:\Users\Mohamad\AppData\Local\Temp\cc1kb5sj.s 			page 1


   1              		.syntax unified
   2              		.cpu cortex-m4
   3              		.fpu softvfp
   4              		.eabi_attribute 20, 1
   5              		.eabi_attribute 21, 1
   6              		.eabi_attribute 23, 3
   7              		.eabi_attribute 24, 1
   8              		.eabi_attribute 25, 1
   9              		.eabi_attribute 26, 1
  10              		.eabi_attribute 30, 2
  11              		.eabi_attribute 34, 1
  12              		.eabi_attribute 18, 4
  13              		.thumb
  14              		.file	"ext_lld_isr.c"
  15              		.text
  16              	.Ltext0:
  17              		.cfi_sections	.debug_frame
  18              		.section	.text.Vector58,"ax",%progbits
  19              		.align	2
  20              		.p2align 4,,15
  21              		.global	Vector58
  22              		.thumb
  23              		.thumb_func
  24              		.type	Vector58, %function
  25              	Vector58:
  26              	.LFB118:
  27              		.file 1 "../../chibios/os/hal/platforms/STM32F4xx/ext_lld_isr.c"
  28              		.loc 1 57 0
  29              		.cfi_startproc
  30              		@ args = 0, pretend = 0, frame = 0
  31              		@ frame_needed = 0, uses_anonymous_args = 0
  32              		.loc 1 62 0
  33 0000 40F20000 		movw	r0, #:lower16:EXTD1
  34 0004 C0F20000 		movt	r0, #:upper16:EXTD1
  35              		.loc 1 57 0
  36 0008 08B5     		push	{r3, lr}
  37              	.LCFI0:
  38              		.cfi_def_cfa_offset 8
  39              		.cfi_offset 3, -8
  40              		.cfi_offset 14, -4
  41              		.loc 1 61 0
  42 000a 4FF47053 		mov	r3, #15360
  43              		.loc 1 62 0
  44 000e 4268     		ldr	r2, [r0, #4]
  45              		.loc 1 61 0
  46 0010 C4F20103 		movt	r3, 16385
  47 0014 0121     		movs	r1, #1
  48 0016 5961     		str	r1, [r3, #20]
  49              		.loc 1 62 0
  50 0018 5368     		ldr	r3, [r2, #4]
  51 001a 0021     		movs	r1, #0
  52 001c 9847     		blx	r3
  53              	.LVL0:
  54              		.loc 1 65 0
  55 001e BDE80840 		pop	{r3, lr}
  56              		.loc 1 64 0
  57 0022 FFF7FEBF 		b	_port_irq_epilogue
ARM GAS  C:\Users\Mohamad\AppData\Local\Temp\cc1kb5sj.s 			page 2


  58              	.LVL1:
  59              		.cfi_endproc
  60              	.LFE118:
  61              		.size	Vector58, .-Vector58
  62 0026 00BFAFF3 		.section	.text.Vector5C,"ax",%progbits
  62      0080AFF3 
  62      0080
  63              		.align	2
  64              		.p2align 4,,15
  65              		.global	Vector5C
  66              		.thumb
  67              		.thumb_func
  68              		.type	Vector5C, %function
  69              	Vector5C:
  70              	.LFB119:
  71              		.loc 1 72 0
  72              		.cfi_startproc
  73              		@ args = 0, pretend = 0, frame = 0
  74              		@ frame_needed = 0, uses_anonymous_args = 0
  75              		.loc 1 77 0
  76 0000 40F20000 		movw	r0, #:lower16:EXTD1
  77 0004 C0F20000 		movt	r0, #:upper16:EXTD1
  78              		.loc 1 72 0
  79 0008 08B5     		push	{r3, lr}
  80              	.LCFI1:
  81              		.cfi_def_cfa_offset 8
  82              		.cfi_offset 3, -8
  83              		.cfi_offset 14, -4
  84              		.loc 1 76 0
  85 000a 4FF47053 		mov	r3, #15360
  86              		.loc 1 77 0
  87 000e 4268     		ldr	r2, [r0, #4]
  88              		.loc 1 76 0
  89 0010 C4F20103 		movt	r3, 16385
  90 0014 0221     		movs	r1, #2
  91 0016 5961     		str	r1, [r3, #20]
  92              		.loc 1 77 0
  93 0018 D368     		ldr	r3, [r2, #12]
  94 001a 0121     		movs	r1, #1
  95 001c 9847     		blx	r3
  96              	.LVL2:
  97              		.loc 1 80 0
  98 001e BDE80840 		pop	{r3, lr}
  99              		.loc 1 79 0
 100 0022 FFF7FEBF 		b	_port_irq_epilogue
 101              	.LVL3:
 102              		.cfi_endproc
 103              	.LFE119:
 104              		.size	Vector5C, .-Vector5C
 105 0026 00BFAFF3 		.section	.text.Vector60,"ax",%progbits
 105      0080AFF3 
 105      0080
 106              		.align	2
 107              		.p2align 4,,15
 108              		.global	Vector60
 109              		.thumb
 110              		.thumb_func
ARM GAS  C:\Users\Mohamad\AppData\Local\Temp\cc1kb5sj.s 			page 3


 111              		.type	Vector60, %function
 112              	Vector60:
 113              	.LFB120:
 114              		.loc 1 87 0
 115              		.cfi_startproc
 116              		@ args = 0, pretend = 0, frame = 0
 117              		@ frame_needed = 0, uses_anonymous_args = 0
 118              		.loc 1 92 0
 119 0000 40F20000 		movw	r0, #:lower16:EXTD1
 120 0004 C0F20000 		movt	r0, #:upper16:EXTD1
 121              		.loc 1 87 0
 122 0008 08B5     		push	{r3, lr}
 123              	.LCFI2:
 124              		.cfi_def_cfa_offset 8
 125              		.cfi_offset 3, -8
 126              		.cfi_offset 14, -4
 127              		.loc 1 91 0
 128 000a 4FF47053 		mov	r3, #15360
 129              		.loc 1 92 0
 130 000e 4268     		ldr	r2, [r0, #4]
 131              		.loc 1 91 0
 132 0010 C4F20103 		movt	r3, 16385
 133 0014 0421     		movs	r1, #4
 134 0016 5961     		str	r1, [r3, #20]
 135              		.loc 1 92 0
 136 0018 5369     		ldr	r3, [r2, #20]
 137 001a 0221     		movs	r1, #2
 138 001c 9847     		blx	r3
 139              	.LVL4:
 140              		.loc 1 95 0
 141 001e BDE80840 		pop	{r3, lr}
 142              		.loc 1 94 0
 143 0022 FFF7FEBF 		b	_port_irq_epilogue
 144              	.LVL5:
 145              		.cfi_endproc
 146              	.LFE120:
 147              		.size	Vector60, .-Vector60
 148 0026 00BFAFF3 		.section	.text.Vector64,"ax",%progbits
 148      0080AFF3 
 148      0080
 149              		.align	2
 150              		.p2align 4,,15
 151              		.global	Vector64
 152              		.thumb
 153              		.thumb_func
 154              		.type	Vector64, %function
 155              	Vector64:
 156              	.LFB121:
 157              		.loc 1 102 0
 158              		.cfi_startproc
 159              		@ args = 0, pretend = 0, frame = 0
 160              		@ frame_needed = 0, uses_anonymous_args = 0
 161              		.loc 1 107 0
 162 0000 40F20000 		movw	r0, #:lower16:EXTD1
 163 0004 C0F20000 		movt	r0, #:upper16:EXTD1
 164              		.loc 1 102 0
 165 0008 08B5     		push	{r3, lr}
ARM GAS  C:\Users\Mohamad\AppData\Local\Temp\cc1kb5sj.s 			page 4


 166              	.LCFI3:
 167              		.cfi_def_cfa_offset 8
 168              		.cfi_offset 3, -8
 169              		.cfi_offset 14, -4
 170              		.loc 1 106 0
 171 000a 4FF47053 		mov	r3, #15360
 172              		.loc 1 107 0
 173 000e 4268     		ldr	r2, [r0, #4]
 174              		.loc 1 106 0
 175 0010 C4F20103 		movt	r3, 16385
 176 0014 0821     		movs	r1, #8
 177 0016 5961     		str	r1, [r3, #20]
 178              		.loc 1 107 0
 179 0018 D369     		ldr	r3, [r2, #28]
 180 001a 0321     		movs	r1, #3
 181 001c 9847     		blx	r3
 182              	.LVL6:
 183              		.loc 1 110 0
 184 001e BDE80840 		pop	{r3, lr}
 185              		.loc 1 109 0
 186 0022 FFF7FEBF 		b	_port_irq_epilogue
 187              	.LVL7:
 188              		.cfi_endproc
 189              	.LFE121:
 190              		.size	Vector64, .-Vector64
 191 0026 00BFAFF3 		.section	.text.Vector68,"ax",%progbits
 191      0080AFF3 
 191      0080
 192              		.align	2
 193              		.p2align 4,,15
 194              		.global	Vector68
 195              		.thumb
 196              		.thumb_func
 197              		.type	Vector68, %function
 198              	Vector68:
 199              	.LFB122:
 200              		.loc 1 117 0
 201              		.cfi_startproc
 202              		@ args = 0, pretend = 0, frame = 0
 203              		@ frame_needed = 0, uses_anonymous_args = 0
 204              		.loc 1 122 0
 205 0000 40F20000 		movw	r0, #:lower16:EXTD1
 206 0004 C0F20000 		movt	r0, #:upper16:EXTD1
 207              		.loc 1 117 0
 208 0008 08B5     		push	{r3, lr}
 209              	.LCFI4:
 210              		.cfi_def_cfa_offset 8
 211              		.cfi_offset 3, -8
 212              		.cfi_offset 14, -4
 213              		.loc 1 121 0
 214 000a 4FF47053 		mov	r3, #15360
 215              		.loc 1 122 0
 216 000e 4268     		ldr	r2, [r0, #4]
 217              		.loc 1 121 0
 218 0010 C4F20103 		movt	r3, 16385
 219 0014 1021     		movs	r1, #16
 220 0016 5961     		str	r1, [r3, #20]
ARM GAS  C:\Users\Mohamad\AppData\Local\Temp\cc1kb5sj.s 			page 5


 221              		.loc 1 122 0
 222 0018 536A     		ldr	r3, [r2, #36]
 223 001a 0421     		movs	r1, #4
 224 001c 9847     		blx	r3
 225              	.LVL8:
 226              		.loc 1 125 0
 227 001e BDE80840 		pop	{r3, lr}
 228              		.loc 1 124 0
 229 0022 FFF7FEBF 		b	_port_irq_epilogue
 230              	.LVL9:
 231              		.cfi_endproc
 232              	.LFE122:
 233              		.size	Vector68, .-Vector68
 234 0026 00BFAFF3 		.section	.text.Vector9C,"ax",%progbits
 234      0080AFF3 
 234      0080
 235              		.align	2
 236              		.p2align 4,,15
 237              		.global	Vector9C
 238              		.thumb
 239              		.thumb_func
 240              		.type	Vector9C, %function
 241              	Vector9C:
 242              	.LFB123:
 243              		.loc 1 132 0
 244              		.cfi_startproc
 245              		@ args = 0, pretend = 0, frame = 0
 246              		@ frame_needed = 0, uses_anonymous_args = 0
 247              		.loc 1 137 0
 248 0000 4FF47053 		mov	r3, #15360
 249 0004 C4F20103 		movt	r3, 16385
 250              		.loc 1 132 0
 251 0008 10B5     		push	{r4, lr}
 252              	.LCFI5:
 253              		.cfi_def_cfa_offset 8
 254              		.cfi_offset 4, -8
 255              		.cfi_offset 14, -4
 256              		.loc 1 137 0
 257 000a 5C69     		ldr	r4, [r3, #20]
 258 000c 04F47872 		and	r2, r4, #992
 259              	.LVL10:
 260              		.loc 1 138 0
 261 0010 5A61     		str	r2, [r3, #20]
 262              		.loc 1 139 0
 263 0012 A306     		lsls	r3, r4, #26
 264 0014 22D4     		bmi	.L28
 265              	.LVL11:
 266              	.L7:
 267              		.loc 1 141 0
 268 0016 6006     		lsls	r0, r4, #25
 269 0018 1AD4     		bmi	.L29
 270              	.L8:
 271              		.loc 1 143 0
 272 001a 2106     		lsls	r1, r4, #24
 273 001c 12D4     		bmi	.L30
 274              	.L9:
 275              		.loc 1 145 0
ARM GAS  C:\Users\Mohamad\AppData\Local\Temp\cc1kb5sj.s 			page 6


 276 001e E205     		lsls	r2, r4, #23
 277 0020 0AD4     		bmi	.L31
 278              	.L10:
 279              		.loc 1 147 0
 280 0022 A305     		lsls	r3, r4, #22
 281 0024 04D5     		bpl	.L11
 282              		.loc 1 148 0
 283 0026 1048     		ldr	r0, .L32
 284 0028 4168     		ldr	r1, [r0, #4]
 285 002a CB6C     		ldr	r3, [r1, #76]
 286 002c 0921     		movs	r1, #9
 287 002e 9847     		blx	r3
 288              	.LVL12:
 289              	.L11:
 290              		.loc 1 151 0
 291 0030 BDE81040 		pop	{r4, lr}
 292              		.loc 1 150 0
 293 0034 FFF7FEBF 		b	_port_irq_epilogue
 294              	.LVL13:
 295              	.L31:
 296              		.loc 1 146 0
 297 0038 0B48     		ldr	r0, .L32
 298 003a 4368     		ldr	r3, [r0, #4]
 299 003c 0821     		movs	r1, #8
 300 003e 5A6C     		ldr	r2, [r3, #68]
 301 0040 9047     		blx	r2
 302              	.LVL14:
 303 0042 EEE7     		b	.L10
 304              	.L30:
 305              		.loc 1 144 0
 306 0044 0848     		ldr	r0, .L32
 307 0046 4168     		ldr	r1, [r0, #4]
 308 0048 CA6B     		ldr	r2, [r1, #60]
 309 004a 0721     		movs	r1, #7
 310 004c 9047     		blx	r2
 311              	.LVL15:
 312 004e E6E7     		b	.L9
 313              	.L29:
 314              		.loc 1 142 0
 315 0050 0548     		ldr	r0, .L32
 316 0052 4268     		ldr	r2, [r0, #4]
 317 0054 0621     		movs	r1, #6
 318 0056 536B     		ldr	r3, [r2, #52]
 319 0058 9847     		blx	r3
 320              	.LVL16:
 321 005a DEE7     		b	.L8
 322              	.LVL17:
 323              	.L28:
 324              		.loc 1 140 0
 325 005c 0248     		ldr	r0, .L32
 326 005e 4168     		ldr	r1, [r0, #4]
 327 0060 CB6A     		ldr	r3, [r1, #44]
 328 0062 0521     		movs	r1, #5
 329 0064 9847     		blx	r3
 330              	.LVL18:
 331 0066 D6E7     		b	.L7
 332              	.L33:
ARM GAS  C:\Users\Mohamad\AppData\Local\Temp\cc1kb5sj.s 			page 7


 333              		.align	2
 334              	.L32:
 335 0068 00000000 		.word	EXTD1
 336              		.cfi_endproc
 337              	.LFE123:
 338              		.size	Vector9C, .-Vector9C
 339 006c AFF30080 		.section	.text.VectorE0,"ax",%progbits
 340              		.align	2
 341              		.p2align 4,,15
 342              		.global	VectorE0
 343              		.thumb
 344              		.thumb_func
 345              		.type	VectorE0, %function
 346              	VectorE0:
 347              	.LFB124:
 348              		.loc 1 158 0
 349              		.cfi_startproc
 350              		@ args = 0, pretend = 0, frame = 0
 351              		@ frame_needed = 0, uses_anonymous_args = 0
 352              		.loc 1 163 0
 353 0000 4FF47053 		mov	r3, #15360
 354 0004 C4F20103 		movt	r3, 16385
 355              		.loc 1 158 0
 356 0008 10B5     		push	{r4, lr}
 357              	.LCFI6:
 358              		.cfi_def_cfa_offset 8
 359              		.cfi_offset 4, -8
 360              		.cfi_offset 14, -4
 361              		.loc 1 163 0
 362 000a 5C69     		ldr	r4, [r3, #20]
 363 000c 04F47C42 		and	r2, r4, #64512
 364              	.LVL19:
 365              		.loc 1 165 0
 366 0010 5A61     		str	r2, [r3, #20]
 367              		.loc 1 166 0
 368 0012 6205     		lsls	r2, r4, #21
 369              	.LVL20:
 370 0014 2AD4     		bmi	.L59
 371              	.LVL21:
 372              	.L35:
 373              		.loc 1 168 0
 374 0016 2305     		lsls	r3, r4, #20
 375 0018 22D4     		bmi	.L60
 376              	.L36:
 377              		.loc 1 170 0
 378 001a E004     		lsls	r0, r4, #19
 379 001c 1AD4     		bmi	.L61
 380              	.L37:
 381              		.loc 1 172 0
 382 001e A104     		lsls	r1, r4, #18
 383 0020 12D4     		bmi	.L62
 384              	.L38:
 385              		.loc 1 174 0
 386 0022 6204     		lsls	r2, r4, #17
 387 0024 0AD4     		bmi	.L63
 388              	.L39:
 389              		.loc 1 176 0
ARM GAS  C:\Users\Mohamad\AppData\Local\Temp\cc1kb5sj.s 			page 8


 390 0026 2304     		lsls	r3, r4, #16
 391 0028 04D5     		bpl	.L40
 392              		.loc 1 177 0
 393 002a 1348     		ldr	r0, .L64
 394 002c 4268     		ldr	r2, [r0, #4]
 395 002e 0F21     		movs	r1, #15
 396 0030 D36F     		ldr	r3, [r2, #124]
 397 0032 9847     		blx	r3
 398              	.LVL22:
 399              	.L40:
 400              		.loc 1 180 0
 401 0034 BDE81040 		pop	{r4, lr}
 402              		.loc 1 179 0
 403 0038 FFF7FEBF 		b	_port_irq_epilogue
 404              	.LVL23:
 405              	.L63:
 406              		.loc 1 175 0
 407 003c 0E48     		ldr	r0, .L64
 408 003e 4168     		ldr	r1, [r0, #4]
 409 0040 4B6F     		ldr	r3, [r1, #116]
 410 0042 0E21     		movs	r1, #14
 411 0044 9847     		blx	r3
 412              	.LVL24:
 413 0046 EEE7     		b	.L39
 414              	.L62:
 415              		.loc 1 173 0
 416 0048 0B48     		ldr	r0, .L64
 417 004a 4368     		ldr	r3, [r0, #4]
 418 004c 0D21     		movs	r1, #13
 419 004e DA6E     		ldr	r2, [r3, #108]
 420 0050 9047     		blx	r2
 421              	.LVL25:
 422 0052 E6E7     		b	.L38
 423              	.L61:
 424              		.loc 1 171 0
 425 0054 0848     		ldr	r0, .L64
 426 0056 4168     		ldr	r1, [r0, #4]
 427 0058 4A6E     		ldr	r2, [r1, #100]
 428 005a 0C21     		movs	r1, #12
 429 005c 9047     		blx	r2
 430              	.LVL26:
 431 005e DEE7     		b	.L37
 432              	.L60:
 433              		.loc 1 169 0
 434 0060 0548     		ldr	r0, .L64
 435 0062 4268     		ldr	r2, [r0, #4]
 436 0064 0B21     		movs	r1, #11
 437 0066 D36D     		ldr	r3, [r2, #92]
 438 0068 9847     		blx	r3
 439              	.LVL27:
 440 006a D6E7     		b	.L36
 441              	.LVL28:
 442              	.L59:
 443              		.loc 1 167 0
 444 006c 0248     		ldr	r0, .L64
 445 006e 4168     		ldr	r1, [r0, #4]
 446 0070 4B6D     		ldr	r3, [r1, #84]
ARM GAS  C:\Users\Mohamad\AppData\Local\Temp\cc1kb5sj.s 			page 9


 447              	.LVL29:
 448 0072 0A21     		movs	r1, #10
 449 0074 9847     		blx	r3
 450              	.LVL30:
 451 0076 CEE7     		b	.L35
 452              	.L65:
 453              		.align	2
 454              	.L64:
 455 0078 00000000 		.word	EXTD1
 456              		.cfi_endproc
 457              	.LFE124:
 458              		.size	VectorE0, .-VectorE0
 459 007c AFF30080 		.section	.text.Vector44,"ax",%progbits
 460              		.align	2
 461              		.p2align 4,,15
 462              		.global	Vector44
 463              		.thumb
 464              		.thumb_func
 465              		.type	Vector44, %function
 466              	Vector44:
 467              	.LFB125:
 468              		.loc 1 187 0
 469              		.cfi_startproc
 470              		@ args = 0, pretend = 0, frame = 0
 471              		@ frame_needed = 0, uses_anonymous_args = 0
 472              		.loc 1 192 0
 473 0000 40F20000 		movw	r0, #:lower16:EXTD1
 474 0004 C0F20000 		movt	r0, #:upper16:EXTD1
 475              		.loc 1 187 0
 476 0008 08B5     		push	{r3, lr}
 477              	.LCFI7:
 478              		.cfi_def_cfa_offset 8
 479              		.cfi_offset 3, -8
 480              		.cfi_offset 14, -4
 481              		.loc 1 191 0
 482 000a 4FF47053 		mov	r3, #15360
 483              		.loc 1 192 0
 484 000e 4268     		ldr	r2, [r0, #4]
 485              		.loc 1 191 0
 486 0010 C4F20103 		movt	r3, 16385
 487 0014 4FF48031 		mov	r1, #65536
 488 0018 5961     		str	r1, [r3, #20]
 489              		.loc 1 192 0
 490 001a D2F88430 		ldr	r3, [r2, #132]
 491 001e 1021     		movs	r1, #16
 492 0020 9847     		blx	r3
 493              	.LVL31:
 494              		.loc 1 195 0
 495 0022 BDE80840 		pop	{r3, lr}
 496              		.loc 1 194 0
 497 0026 FFF7FEBF 		b	_port_irq_epilogue
 498              	.LVL32:
 499              		.cfi_endproc
 500              	.LFE125:
 501              		.size	Vector44, .-Vector44
 502 002a 00BFAFF3 		.section	.text.VectorE4,"ax",%progbits
 502      0080
ARM GAS  C:\Users\Mohamad\AppData\Local\Temp\cc1kb5sj.s 			page 10


 503              		.align	2
 504              		.p2align 4,,15
 505              		.global	VectorE4
 506              		.thumb
 507              		.thumb_func
 508              		.type	VectorE4, %function
 509              	VectorE4:
 510              	.LFB126:
 511              		.loc 1 202 0
 512              		.cfi_startproc
 513              		@ args = 0, pretend = 0, frame = 0
 514              		@ frame_needed = 0, uses_anonymous_args = 0
 515              		.loc 1 207 0
 516 0000 40F20000 		movw	r0, #:lower16:EXTD1
 517 0004 C0F20000 		movt	r0, #:upper16:EXTD1
 518              		.loc 1 202 0
 519 0008 08B5     		push	{r3, lr}
 520              	.LCFI8:
 521              		.cfi_def_cfa_offset 8
 522              		.cfi_offset 3, -8
 523              		.cfi_offset 14, -4
 524              		.loc 1 206 0
 525 000a 4FF47053 		mov	r3, #15360
 526              		.loc 1 207 0
 527 000e 4268     		ldr	r2, [r0, #4]
 528              		.loc 1 206 0
 529 0010 C4F20103 		movt	r3, 16385
 530 0014 4FF40031 		mov	r1, #131072
 531 0018 5961     		str	r1, [r3, #20]
 532              		.loc 1 207 0
 533 001a D2F88C30 		ldr	r3, [r2, #140]
 534 001e 1121     		movs	r1, #17
 535 0020 9847     		blx	r3
 536              	.LVL33:
 537              		.loc 1 210 0
 538 0022 BDE80840 		pop	{r3, lr}
 539              		.loc 1 209 0
 540 0026 FFF7FEBF 		b	_port_irq_epilogue
 541              	.LVL34:
 542              		.cfi_endproc
 543              	.LFE126:
 544              		.size	VectorE4, .-VectorE4
 545 002a 00BFAFF3 		.section	.text.VectorE8,"ax",%progbits
 545      0080
 546              		.align	2
 547              		.p2align 4,,15
 548              		.global	VectorE8
 549              		.thumb
 550              		.thumb_func
 551              		.type	VectorE8, %function
 552              	VectorE8:
 553              	.LFB127:
 554              		.loc 1 217 0
 555              		.cfi_startproc
 556              		@ args = 0, pretend = 0, frame = 0
 557              		@ frame_needed = 0, uses_anonymous_args = 0
 558              		.loc 1 222 0
ARM GAS  C:\Users\Mohamad\AppData\Local\Temp\cc1kb5sj.s 			page 11


 559 0000 40F20000 		movw	r0, #:lower16:EXTD1
 560 0004 C0F20000 		movt	r0, #:upper16:EXTD1
 561              		.loc 1 217 0
 562 0008 08B5     		push	{r3, lr}
 563              	.LCFI9:
 564              		.cfi_def_cfa_offset 8
 565              		.cfi_offset 3, -8
 566              		.cfi_offset 14, -4
 567              		.loc 1 221 0
 568 000a 4FF47053 		mov	r3, #15360
 569              		.loc 1 222 0
 570 000e 4268     		ldr	r2, [r0, #4]
 571              		.loc 1 221 0
 572 0010 C4F20103 		movt	r3, 16385
 573 0014 4FF48021 		mov	r1, #262144
 574 0018 5961     		str	r1, [r3, #20]
 575              		.loc 1 222 0
 576 001a D2F89430 		ldr	r3, [r2, #148]
 577 001e 1221     		movs	r1, #18
 578 0020 9847     		blx	r3
 579              	.LVL35:
 580              		.loc 1 225 0
 581 0022 BDE80840 		pop	{r3, lr}
 582              		.loc 1 224 0
 583 0026 FFF7FEBF 		b	_port_irq_epilogue
 584              	.LVL36:
 585              		.cfi_endproc
 586              	.LFE127:
 587              		.size	VectorE8, .-VectorE8
 588 002a 00BFAFF3 		.section	.text.Vector138,"ax",%progbits
 588      0080
 589              		.align	2
 590              		.p2align 4,,15
 591              		.global	Vector138
 592              		.thumb
 593              		.thumb_func
 594              		.type	Vector138, %function
 595              	Vector138:
 596              	.LFB128:
 597              		.loc 1 232 0
 598              		.cfi_startproc
 599              		@ args = 0, pretend = 0, frame = 0
 600              		@ frame_needed = 0, uses_anonymous_args = 0
 601              		.loc 1 237 0
 602 0000 40F20000 		movw	r0, #:lower16:EXTD1
 603 0004 C0F20000 		movt	r0, #:upper16:EXTD1
 604              		.loc 1 232 0
 605 0008 08B5     		push	{r3, lr}
 606              	.LCFI10:
 607              		.cfi_def_cfa_offset 8
 608              		.cfi_offset 3, -8
 609              		.cfi_offset 14, -4
 610              		.loc 1 236 0
 611 000a 4FF47053 		mov	r3, #15360
 612              		.loc 1 237 0
 613 000e 4268     		ldr	r2, [r0, #4]
 614              		.loc 1 236 0
ARM GAS  C:\Users\Mohamad\AppData\Local\Temp\cc1kb5sj.s 			page 12


 615 0010 C4F20103 		movt	r3, 16385
 616 0014 4FF40021 		mov	r1, #524288
 617 0018 5961     		str	r1, [r3, #20]
 618              		.loc 1 237 0
 619 001a D2F89C30 		ldr	r3, [r2, #156]
 620 001e 1321     		movs	r1, #19
 621 0020 9847     		blx	r3
 622              	.LVL37:
 623              		.loc 1 240 0
 624 0022 BDE80840 		pop	{r3, lr}
 625              		.loc 1 239 0
 626 0026 FFF7FEBF 		b	_port_irq_epilogue
 627              	.LVL38:
 628              		.cfi_endproc
 629              	.LFE128:
 630              		.size	Vector138, .-Vector138
 631 002a 00BFAFF3 		.section	.text.Vector170,"ax",%progbits
 631      0080
 632              		.align	2
 633              		.p2align 4,,15
 634              		.global	Vector170
 635              		.thumb
 636              		.thumb_func
 637              		.type	Vector170, %function
 638              	Vector170:
 639              	.LFB129:
 640              		.loc 1 248 0
 641              		.cfi_startproc
 642              		@ args = 0, pretend = 0, frame = 0
 643              		@ frame_needed = 0, uses_anonymous_args = 0
 644              		.loc 1 253 0
 645 0000 40F20000 		movw	r0, #:lower16:EXTD1
 646 0004 C0F20000 		movt	r0, #:upper16:EXTD1
 647              		.loc 1 248 0
 648 0008 08B5     		push	{r3, lr}
 649              	.LCFI11:
 650              		.cfi_def_cfa_offset 8
 651              		.cfi_offset 3, -8
 652              		.cfi_offset 14, -4
 653              		.loc 1 252 0
 654 000a 4FF47053 		mov	r3, #15360
 655              		.loc 1 253 0
 656 000e 4268     		ldr	r2, [r0, #4]
 657              		.loc 1 252 0
 658 0010 C4F20103 		movt	r3, 16385
 659 0014 4FF48011 		mov	r1, #1048576
 660 0018 5961     		str	r1, [r3, #20]
 661              		.loc 1 253 0
 662 001a D2F8A430 		ldr	r3, [r2, #164]
 663 001e 1421     		movs	r1, #20
 664 0020 9847     		blx	r3
 665              	.LVL39:
 666              		.loc 1 256 0
 667 0022 BDE80840 		pop	{r3, lr}
 668              		.loc 1 255 0
 669 0026 FFF7FEBF 		b	_port_irq_epilogue
 670              	.LVL40:
ARM GAS  C:\Users\Mohamad\AppData\Local\Temp\cc1kb5sj.s 			page 13


 671              		.cfi_endproc
 672              	.LFE129:
 673              		.size	Vector170, .-Vector170
 674 002a 00BFAFF3 		.section	.text.TAMPER_STAMP_IRQHandler,"ax",%progbits
 674      0080
 675              		.align	2
 676              		.p2align 4,,15
 677              		.global	TAMPER_STAMP_IRQHandler
 678              		.thumb
 679              		.thumb_func
 680              		.type	TAMPER_STAMP_IRQHandler, %function
 681              	TAMPER_STAMP_IRQHandler:
 682              	.LFB130:
 683              		.loc 1 263 0
 684              		.cfi_startproc
 685              		@ args = 0, pretend = 0, frame = 0
 686              		@ frame_needed = 0, uses_anonymous_args = 0
 687              		.loc 1 268 0
 688 0000 40F20000 		movw	r0, #:lower16:EXTD1
 689 0004 C0F20000 		movt	r0, #:upper16:EXTD1
 690              		.loc 1 263 0
 691 0008 08B5     		push	{r3, lr}
 692              	.LCFI12:
 693              		.cfi_def_cfa_offset 8
 694              		.cfi_offset 3, -8
 695              		.cfi_offset 14, -4
 696              		.loc 1 267 0
 697 000a 4FF47053 		mov	r3, #15360
 698              		.loc 1 268 0
 699 000e 4268     		ldr	r2, [r0, #4]
 700              		.loc 1 267 0
 701 0010 C4F20103 		movt	r3, 16385
 702 0014 4FF40011 		mov	r1, #2097152
 703 0018 5961     		str	r1, [r3, #20]
 704              		.loc 1 268 0
 705 001a D2F8AC30 		ldr	r3, [r2, #172]
 706 001e 1521     		movs	r1, #21
 707 0020 9847     		blx	r3
 708              	.LVL41:
 709              		.loc 1 271 0
 710 0022 BDE80840 		pop	{r3, lr}
 711              		.loc 1 270 0
 712 0026 FFF7FEBF 		b	_port_irq_epilogue
 713              	.LVL42:
 714              		.cfi_endproc
 715              	.LFE130:
 716              		.size	TAMPER_STAMP_IRQHandler, .-TAMPER_STAMP_IRQHandler
 717 002a 00BFAFF3 		.section	.text.Vector4C,"ax",%progbits
 717      0080
 718              		.align	2
 719              		.p2align 4,,15
 720              		.global	Vector4C
 721              		.thumb
 722              		.thumb_func
 723              		.type	Vector4C, %function
 724              	Vector4C:
 725              	.LFB131:
ARM GAS  C:\Users\Mohamad\AppData\Local\Temp\cc1kb5sj.s 			page 14


 726              		.loc 1 279 0
 727              		.cfi_startproc
 728              		@ args = 0, pretend = 0, frame = 0
 729              		@ frame_needed = 0, uses_anonymous_args = 0
 730              		.loc 1 284 0
 731 0000 40F20000 		movw	r0, #:lower16:EXTD1
 732 0004 C0F20000 		movt	r0, #:upper16:EXTD1
 733              		.loc 1 279 0
 734 0008 08B5     		push	{r3, lr}
 735              	.LCFI13:
 736              		.cfi_def_cfa_offset 8
 737              		.cfi_offset 3, -8
 738              		.cfi_offset 14, -4
 739              		.loc 1 283 0
 740 000a 4FF47053 		mov	r3, #15360
 741              		.loc 1 284 0
 742 000e 4268     		ldr	r2, [r0, #4]
 743              		.loc 1 283 0
 744 0010 C4F20103 		movt	r3, 16385
 745 0014 4FF48001 		mov	r1, #4194304
 746 0018 5961     		str	r1, [r3, #20]
 747              		.loc 1 284 0
 748 001a D2F8B430 		ldr	r3, [r2, #180]
 749 001e 1621     		movs	r1, #22
 750 0020 9847     		blx	r3
 751              	.LVL43:
 752              		.loc 1 287 0
 753 0022 BDE80840 		pop	{r3, lr}
 754              		.loc 1 286 0
 755 0026 FFF7FEBF 		b	_port_irq_epilogue
 756              	.LVL44:
 757              		.cfi_endproc
 758              	.LFE131:
 759              		.size	Vector4C, .-Vector4C
 760 002a 00BFAFF3 		.section	.text.ext_lld_exti_irq_enable,"ax",%progbits
 760      0080
 761              		.align	2
 762              		.p2align 4,,15
 763              		.global	ext_lld_exti_irq_enable
 764              		.thumb
 765              		.thumb_func
 766              		.type	ext_lld_exti_irq_enable, %function
 767              	ext_lld_exti_irq_enable:
 768              	.LFB132:
 769              		.loc 1 298 0
 770              		.cfi_startproc
 771              		@ args = 0, pretend = 0, frame = 0
 772              		@ frame_needed = 0, uses_anonymous_args = 0
 773 0000 08B5     		push	{r3, lr}
 774              	.LCFI14:
 775              		.cfi_def_cfa_offset 8
 776              		.cfi_offset 3, -8
 777              		.cfi_offset 14, -4
 778              		.loc 1 300 0
 779 0002 0620     		movs	r0, #6
 780 0004 6021     		movs	r1, #96
 781 0006 FFF7FEFF 		bl	nvicEnableVector
ARM GAS  C:\Users\Mohamad\AppData\Local\Temp\cc1kb5sj.s 			page 15


 782              	.LVL45:
 783              		.loc 1 302 0
 784 000a 0720     		movs	r0, #7
 785 000c 6021     		movs	r1, #96
 786 000e FFF7FEFF 		bl	nvicEnableVector
 787              	.LVL46:
 788              		.loc 1 304 0
 789 0012 0820     		movs	r0, #8
 790 0014 6021     		movs	r1, #96
 791 0016 FFF7FEFF 		bl	nvicEnableVector
 792              	.LVL47:
 793              		.loc 1 306 0
 794 001a 0920     		movs	r0, #9
 795 001c 6021     		movs	r1, #96
 796 001e FFF7FEFF 		bl	nvicEnableVector
 797              	.LVL48:
 798              		.loc 1 308 0
 799 0022 0A20     		movs	r0, #10
 800 0024 6021     		movs	r1, #96
 801 0026 FFF7FEFF 		bl	nvicEnableVector
 802              	.LVL49:
 803              		.loc 1 310 0
 804 002a 1720     		movs	r0, #23
 805 002c 6021     		movs	r1, #96
 806 002e FFF7FEFF 		bl	nvicEnableVector
 807              	.LVL50:
 808              		.loc 1 312 0
 809 0032 2820     		movs	r0, #40
 810 0034 6021     		movs	r1, #96
 811 0036 FFF7FEFF 		bl	nvicEnableVector
 812              	.LVL51:
 813              		.loc 1 314 0
 814 003a 0120     		movs	r0, #1
 815 003c 6021     		movs	r1, #96
 816 003e FFF7FEFF 		bl	nvicEnableVector
 817              	.LVL52:
 818              		.loc 1 316 0
 819 0042 2920     		movs	r0, #41
 820 0044 F021     		movs	r1, #240
 821 0046 FFF7FEFF 		bl	nvicEnableVector
 822              	.LVL53:
 823              		.loc 1 318 0
 824 004a 2A20     		movs	r0, #42
 825 004c 6021     		movs	r1, #96
 826 004e FFF7FEFF 		bl	nvicEnableVector
 827              	.LVL54:
 828              		.loc 1 320 0
 829 0052 6021     		movs	r1, #96
 830 0054 3E20     		movs	r0, #62
 831 0056 FFF7FEFF 		bl	nvicEnableVector
 832              	.LVL55:
 833              		.loc 1 323 0
 834 005a 4C20     		movs	r0, #76
 835 005c 6021     		movs	r1, #96
 836 005e FFF7FEFF 		bl	nvicEnableVector
 837              	.LVL56:
 838              		.loc 1 325 0
ARM GAS  C:\Users\Mohamad\AppData\Local\Temp\cc1kb5sj.s 			page 16


 839 0062 0220     		movs	r0, #2
 840 0064 F021     		movs	r1, #240
 841 0066 FFF7FEFF 		bl	nvicEnableVector
 842              	.LVL57:
 843              		.loc 1 328 0
 844 006a 0320     		movs	r0, #3
 845 006c F021     		movs	r1, #240
 846              		.loc 1 330 0
 847 006e BDE80840 		pop	{r3, lr}
 848              		.loc 1 328 0
 849 0072 FFF7FEBF 		b	nvicEnableVector
 850              	.LVL58:
 851              		.cfi_endproc
 852              	.LFE132:
 853              		.size	ext_lld_exti_irq_enable, .-ext_lld_exti_irq_enable
 854 0076 00BFAFF3 		.section	.text.ext_lld_exti_irq_disable,"ax",%progbits
 854      0080AFF3 
 854      0080
 855              		.align	2
 856              		.p2align 4,,15
 857              		.global	ext_lld_exti_irq_disable
 858              		.thumb
 859              		.thumb_func
 860              		.type	ext_lld_exti_irq_disable, %function
 861              	ext_lld_exti_irq_disable:
 862              	.LFB133:
 863              		.loc 1 337 0
 864              		.cfi_startproc
 865              		@ args = 0, pretend = 0, frame = 0
 866              		@ frame_needed = 0, uses_anonymous_args = 0
 867 0000 08B5     		push	{r3, lr}
 868              	.LCFI15:
 869              		.cfi_def_cfa_offset 8
 870              		.cfi_offset 3, -8
 871              		.cfi_offset 14, -4
 872              		.loc 1 339 0
 873 0002 0620     		movs	r0, #6
 874 0004 FFF7FEFF 		bl	nvicDisableVector
 875              	.LVL59:
 876              		.loc 1 340 0
 877 0008 0720     		movs	r0, #7
 878 000a FFF7FEFF 		bl	nvicDisableVector
 879              	.LVL60:
 880              		.loc 1 341 0
 881 000e 0820     		movs	r0, #8
 882 0010 FFF7FEFF 		bl	nvicDisableVector
 883              	.LVL61:
 884              		.loc 1 342 0
 885 0014 0920     		movs	r0, #9
 886 0016 FFF7FEFF 		bl	nvicDisableVector
 887              	.LVL62:
 888              		.loc 1 343 0
 889 001a 0A20     		movs	r0, #10
 890 001c FFF7FEFF 		bl	nvicDisableVector
 891              	.LVL63:
 892              		.loc 1 344 0
 893 0020 1720     		movs	r0, #23
ARM GAS  C:\Users\Mohamad\AppData\Local\Temp\cc1kb5sj.s 			page 17


 894 0022 FFF7FEFF 		bl	nvicDisableVector
 895              	.LVL64:
 896              		.loc 1 345 0
 897 0026 2820     		movs	r0, #40
 898 0028 FFF7FEFF 		bl	nvicDisableVector
 899              	.LVL65:
 900              		.loc 1 346 0
 901 002c 0120     		movs	r0, #1
 902 002e FFF7FEFF 		bl	nvicDisableVector
 903              	.LVL66:
 904              		.loc 1 347 0
 905 0032 2920     		movs	r0, #41
 906 0034 FFF7FEFF 		bl	nvicDisableVector
 907              	.LVL67:
 908              		.loc 1 348 0
 909 0038 2A20     		movs	r0, #42
 910 003a FFF7FEFF 		bl	nvicDisableVector
 911              	.LVL68:
 912              		.loc 1 349 0
 913 003e 3E20     		movs	r0, #62
 914 0040 FFF7FEFF 		bl	nvicDisableVector
 915              	.LVL69:
 916              		.loc 1 351 0
 917 0044 4C20     		movs	r0, #76
 918 0046 FFF7FEFF 		bl	nvicDisableVector
 919              	.LVL70:
 920              		.loc 1 352 0
 921 004a 0220     		movs	r0, #2
 922 004c FFF7FEFF 		bl	nvicDisableVector
 923              	.LVL71:
 924              		.loc 1 354 0
 925 0050 0320     		movs	r0, #3
 926              		.loc 1 355 0
 927 0052 BDE80840 		pop	{r3, lr}
 928              		.loc 1 354 0
 929 0056 FFF7FEBF 		b	nvicDisableVector
 930              	.LVL72:
 931              		.cfi_endproc
 932              	.LFE133:
 933              		.size	ext_lld_exti_irq_disable, .-ext_lld_exti_irq_disable
 934 005a 00BFAFF3 		.text
 934      0080
 935              	.Letext0:
 936              		.file 2 "c:\\chibistudio\\tools\\gnu tools arm embedded\\4.7 2014q2\\bin\\../lib/gcc/arm-none-eabi
 937              		.file 3 "../../chibios/os/hal/platforms/STM32F4xx/stm32f4xx.h"
 938              		.file 4 "../../chibios/os/hal/include/ext.h"
 939              		.file 5 "../../chibios/os/hal/platforms/STM32/ext_lld.h"
 940              		.file 6 "../../chibios/os/ports/common/ARMCMx/CMSIS/include/core_cm4.h"
 941              		.file 7 "../../chibios/os/ports/GCC/ARMCMx/chcore_v7m.h"
 942              		.file 8 "../../chibios/os/ports/common/ARMCMx/nvic.h"
 943              		.section	.debug_info,"",%progbits
 944              	.Ldebug_info0:
 945 0000 AE0A0000 		.4byte	0xaae
 946 0004 0200     		.2byte	0x2
 947 0006 00000000 		.4byte	.Ldebug_abbrev0
 948 000a 04       		.byte	0x4
 949 000b 01       		.uleb128 0x1
ARM GAS  C:\Users\Mohamad\AppData\Local\Temp\cc1kb5sj.s 			page 18


 950 000c 4B040000 		.4byte	.LASF139
 951 0010 01       		.byte	0x1
 952 0011 F6010000 		.4byte	.LASF140
 953 0015 08060000 		.4byte	.LASF141
 954 0019 00000000 		.4byte	.Ldebug_ranges0+0
 955 001d 00000000 		.4byte	0
 956 0021 00000000 		.4byte	0
 957 0025 00000000 		.4byte	.Ldebug_line0
 958 0029 02       		.uleb128 0x2
 959 002a 04       		.byte	0x4
 960 002b 05       		.byte	0x5
 961 002c 696E7400 		.ascii	"int\000"
 962 0030 03       		.uleb128 0x3
 963 0031 04       		.byte	0x4
 964 0032 07       		.byte	0x7
 965 0033 58020000 		.4byte	.LASF0
 966 0037 03       		.uleb128 0x3
 967 0038 01       		.byte	0x1
 968 0039 06       		.byte	0x6
 969 003a 10010000 		.4byte	.LASF1
 970 003e 03       		.uleb128 0x3
 971 003f 01       		.byte	0x1
 972 0040 08       		.byte	0x8
 973 0041 6E050000 		.4byte	.LASF2
 974 0045 03       		.uleb128 0x3
 975 0046 02       		.byte	0x2
 976 0047 05       		.byte	0x5
 977 0048 C5050000 		.4byte	.LASF3
 978 004c 03       		.uleb128 0x3
 979 004d 02       		.byte	0x2
 980 004e 07       		.byte	0x7
 981 004f EC020000 		.4byte	.LASF4
 982 0053 04       		.uleb128 0x4
 983 0054 66050000 		.4byte	.LASF6
 984 0058 02       		.byte	0x2
 985 0059 4F       		.byte	0x4f
 986 005a 5E000000 		.4byte	0x5e
 987 005e 03       		.uleb128 0x3
 988 005f 04       		.byte	0x4
 989 0060 05       		.byte	0x5
 990 0061 4B010000 		.4byte	.LASF5
 991 0065 04       		.uleb128 0x4
 992 0066 2C060000 		.4byte	.LASF7
 993 006a 02       		.byte	0x2
 994 006b 50       		.byte	0x50
 995 006c 70000000 		.4byte	0x70
 996 0070 03       		.uleb128 0x3
 997 0071 04       		.byte	0x4
 998 0072 07       		.byte	0x7
 999 0073 B1020000 		.4byte	.LASF8
 1000 0077 03       		.uleb128 0x3
 1001 0078 08       		.byte	0x8
 1002 0079 05       		.byte	0x5
 1003 007a 02010000 		.4byte	.LASF9
 1004 007e 03       		.uleb128 0x3
 1005 007f 08       		.byte	0x8
 1006 0080 07       		.byte	0x7
ARM GAS  C:\Users\Mohamad\AppData\Local\Temp\cc1kb5sj.s 			page 19


 1007 0081 85000000 		.4byte	.LASF10
 1008 0085 03       		.uleb128 0x3
 1009 0086 01       		.byte	0x1
 1010 0087 02       		.byte	0x2
 1011 0088 60050000 		.4byte	.LASF11
 1012 008c 05       		.uleb128 0x5
 1013 008d 65000000 		.4byte	0x65
 1014 0091 03       		.uleb128 0x3
 1015 0092 04       		.byte	0x4
 1016 0093 07       		.byte	0x7
 1017 0094 C0030000 		.4byte	.LASF12
 1018 0098 03       		.uleb128 0x3
 1019 0099 01       		.byte	0x1
 1020 009a 08       		.byte	0x8
 1021 009b 7E060000 		.4byte	.LASF13
 1022 009f 06       		.uleb128 0x6
 1023 00a0 B2030000 		.4byte	.LASF142
 1024 00a4 01       		.byte	0x1
 1025 00a5 03       		.byte	0x3
 1026 00a6 AA       		.byte	0xaa
 1027 00a7 DA020000 		.4byte	0x2da
 1028 00ab 07       		.uleb128 0x7
 1029 00ac C4060000 		.4byte	.LASF14
 1030 00b0 72       		.sleb128 -14
 1031 00b1 07       		.uleb128 0x7
 1032 00b2 8E020000 		.4byte	.LASF15
 1033 00b6 74       		.sleb128 -12
 1034 00b7 07       		.uleb128 0x7
 1035 00b8 D7010000 		.4byte	.LASF16
 1036 00bc 75       		.sleb128 -11
 1037 00bd 07       		.uleb128 0x7
 1038 00be 41060000 		.4byte	.LASF17
 1039 00c2 76       		.sleb128 -10
 1040 00c3 07       		.uleb128 0x7
 1041 00c4 E0020000 		.4byte	.LASF18
 1042 00c8 7B       		.sleb128 -5
 1043 00c9 07       		.uleb128 0x7
 1044 00ca 5D070000 		.4byte	.LASF19
 1045 00ce 7C       		.sleb128 -4
 1046 00cf 07       		.uleb128 0x7
 1047 00d0 B8010000 		.4byte	.LASF20
 1048 00d4 7E       		.sleb128 -2
 1049 00d5 07       		.uleb128 0x7
 1050 00d6 63030000 		.4byte	.LASF21
 1051 00da 7F       		.sleb128 -1
 1052 00db 07       		.uleb128 0x7
 1053 00dc D0000000 		.4byte	.LASF22
 1054 00e0 00       		.sleb128 0
 1055 00e1 07       		.uleb128 0x7
 1056 00e2 0E000000 		.4byte	.LASF23
 1057 00e6 01       		.sleb128 1
 1058 00e7 07       		.uleb128 0x7
 1059 00e8 E4040000 		.4byte	.LASF24
 1060 00ec 02       		.sleb128 2
 1061 00ed 07       		.uleb128 0x7
 1062 00ee C2000000 		.4byte	.LASF25
 1063 00f2 03       		.sleb128 3
ARM GAS  C:\Users\Mohamad\AppData\Local\Temp\cc1kb5sj.s 			page 20


 1064 00f3 07       		.uleb128 0x7
 1065 00f4 FD050000 		.4byte	.LASF26
 1066 00f8 04       		.sleb128 4
 1067 00f9 07       		.uleb128 0x7
 1068 00fa B9070000 		.4byte	.LASF27
 1069 00fe 05       		.sleb128 5
 1070 00ff 07       		.uleb128 0x7
 1071 0100 17070000 		.4byte	.LASF28
 1072 0104 06       		.sleb128 6
 1073 0105 07       		.uleb128 0x7
 1074 0106 DD070000 		.4byte	.LASF29
 1075 010a 07       		.sleb128 7
 1076 010b 07       		.uleb128 0x7
 1077 010c F2050000 		.4byte	.LASF30
 1078 0110 08       		.sleb128 8
 1079 0111 07       		.uleb128 0x7
 1080 0112 22070000 		.4byte	.LASF31
 1081 0116 09       		.sleb128 9
 1082 0117 07       		.uleb128 0x7
 1083 0118 AC050000 		.4byte	.LASF32
 1084 011c 0A       		.sleb128 10
 1085 011d 07       		.uleb128 0x7
 1086 011e E8070000 		.4byte	.LASF33
 1087 0122 0B       		.sleb128 11
 1088 0123 07       		.uleb128 0x7
 1089 0124 3D030000 		.4byte	.LASF34
 1090 0128 0C       		.sleb128 12
 1091 0129 07       		.uleb128 0x7
 1092 012a 9E040000 		.4byte	.LASF35
 1093 012e 0D       		.sleb128 13
 1094 012f 07       		.uleb128 0x7
 1095 0130 65020000 		.4byte	.LASF36
 1096 0134 0E       		.sleb128 14
 1097 0135 07       		.uleb128 0x7
 1098 0136 11040000 		.4byte	.LASF37
 1099 013a 0F       		.sleb128 15
 1100 013b 07       		.uleb128 0x7
 1101 013c 61010000 		.4byte	.LASF38
 1102 0140 10       		.sleb128 16
 1103 0141 07       		.uleb128 0x7
 1104 0142 77020000 		.4byte	.LASF39
 1105 0146 11       		.sleb128 17
 1106 0147 07       		.uleb128 0x7
 1107 0148 7C070000 		.4byte	.LASF40
 1108 014c 12       		.sleb128 18
 1109 014d 07       		.uleb128 0x7
 1110 014e 17030000 		.4byte	.LASF41
 1111 0152 13       		.sleb128 19
 1112 0153 07       		.uleb128 0x7
 1113 0154 00000000 		.4byte	.LASF42
 1114 0158 14       		.sleb128 20
 1115 0159 07       		.uleb128 0x7
 1116 015a 77000000 		.4byte	.LASF43
 1117 015e 15       		.sleb128 21
 1118 015f 07       		.uleb128 0x7
 1119 0160 9D070000 		.4byte	.LASF44
 1120 0164 16       		.sleb128 22
ARM GAS  C:\Users\Mohamad\AppData\Local\Temp\cc1kb5sj.s 			page 21


 1121 0165 07       		.uleb128 0x7
 1122 0166 73010000 		.4byte	.LASF45
 1123 016a 17       		.sleb128 23
 1124 016b 07       		.uleb128 0x7
 1125 016c 87050000 		.4byte	.LASF46
 1126 0170 18       		.sleb128 24
 1127 0171 07       		.uleb128 0x7
 1128 0172 D4030000 		.4byte	.LASF47
 1129 0176 19       		.sleb128 25
 1130 0177 07       		.uleb128 0x7
 1131 0178 DA050000 		.4byte	.LASF48
 1132 017c 1A       		.sleb128 26
 1133 017d 07       		.uleb128 0x7
 1134 017e 70030000 		.4byte	.LASF49
 1135 0182 1B       		.sleb128 27
 1136 0183 07       		.uleb128 0x7
 1137 0184 0D070000 		.4byte	.LASF50
 1138 0188 1C       		.sleb128 28
 1139 0189 07       		.uleb128 0x7
 1140 018a D3070000 		.4byte	.LASF51
 1141 018e 1D       		.sleb128 29
 1142 018f 07       		.uleb128 0x7
 1143 0190 B8000000 		.4byte	.LASF52
 1144 0194 1E       		.sleb128 30
 1145 0195 07       		.uleb128 0x7
 1146 0196 3B000000 		.4byte	.LASF53
 1147 019a 1F       		.sleb128 31
 1148 019b 07       		.uleb128 0x7
 1149 019c D8060000 		.4byte	.LASF54
 1150 01a0 20       		.sleb128 32
 1151 01a1 07       		.uleb128 0x7
 1152 01a2 54010000 		.4byte	.LASF55
 1153 01a6 21       		.sleb128 33
 1154 01a7 07       		.uleb128 0x7
 1155 01a8 AB000000 		.4byte	.LASF56
 1156 01ac 22       		.sleb128 34
 1157 01ad 07       		.uleb128 0x7
 1158 01ae 33030000 		.4byte	.LASF57
 1159 01b2 23       		.sleb128 35
 1160 01b3 07       		.uleb128 0x7
 1161 01b4 94040000 		.4byte	.LASF58
 1162 01b8 24       		.sleb128 36
 1163 01b9 07       		.uleb128 0x7
 1164 01ba 2E050000 		.4byte	.LASF59
 1165 01be 25       		.sleb128 37
 1166 01bf 07       		.uleb128 0x7
 1167 01c0 35060000 		.4byte	.LASF60
 1168 01c4 26       		.sleb128 38
 1169 01c5 07       		.uleb128 0x7
 1170 01c6 F7060000 		.4byte	.LASF61
 1171 01ca 27       		.sleb128 39
 1172 01cb 07       		.uleb128 0x7
 1173 01cc 24030000 		.4byte	.LASF62
 1174 01d0 28       		.sleb128 40
 1175 01d1 07       		.uleb128 0x7
 1176 01d2 9C000000 		.4byte	.LASF63
 1177 01d6 29       		.sleb128 41
ARM GAS  C:\Users\Mohamad\AppData\Local\Temp\cc1kb5sj.s 			page 22


 1178 01d7 07       		.uleb128 0x7
 1179 01d8 E5010000 		.4byte	.LASF64
 1180 01dc 2A       		.sleb128 42
 1181 01dd 07       		.uleb128 0x7
 1182 01de 4F030000 		.4byte	.LASF65
 1183 01e2 2B       		.sleb128 43
 1184 01e3 07       		.uleb128 0x7
 1185 01e4 C4010000 		.4byte	.LASF66
 1186 01e8 2C       		.sleb128 44
 1187 01e9 07       		.uleb128 0x7
 1188 01ea 7D030000 		.4byte	.LASF67
 1189 01ee 2D       		.sleb128 45
 1190 01ef 07       		.uleb128 0x7
 1191 01f0 F5000000 		.4byte	.LASF68
 1192 01f4 2E       		.sleb128 46
 1193 01f5 07       		.uleb128 0x7
 1194 01f6 6C060000 		.4byte	.LASF69
 1195 01fa 2F       		.sleb128 47
 1196 01fb 07       		.uleb128 0x7
 1197 01fc 56050000 		.4byte	.LASF70
 1198 0200 30       		.sleb128 48
 1199 0201 07       		.uleb128 0x7
 1200 0202 DA000000 		.4byte	.LASF71
 1201 0206 31       		.sleb128 49
 1202 0207 07       		.uleb128 0x7
 1203 0208 41040000 		.4byte	.LASF72
 1204 020c 32       		.sleb128 50
 1205 020d 07       		.uleb128 0x7
 1206 020e 3A050000 		.4byte	.LASF73
 1207 0212 33       		.sleb128 51
 1208 0213 07       		.uleb128 0x7
 1209 0214 9C010000 		.4byte	.LASF74
 1210 0218 34       		.sleb128 52
 1211 0219 07       		.uleb128 0x7
 1212 021a CF050000 		.4byte	.LASF75
 1213 021e 35       		.sleb128 53
 1214 021f 07       		.uleb128 0x7
 1215 0220 8E010000 		.4byte	.LASF76
 1216 0224 36       		.sleb128 54
 1217 0225 07       		.uleb128 0x7
 1218 0226 A7060000 		.4byte	.LASF77
 1219 022a 37       		.sleb128 55
 1220 022b 07       		.uleb128 0x7
 1221 022c E5060000 		.4byte	.LASF78
 1222 0230 38       		.sleb128 56
 1223 0231 07       		.uleb128 0x7
 1224 0232 85070000 		.4byte	.LASF79
 1225 0236 39       		.sleb128 57
 1226 0237 07       		.uleb128 0x7
 1227 0238 23040000 		.4byte	.LASF80
 1228 023c 3A       		.sleb128 58
 1229 023d 07       		.uleb128 0x7
 1230 023e FF030000 		.4byte	.LASF81
 1231 0242 3B       		.sleb128 59
 1232 0243 07       		.uleb128 0x7
 1233 0244 44050000 		.4byte	.LASF82
 1234 0248 3C       		.sleb128 60
ARM GAS  C:\Users\Mohamad\AppData\Local\Temp\cc1kb5sj.s 			page 23


 1235 0249 07       		.uleb128 0x7
 1236 024a A9030000 		.4byte	.LASF83
 1237 024e 3D       		.sleb128 61
 1238 024f 07       		.uleb128 0x7
 1239 0250 80010000 		.4byte	.LASF84
 1240 0254 3E       		.sleb128 62
 1241 0255 07       		.uleb128 0x7
 1242 0256 B0040000 		.4byte	.LASF85
 1243 025a 3F       		.sleb128 63
 1244 025b 07       		.uleb128 0x7
 1245 025c 17000000 		.4byte	.LASF86
 1246 0260 C000     		.sleb128 64
 1247 0262 07       		.uleb128 0x7
 1248 0263 1C010000 		.4byte	.LASF87
 1249 0267 C100     		.sleb128 65
 1250 0269 07       		.uleb128 0x7
 1251 026a AB070000 		.4byte	.LASF88
 1252 026e C200     		.sleb128 66
 1253 0270 07       		.uleb128 0x7
 1254 0271 BD040000 		.4byte	.LASF89
 1255 0275 C300     		.sleb128 67
 1256 0277 07       		.uleb128 0x7
 1257 0278 55000000 		.4byte	.LASF90
 1258 027c C400     		.sleb128 68
 1259 027e 07       		.uleb128 0x7
 1260 027f 2A010000 		.4byte	.LASF91
 1261 0283 C500     		.sleb128 69
 1262 0285 07       		.uleb128 0x7
 1263 0286 2D020000 		.4byte	.LASF92
 1264 028a C600     		.sleb128 70
 1265 028c 07       		.uleb128 0x7
 1266 028d 35040000 		.4byte	.LASF93
 1267 0291 C700     		.sleb128 71
 1268 0293 07       		.uleb128 0x7
 1269 0294 A4020000 		.4byte	.LASF94
 1270 0298 C800     		.sleb128 72
 1271 029a 07       		.uleb128 0x7
 1272 029b 2E000000 		.4byte	.LASF95
 1273 029f C900     		.sleb128 73
 1274 02a1 07       		.uleb128 0x7
 1275 02a2 CC020000 		.4byte	.LASF96
 1276 02a6 CA00     		.sleb128 74
 1277 02a8 07       		.uleb128 0x7
 1278 02a9 B1060000 		.4byte	.LASF97
 1279 02ad CB00     		.sleb128 75
 1280 02af 07       		.uleb128 0x7
 1281 02b0 C2070000 		.4byte	.LASF98
 1282 02b4 CC00     		.sleb128 76
 1283 02b6 07       		.uleb128 0x7
 1284 02b7 F4040000 		.4byte	.LASF99
 1285 02bb CD00     		.sleb128 77
 1286 02bd 07       		.uleb128 0x7
 1287 02be 40070000 		.4byte	.LASF100
 1288 02c2 CE00     		.sleb128 78
 1289 02c4 07       		.uleb128 0x7
 1290 02c5 88060000 		.4byte	.LASF101
 1291 02c9 CF00     		.sleb128 79
ARM GAS  C:\Users\Mohamad\AppData\Local\Temp\cc1kb5sj.s 			page 24


 1292 02cb 07       		.uleb128 0x7
 1293 02cc B7050000 		.4byte	.LASF102
 1294 02d0 D000     		.sleb128 80
 1295 02d2 07       		.uleb128 0x7
 1296 02d3 54070000 		.4byte	.LASF103
 1297 02d7 D100     		.sleb128 81
 1298 02d9 00       		.byte	0
 1299 02da 05       		.uleb128 0x5
 1300 02db 53000000 		.4byte	0x53
 1301 02df 08       		.uleb128 0x8
 1302 02e0 18       		.byte	0x18
 1303 02e1 03       		.byte	0x3
 1304 02e2 3003     		.2byte	0x330
 1305 02e4 42030000 		.4byte	0x342
 1306 02e8 09       		.uleb128 0x9
 1307 02e9 494D5200 		.ascii	"IMR\000"
 1308 02ed 03       		.byte	0x3
 1309 02ee 3203     		.2byte	0x332
 1310 02f0 8C000000 		.4byte	0x8c
 1311 02f4 02       		.byte	0x2
 1312 02f5 23       		.byte	0x23
 1313 02f6 00       		.uleb128 0
 1314 02f7 09       		.uleb128 0x9
 1315 02f8 454D5200 		.ascii	"EMR\000"
 1316 02fc 03       		.byte	0x3
 1317 02fd 3303     		.2byte	0x333
 1318 02ff 8C000000 		.4byte	0x8c
 1319 0303 02       		.byte	0x2
 1320 0304 23       		.byte	0x23
 1321 0305 04       		.uleb128 0x4
 1322 0306 0A       		.uleb128 0xa
 1323 0307 89020000 		.4byte	.LASF104
 1324 030b 03       		.byte	0x3
 1325 030c 3403     		.2byte	0x334
 1326 030e 8C000000 		.4byte	0x8c
 1327 0312 02       		.byte	0x2
 1328 0313 23       		.byte	0x23
 1329 0314 08       		.uleb128 0x8
 1330 0315 0A       		.uleb128 0xa
 1331 0316 A7050000 		.4byte	.LASF105
 1332 031a 03       		.byte	0x3
 1333 031b 3503     		.2byte	0x335
 1334 031d 8C000000 		.4byte	0x8c
 1335 0321 02       		.byte	0x2
 1336 0322 23       		.byte	0x23
 1337 0323 0C       		.uleb128 0xc
 1338 0324 0A       		.uleb128 0xa
 1339 0325 67000000 		.4byte	.LASF106
 1340 0329 03       		.byte	0x3
 1341 032a 3603     		.2byte	0x336
 1342 032c 8C000000 		.4byte	0x8c
 1343 0330 02       		.byte	0x2
 1344 0331 23       		.byte	0x23
 1345 0332 10       		.uleb128 0x10
 1346 0333 09       		.uleb128 0x9
 1347 0334 505200   		.ascii	"PR\000"
 1348 0337 03       		.byte	0x3
ARM GAS  C:\Users\Mohamad\AppData\Local\Temp\cc1kb5sj.s 			page 25


 1349 0338 3703     		.2byte	0x337
 1350 033a 8C000000 		.4byte	0x8c
 1351 033e 02       		.byte	0x2
 1352 033f 23       		.byte	0x23
 1353 0340 14       		.uleb128 0x14
 1354 0341 00       		.byte	0
 1355 0342 0B       		.uleb128 0xb
 1356 0343 6F070000 		.4byte	.LASF107
 1357 0347 03       		.byte	0x3
 1358 0348 3803     		.2byte	0x338
 1359 034a DF020000 		.4byte	0x2df
 1360 034e 0C       		.uleb128 0xc
 1361 034f 01       		.byte	0x1
 1362 0350 04       		.byte	0x4
 1363 0351 4A       		.byte	0x4a
 1364 0352 69030000 		.4byte	0x369
 1365 0356 07       		.uleb128 0x7
 1366 0357 7C050000 		.4byte	.LASF108
 1367 035b 00       		.sleb128 0
 1368 035c 07       		.uleb128 0x7
 1369 035d 63060000 		.4byte	.LASF109
 1370 0361 01       		.sleb128 1
 1371 0362 07       		.uleb128 0x7
 1372 0363 95030000 		.4byte	.LASF110
 1373 0367 02       		.sleb128 2
 1374 0368 00       		.byte	0
 1375 0369 04       		.uleb128 0x4
 1376 036a C9030000 		.4byte	.LASF111
 1377 036e 04       		.byte	0x4
 1378 036f 4E       		.byte	0x4e
 1379 0370 4E030000 		.4byte	0x34e
 1380 0374 04       		.uleb128 0x4
 1381 0375 03070000 		.4byte	.LASF112
 1382 0379 04       		.byte	0x4
 1383 037a 53       		.byte	0x53
 1384 037b 7F030000 		.4byte	0x37f
 1385 037f 0D       		.uleb128 0xd
 1386 0380 03070000 		.4byte	.LASF112
 1387 0384 08       		.byte	0x8
 1388 0385 05       		.byte	0x5
 1389 0386 71       		.byte	0x71
 1390 0387 A8030000 		.4byte	0x3a8
 1391 038b 0E       		.uleb128 0xe
 1392 038c 3C010000 		.4byte	.LASF113
 1393 0390 05       		.byte	0x5
 1394 0391 75       		.byte	0x75
 1395 0392 69030000 		.4byte	0x369
 1396 0396 02       		.byte	0x2
 1397 0397 23       		.byte	0x23
 1398 0398 00       		.uleb128 0
 1399 0399 0E       		.uleb128 0xe
 1400 039a 92060000 		.4byte	.LASF114
 1401 039e 05       		.byte	0x5
 1402 039f 79       		.byte	0x79
 1403 03a0 3C040000 		.4byte	0x43c
 1404 03a4 02       		.byte	0x2
 1405 03a5 23       		.byte	0x23
ARM GAS  C:\Users\Mohamad\AppData\Local\Temp\cc1kb5sj.s 			page 26


 1406 03a6 04       		.uleb128 0x4
 1407 03a7 00       		.byte	0
 1408 03a8 04       		.uleb128 0x4
 1409 03a9 48000000 		.4byte	.LASF115
 1410 03ad 05       		.byte	0x5
 1411 03ae 47       		.byte	0x47
 1412 03af 65000000 		.4byte	0x65
 1413 03b3 04       		.uleb128 0x4
 1414 03b4 99060000 		.4byte	.LASF116
 1415 03b8 05       		.byte	0x5
 1416 03b9 4F       		.byte	0x4f
 1417 03ba BE030000 		.4byte	0x3be
 1418 03be 0F       		.uleb128 0xf
 1419 03bf 04       		.byte	0x4
 1420 03c0 C4030000 		.4byte	0x3c4
 1421 03c4 10       		.uleb128 0x10
 1422 03c5 01       		.byte	0x1
 1423 03c6 D5030000 		.4byte	0x3d5
 1424 03ca 11       		.uleb128 0x11
 1425 03cb D5030000 		.4byte	0x3d5
 1426 03cf 11       		.uleb128 0x11
 1427 03d0 A8030000 		.4byte	0x3a8
 1428 03d4 00       		.byte	0
 1429 03d5 0F       		.uleb128 0xf
 1430 03d6 04       		.byte	0x4
 1431 03d7 74030000 		.4byte	0x374
 1432 03db 12       		.uleb128 0x12
 1433 03dc 08       		.byte	0x8
 1434 03dd 05       		.byte	0x5
 1435 03de 54       		.byte	0x54
 1436 03df FF030000 		.4byte	0x3ff
 1437 03e3 0E       		.uleb128 0xe
 1438 03e4 83060000 		.4byte	.LASF117
 1439 03e8 05       		.byte	0x5
 1440 03e9 58       		.byte	0x58
 1441 03ea 65000000 		.4byte	0x65
 1442 03ee 02       		.byte	0x2
 1443 03ef 23       		.byte	0x23
 1444 03f0 00       		.uleb128 0
 1445 03f1 13       		.uleb128 0x13
 1446 03f2 636200   		.ascii	"cb\000"
 1447 03f5 05       		.byte	0x5
 1448 03f6 5F       		.byte	0x5f
 1449 03f7 B3030000 		.4byte	0x3b3
 1450 03fb 02       		.byte	0x2
 1451 03fc 23       		.byte	0x23
 1452 03fd 04       		.uleb128 0x4
 1453 03fe 00       		.byte	0
 1454 03ff 04       		.uleb128 0x4
 1455 0400 A7010000 		.4byte	.LASF118
 1456 0404 05       		.byte	0x5
 1457 0405 60       		.byte	0x60
 1458 0406 DB030000 		.4byte	0x3db
 1459 040a 12       		.uleb128 0x12
 1460 040b B8       		.byte	0xb8
 1461 040c 05       		.byte	0x5
 1462 040d 66       		.byte	0x66
ARM GAS  C:\Users\Mohamad\AppData\Local\Temp\cc1kb5sj.s 			page 27


 1463 040e 21040000 		.4byte	0x421
 1464 0412 0E       		.uleb128 0xe
 1465 0413 42010000 		.4byte	.LASF119
 1466 0417 05       		.byte	0x5
 1467 0418 6A       		.byte	0x6a
 1468 0419 21040000 		.4byte	0x421
 1469 041d 02       		.byte	0x2
 1470 041e 23       		.byte	0x23
 1471 041f 00       		.uleb128 0
 1472 0420 00       		.byte	0
 1473 0421 14       		.uleb128 0x14
 1474 0422 FF030000 		.4byte	0x3ff
 1475 0426 31040000 		.4byte	0x431
 1476 042a 15       		.uleb128 0x15
 1477 042b 91000000 		.4byte	0x91
 1478 042f 16       		.byte	0x16
 1479 0430 00       		.byte	0
 1480 0431 04       		.uleb128 0x4
 1481 0432 4A070000 		.4byte	.LASF120
 1482 0436 05       		.byte	0x5
 1483 0437 6C       		.byte	0x6c
 1484 0438 0A040000 		.4byte	0x40a
 1485 043c 0F       		.uleb128 0xf
 1486 043d 04       		.byte	0x4
 1487 043e 42040000 		.4byte	0x442
 1488 0442 16       		.uleb128 0x16
 1489 0443 31040000 		.4byte	0x431
 1490 0447 17       		.uleb128 0x17
 1491 0448 01       		.byte	0x1
 1492 0449 A0030000 		.4byte	.LASF121
 1493 044d 01       		.byte	0x1
 1494 044e 39       		.byte	0x39
 1495 044f 01       		.byte	0x1
 1496 0450 00000000 		.4byte	.LFB118
 1497 0454 26000000 		.4byte	.LFE118
 1498 0458 00000000 		.4byte	.LLST0
 1499 045c 01       		.byte	0x1
 1500 045d 7B040000 		.4byte	0x47b
 1501 0461 18       		.uleb128 0x18
 1502 0462 1E000000 		.4byte	.LVL0
 1503 0466 70040000 		.4byte	0x470
 1504 046a 19       		.uleb128 0x19
 1505 046b 01       		.byte	0x1
 1506 046c 51       		.byte	0x51
 1507 046d 01       		.byte	0x1
 1508 046e 30       		.byte	0x30
 1509 046f 00       		.byte	0
 1510 0470 1A       		.uleb128 0x1a
 1511 0471 26000000 		.4byte	.LVL1
 1512 0475 01       		.byte	0x1
 1513 0476 7B0A0000 		.4byte	0xa7b
 1514 047a 00       		.byte	0
 1515 047b 17       		.uleb128 0x17
 1516 047c 01       		.byte	0x1
 1517 047d B7030000 		.4byte	.LASF122
 1518 0481 01       		.byte	0x1
 1519 0482 48       		.byte	0x48
ARM GAS  C:\Users\Mohamad\AppData\Local\Temp\cc1kb5sj.s 			page 28


 1520 0483 01       		.byte	0x1
 1521 0484 00000000 		.4byte	.LFB119
 1522 0488 26000000 		.4byte	.LFE119
 1523 048c 20000000 		.4byte	.LLST1
 1524 0490 01       		.byte	0x1
 1525 0491 AF040000 		.4byte	0x4af
 1526 0495 18       		.uleb128 0x18
 1527 0496 1E000000 		.4byte	.LVL2
 1528 049a A4040000 		.4byte	0x4a4
 1529 049e 19       		.uleb128 0x19
 1530 049f 01       		.byte	0x1
 1531 04a0 51       		.byte	0x51
 1532 04a1 01       		.byte	0x1
 1533 04a2 31       		.byte	0x31
 1534 04a3 00       		.byte	0
 1535 04a4 1A       		.uleb128 0x1a
 1536 04a5 26000000 		.4byte	.LVL3
 1537 04a9 01       		.byte	0x1
 1538 04aa 7B0A0000 		.4byte	0xa7b
 1539 04ae 00       		.byte	0
 1540 04af 17       		.uleb128 0x17
 1541 04b0 01       		.byte	0x1
 1542 04b1 13050000 		.4byte	.LASF123
 1543 04b5 01       		.byte	0x1
 1544 04b6 57       		.byte	0x57
 1545 04b7 01       		.byte	0x1
 1546 04b8 00000000 		.4byte	.LFB120
 1547 04bc 26000000 		.4byte	.LFE120
 1548 04c0 40000000 		.4byte	.LLST2
 1549 04c4 01       		.byte	0x1
 1550 04c5 E3040000 		.4byte	0x4e3
 1551 04c9 18       		.uleb128 0x18
 1552 04ca 1E000000 		.4byte	.LVL4
 1553 04ce D8040000 		.4byte	0x4d8
 1554 04d2 19       		.uleb128 0x19
 1555 04d3 01       		.byte	0x1
 1556 04d4 51       		.byte	0x51
 1557 04d5 01       		.byte	0x1
 1558 04d6 32       		.byte	0x32
 1559 04d7 00       		.byte	0
 1560 04d8 1A       		.uleb128 0x1a
 1561 04d9 26000000 		.4byte	.LVL5
 1562 04dd 01       		.byte	0x1
 1563 04de 7B0A0000 		.4byte	0xa7b
 1564 04e2 00       		.byte	0
 1565 04e3 17       		.uleb128 0x17
 1566 04e4 01       		.byte	0x1
 1567 04e5 1C050000 		.4byte	.LASF124
 1568 04e9 01       		.byte	0x1
 1569 04ea 66       		.byte	0x66
 1570 04eb 01       		.byte	0x1
 1571 04ec 00000000 		.4byte	.LFB121
 1572 04f0 26000000 		.4byte	.LFE121
 1573 04f4 60000000 		.4byte	.LLST3
 1574 04f8 01       		.byte	0x1
 1575 04f9 17050000 		.4byte	0x517
 1576 04fd 18       		.uleb128 0x18
ARM GAS  C:\Users\Mohamad\AppData\Local\Temp\cc1kb5sj.s 			page 29


 1577 04fe 1E000000 		.4byte	.LVL6
 1578 0502 0C050000 		.4byte	0x50c
 1579 0506 19       		.uleb128 0x19
 1580 0507 01       		.byte	0x1
 1581 0508 51       		.byte	0x51
 1582 0509 01       		.byte	0x1
 1583 050a 33       		.byte	0x33
 1584 050b 00       		.byte	0
 1585 050c 1A       		.uleb128 0x1a
 1586 050d 26000000 		.4byte	.LVL7
 1587 0511 01       		.byte	0x1
 1588 0512 7B0A0000 		.4byte	0xa7b
 1589 0516 00       		.byte	0
 1590 0517 17       		.uleb128 0x17
 1591 0518 01       		.byte	0x1
 1592 0519 25050000 		.4byte	.LASF125
 1593 051d 01       		.byte	0x1
 1594 051e 75       		.byte	0x75
 1595 051f 01       		.byte	0x1
 1596 0520 00000000 		.4byte	.LFB122
 1597 0524 26000000 		.4byte	.LFE122
 1598 0528 80000000 		.4byte	.LLST4
 1599 052c 01       		.byte	0x1
 1600 052d 4B050000 		.4byte	0x54b
 1601 0531 18       		.uleb128 0x18
 1602 0532 1E000000 		.4byte	.LVL8
 1603 0536 40050000 		.4byte	0x540
 1604 053a 19       		.uleb128 0x19
 1605 053b 01       		.byte	0x1
 1606 053c 51       		.byte	0x51
 1607 053d 01       		.byte	0x1
 1608 053e 34       		.byte	0x34
 1609 053f 00       		.byte	0
 1610 0540 1A       		.uleb128 0x1a
 1611 0541 26000000 		.4byte	.LVL9
 1612 0545 01       		.byte	0x1
 1613 0546 7B0A0000 		.4byte	0xa7b
 1614 054a 00       		.byte	0
 1615 054b 17       		.uleb128 0x17
 1616 054c 01       		.byte	0x1
 1617 054d 25000000 		.4byte	.LASF126
 1618 0551 01       		.byte	0x1
 1619 0552 84       		.byte	0x84
 1620 0553 01       		.byte	0x1
 1621 0554 00000000 		.4byte	.LFB123
 1622 0558 6C000000 		.4byte	.LFE123
 1623 055c A0000000 		.4byte	.LLST5
 1624 0560 01       		.byte	0x1
 1625 0561 C5050000 		.4byte	0x5c5
 1626 0565 1B       		.uleb128 0x1b
 1627 0566 707200   		.ascii	"pr\000"
 1628 0569 01       		.byte	0x1
 1629 056a 85       		.byte	0x85
 1630 056b 65000000 		.4byte	0x65
 1631 056f C0000000 		.4byte	.LLST6
 1632 0573 18       		.uleb128 0x18
 1633 0574 30000000 		.4byte	.LVL12
ARM GAS  C:\Users\Mohamad\AppData\Local\Temp\cc1kb5sj.s 			page 30


 1634 0578 82050000 		.4byte	0x582
 1635 057c 19       		.uleb128 0x19
 1636 057d 01       		.byte	0x1
 1637 057e 51       		.byte	0x51
 1638 057f 01       		.byte	0x1
 1639 0580 39       		.byte	0x39
 1640 0581 00       		.byte	0
 1641 0582 1A       		.uleb128 0x1a
 1642 0583 38000000 		.4byte	.LVL13
 1643 0587 01       		.byte	0x1
 1644 0588 7B0A0000 		.4byte	0xa7b
 1645 058c 18       		.uleb128 0x18
 1646 058d 42000000 		.4byte	.LVL14
 1647 0591 9B050000 		.4byte	0x59b
 1648 0595 19       		.uleb128 0x19
 1649 0596 01       		.byte	0x1
 1650 0597 51       		.byte	0x51
 1651 0598 01       		.byte	0x1
 1652 0599 38       		.byte	0x38
 1653 059a 00       		.byte	0
 1654 059b 18       		.uleb128 0x18
 1655 059c 4E000000 		.4byte	.LVL15
 1656 05a0 AA050000 		.4byte	0x5aa
 1657 05a4 19       		.uleb128 0x19
 1658 05a5 01       		.byte	0x1
 1659 05a6 51       		.byte	0x51
 1660 05a7 01       		.byte	0x1
 1661 05a8 37       		.byte	0x37
 1662 05a9 00       		.byte	0
 1663 05aa 18       		.uleb128 0x18
 1664 05ab 5A000000 		.4byte	.LVL16
 1665 05af B9050000 		.4byte	0x5b9
 1666 05b3 19       		.uleb128 0x19
 1667 05b4 01       		.byte	0x1
 1668 05b5 51       		.byte	0x51
 1669 05b6 01       		.byte	0x1
 1670 05b7 36       		.byte	0x36
 1671 05b8 00       		.byte	0
 1672 05b9 1C       		.uleb128 0x1c
 1673 05ba 66000000 		.4byte	.LVL18
 1674 05be 19       		.uleb128 0x19
 1675 05bf 01       		.byte	0x1
 1676 05c0 51       		.byte	0x51
 1677 05c1 01       		.byte	0x1
 1678 05c2 35       		.byte	0x35
 1679 05c3 00       		.byte	0
 1680 05c4 00       		.byte	0
 1681 05c5 17       		.uleb128 0x17
 1682 05c6 01       		.byte	0x1
 1683 05c7 D2040000 		.4byte	.LASF127
 1684 05cb 01       		.byte	0x1
 1685 05cc 9E       		.byte	0x9e
 1686 05cd 01       		.byte	0x1
 1687 05ce 00000000 		.4byte	.LFB124
 1688 05d2 7C000000 		.4byte	.LFE124
 1689 05d6 00010000 		.4byte	.LLST7
 1690 05da 01       		.byte	0x1
ARM GAS  C:\Users\Mohamad\AppData\Local\Temp\cc1kb5sj.s 			page 31


 1691 05db 4E060000 		.4byte	0x64e
 1692 05df 1B       		.uleb128 0x1b
 1693 05e0 707200   		.ascii	"pr\000"
 1694 05e3 01       		.byte	0x1
 1695 05e4 9F       		.byte	0x9f
 1696 05e5 65000000 		.4byte	0x65
 1697 05e9 20010000 		.4byte	.LLST8
 1698 05ed 18       		.uleb128 0x18
 1699 05ee 34000000 		.4byte	.LVL22
 1700 05f2 FC050000 		.4byte	0x5fc
 1701 05f6 19       		.uleb128 0x19
 1702 05f7 01       		.byte	0x1
 1703 05f8 51       		.byte	0x51
 1704 05f9 01       		.byte	0x1
 1705 05fa 3F       		.byte	0x3f
 1706 05fb 00       		.byte	0
 1707 05fc 1A       		.uleb128 0x1a
 1708 05fd 3C000000 		.4byte	.LVL23
 1709 0601 01       		.byte	0x1
 1710 0602 7B0A0000 		.4byte	0xa7b
 1711 0606 18       		.uleb128 0x18
 1712 0607 46000000 		.4byte	.LVL24
 1713 060b 15060000 		.4byte	0x615
 1714 060f 19       		.uleb128 0x19
 1715 0610 01       		.byte	0x1
 1716 0611 51       		.byte	0x51
 1717 0612 01       		.byte	0x1
 1718 0613 3E       		.byte	0x3e
 1719 0614 00       		.byte	0
 1720 0615 18       		.uleb128 0x18
 1721 0616 52000000 		.4byte	.LVL25
 1722 061a 24060000 		.4byte	0x624
 1723 061e 19       		.uleb128 0x19
 1724 061f 01       		.byte	0x1
 1725 0620 51       		.byte	0x51
 1726 0621 01       		.byte	0x1
 1727 0622 3D       		.byte	0x3d
 1728 0623 00       		.byte	0
 1729 0624 18       		.uleb128 0x18
 1730 0625 5E000000 		.4byte	.LVL26
 1731 0629 33060000 		.4byte	0x633
 1732 062d 19       		.uleb128 0x19
 1733 062e 01       		.byte	0x1
 1734 062f 51       		.byte	0x51
 1735 0630 01       		.byte	0x1
 1736 0631 3C       		.byte	0x3c
 1737 0632 00       		.byte	0
 1738 0633 18       		.uleb128 0x18
 1739 0634 6A000000 		.4byte	.LVL27
 1740 0638 42060000 		.4byte	0x642
 1741 063c 19       		.uleb128 0x19
 1742 063d 01       		.byte	0x1
 1743 063e 51       		.byte	0x51
 1744 063f 01       		.byte	0x1
 1745 0640 3B       		.byte	0x3b
 1746 0641 00       		.byte	0
 1747 0642 1C       		.uleb128 0x1c
ARM GAS  C:\Users\Mohamad\AppData\Local\Temp\cc1kb5sj.s 			page 32


 1748 0643 76000000 		.4byte	.LVL30
 1749 0647 19       		.uleb128 0x19
 1750 0648 01       		.byte	0x1
 1751 0649 51       		.byte	0x51
 1752 064a 01       		.byte	0x1
 1753 064b 3A       		.byte	0x3a
 1754 064c 00       		.byte	0
 1755 064d 00       		.byte	0
 1756 064e 17       		.uleb128 0x17
 1757 064f 01       		.byte	0x1
 1758 0650 C9040000 		.4byte	.LASF128
 1759 0654 01       		.byte	0x1
 1760 0655 BB       		.byte	0xbb
 1761 0656 01       		.byte	0x1
 1762 0657 00000000 		.4byte	.LFB125
 1763 065b 2A000000 		.4byte	.LFE125
 1764 065f 6D010000 		.4byte	.LLST9
 1765 0663 01       		.byte	0x1
 1766 0664 82060000 		.4byte	0x682
 1767 0668 18       		.uleb128 0x18
 1768 0669 22000000 		.4byte	.LVL31
 1769 066d 77060000 		.4byte	0x677
 1770 0671 19       		.uleb128 0x19
 1771 0672 01       		.byte	0x1
 1772 0673 51       		.byte	0x51
 1773 0674 01       		.byte	0x1
 1774 0675 40       		.byte	0x40
 1775 0676 00       		.byte	0
 1776 0677 1A       		.uleb128 0x1a
 1777 0678 2A000000 		.4byte	.LVL32
 1778 067c 01       		.byte	0x1
 1779 067d 7B0A0000 		.4byte	0xa7b
 1780 0681 00       		.byte	0
 1781 0682 17       		.uleb128 0x17
 1782 0683 01       		.byte	0x1
 1783 0684 DB040000 		.4byte	.LASF129
 1784 0688 01       		.byte	0x1
 1785 0689 CA       		.byte	0xca
 1786 068a 01       		.byte	0x1
 1787 068b 00000000 		.4byte	.LFB126
 1788 068f 2A000000 		.4byte	.LFE126
 1789 0693 8D010000 		.4byte	.LLST10
 1790 0697 01       		.byte	0x1
 1791 0698 B6060000 		.4byte	0x6b6
 1792 069c 18       		.uleb128 0x18
 1793 069d 22000000 		.4byte	.LVL33
 1794 06a1 AB060000 		.4byte	0x6ab
 1795 06a5 19       		.uleb128 0x19
 1796 06a6 01       		.byte	0x1
 1797 06a7 51       		.byte	0x51
 1798 06a8 01       		.byte	0x1
 1799 06a9 41       		.byte	0x41
 1800 06aa 00       		.byte	0
 1801 06ab 1A       		.uleb128 0x1a
 1802 06ac 2A000000 		.4byte	.LVL34
 1803 06b0 01       		.byte	0x1
 1804 06b1 7B0A0000 		.4byte	0xa7b
ARM GAS  C:\Users\Mohamad\AppData\Local\Temp\cc1kb5sj.s 			page 33


 1805 06b5 00       		.byte	0
 1806 06b6 17       		.uleb128 0x17
 1807 06b7 01       		.byte	0x1
 1808 06b8 00050000 		.4byte	.LASF130
 1809 06bc 01       		.byte	0x1
 1810 06bd D9       		.byte	0xd9
 1811 06be 01       		.byte	0x1
 1812 06bf 00000000 		.4byte	.LFB127
 1813 06c3 2A000000 		.4byte	.LFE127
 1814 06c7 AD010000 		.4byte	.LLST11
 1815 06cb 01       		.byte	0x1
 1816 06cc EA060000 		.4byte	0x6ea
 1817 06d0 18       		.uleb128 0x18
 1818 06d1 22000000 		.4byte	.LVL35
 1819 06d5 DF060000 		.4byte	0x6df
 1820 06d9 19       		.uleb128 0x19
 1821 06da 01       		.byte	0x1
 1822 06db 51       		.byte	0x51
 1823 06dc 01       		.byte	0x1
 1824 06dd 42       		.byte	0x42
 1825 06de 00       		.byte	0
 1826 06df 1A       		.uleb128 0x1a
 1827 06e0 2A000000 		.4byte	.LVL36
 1828 06e4 01       		.byte	0x1
 1829 06e5 7B0A0000 		.4byte	0xa7b
 1830 06e9 00       		.byte	0
 1831 06ea 17       		.uleb128 0x17
 1832 06eb 01       		.byte	0x1
 1833 06ec 6D000000 		.4byte	.LASF131
 1834 06f0 01       		.byte	0x1
 1835 06f1 E8       		.byte	0xe8
 1836 06f2 01       		.byte	0x1
 1837 06f3 00000000 		.4byte	.LFB128
 1838 06f7 2A000000 		.4byte	.LFE128
 1839 06fb CD010000 		.4byte	.LLST12
 1840 06ff 01       		.byte	0x1
 1841 0700 1E070000 		.4byte	0x71e
 1842 0704 18       		.uleb128 0x18
 1843 0705 22000000 		.4byte	.LVL37
 1844 0709 13070000 		.4byte	0x713
 1845 070d 19       		.uleb128 0x19
 1846 070e 01       		.byte	0x1
 1847 070f 51       		.byte	0x51
 1848 0710 01       		.byte	0x1
 1849 0711 43       		.byte	0x43
 1850 0712 00       		.byte	0
 1851 0713 1A       		.uleb128 0x1a
 1852 0714 2A000000 		.4byte	.LVL38
 1853 0718 01       		.byte	0x1
 1854 0719 7B0A0000 		.4byte	0xa7b
 1855 071d 00       		.byte	0
 1856 071e 17       		.uleb128 0x17
 1857 071f 01       		.byte	0x1
 1858 0720 09050000 		.4byte	.LASF132
 1859 0724 01       		.byte	0x1
 1860 0725 F8       		.byte	0xf8
 1861 0726 01       		.byte	0x1
ARM GAS  C:\Users\Mohamad\AppData\Local\Temp\cc1kb5sj.s 			page 34


 1862 0727 00000000 		.4byte	.LFB129
 1863 072b 2A000000 		.4byte	.LFE129
 1864 072f ED010000 		.4byte	.LLST13
 1865 0733 01       		.byte	0x1
 1866 0734 52070000 		.4byte	0x752
 1867 0738 18       		.uleb128 0x18
 1868 0739 22000000 		.4byte	.LVL39
 1869 073d 47070000 		.4byte	0x747
 1870 0741 19       		.uleb128 0x19
 1871 0742 01       		.byte	0x1
 1872 0743 51       		.byte	0x51
 1873 0744 01       		.byte	0x1
 1874 0745 44       		.byte	0x44
 1875 0746 00       		.byte	0
 1876 0747 1A       		.uleb128 0x1a
 1877 0748 2A000000 		.4byte	.LVL40
 1878 074c 01       		.byte	0x1
 1879 074d 7B0A0000 		.4byte	0xa7b
 1880 0751 00       		.byte	0
 1881 0752 1D       		.uleb128 0x1d
 1882 0753 01       		.byte	0x1
 1883 0754 E7030000 		.4byte	.LASF133
 1884 0758 01       		.byte	0x1
 1885 0759 0701     		.2byte	0x107
 1886 075b 01       		.byte	0x1
 1887 075c 00000000 		.4byte	.LFB130
 1888 0760 2A000000 		.4byte	.LFE130
 1889 0764 0D020000 		.4byte	.LLST14
 1890 0768 01       		.byte	0x1
 1891 0769 87070000 		.4byte	0x787
 1892 076d 18       		.uleb128 0x18
 1893 076e 22000000 		.4byte	.LVL41
 1894 0772 7C070000 		.4byte	0x77c
 1895 0776 19       		.uleb128 0x19
 1896 0777 01       		.byte	0x1
 1897 0778 51       		.byte	0x51
 1898 0779 01       		.byte	0x1
 1899 077a 45       		.byte	0x45
 1900 077b 00       		.byte	0
 1901 077c 1A       		.uleb128 0x1a
 1902 077d 2A000000 		.4byte	.LVL42
 1903 0781 01       		.byte	0x1
 1904 0782 7B0A0000 		.4byte	0xa7b
 1905 0786 00       		.byte	0
 1906 0787 1D       		.uleb128 0x1d
 1907 0788 01       		.byte	0x1
 1908 0789 C3020000 		.4byte	.LASF134
 1909 078d 01       		.byte	0x1
 1910 078e 1701     		.2byte	0x117
 1911 0790 01       		.byte	0x1
 1912 0791 00000000 		.4byte	.LFB131
 1913 0795 2A000000 		.4byte	.LFE131
 1914 0799 2D020000 		.4byte	.LLST15
 1915 079d 01       		.byte	0x1
 1916 079e BC070000 		.4byte	0x7bc
 1917 07a2 18       		.uleb128 0x18
 1918 07a3 22000000 		.4byte	.LVL43
ARM GAS  C:\Users\Mohamad\AppData\Local\Temp\cc1kb5sj.s 			page 35


 1919 07a7 B1070000 		.4byte	0x7b1
 1920 07ab 19       		.uleb128 0x19
 1921 07ac 01       		.byte	0x1
 1922 07ad 51       		.byte	0x51
 1923 07ae 01       		.byte	0x1
 1924 07af 46       		.byte	0x46
 1925 07b0 00       		.byte	0
 1926 07b1 1A       		.uleb128 0x1a
 1927 07b2 2A000000 		.4byte	.LVL44
 1928 07b6 01       		.byte	0x1
 1929 07b7 7B0A0000 		.4byte	0xa7b
 1930 07bb 00       		.byte	0
 1931 07bc 1D       		.uleb128 0x1d
 1932 07bd 01       		.byte	0x1
 1933 07be FF020000 		.4byte	.LASF135
 1934 07c2 01       		.byte	0x1
 1935 07c3 2A01     		.2byte	0x12a
 1936 07c5 01       		.byte	0x1
 1937 07c6 00000000 		.4byte	.LFB132
 1938 07ca 76000000 		.4byte	.LFE132
 1939 07ce 4D020000 		.4byte	.LLST16
 1940 07d2 01       		.byte	0x1
 1941 07d3 38090000 		.4byte	0x938
 1942 07d7 1E       		.uleb128 0x1e
 1943 07d8 0A000000 		.4byte	.LVL45
 1944 07dc 860A0000 		.4byte	0xa86
 1945 07e0 F0070000 		.4byte	0x7f0
 1946 07e4 19       		.uleb128 0x19
 1947 07e5 01       		.byte	0x1
 1948 07e6 51       		.byte	0x51
 1949 07e7 02       		.byte	0x2
 1950 07e8 08       		.byte	0x8
 1951 07e9 60       		.byte	0x60
 1952 07ea 19       		.uleb128 0x19
 1953 07eb 01       		.byte	0x1
 1954 07ec 50       		.byte	0x50
 1955 07ed 01       		.byte	0x1
 1956 07ee 36       		.byte	0x36
 1957 07ef 00       		.byte	0
 1958 07f0 1E       		.uleb128 0x1e
 1959 07f1 12000000 		.4byte	.LVL46
 1960 07f5 860A0000 		.4byte	0xa86
 1961 07f9 09080000 		.4byte	0x809
 1962 07fd 19       		.uleb128 0x19
 1963 07fe 01       		.byte	0x1
 1964 07ff 51       		.byte	0x51
 1965 0800 02       		.byte	0x2
 1966 0801 08       		.byte	0x8
 1967 0802 60       		.byte	0x60
 1968 0803 19       		.uleb128 0x19
 1969 0804 01       		.byte	0x1
 1970 0805 50       		.byte	0x50
 1971 0806 01       		.byte	0x1
 1972 0807 37       		.byte	0x37
 1973 0808 00       		.byte	0
 1974 0809 1E       		.uleb128 0x1e
 1975 080a 1A000000 		.4byte	.LVL47
ARM GAS  C:\Users\Mohamad\AppData\Local\Temp\cc1kb5sj.s 			page 36


 1976 080e 860A0000 		.4byte	0xa86
 1977 0812 22080000 		.4byte	0x822
 1978 0816 19       		.uleb128 0x19
 1979 0817 01       		.byte	0x1
 1980 0818 51       		.byte	0x51
 1981 0819 02       		.byte	0x2
 1982 081a 08       		.byte	0x8
 1983 081b 60       		.byte	0x60
 1984 081c 19       		.uleb128 0x19
 1985 081d 01       		.byte	0x1
 1986 081e 50       		.byte	0x50
 1987 081f 01       		.byte	0x1
 1988 0820 38       		.byte	0x38
 1989 0821 00       		.byte	0
 1990 0822 1E       		.uleb128 0x1e
 1991 0823 22000000 		.4byte	.LVL48
 1992 0827 860A0000 		.4byte	0xa86
 1993 082b 3B080000 		.4byte	0x83b
 1994 082f 19       		.uleb128 0x19
 1995 0830 01       		.byte	0x1
 1996 0831 51       		.byte	0x51
 1997 0832 02       		.byte	0x2
 1998 0833 08       		.byte	0x8
 1999 0834 60       		.byte	0x60
 2000 0835 19       		.uleb128 0x19
 2001 0836 01       		.byte	0x1
 2002 0837 50       		.byte	0x50
 2003 0838 01       		.byte	0x1
 2004 0839 39       		.byte	0x39
 2005 083a 00       		.byte	0
 2006 083b 1E       		.uleb128 0x1e
 2007 083c 2A000000 		.4byte	.LVL49
 2008 0840 860A0000 		.4byte	0xa86
 2009 0844 54080000 		.4byte	0x854
 2010 0848 19       		.uleb128 0x19
 2011 0849 01       		.byte	0x1
 2012 084a 51       		.byte	0x51
 2013 084b 02       		.byte	0x2
 2014 084c 08       		.byte	0x8
 2015 084d 60       		.byte	0x60
 2016 084e 19       		.uleb128 0x19
 2017 084f 01       		.byte	0x1
 2018 0850 50       		.byte	0x50
 2019 0851 01       		.byte	0x1
 2020 0852 3A       		.byte	0x3a
 2021 0853 00       		.byte	0
 2022 0854 1E       		.uleb128 0x1e
 2023 0855 32000000 		.4byte	.LVL50
 2024 0859 860A0000 		.4byte	0xa86
 2025 085d 6D080000 		.4byte	0x86d
 2026 0861 19       		.uleb128 0x19
 2027 0862 01       		.byte	0x1
 2028 0863 51       		.byte	0x51
 2029 0864 02       		.byte	0x2
 2030 0865 08       		.byte	0x8
 2031 0866 60       		.byte	0x60
 2032 0867 19       		.uleb128 0x19
ARM GAS  C:\Users\Mohamad\AppData\Local\Temp\cc1kb5sj.s 			page 37


 2033 0868 01       		.byte	0x1
 2034 0869 50       		.byte	0x50
 2035 086a 01       		.byte	0x1
 2036 086b 47       		.byte	0x47
 2037 086c 00       		.byte	0
 2038 086d 1E       		.uleb128 0x1e
 2039 086e 3A000000 		.4byte	.LVL51
 2040 0872 860A0000 		.4byte	0xa86
 2041 0876 87080000 		.4byte	0x887
 2042 087a 19       		.uleb128 0x19
 2043 087b 01       		.byte	0x1
 2044 087c 51       		.byte	0x51
 2045 087d 02       		.byte	0x2
 2046 087e 08       		.byte	0x8
 2047 087f 60       		.byte	0x60
 2048 0880 19       		.uleb128 0x19
 2049 0881 01       		.byte	0x1
 2050 0882 50       		.byte	0x50
 2051 0883 02       		.byte	0x2
 2052 0884 08       		.byte	0x8
 2053 0885 28       		.byte	0x28
 2054 0886 00       		.byte	0
 2055 0887 1E       		.uleb128 0x1e
 2056 0888 42000000 		.4byte	.LVL52
 2057 088c 860A0000 		.4byte	0xa86
 2058 0890 A0080000 		.4byte	0x8a0
 2059 0894 19       		.uleb128 0x19
 2060 0895 01       		.byte	0x1
 2061 0896 51       		.byte	0x51
 2062 0897 02       		.byte	0x2
 2063 0898 08       		.byte	0x8
 2064 0899 60       		.byte	0x60
 2065 089a 19       		.uleb128 0x19
 2066 089b 01       		.byte	0x1
 2067 089c 50       		.byte	0x50
 2068 089d 01       		.byte	0x1
 2069 089e 31       		.byte	0x31
 2070 089f 00       		.byte	0
 2071 08a0 1E       		.uleb128 0x1e
 2072 08a1 4A000000 		.4byte	.LVL53
 2073 08a5 860A0000 		.4byte	0xa86
 2074 08a9 BA080000 		.4byte	0x8ba
 2075 08ad 19       		.uleb128 0x19
 2076 08ae 01       		.byte	0x1
 2077 08af 51       		.byte	0x51
 2078 08b0 02       		.byte	0x2
 2079 08b1 08       		.byte	0x8
 2080 08b2 F0       		.byte	0xf0
 2081 08b3 19       		.uleb128 0x19
 2082 08b4 01       		.byte	0x1
 2083 08b5 50       		.byte	0x50
 2084 08b6 02       		.byte	0x2
 2085 08b7 08       		.byte	0x8
 2086 08b8 29       		.byte	0x29
 2087 08b9 00       		.byte	0
 2088 08ba 1E       		.uleb128 0x1e
 2089 08bb 52000000 		.4byte	.LVL54
ARM GAS  C:\Users\Mohamad\AppData\Local\Temp\cc1kb5sj.s 			page 38


 2090 08bf 860A0000 		.4byte	0xa86
 2091 08c3 D4080000 		.4byte	0x8d4
 2092 08c7 19       		.uleb128 0x19
 2093 08c8 01       		.byte	0x1
 2094 08c9 51       		.byte	0x51
 2095 08ca 02       		.byte	0x2
 2096 08cb 08       		.byte	0x8
 2097 08cc 60       		.byte	0x60
 2098 08cd 19       		.uleb128 0x19
 2099 08ce 01       		.byte	0x1
 2100 08cf 50       		.byte	0x50
 2101 08d0 02       		.byte	0x2
 2102 08d1 08       		.byte	0x8
 2103 08d2 2A       		.byte	0x2a
 2104 08d3 00       		.byte	0
 2105 08d4 1E       		.uleb128 0x1e
 2106 08d5 5A000000 		.4byte	.LVL55
 2107 08d9 860A0000 		.4byte	0xa86
 2108 08dd EE080000 		.4byte	0x8ee
 2109 08e1 19       		.uleb128 0x19
 2110 08e2 01       		.byte	0x1
 2111 08e3 51       		.byte	0x51
 2112 08e4 02       		.byte	0x2
 2113 08e5 08       		.byte	0x8
 2114 08e6 60       		.byte	0x60
 2115 08e7 19       		.uleb128 0x19
 2116 08e8 01       		.byte	0x1
 2117 08e9 50       		.byte	0x50
 2118 08ea 02       		.byte	0x2
 2119 08eb 08       		.byte	0x8
 2120 08ec 3E       		.byte	0x3e
 2121 08ed 00       		.byte	0
 2122 08ee 1E       		.uleb128 0x1e
 2123 08ef 62000000 		.4byte	.LVL56
 2124 08f3 860A0000 		.4byte	0xa86
 2125 08f7 08090000 		.4byte	0x908
 2126 08fb 19       		.uleb128 0x19
 2127 08fc 01       		.byte	0x1
 2128 08fd 51       		.byte	0x51
 2129 08fe 02       		.byte	0x2
 2130 08ff 08       		.byte	0x8
 2131 0900 60       		.byte	0x60
 2132 0901 19       		.uleb128 0x19
 2133 0902 01       		.byte	0x1
 2134 0903 50       		.byte	0x50
 2135 0904 02       		.byte	0x2
 2136 0905 08       		.byte	0x8
 2137 0906 4C       		.byte	0x4c
 2138 0907 00       		.byte	0
 2139 0908 1E       		.uleb128 0x1e
 2140 0909 6A000000 		.4byte	.LVL57
 2141 090d 860A0000 		.4byte	0xa86
 2142 0911 21090000 		.4byte	0x921
 2143 0915 19       		.uleb128 0x19
 2144 0916 01       		.byte	0x1
 2145 0917 51       		.byte	0x51
 2146 0918 02       		.byte	0x2
ARM GAS  C:\Users\Mohamad\AppData\Local\Temp\cc1kb5sj.s 			page 39


 2147 0919 08       		.byte	0x8
 2148 091a F0       		.byte	0xf0
 2149 091b 19       		.uleb128 0x19
 2150 091c 01       		.byte	0x1
 2151 091d 50       		.byte	0x50
 2152 091e 01       		.byte	0x1
 2153 091f 32       		.byte	0x32
 2154 0920 00       		.byte	0
 2155 0921 1F       		.uleb128 0x1f
 2156 0922 76000000 		.4byte	.LVL58
 2157 0926 01       		.byte	0x1
 2158 0927 860A0000 		.4byte	0xa86
 2159 092b 19       		.uleb128 0x19
 2160 092c 01       		.byte	0x1
 2161 092d 51       		.byte	0x51
 2162 092e 02       		.byte	0x2
 2163 092f 08       		.byte	0x8
 2164 0930 F0       		.byte	0xf0
 2165 0931 19       		.uleb128 0x19
 2166 0932 01       		.byte	0x1
 2167 0933 50       		.byte	0x50
 2168 0934 01       		.byte	0x1
 2169 0935 33       		.byte	0x33
 2170 0936 00       		.byte	0
 2171 0937 00       		.byte	0
 2172 0938 1D       		.uleb128 0x1d
 2173 0939 01       		.byte	0x1
 2174 093a 3F020000 		.4byte	.LASF136
 2175 093e 01       		.byte	0x1
 2176 093f 5101     		.2byte	0x151
 2177 0941 01       		.byte	0x1
 2178 0942 00000000 		.4byte	.LFB133
 2179 0946 5A000000 		.4byte	.LFE133
 2180 094a 6D020000 		.4byte	.LLST17
 2181 094e 01       		.byte	0x1
 2182 094f 600A0000 		.4byte	0xa60
 2183 0953 1E       		.uleb128 0x1e
 2184 0954 08000000 		.4byte	.LVL59
 2185 0958 A00A0000 		.4byte	0xaa0
 2186 095c 66090000 		.4byte	0x966
 2187 0960 19       		.uleb128 0x19
 2188 0961 01       		.byte	0x1
 2189 0962 50       		.byte	0x50
 2190 0963 01       		.byte	0x1
 2191 0964 36       		.byte	0x36
 2192 0965 00       		.byte	0
 2193 0966 1E       		.uleb128 0x1e
 2194 0967 0E000000 		.4byte	.LVL60
 2195 096b A00A0000 		.4byte	0xaa0
 2196 096f 79090000 		.4byte	0x979
 2197 0973 19       		.uleb128 0x19
 2198 0974 01       		.byte	0x1
 2199 0975 50       		.byte	0x50
 2200 0976 01       		.byte	0x1
 2201 0977 37       		.byte	0x37
 2202 0978 00       		.byte	0
 2203 0979 1E       		.uleb128 0x1e
ARM GAS  C:\Users\Mohamad\AppData\Local\Temp\cc1kb5sj.s 			page 40


 2204 097a 14000000 		.4byte	.LVL61
 2205 097e A00A0000 		.4byte	0xaa0
 2206 0982 8C090000 		.4byte	0x98c
 2207 0986 19       		.uleb128 0x19
 2208 0987 01       		.byte	0x1
 2209 0988 50       		.byte	0x50
 2210 0989 01       		.byte	0x1
 2211 098a 38       		.byte	0x38
 2212 098b 00       		.byte	0
 2213 098c 1E       		.uleb128 0x1e
 2214 098d 1A000000 		.4byte	.LVL62
 2215 0991 A00A0000 		.4byte	0xaa0
 2216 0995 9F090000 		.4byte	0x99f
 2217 0999 19       		.uleb128 0x19
 2218 099a 01       		.byte	0x1
 2219 099b 50       		.byte	0x50
 2220 099c 01       		.byte	0x1
 2221 099d 39       		.byte	0x39
 2222 099e 00       		.byte	0
 2223 099f 1E       		.uleb128 0x1e
 2224 09a0 20000000 		.4byte	.LVL63
 2225 09a4 A00A0000 		.4byte	0xaa0
 2226 09a8 B2090000 		.4byte	0x9b2
 2227 09ac 19       		.uleb128 0x19
 2228 09ad 01       		.byte	0x1
 2229 09ae 50       		.byte	0x50
 2230 09af 01       		.byte	0x1
 2231 09b0 3A       		.byte	0x3a
 2232 09b1 00       		.byte	0
 2233 09b2 1E       		.uleb128 0x1e
 2234 09b3 26000000 		.4byte	.LVL64
 2235 09b7 A00A0000 		.4byte	0xaa0
 2236 09bb C5090000 		.4byte	0x9c5
 2237 09bf 19       		.uleb128 0x19
 2238 09c0 01       		.byte	0x1
 2239 09c1 50       		.byte	0x50
 2240 09c2 01       		.byte	0x1
 2241 09c3 47       		.byte	0x47
 2242 09c4 00       		.byte	0
 2243 09c5 1E       		.uleb128 0x1e
 2244 09c6 2C000000 		.4byte	.LVL65
 2245 09ca A00A0000 		.4byte	0xaa0
 2246 09ce D9090000 		.4byte	0x9d9
 2247 09d2 19       		.uleb128 0x19
 2248 09d3 01       		.byte	0x1
 2249 09d4 50       		.byte	0x50
 2250 09d5 02       		.byte	0x2
 2251 09d6 08       		.byte	0x8
 2252 09d7 28       		.byte	0x28
 2253 09d8 00       		.byte	0
 2254 09d9 1E       		.uleb128 0x1e
 2255 09da 32000000 		.4byte	.LVL66
 2256 09de A00A0000 		.4byte	0xaa0
 2257 09e2 EC090000 		.4byte	0x9ec
 2258 09e6 19       		.uleb128 0x19
 2259 09e7 01       		.byte	0x1
 2260 09e8 50       		.byte	0x50
ARM GAS  C:\Users\Mohamad\AppData\Local\Temp\cc1kb5sj.s 			page 41


 2261 09e9 01       		.byte	0x1
 2262 09ea 31       		.byte	0x31
 2263 09eb 00       		.byte	0
 2264 09ec 1E       		.uleb128 0x1e
 2265 09ed 38000000 		.4byte	.LVL67
 2266 09f1 A00A0000 		.4byte	0xaa0
 2267 09f5 000A0000 		.4byte	0xa00
 2268 09f9 19       		.uleb128 0x19
 2269 09fa 01       		.byte	0x1
 2270 09fb 50       		.byte	0x50
 2271 09fc 02       		.byte	0x2
 2272 09fd 08       		.byte	0x8
 2273 09fe 29       		.byte	0x29
 2274 09ff 00       		.byte	0
 2275 0a00 1E       		.uleb128 0x1e
 2276 0a01 3E000000 		.4byte	.LVL68
 2277 0a05 A00A0000 		.4byte	0xaa0
 2278 0a09 140A0000 		.4byte	0xa14
 2279 0a0d 19       		.uleb128 0x19
 2280 0a0e 01       		.byte	0x1
 2281 0a0f 50       		.byte	0x50
 2282 0a10 02       		.byte	0x2
 2283 0a11 08       		.byte	0x8
 2284 0a12 2A       		.byte	0x2a
 2285 0a13 00       		.byte	0
 2286 0a14 1E       		.uleb128 0x1e
 2287 0a15 44000000 		.4byte	.LVL69
 2288 0a19 A00A0000 		.4byte	0xaa0
 2289 0a1d 280A0000 		.4byte	0xa28
 2290 0a21 19       		.uleb128 0x19
 2291 0a22 01       		.byte	0x1
 2292 0a23 50       		.byte	0x50
 2293 0a24 02       		.byte	0x2
 2294 0a25 08       		.byte	0x8
 2295 0a26 3E       		.byte	0x3e
 2296 0a27 00       		.byte	0
 2297 0a28 1E       		.uleb128 0x1e
 2298 0a29 4A000000 		.4byte	.LVL70
 2299 0a2d A00A0000 		.4byte	0xaa0
 2300 0a31 3C0A0000 		.4byte	0xa3c
 2301 0a35 19       		.uleb128 0x19
 2302 0a36 01       		.byte	0x1
 2303 0a37 50       		.byte	0x50
 2304 0a38 02       		.byte	0x2
 2305 0a39 08       		.byte	0x8
 2306 0a3a 4C       		.byte	0x4c
 2307 0a3b 00       		.byte	0
 2308 0a3c 1E       		.uleb128 0x1e
 2309 0a3d 50000000 		.4byte	.LVL71
 2310 0a41 A00A0000 		.4byte	0xaa0
 2311 0a45 4F0A0000 		.4byte	0xa4f
 2312 0a49 19       		.uleb128 0x19
 2313 0a4a 01       		.byte	0x1
 2314 0a4b 50       		.byte	0x50
 2315 0a4c 01       		.byte	0x1
 2316 0a4d 32       		.byte	0x32
 2317 0a4e 00       		.byte	0
ARM GAS  C:\Users\Mohamad\AppData\Local\Temp\cc1kb5sj.s 			page 42


 2318 0a4f 1F       		.uleb128 0x1f
 2319 0a50 5A000000 		.4byte	.LVL72
 2320 0a54 01       		.byte	0x1
 2321 0a55 A00A0000 		.4byte	0xaa0
 2322 0a59 19       		.uleb128 0x19
 2323 0a5a 01       		.byte	0x1
 2324 0a5b 50       		.byte	0x50
 2325 0a5c 01       		.byte	0x1
 2326 0a5d 33       		.byte	0x33
 2327 0a5e 00       		.byte	0
 2328 0a5f 00       		.byte	0
 2329 0a60 20       		.uleb128 0x20
 2330 0a61 9A050000 		.4byte	.LASF137
 2331 0a65 06       		.byte	0x6
 2332 0a66 9806     		.2byte	0x698
 2333 0a68 DA020000 		.4byte	0x2da
 2334 0a6c 01       		.byte	0x1
 2335 0a6d 01       		.byte	0x1
 2336 0a6e 21       		.uleb128 0x21
 2337 0a6f 97070000 		.4byte	.LASF138
 2338 0a73 05       		.byte	0x5
 2339 0a74 86       		.byte	0x86
 2340 0a75 74030000 		.4byte	0x374
 2341 0a79 01       		.byte	0x1
 2342 0a7a 01       		.byte	0x1
 2343 0a7b 22       		.uleb128 0x22
 2344 0a7c 01       		.byte	0x1
 2345 0a7d 2D070000 		.4byte	.LASF143
 2346 0a81 07       		.byte	0x7
 2347 0a82 0302     		.2byte	0x203
 2348 0a84 01       		.byte	0x1
 2349 0a85 01       		.byte	0x1
 2350 0a86 23       		.uleb128 0x23
 2351 0a87 01       		.byte	0x1
 2352 0a88 E4000000 		.4byte	.LASF144
 2353 0a8c 08       		.byte	0x8
 2354 0a8d 2301     		.2byte	0x123
 2355 0a8f 01       		.byte	0x1
 2356 0a90 01       		.byte	0x1
 2357 0a91 A00A0000 		.4byte	0xaa0
 2358 0a95 11       		.uleb128 0x11
 2359 0a96 65000000 		.4byte	0x65
 2360 0a9a 11       		.uleb128 0x11
 2361 0a9b 65000000 		.4byte	0x65
 2362 0a9f 00       		.byte	0
 2363 0aa0 24       		.uleb128 0x24
 2364 0aa1 01       		.byte	0x1
 2365 0aa2 51060000 		.4byte	.LASF145
 2366 0aa6 08       		.byte	0x8
 2367 0aa7 2401     		.2byte	0x124
 2368 0aa9 01       		.byte	0x1
 2369 0aaa 01       		.byte	0x1
 2370 0aab 11       		.uleb128 0x11
 2371 0aac 65000000 		.4byte	0x65
 2372 0ab0 00       		.byte	0
 2373 0ab1 00       		.byte	0
 2374              		.section	.debug_abbrev,"",%progbits
ARM GAS  C:\Users\Mohamad\AppData\Local\Temp\cc1kb5sj.s 			page 43


 2375              	.Ldebug_abbrev0:
 2376 0000 01       		.uleb128 0x1
 2377 0001 11       		.uleb128 0x11
 2378 0002 01       		.byte	0x1
 2379 0003 25       		.uleb128 0x25
 2380 0004 0E       		.uleb128 0xe
 2381 0005 13       		.uleb128 0x13
 2382 0006 0B       		.uleb128 0xb
 2383 0007 03       		.uleb128 0x3
 2384 0008 0E       		.uleb128 0xe
 2385 0009 1B       		.uleb128 0x1b
 2386 000a 0E       		.uleb128 0xe
 2387 000b 55       		.uleb128 0x55
 2388 000c 06       		.uleb128 0x6
 2389 000d 11       		.uleb128 0x11
 2390 000e 01       		.uleb128 0x1
 2391 000f 52       		.uleb128 0x52
 2392 0010 01       		.uleb128 0x1
 2393 0011 10       		.uleb128 0x10
 2394 0012 06       		.uleb128 0x6
 2395 0013 00       		.byte	0
 2396 0014 00       		.byte	0
 2397 0015 02       		.uleb128 0x2
 2398 0016 24       		.uleb128 0x24
 2399 0017 00       		.byte	0
 2400 0018 0B       		.uleb128 0xb
 2401 0019 0B       		.uleb128 0xb
 2402 001a 3E       		.uleb128 0x3e
 2403 001b 0B       		.uleb128 0xb
 2404 001c 03       		.uleb128 0x3
 2405 001d 08       		.uleb128 0x8
 2406 001e 00       		.byte	0
 2407 001f 00       		.byte	0
 2408 0020 03       		.uleb128 0x3
 2409 0021 24       		.uleb128 0x24
 2410 0022 00       		.byte	0
 2411 0023 0B       		.uleb128 0xb
 2412 0024 0B       		.uleb128 0xb
 2413 0025 3E       		.uleb128 0x3e
 2414 0026 0B       		.uleb128 0xb
 2415 0027 03       		.uleb128 0x3
 2416 0028 0E       		.uleb128 0xe
 2417 0029 00       		.byte	0
 2418 002a 00       		.byte	0
 2419 002b 04       		.uleb128 0x4
 2420 002c 16       		.uleb128 0x16
 2421 002d 00       		.byte	0
 2422 002e 03       		.uleb128 0x3
 2423 002f 0E       		.uleb128 0xe
 2424 0030 3A       		.uleb128 0x3a
 2425 0031 0B       		.uleb128 0xb
 2426 0032 3B       		.uleb128 0x3b
 2427 0033 0B       		.uleb128 0xb
 2428 0034 49       		.uleb128 0x49
 2429 0035 13       		.uleb128 0x13
 2430 0036 00       		.byte	0
 2431 0037 00       		.byte	0
ARM GAS  C:\Users\Mohamad\AppData\Local\Temp\cc1kb5sj.s 			page 44


 2432 0038 05       		.uleb128 0x5
 2433 0039 35       		.uleb128 0x35
 2434 003a 00       		.byte	0
 2435 003b 49       		.uleb128 0x49
 2436 003c 13       		.uleb128 0x13
 2437 003d 00       		.byte	0
 2438 003e 00       		.byte	0
 2439 003f 06       		.uleb128 0x6
 2440 0040 04       		.uleb128 0x4
 2441 0041 01       		.byte	0x1
 2442 0042 03       		.uleb128 0x3
 2443 0043 0E       		.uleb128 0xe
 2444 0044 0B       		.uleb128 0xb
 2445 0045 0B       		.uleb128 0xb
 2446 0046 3A       		.uleb128 0x3a
 2447 0047 0B       		.uleb128 0xb
 2448 0048 3B       		.uleb128 0x3b
 2449 0049 0B       		.uleb128 0xb
 2450 004a 01       		.uleb128 0x1
 2451 004b 13       		.uleb128 0x13
 2452 004c 00       		.byte	0
 2453 004d 00       		.byte	0
 2454 004e 07       		.uleb128 0x7
 2455 004f 28       		.uleb128 0x28
 2456 0050 00       		.byte	0
 2457 0051 03       		.uleb128 0x3
 2458 0052 0E       		.uleb128 0xe
 2459 0053 1C       		.uleb128 0x1c
 2460 0054 0D       		.uleb128 0xd
 2461 0055 00       		.byte	0
 2462 0056 00       		.byte	0
 2463 0057 08       		.uleb128 0x8
 2464 0058 13       		.uleb128 0x13
 2465 0059 01       		.byte	0x1
 2466 005a 0B       		.uleb128 0xb
 2467 005b 0B       		.uleb128 0xb
 2468 005c 3A       		.uleb128 0x3a
 2469 005d 0B       		.uleb128 0xb
 2470 005e 3B       		.uleb128 0x3b
 2471 005f 05       		.uleb128 0x5
 2472 0060 01       		.uleb128 0x1
 2473 0061 13       		.uleb128 0x13
 2474 0062 00       		.byte	0
 2475 0063 00       		.byte	0
 2476 0064 09       		.uleb128 0x9
 2477 0065 0D       		.uleb128 0xd
 2478 0066 00       		.byte	0
 2479 0067 03       		.uleb128 0x3
 2480 0068 08       		.uleb128 0x8
 2481 0069 3A       		.uleb128 0x3a
 2482 006a 0B       		.uleb128 0xb
 2483 006b 3B       		.uleb128 0x3b
 2484 006c 05       		.uleb128 0x5
 2485 006d 49       		.uleb128 0x49
 2486 006e 13       		.uleb128 0x13
 2487 006f 38       		.uleb128 0x38
 2488 0070 0A       		.uleb128 0xa
ARM GAS  C:\Users\Mohamad\AppData\Local\Temp\cc1kb5sj.s 			page 45


 2489 0071 00       		.byte	0
 2490 0072 00       		.byte	0
 2491 0073 0A       		.uleb128 0xa
 2492 0074 0D       		.uleb128 0xd
 2493 0075 00       		.byte	0
 2494 0076 03       		.uleb128 0x3
 2495 0077 0E       		.uleb128 0xe
 2496 0078 3A       		.uleb128 0x3a
 2497 0079 0B       		.uleb128 0xb
 2498 007a 3B       		.uleb128 0x3b
 2499 007b 05       		.uleb128 0x5
 2500 007c 49       		.uleb128 0x49
 2501 007d 13       		.uleb128 0x13
 2502 007e 38       		.uleb128 0x38
 2503 007f 0A       		.uleb128 0xa
 2504 0080 00       		.byte	0
 2505 0081 00       		.byte	0
 2506 0082 0B       		.uleb128 0xb
 2507 0083 16       		.uleb128 0x16
 2508 0084 00       		.byte	0
 2509 0085 03       		.uleb128 0x3
 2510 0086 0E       		.uleb128 0xe
 2511 0087 3A       		.uleb128 0x3a
 2512 0088 0B       		.uleb128 0xb
 2513 0089 3B       		.uleb128 0x3b
 2514 008a 05       		.uleb128 0x5
 2515 008b 49       		.uleb128 0x49
 2516 008c 13       		.uleb128 0x13
 2517 008d 00       		.byte	0
 2518 008e 00       		.byte	0
 2519 008f 0C       		.uleb128 0xc
 2520 0090 04       		.uleb128 0x4
 2521 0091 01       		.byte	0x1
 2522 0092 0B       		.uleb128 0xb
 2523 0093 0B       		.uleb128 0xb
 2524 0094 3A       		.uleb128 0x3a
 2525 0095 0B       		.uleb128 0xb
 2526 0096 3B       		.uleb128 0x3b
 2527 0097 0B       		.uleb128 0xb
 2528 0098 01       		.uleb128 0x1
 2529 0099 13       		.uleb128 0x13
 2530 009a 00       		.byte	0
 2531 009b 00       		.byte	0
 2532 009c 0D       		.uleb128 0xd
 2533 009d 13       		.uleb128 0x13
 2534 009e 01       		.byte	0x1
 2535 009f 03       		.uleb128 0x3
 2536 00a0 0E       		.uleb128 0xe
 2537 00a1 0B       		.uleb128 0xb
 2538 00a2 0B       		.uleb128 0xb
 2539 00a3 3A       		.uleb128 0x3a
 2540 00a4 0B       		.uleb128 0xb
 2541 00a5 3B       		.uleb128 0x3b
 2542 00a6 0B       		.uleb128 0xb
 2543 00a7 01       		.uleb128 0x1
 2544 00a8 13       		.uleb128 0x13
 2545 00a9 00       		.byte	0
ARM GAS  C:\Users\Mohamad\AppData\Local\Temp\cc1kb5sj.s 			page 46


 2546 00aa 00       		.byte	0
 2547 00ab 0E       		.uleb128 0xe
 2548 00ac 0D       		.uleb128 0xd
 2549 00ad 00       		.byte	0
 2550 00ae 03       		.uleb128 0x3
 2551 00af 0E       		.uleb128 0xe
 2552 00b0 3A       		.uleb128 0x3a
 2553 00b1 0B       		.uleb128 0xb
 2554 00b2 3B       		.uleb128 0x3b
 2555 00b3 0B       		.uleb128 0xb
 2556 00b4 49       		.uleb128 0x49
 2557 00b5 13       		.uleb128 0x13
 2558 00b6 38       		.uleb128 0x38
 2559 00b7 0A       		.uleb128 0xa
 2560 00b8 00       		.byte	0
 2561 00b9 00       		.byte	0
 2562 00ba 0F       		.uleb128 0xf
 2563 00bb 0F       		.uleb128 0xf
 2564 00bc 00       		.byte	0
 2565 00bd 0B       		.uleb128 0xb
 2566 00be 0B       		.uleb128 0xb
 2567 00bf 49       		.uleb128 0x49
 2568 00c0 13       		.uleb128 0x13
 2569 00c1 00       		.byte	0
 2570 00c2 00       		.byte	0
 2571 00c3 10       		.uleb128 0x10
 2572 00c4 15       		.uleb128 0x15
 2573 00c5 01       		.byte	0x1
 2574 00c6 27       		.uleb128 0x27
 2575 00c7 0C       		.uleb128 0xc
 2576 00c8 01       		.uleb128 0x1
 2577 00c9 13       		.uleb128 0x13
 2578 00ca 00       		.byte	0
 2579 00cb 00       		.byte	0
 2580 00cc 11       		.uleb128 0x11
 2581 00cd 05       		.uleb128 0x5
 2582 00ce 00       		.byte	0
 2583 00cf 49       		.uleb128 0x49
 2584 00d0 13       		.uleb128 0x13
 2585 00d1 00       		.byte	0
 2586 00d2 00       		.byte	0
 2587 00d3 12       		.uleb128 0x12
 2588 00d4 13       		.uleb128 0x13
 2589 00d5 01       		.byte	0x1
 2590 00d6 0B       		.uleb128 0xb
 2591 00d7 0B       		.uleb128 0xb
 2592 00d8 3A       		.uleb128 0x3a
 2593 00d9 0B       		.uleb128 0xb
 2594 00da 3B       		.uleb128 0x3b
 2595 00db 0B       		.uleb128 0xb
 2596 00dc 01       		.uleb128 0x1
 2597 00dd 13       		.uleb128 0x13
 2598 00de 00       		.byte	0
 2599 00df 00       		.byte	0
 2600 00e0 13       		.uleb128 0x13
 2601 00e1 0D       		.uleb128 0xd
 2602 00e2 00       		.byte	0
ARM GAS  C:\Users\Mohamad\AppData\Local\Temp\cc1kb5sj.s 			page 47


 2603 00e3 03       		.uleb128 0x3
 2604 00e4 08       		.uleb128 0x8
 2605 00e5 3A       		.uleb128 0x3a
 2606 00e6 0B       		.uleb128 0xb
 2607 00e7 3B       		.uleb128 0x3b
 2608 00e8 0B       		.uleb128 0xb
 2609 00e9 49       		.uleb128 0x49
 2610 00ea 13       		.uleb128 0x13
 2611 00eb 38       		.uleb128 0x38
 2612 00ec 0A       		.uleb128 0xa
 2613 00ed 00       		.byte	0
 2614 00ee 00       		.byte	0
 2615 00ef 14       		.uleb128 0x14
 2616 00f0 01       		.uleb128 0x1
 2617 00f1 01       		.byte	0x1
 2618 00f2 49       		.uleb128 0x49
 2619 00f3 13       		.uleb128 0x13
 2620 00f4 01       		.uleb128 0x1
 2621 00f5 13       		.uleb128 0x13
 2622 00f6 00       		.byte	0
 2623 00f7 00       		.byte	0
 2624 00f8 15       		.uleb128 0x15
 2625 00f9 21       		.uleb128 0x21
 2626 00fa 00       		.byte	0
 2627 00fb 49       		.uleb128 0x49
 2628 00fc 13       		.uleb128 0x13
 2629 00fd 2F       		.uleb128 0x2f
 2630 00fe 0B       		.uleb128 0xb
 2631 00ff 00       		.byte	0
 2632 0100 00       		.byte	0
 2633 0101 16       		.uleb128 0x16
 2634 0102 26       		.uleb128 0x26
 2635 0103 00       		.byte	0
 2636 0104 49       		.uleb128 0x49
 2637 0105 13       		.uleb128 0x13
 2638 0106 00       		.byte	0
 2639 0107 00       		.byte	0
 2640 0108 17       		.uleb128 0x17
 2641 0109 2E       		.uleb128 0x2e
 2642 010a 01       		.byte	0x1
 2643 010b 3F       		.uleb128 0x3f
 2644 010c 0C       		.uleb128 0xc
 2645 010d 03       		.uleb128 0x3
 2646 010e 0E       		.uleb128 0xe
 2647 010f 3A       		.uleb128 0x3a
 2648 0110 0B       		.uleb128 0xb
 2649 0111 3B       		.uleb128 0x3b
 2650 0112 0B       		.uleb128 0xb
 2651 0113 27       		.uleb128 0x27
 2652 0114 0C       		.uleb128 0xc
 2653 0115 11       		.uleb128 0x11
 2654 0116 01       		.uleb128 0x1
 2655 0117 12       		.uleb128 0x12
 2656 0118 01       		.uleb128 0x1
 2657 0119 40       		.uleb128 0x40
 2658 011a 06       		.uleb128 0x6
 2659 011b 9742     		.uleb128 0x2117
ARM GAS  C:\Users\Mohamad\AppData\Local\Temp\cc1kb5sj.s 			page 48


 2660 011d 0C       		.uleb128 0xc
 2661 011e 01       		.uleb128 0x1
 2662 011f 13       		.uleb128 0x13
 2663 0120 00       		.byte	0
 2664 0121 00       		.byte	0
 2665 0122 18       		.uleb128 0x18
 2666 0123 898201   		.uleb128 0x4109
 2667 0126 01       		.byte	0x1
 2668 0127 11       		.uleb128 0x11
 2669 0128 01       		.uleb128 0x1
 2670 0129 01       		.uleb128 0x1
 2671 012a 13       		.uleb128 0x13
 2672 012b 00       		.byte	0
 2673 012c 00       		.byte	0
 2674 012d 19       		.uleb128 0x19
 2675 012e 8A8201   		.uleb128 0x410a
 2676 0131 00       		.byte	0
 2677 0132 02       		.uleb128 0x2
 2678 0133 0A       		.uleb128 0xa
 2679 0134 9142     		.uleb128 0x2111
 2680 0136 0A       		.uleb128 0xa
 2681 0137 00       		.byte	0
 2682 0138 00       		.byte	0
 2683 0139 1A       		.uleb128 0x1a
 2684 013a 898201   		.uleb128 0x4109
 2685 013d 00       		.byte	0
 2686 013e 11       		.uleb128 0x11
 2687 013f 01       		.uleb128 0x1
 2688 0140 9542     		.uleb128 0x2115
 2689 0142 0C       		.uleb128 0xc
 2690 0143 31       		.uleb128 0x31
 2691 0144 13       		.uleb128 0x13
 2692 0145 00       		.byte	0
 2693 0146 00       		.byte	0
 2694 0147 1B       		.uleb128 0x1b
 2695 0148 34       		.uleb128 0x34
 2696 0149 00       		.byte	0
 2697 014a 03       		.uleb128 0x3
 2698 014b 08       		.uleb128 0x8
 2699 014c 3A       		.uleb128 0x3a
 2700 014d 0B       		.uleb128 0xb
 2701 014e 3B       		.uleb128 0x3b
 2702 014f 0B       		.uleb128 0xb
 2703 0150 49       		.uleb128 0x49
 2704 0151 13       		.uleb128 0x13
 2705 0152 02       		.uleb128 0x2
 2706 0153 06       		.uleb128 0x6
 2707 0154 00       		.byte	0
 2708 0155 00       		.byte	0
 2709 0156 1C       		.uleb128 0x1c
 2710 0157 898201   		.uleb128 0x4109
 2711 015a 01       		.byte	0x1
 2712 015b 11       		.uleb128 0x11
 2713 015c 01       		.uleb128 0x1
 2714 015d 00       		.byte	0
 2715 015e 00       		.byte	0
 2716 015f 1D       		.uleb128 0x1d
ARM GAS  C:\Users\Mohamad\AppData\Local\Temp\cc1kb5sj.s 			page 49


 2717 0160 2E       		.uleb128 0x2e
 2718 0161 01       		.byte	0x1
 2719 0162 3F       		.uleb128 0x3f
 2720 0163 0C       		.uleb128 0xc
 2721 0164 03       		.uleb128 0x3
 2722 0165 0E       		.uleb128 0xe
 2723 0166 3A       		.uleb128 0x3a
 2724 0167 0B       		.uleb128 0xb
 2725 0168 3B       		.uleb128 0x3b
 2726 0169 05       		.uleb128 0x5
 2727 016a 27       		.uleb128 0x27
 2728 016b 0C       		.uleb128 0xc
 2729 016c 11       		.uleb128 0x11
 2730 016d 01       		.uleb128 0x1
 2731 016e 12       		.uleb128 0x12
 2732 016f 01       		.uleb128 0x1
 2733 0170 40       		.uleb128 0x40
 2734 0171 06       		.uleb128 0x6
 2735 0172 9742     		.uleb128 0x2117
 2736 0174 0C       		.uleb128 0xc
 2737 0175 01       		.uleb128 0x1
 2738 0176 13       		.uleb128 0x13
 2739 0177 00       		.byte	0
 2740 0178 00       		.byte	0
 2741 0179 1E       		.uleb128 0x1e
 2742 017a 898201   		.uleb128 0x4109
 2743 017d 01       		.byte	0x1
 2744 017e 11       		.uleb128 0x11
 2745 017f 01       		.uleb128 0x1
 2746 0180 31       		.uleb128 0x31
 2747 0181 13       		.uleb128 0x13
 2748 0182 01       		.uleb128 0x1
 2749 0183 13       		.uleb128 0x13
 2750 0184 00       		.byte	0
 2751 0185 00       		.byte	0
 2752 0186 1F       		.uleb128 0x1f
 2753 0187 898201   		.uleb128 0x4109
 2754 018a 01       		.byte	0x1
 2755 018b 11       		.uleb128 0x11
 2756 018c 01       		.uleb128 0x1
 2757 018d 9542     		.uleb128 0x2115
 2758 018f 0C       		.uleb128 0xc
 2759 0190 31       		.uleb128 0x31
 2760 0191 13       		.uleb128 0x13
 2761 0192 00       		.byte	0
 2762 0193 00       		.byte	0
 2763 0194 20       		.uleb128 0x20
 2764 0195 34       		.uleb128 0x34
 2765 0196 00       		.byte	0
 2766 0197 03       		.uleb128 0x3
 2767 0198 0E       		.uleb128 0xe
 2768 0199 3A       		.uleb128 0x3a
 2769 019a 0B       		.uleb128 0xb
 2770 019b 3B       		.uleb128 0x3b
 2771 019c 05       		.uleb128 0x5
 2772 019d 49       		.uleb128 0x49
 2773 019e 13       		.uleb128 0x13
ARM GAS  C:\Users\Mohamad\AppData\Local\Temp\cc1kb5sj.s 			page 50


 2774 019f 3F       		.uleb128 0x3f
 2775 01a0 0C       		.uleb128 0xc
 2776 01a1 3C       		.uleb128 0x3c
 2777 01a2 0C       		.uleb128 0xc
 2778 01a3 00       		.byte	0
 2779 01a4 00       		.byte	0
 2780 01a5 21       		.uleb128 0x21
 2781 01a6 34       		.uleb128 0x34
 2782 01a7 00       		.byte	0
 2783 01a8 03       		.uleb128 0x3
 2784 01a9 0E       		.uleb128 0xe
 2785 01aa 3A       		.uleb128 0x3a
 2786 01ab 0B       		.uleb128 0xb
 2787 01ac 3B       		.uleb128 0x3b
 2788 01ad 0B       		.uleb128 0xb
 2789 01ae 49       		.uleb128 0x49
 2790 01af 13       		.uleb128 0x13
 2791 01b0 3F       		.uleb128 0x3f
 2792 01b1 0C       		.uleb128 0xc
 2793 01b2 3C       		.uleb128 0x3c
 2794 01b3 0C       		.uleb128 0xc
 2795 01b4 00       		.byte	0
 2796 01b5 00       		.byte	0
 2797 01b6 22       		.uleb128 0x22
 2798 01b7 2E       		.uleb128 0x2e
 2799 01b8 00       		.byte	0
 2800 01b9 3F       		.uleb128 0x3f
 2801 01ba 0C       		.uleb128 0xc
 2802 01bb 03       		.uleb128 0x3
 2803 01bc 0E       		.uleb128 0xe
 2804 01bd 3A       		.uleb128 0x3a
 2805 01be 0B       		.uleb128 0xb
 2806 01bf 3B       		.uleb128 0x3b
 2807 01c0 05       		.uleb128 0x5
 2808 01c1 27       		.uleb128 0x27
 2809 01c2 0C       		.uleb128 0xc
 2810 01c3 3C       		.uleb128 0x3c
 2811 01c4 0C       		.uleb128 0xc
 2812 01c5 00       		.byte	0
 2813 01c6 00       		.byte	0
 2814 01c7 23       		.uleb128 0x23
 2815 01c8 2E       		.uleb128 0x2e
 2816 01c9 01       		.byte	0x1
 2817 01ca 3F       		.uleb128 0x3f
 2818 01cb 0C       		.uleb128 0xc
 2819 01cc 03       		.uleb128 0x3
 2820 01cd 0E       		.uleb128 0xe
 2821 01ce 3A       		.uleb128 0x3a
 2822 01cf 0B       		.uleb128 0xb
 2823 01d0 3B       		.uleb128 0x3b
 2824 01d1 05       		.uleb128 0x5
 2825 01d2 27       		.uleb128 0x27
 2826 01d3 0C       		.uleb128 0xc
 2827 01d4 3C       		.uleb128 0x3c
 2828 01d5 0C       		.uleb128 0xc
 2829 01d6 01       		.uleb128 0x1
 2830 01d7 13       		.uleb128 0x13
ARM GAS  C:\Users\Mohamad\AppData\Local\Temp\cc1kb5sj.s 			page 51


 2831 01d8 00       		.byte	0
 2832 01d9 00       		.byte	0
 2833 01da 24       		.uleb128 0x24
 2834 01db 2E       		.uleb128 0x2e
 2835 01dc 01       		.byte	0x1
 2836 01dd 3F       		.uleb128 0x3f
 2837 01de 0C       		.uleb128 0xc
 2838 01df 03       		.uleb128 0x3
 2839 01e0 0E       		.uleb128 0xe
 2840 01e1 3A       		.uleb128 0x3a
 2841 01e2 0B       		.uleb128 0xb
 2842 01e3 3B       		.uleb128 0x3b
 2843 01e4 05       		.uleb128 0x5
 2844 01e5 27       		.uleb128 0x27
 2845 01e6 0C       		.uleb128 0xc
 2846 01e7 3C       		.uleb128 0x3c
 2847 01e8 0C       		.uleb128 0xc
 2848 01e9 00       		.byte	0
 2849 01ea 00       		.byte	0
 2850 01eb 00       		.byte	0
 2851              		.section	.debug_loc,"",%progbits
 2852              	.Ldebug_loc0:
 2853              	.LLST0:
 2854 0000 00000000 		.4byte	.LFB118
 2855 0004 0A000000 		.4byte	.LCFI0
 2856 0008 0200     		.2byte	0x2
 2857 000a 7D       		.byte	0x7d
 2858 000b 00       		.sleb128 0
 2859 000c 0A000000 		.4byte	.LCFI0
 2860 0010 26000000 		.4byte	.LFE118
 2861 0014 0200     		.2byte	0x2
 2862 0016 7D       		.byte	0x7d
 2863 0017 08       		.sleb128 8
 2864 0018 00000000 		.4byte	0
 2865 001c 00000000 		.4byte	0
 2866              	.LLST1:
 2867 0020 00000000 		.4byte	.LFB119
 2868 0024 0A000000 		.4byte	.LCFI1
 2869 0028 0200     		.2byte	0x2
 2870 002a 7D       		.byte	0x7d
 2871 002b 00       		.sleb128 0
 2872 002c 0A000000 		.4byte	.LCFI1
 2873 0030 26000000 		.4byte	.LFE119
 2874 0034 0200     		.2byte	0x2
 2875 0036 7D       		.byte	0x7d
 2876 0037 08       		.sleb128 8
 2877 0038 00000000 		.4byte	0
 2878 003c 00000000 		.4byte	0
 2879              	.LLST2:
 2880 0040 00000000 		.4byte	.LFB120
 2881 0044 0A000000 		.4byte	.LCFI2
 2882 0048 0200     		.2byte	0x2
 2883 004a 7D       		.byte	0x7d
 2884 004b 00       		.sleb128 0
 2885 004c 0A000000 		.4byte	.LCFI2
 2886 0050 26000000 		.4byte	.LFE120
 2887 0054 0200     		.2byte	0x2
ARM GAS  C:\Users\Mohamad\AppData\Local\Temp\cc1kb5sj.s 			page 52


 2888 0056 7D       		.byte	0x7d
 2889 0057 08       		.sleb128 8
 2890 0058 00000000 		.4byte	0
 2891 005c 00000000 		.4byte	0
 2892              	.LLST3:
 2893 0060 00000000 		.4byte	.LFB121
 2894 0064 0A000000 		.4byte	.LCFI3
 2895 0068 0200     		.2byte	0x2
 2896 006a 7D       		.byte	0x7d
 2897 006b 00       		.sleb128 0
 2898 006c 0A000000 		.4byte	.LCFI3
 2899 0070 26000000 		.4byte	.LFE121
 2900 0074 0200     		.2byte	0x2
 2901 0076 7D       		.byte	0x7d
 2902 0077 08       		.sleb128 8
 2903 0078 00000000 		.4byte	0
 2904 007c 00000000 		.4byte	0
 2905              	.LLST4:
 2906 0080 00000000 		.4byte	.LFB122
 2907 0084 0A000000 		.4byte	.LCFI4
 2908 0088 0200     		.2byte	0x2
 2909 008a 7D       		.byte	0x7d
 2910 008b 00       		.sleb128 0
 2911 008c 0A000000 		.4byte	.LCFI4
 2912 0090 26000000 		.4byte	.LFE122
 2913 0094 0200     		.2byte	0x2
 2914 0096 7D       		.byte	0x7d
 2915 0097 08       		.sleb128 8
 2916 0098 00000000 		.4byte	0
 2917 009c 00000000 		.4byte	0
 2918              	.LLST5:
 2919 00a0 00000000 		.4byte	.LFB123
 2920 00a4 0A000000 		.4byte	.LCFI5
 2921 00a8 0200     		.2byte	0x2
 2922 00aa 7D       		.byte	0x7d
 2923 00ab 00       		.sleb128 0
 2924 00ac 0A000000 		.4byte	.LCFI5
 2925 00b0 6C000000 		.4byte	.LFE123
 2926 00b4 0200     		.2byte	0x2
 2927 00b6 7D       		.byte	0x7d
 2928 00b7 08       		.sleb128 8
 2929 00b8 00000000 		.4byte	0
 2930 00bc 00000000 		.4byte	0
 2931              	.LLST6:
 2932 00c0 10000000 		.4byte	.LVL10
 2933 00c4 16000000 		.4byte	.LVL11
 2934 00c8 0100     		.2byte	0x1
 2935 00ca 52       		.byte	0x52
 2936 00cb 16000000 		.4byte	.LVL11
 2937 00cf 5C000000 		.4byte	.LVL17
 2938 00d3 0700     		.2byte	0x7
 2939 00d5 74       		.byte	0x74
 2940 00d6 00       		.sleb128 0
 2941 00d7 0A       		.byte	0xa
 2942 00d8 E003     		.2byte	0x3e0
 2943 00da 1A       		.byte	0x1a
 2944 00db 9F       		.byte	0x9f
ARM GAS  C:\Users\Mohamad\AppData\Local\Temp\cc1kb5sj.s 			page 53


 2945 00dc 5C000000 		.4byte	.LVL17
 2946 00e0 65000000 		.4byte	.LVL18-1
 2947 00e4 0100     		.2byte	0x1
 2948 00e6 52       		.byte	0x52
 2949 00e7 65000000 		.4byte	.LVL18-1
 2950 00eb 6C000000 		.4byte	.LFE123
 2951 00ef 0700     		.2byte	0x7
 2952 00f1 74       		.byte	0x74
 2953 00f2 00       		.sleb128 0
 2954 00f3 0A       		.byte	0xa
 2955 00f4 E003     		.2byte	0x3e0
 2956 00f6 1A       		.byte	0x1a
 2957 00f7 9F       		.byte	0x9f
 2958 00f8 00000000 		.4byte	0
 2959 00fc 00000000 		.4byte	0
 2960              	.LLST7:
 2961 0100 00000000 		.4byte	.LFB124
 2962 0104 0A000000 		.4byte	.LCFI6
 2963 0108 0200     		.2byte	0x2
 2964 010a 7D       		.byte	0x7d
 2965 010b 00       		.sleb128 0
 2966 010c 0A000000 		.4byte	.LCFI6
 2967 0110 7C000000 		.4byte	.LFE124
 2968 0114 0200     		.2byte	0x2
 2969 0116 7D       		.byte	0x7d
 2970 0117 08       		.sleb128 8
 2971 0118 00000000 		.4byte	0
 2972 011c 00000000 		.4byte	0
 2973              	.LLST8:
 2974 0120 10000000 		.4byte	.LVL19
 2975 0124 14000000 		.4byte	.LVL20
 2976 0128 0100     		.2byte	0x1
 2977 012a 52       		.byte	0x52
 2978 012b 14000000 		.4byte	.LVL20
 2979 012f 16000000 		.4byte	.LVL21
 2980 0133 0200     		.2byte	0x2
 2981 0135 73       		.byte	0x73
 2982 0136 14       		.sleb128 20
 2983 0137 16000000 		.4byte	.LVL21
 2984 013b 6C000000 		.4byte	.LVL28
 2985 013f 0700     		.2byte	0x7
 2986 0141 74       		.byte	0x74
 2987 0142 00       		.sleb128 0
 2988 0143 0A       		.byte	0xa
 2989 0144 00FC     		.2byte	0xfc00
 2990 0146 1A       		.byte	0x1a
 2991 0147 9F       		.byte	0x9f
 2992 0148 6C000000 		.4byte	.LVL28
 2993 014c 72000000 		.4byte	.LVL29
 2994 0150 0200     		.2byte	0x2
 2995 0152 73       		.byte	0x73
 2996 0153 14       		.sleb128 20
 2997 0154 72000000 		.4byte	.LVL29
 2998 0158 7C000000 		.4byte	.LFE124
 2999 015c 0700     		.2byte	0x7
 3000 015e 74       		.byte	0x74
 3001 015f 00       		.sleb128 0
ARM GAS  C:\Users\Mohamad\AppData\Local\Temp\cc1kb5sj.s 			page 54


 3002 0160 0A       		.byte	0xa
 3003 0161 00FC     		.2byte	0xfc00
 3004 0163 1A       		.byte	0x1a
 3005 0164 9F       		.byte	0x9f
 3006 0165 00000000 		.4byte	0
 3007 0169 00000000 		.4byte	0
 3008              	.LLST9:
 3009 016d 00000000 		.4byte	.LFB125
 3010 0171 0A000000 		.4byte	.LCFI7
 3011 0175 0200     		.2byte	0x2
 3012 0177 7D       		.byte	0x7d
 3013 0178 00       		.sleb128 0
 3014 0179 0A000000 		.4byte	.LCFI7
 3015 017d 2A000000 		.4byte	.LFE125
 3016 0181 0200     		.2byte	0x2
 3017 0183 7D       		.byte	0x7d
 3018 0184 08       		.sleb128 8
 3019 0185 00000000 		.4byte	0
 3020 0189 00000000 		.4byte	0
 3021              	.LLST10:
 3022 018d 00000000 		.4byte	.LFB126
 3023 0191 0A000000 		.4byte	.LCFI8
 3024 0195 0200     		.2byte	0x2
 3025 0197 7D       		.byte	0x7d
 3026 0198 00       		.sleb128 0
 3027 0199 0A000000 		.4byte	.LCFI8
 3028 019d 2A000000 		.4byte	.LFE126
 3029 01a1 0200     		.2byte	0x2
 3030 01a3 7D       		.byte	0x7d
 3031 01a4 08       		.sleb128 8
 3032 01a5 00000000 		.4byte	0
 3033 01a9 00000000 		.4byte	0
 3034              	.LLST11:
 3035 01ad 00000000 		.4byte	.LFB127
 3036 01b1 0A000000 		.4byte	.LCFI9
 3037 01b5 0200     		.2byte	0x2
 3038 01b7 7D       		.byte	0x7d
 3039 01b8 00       		.sleb128 0
 3040 01b9 0A000000 		.4byte	.LCFI9
 3041 01bd 2A000000 		.4byte	.LFE127
 3042 01c1 0200     		.2byte	0x2
 3043 01c3 7D       		.byte	0x7d
 3044 01c4 08       		.sleb128 8
 3045 01c5 00000000 		.4byte	0
 3046 01c9 00000000 		.4byte	0
 3047              	.LLST12:
 3048 01cd 00000000 		.4byte	.LFB128
 3049 01d1 0A000000 		.4byte	.LCFI10
 3050 01d5 0200     		.2byte	0x2
 3051 01d7 7D       		.byte	0x7d
 3052 01d8 00       		.sleb128 0
 3053 01d9 0A000000 		.4byte	.LCFI10
 3054 01dd 2A000000 		.4byte	.LFE128
 3055 01e1 0200     		.2byte	0x2
 3056 01e3 7D       		.byte	0x7d
 3057 01e4 08       		.sleb128 8
 3058 01e5 00000000 		.4byte	0
ARM GAS  C:\Users\Mohamad\AppData\Local\Temp\cc1kb5sj.s 			page 55


 3059 01e9 00000000 		.4byte	0
 3060              	.LLST13:
 3061 01ed 00000000 		.4byte	.LFB129
 3062 01f1 0A000000 		.4byte	.LCFI11
 3063 01f5 0200     		.2byte	0x2
 3064 01f7 7D       		.byte	0x7d
 3065 01f8 00       		.sleb128 0
 3066 01f9 0A000000 		.4byte	.LCFI11
 3067 01fd 2A000000 		.4byte	.LFE129
 3068 0201 0200     		.2byte	0x2
 3069 0203 7D       		.byte	0x7d
 3070 0204 08       		.sleb128 8
 3071 0205 00000000 		.4byte	0
 3072 0209 00000000 		.4byte	0
 3073              	.LLST14:
 3074 020d 00000000 		.4byte	.LFB130
 3075 0211 0A000000 		.4byte	.LCFI12
 3076 0215 0200     		.2byte	0x2
 3077 0217 7D       		.byte	0x7d
 3078 0218 00       		.sleb128 0
 3079 0219 0A000000 		.4byte	.LCFI12
 3080 021d 2A000000 		.4byte	.LFE130
 3081 0221 0200     		.2byte	0x2
 3082 0223 7D       		.byte	0x7d
 3083 0224 08       		.sleb128 8
 3084 0225 00000000 		.4byte	0
 3085 0229 00000000 		.4byte	0
 3086              	.LLST15:
 3087 022d 00000000 		.4byte	.LFB131
 3088 0231 0A000000 		.4byte	.LCFI13
 3089 0235 0200     		.2byte	0x2
 3090 0237 7D       		.byte	0x7d
 3091 0238 00       		.sleb128 0
 3092 0239 0A000000 		.4byte	.LCFI13
 3093 023d 2A000000 		.4byte	.LFE131
 3094 0241 0200     		.2byte	0x2
 3095 0243 7D       		.byte	0x7d
 3096 0244 08       		.sleb128 8
 3097 0245 00000000 		.4byte	0
 3098 0249 00000000 		.4byte	0
 3099              	.LLST16:
 3100 024d 00000000 		.4byte	.LFB132
 3101 0251 02000000 		.4byte	.LCFI14
 3102 0255 0200     		.2byte	0x2
 3103 0257 7D       		.byte	0x7d
 3104 0258 00       		.sleb128 0
 3105 0259 02000000 		.4byte	.LCFI14
 3106 025d 76000000 		.4byte	.LFE132
 3107 0261 0200     		.2byte	0x2
 3108 0263 7D       		.byte	0x7d
 3109 0264 08       		.sleb128 8
 3110 0265 00000000 		.4byte	0
 3111 0269 00000000 		.4byte	0
 3112              	.LLST17:
 3113 026d 00000000 		.4byte	.LFB133
 3114 0271 02000000 		.4byte	.LCFI15
 3115 0275 0200     		.2byte	0x2
ARM GAS  C:\Users\Mohamad\AppData\Local\Temp\cc1kb5sj.s 			page 56


 3116 0277 7D       		.byte	0x7d
 3117 0278 00       		.sleb128 0
 3118 0279 02000000 		.4byte	.LCFI15
 3119 027d 5A000000 		.4byte	.LFE133
 3120 0281 0200     		.2byte	0x2
 3121 0283 7D       		.byte	0x7d
 3122 0284 08       		.sleb128 8
 3123 0285 00000000 		.4byte	0
 3124 0289 00000000 		.4byte	0
 3125              		.section	.debug_aranges,"",%progbits
 3126 0000 94000000 		.4byte	0x94
 3127 0004 0200     		.2byte	0x2
 3128 0006 00000000 		.4byte	.Ldebug_info0
 3129 000a 04       		.byte	0x4
 3130 000b 00       		.byte	0
 3131 000c 0000     		.2byte	0
 3132 000e 0000     		.2byte	0
 3133 0010 00000000 		.4byte	.LFB118
 3134 0014 26000000 		.4byte	.LFE118-.LFB118
 3135 0018 00000000 		.4byte	.LFB119
 3136 001c 26000000 		.4byte	.LFE119-.LFB119
 3137 0020 00000000 		.4byte	.LFB120
 3138 0024 26000000 		.4byte	.LFE120-.LFB120
 3139 0028 00000000 		.4byte	.LFB121
 3140 002c 26000000 		.4byte	.LFE121-.LFB121
 3141 0030 00000000 		.4byte	.LFB122
 3142 0034 26000000 		.4byte	.LFE122-.LFB122
 3143 0038 00000000 		.4byte	.LFB123
 3144 003c 6C000000 		.4byte	.LFE123-.LFB123
 3145 0040 00000000 		.4byte	.LFB124
 3146 0044 7C000000 		.4byte	.LFE124-.LFB124
 3147 0048 00000000 		.4byte	.LFB125
 3148 004c 2A000000 		.4byte	.LFE125-.LFB125
 3149 0050 00000000 		.4byte	.LFB126
 3150 0054 2A000000 		.4byte	.LFE126-.LFB126
 3151 0058 00000000 		.4byte	.LFB127
 3152 005c 2A000000 		.4byte	.LFE127-.LFB127
 3153 0060 00000000 		.4byte	.LFB128
 3154 0064 2A000000 		.4byte	.LFE128-.LFB128
 3155 0068 00000000 		.4byte	.LFB129
 3156 006c 2A000000 		.4byte	.LFE129-.LFB129
 3157 0070 00000000 		.4byte	.LFB130
 3158 0074 2A000000 		.4byte	.LFE130-.LFB130
 3159 0078 00000000 		.4byte	.LFB131
 3160 007c 2A000000 		.4byte	.LFE131-.LFB131
 3161 0080 00000000 		.4byte	.LFB132
 3162 0084 76000000 		.4byte	.LFE132-.LFB132
 3163 0088 00000000 		.4byte	.LFB133
 3164 008c 5A000000 		.4byte	.LFE133-.LFB133
 3165 0090 00000000 		.4byte	0
 3166 0094 00000000 		.4byte	0
 3167              		.section	.debug_ranges,"",%progbits
 3168              	.Ldebug_ranges0:
 3169 0000 00000000 		.4byte	.LFB118
 3170 0004 26000000 		.4byte	.LFE118
 3171 0008 00000000 		.4byte	.LFB119
 3172 000c 26000000 		.4byte	.LFE119
ARM GAS  C:\Users\Mohamad\AppData\Local\Temp\cc1kb5sj.s 			page 57


 3173 0010 00000000 		.4byte	.LFB120
 3174 0014 26000000 		.4byte	.LFE120
 3175 0018 00000000 		.4byte	.LFB121
 3176 001c 26000000 		.4byte	.LFE121
 3177 0020 00000000 		.4byte	.LFB122
 3178 0024 26000000 		.4byte	.LFE122
 3179 0028 00000000 		.4byte	.LFB123
 3180 002c 6C000000 		.4byte	.LFE123
 3181 0030 00000000 		.4byte	.LFB124
 3182 0034 7C000000 		.4byte	.LFE124
 3183 0038 00000000 		.4byte	.LFB125
 3184 003c 2A000000 		.4byte	.LFE125
 3185 0040 00000000 		.4byte	.LFB126
 3186 0044 2A000000 		.4byte	.LFE126
 3187 0048 00000000 		.4byte	.LFB127
 3188 004c 2A000000 		.4byte	.LFE127
 3189 0050 00000000 		.4byte	.LFB128
 3190 0054 2A000000 		.4byte	.LFE128
 3191 0058 00000000 		.4byte	.LFB129
 3192 005c 2A000000 		.4byte	.LFE129
 3193 0060 00000000 		.4byte	.LFB130
 3194 0064 2A000000 		.4byte	.LFE130
 3195 0068 00000000 		.4byte	.LFB131
 3196 006c 2A000000 		.4byte	.LFE131
 3197 0070 00000000 		.4byte	.LFB132
 3198 0074 76000000 		.4byte	.LFE132
 3199 0078 00000000 		.4byte	.LFB133
 3200 007c 5A000000 		.4byte	.LFE133
 3201 0080 00000000 		.4byte	0
 3202 0084 00000000 		.4byte	0
 3203              		.section	.debug_line,"",%progbits
 3204              	.Ldebug_line0:
 3205 0000 85030000 		.section	.debug_str,"MS",%progbits,1
 3205      0200DE01 
 3205      00000201 
 3205      FB0E0D00 
 3205      01010101 
 3206              	.LASF42:
 3207 0000 43414E31 		.ascii	"CAN1_RX0_IRQn\000"
 3207      5F525830 
 3207      5F495251 
 3207      6E00
 3208              	.LASF23:
 3209 000e 5056445F 		.ascii	"PVD_IRQn\000"
 3209      4952516E 
 3209      00
 3210              	.LASF86:
 3211 0017 43414E32 		.ascii	"CAN2_RX0_IRQn\000"
 3211      5F525830 
 3211      5F495251 
 3211      6E00
 3212              	.LASF126:
 3213 0025 56656374 		.ascii	"Vector9C\000"
 3213      6F723943 
 3213      00
 3214              	.LASF95:
 3215 002e 49324333 		.ascii	"I2C3_ER_IRQn\000"
ARM GAS  C:\Users\Mohamad\AppData\Local\Temp\cc1kb5sj.s 			page 58


 3215      5F45525F 
 3215      4952516E 
 3215      00
 3216              	.LASF53:
 3217 003b 49324331 		.ascii	"I2C1_EV_IRQn\000"
 3217      5F45565F 
 3217      4952516E 
 3217      00
 3218              	.LASF115:
 3219 0048 65787063 		.ascii	"expchannel_t\000"
 3219      68616E6E 
 3219      656C5F74 
 3219      00
 3220              	.LASF90:
 3221 0055 444D4132 		.ascii	"DMA2_Stream5_IRQn\000"
 3221      5F537472 
 3221      65616D35 
 3221      5F495251 
 3221      6E00
 3222              	.LASF106:
 3223 0067 53574945 		.ascii	"SWIER\000"
 3223      5200
 3224              	.LASF131:
 3225 006d 56656374 		.ascii	"Vector138\000"
 3225      6F723133 
 3225      3800
 3226              	.LASF43:
 3227 0077 43414E31 		.ascii	"CAN1_RX1_IRQn\000"
 3227      5F525831 
 3227      5F495251 
 3227      6E00
 3228              	.LASF10:
 3229 0085 6C6F6E67 		.ascii	"long long unsigned int\000"
 3229      206C6F6E 
 3229      6720756E 
 3229      7369676E 
 3229      65642069 
 3230              	.LASF63:
 3231 009c 5254435F 		.ascii	"RTC_Alarm_IRQn\000"
 3231      416C6172 
 3231      6D5F4952 
 3231      516E00
 3232              	.LASF56:
 3233 00ab 49324332 		.ascii	"I2C2_ER_IRQn\000"
 3233      5F45525F 
 3233      4952516E 
 3233      00
 3234              	.LASF52:
 3235 00b8 54494D34 		.ascii	"TIM4_IRQn\000"
 3235      5F495251 
 3235      6E00
 3236              	.LASF25:
 3237 00c2 5254435F 		.ascii	"RTC_WKUP_IRQn\000"
 3237      574B5550 
 3237      5F495251 
 3237      6E00
 3238              	.LASF22:
ARM GAS  C:\Users\Mohamad\AppData\Local\Temp\cc1kb5sj.s 			page 59


 3239 00d0 57574447 		.ascii	"WWDG_IRQn\000"
 3239      5F495251 
 3239      6E00
 3240              	.LASF71:
 3241 00da 5344494F 		.ascii	"SDIO_IRQn\000"
 3241      5F495251 
 3241      6E00
 3242              	.LASF144:
 3243 00e4 6E766963 		.ascii	"nvicEnableVector\000"
 3243      456E6162 
 3243      6C655665 
 3243      63746F72 
 3243      00
 3244              	.LASF68:
 3245 00f5 54494D38 		.ascii	"TIM8_CC_IRQn\000"
 3245      5F43435F 
 3245      4952516E 
 3245      00
 3246              	.LASF9:
 3247 0102 6C6F6E67 		.ascii	"long long int\000"
 3247      206C6F6E 
 3247      6720696E 
 3247      7400
 3248              	.LASF1:
 3249 0110 7369676E 		.ascii	"signed char\000"
 3249      65642063 
 3249      68617200 
 3250              	.LASF87:
 3251 011c 43414E32 		.ascii	"CAN2_RX1_IRQn\000"
 3251      5F525831 
 3251      5F495251 
 3251      6E00
 3252              	.LASF91:
 3253 012a 444D4132 		.ascii	"DMA2_Stream6_IRQn\000"
 3253      5F537472 
 3253      65616D36 
 3253      5F495251 
 3253      6E00
 3254              	.LASF113:
 3255 013c 73746174 		.ascii	"state\000"
 3255      6500
 3256              	.LASF119:
 3257 0142 6368616E 		.ascii	"channels\000"
 3257      6E656C73 
 3257      00
 3258              	.LASF5:
 3259 014b 6C6F6E67 		.ascii	"long int\000"
 3259      20696E74 
 3259      00
 3260              	.LASF55:
 3261 0154 49324332 		.ascii	"I2C2_EV_IRQn\000"
 3261      5F45565F 
 3261      4952516E 
 3261      00
 3262              	.LASF38:
 3263 0161 444D4131 		.ascii	"DMA1_Stream5_IRQn\000"
 3263      5F537472 
ARM GAS  C:\Users\Mohamad\AppData\Local\Temp\cc1kb5sj.s 			page 60


 3263      65616D35 
 3263      5F495251 
 3263      6E00
 3264              	.LASF45:
 3265 0173 45585449 		.ascii	"EXTI9_5_IRQn\000"
 3265      395F355F 
 3265      4952516E 
 3265      00
 3266              	.LASF84:
 3267 0180 4554485F 		.ascii	"ETH_WKUP_IRQn\000"
 3267      574B5550 
 3267      5F495251 
 3267      6E00
 3268              	.LASF76:
 3269 018e 54494D36 		.ascii	"TIM6_DAC_IRQn\000"
 3269      5F444143 
 3269      5F495251 
 3269      6E00
 3270              	.LASF74:
 3271 019c 55415254 		.ascii	"UART4_IRQn\000"
 3271      345F4952 
 3271      516E00
 3272              	.LASF118:
 3273 01a7 45585443 		.ascii	"EXTChannelConfig\000"
 3273      68616E6E 
 3273      656C436F 
 3273      6E666967 
 3273      00
 3274              	.LASF20:
 3275 01b8 50656E64 		.ascii	"PendSV_IRQn\000"
 3275      53565F49 
 3275      52516E00 
 3276              	.LASF66:
 3277 01c4 54494D38 		.ascii	"TIM8_UP_TIM13_IRQn\000"
 3277      5F55505F 
 3277      54494D31 
 3277      335F4952 
 3277      516E00
 3278              	.LASF16:
 3279 01d7 42757346 		.ascii	"BusFault_IRQn\000"
 3279      61756C74 
 3279      5F495251 
 3279      6E00
 3280              	.LASF64:
 3281 01e5 4F54475F 		.ascii	"OTG_FS_WKUP_IRQn\000"
 3281      46535F57 
 3281      4B55505F 
 3281      4952516E 
 3281      00
 3282              	.LASF140:
 3283 01f6 2E2E2F2E 		.ascii	"../../chibios/os/hal/platforms/STM32F4xx/ext_lld_is"
 3283      2E2F6368 
 3283      6962696F 
 3283      732F6F73 
 3283      2F68616C 
 3284 0229 722E6300 		.ascii	"r.c\000"
 3285              	.LASF92:
ARM GAS  C:\Users\Mohamad\AppData\Local\Temp\cc1kb5sj.s 			page 61


 3286 022d 444D4132 		.ascii	"DMA2_Stream7_IRQn\000"
 3286      5F537472 
 3286      65616D37 
 3286      5F495251 
 3286      6E00
 3287              	.LASF136:
 3288 023f 6578745F 		.ascii	"ext_lld_exti_irq_disable\000"
 3288      6C6C645F 
 3288      65787469 
 3288      5F697271 
 3288      5F646973 
 3289              	.LASF0:
 3290 0258 756E7369 		.ascii	"unsigned int\000"
 3290      676E6564 
 3290      20696E74 
 3290      00
 3291              	.LASF36:
 3292 0265 444D4131 		.ascii	"DMA1_Stream3_IRQn\000"
 3292      5F537472 
 3292      65616D33 
 3292      5F495251 
 3292      6E00
 3293              	.LASF39:
 3294 0277 444D4131 		.ascii	"DMA1_Stream6_IRQn\000"
 3294      5F537472 
 3294      65616D36 
 3294      5F495251 
 3294      6E00
 3295              	.LASF104:
 3296 0289 52545352 		.ascii	"RTSR\000"
 3296      00
 3297              	.LASF15:
 3298 028e 4D656D6F 		.ascii	"MemoryManagement_IRQn\000"
 3298      72794D61 
 3298      6E616765 
 3298      6D656E74 
 3298      5F495251 
 3299              	.LASF94:
 3300 02a4 49324333 		.ascii	"I2C3_EV_IRQn\000"
 3300      5F45565F 
 3300      4952516E 
 3300      00
 3301              	.LASF8:
 3302 02b1 6C6F6E67 		.ascii	"long unsigned int\000"
 3302      20756E73 
 3302      69676E65 
 3302      6420696E 
 3302      7400
 3303              	.LASF134:
 3304 02c3 56656374 		.ascii	"Vector4C\000"
 3304      6F723443 
 3304      00
 3305              	.LASF96:
 3306 02cc 4F54475F 		.ascii	"OTG_HS_EP1_OUT_IRQn\000"
 3306      48535F45 
 3306      50315F4F 
 3306      55545F49 
ARM GAS  C:\Users\Mohamad\AppData\Local\Temp\cc1kb5sj.s 			page 62


 3306      52516E00 
 3307              	.LASF18:
 3308 02e0 53564361 		.ascii	"SVCall_IRQn\000"
 3308      6C6C5F49 
 3308      52516E00 
 3309              	.LASF4:
 3310 02ec 73686F72 		.ascii	"short unsigned int\000"
 3310      7420756E 
 3310      7369676E 
 3310      65642069 
 3310      6E7400
 3311              	.LASF135:
 3312 02ff 6578745F 		.ascii	"ext_lld_exti_irq_enable\000"
 3312      6C6C645F 
 3312      65787469 
 3312      5F697271 
 3312      5F656E61 
 3313              	.LASF41:
 3314 0317 43414E31 		.ascii	"CAN1_TX_IRQn\000"
 3314      5F54585F 
 3314      4952516E 
 3314      00
 3315              	.LASF62:
 3316 0324 45585449 		.ascii	"EXTI15_10_IRQn\000"
 3316      31355F31 
 3316      305F4952 
 3316      516E00
 3317              	.LASF57:
 3318 0333 53504931 		.ascii	"SPI1_IRQn\000"
 3318      5F495251 
 3318      6E00
 3319              	.LASF34:
 3320 033d 444D4131 		.ascii	"DMA1_Stream1_IRQn\000"
 3320      5F537472 
 3320      65616D31 
 3320      5F495251 
 3320      6E00
 3321              	.LASF65:
 3322 034f 54494D38 		.ascii	"TIM8_BRK_TIM12_IRQn\000"
 3322      5F42524B 
 3322      5F54494D 
 3322      31325F49 
 3322      52516E00 
 3323              	.LASF21:
 3324 0363 53797354 		.ascii	"SysTick_IRQn\000"
 3324      69636B5F 
 3324      4952516E 
 3324      00
 3325              	.LASF49:
 3326 0370 54494D31 		.ascii	"TIM1_CC_IRQn\000"
 3326      5F43435F 
 3326      4952516E 
 3326      00
 3327              	.LASF67:
 3328 037d 54494D38 		.ascii	"TIM8_TRG_COM_TIM14_IRQn\000"
 3328      5F545247 
 3328      5F434F4D 
ARM GAS  C:\Users\Mohamad\AppData\Local\Temp\cc1kb5sj.s 			page 63


 3328      5F54494D 
 3328      31345F49 
 3329              	.LASF110:
 3330 0395 4558545F 		.ascii	"EXT_ACTIVE\000"
 3330      41435449 
 3330      564500
 3331              	.LASF121:
 3332 03a0 56656374 		.ascii	"Vector58\000"
 3332      6F723538 
 3332      00
 3333              	.LASF83:
 3334 03a9 4554485F 		.ascii	"ETH_IRQn\000"
 3334      4952516E 
 3334      00
 3335              	.LASF142:
 3336 03b2 4952516E 		.ascii	"IRQn\000"
 3336      00
 3337              	.LASF122:
 3338 03b7 56656374 		.ascii	"Vector5C\000"
 3338      6F723543 
 3338      00
 3339              	.LASF12:
 3340 03c0 73697A65 		.ascii	"sizetype\000"
 3340      74797065 
 3340      00
 3341              	.LASF111:
 3342 03c9 65787473 		.ascii	"extstate_t\000"
 3342      74617465 
 3342      5F7400
 3343              	.LASF47:
 3344 03d4 54494D31 		.ascii	"TIM1_UP_TIM10_IRQn\000"
 3344      5F55505F 
 3344      54494D31 
 3344      305F4952 
 3344      516E00
 3345              	.LASF133:
 3346 03e7 54414D50 		.ascii	"TAMPER_STAMP_IRQHandler\000"
 3346      45525F53 
 3346      54414D50 
 3346      5F495251 
 3346      48616E64 
 3347              	.LASF81:
 3348 03ff 444D4132 		.ascii	"DMA2_Stream3_IRQn\000"
 3348      5F537472 
 3348      65616D33 
 3348      5F495251 
 3348      6E00
 3349              	.LASF37:
 3350 0411 444D4131 		.ascii	"DMA1_Stream4_IRQn\000"
 3350      5F537472 
 3350      65616D34 
 3350      5F495251 
 3350      6E00
 3351              	.LASF80:
 3352 0423 444D4132 		.ascii	"DMA2_Stream2_IRQn\000"
 3352      5F537472 
 3352      65616D32 
ARM GAS  C:\Users\Mohamad\AppData\Local\Temp\cc1kb5sj.s 			page 64


 3352      5F495251 
 3352      6E00
 3353              	.LASF93:
 3354 0435 55534152 		.ascii	"USART6_IRQn\000"
 3354      54365F49 
 3354      52516E00 
 3355              	.LASF72:
 3356 0441 54494D35 		.ascii	"TIM5_IRQn\000"
 3356      5F495251 
 3356      6E00
 3357              	.LASF139:
 3358 044b 474E5520 		.ascii	"GNU C 4.7.4 20140401 (release) [ARM/embedded-4_7-br"
 3358      4320342E 
 3358      372E3420 
 3358      32303134 
 3358      30343031 
 3359 047e 616E6368 		.ascii	"anch revision 209195]\000"
 3359      20726576 
 3359      6973696F 
 3359      6E203230 
 3359      39313935 
 3360              	.LASF58:
 3361 0494 53504932 		.ascii	"SPI2_IRQn\000"
 3361      5F495251 
 3361      6E00
 3362              	.LASF35:
 3363 049e 444D4131 		.ascii	"DMA1_Stream2_IRQn\000"
 3363      5F537472 
 3363      65616D32 
 3363      5F495251 
 3363      6E00
 3364              	.LASF85:
 3365 04b0 43414E32 		.ascii	"CAN2_TX_IRQn\000"
 3365      5F54585F 
 3365      4952516E 
 3365      00
 3366              	.LASF89:
 3367 04bd 4F54475F 		.ascii	"OTG_FS_IRQn\000"
 3367      46535F49 
 3367      52516E00 
 3368              	.LASF128:
 3369 04c9 56656374 		.ascii	"Vector44\000"
 3369      6F723434 
 3369      00
 3370              	.LASF127:
 3371 04d2 56656374 		.ascii	"VectorE0\000"
 3371      6F724530 
 3371      00
 3372              	.LASF129:
 3373 04db 56656374 		.ascii	"VectorE4\000"
 3373      6F724534 
 3373      00
 3374              	.LASF24:
 3375 04e4 54414D50 		.ascii	"TAMP_STAMP_IRQn\000"
 3375      5F535441 
 3375      4D505F49 
 3375      52516E00 
ARM GAS  C:\Users\Mohamad\AppData\Local\Temp\cc1kb5sj.s 			page 65


 3376              	.LASF99:
 3377 04f4 4F54475F 		.ascii	"OTG_HS_IRQn\000"
 3377      48535F49 
 3377      52516E00 
 3378              	.LASF130:
 3379 0500 56656374 		.ascii	"VectorE8\000"
 3379      6F724538 
 3379      00
 3380              	.LASF132:
 3381 0509 56656374 		.ascii	"Vector170\000"
 3381      6F723137 
 3381      3000
 3382              	.LASF123:
 3383 0513 56656374 		.ascii	"Vector60\000"
 3383      6F723630 
 3383      00
 3384              	.LASF124:
 3385 051c 56656374 		.ascii	"Vector64\000"
 3385      6F723634 
 3385      00
 3386              	.LASF125:
 3387 0525 56656374 		.ascii	"Vector68\000"
 3387      6F723638 
 3387      00
 3388              	.LASF59:
 3389 052e 55534152 		.ascii	"USART1_IRQn\000"
 3389      54315F49 
 3389      52516E00 
 3390              	.LASF73:
 3391 053a 53504933 		.ascii	"SPI3_IRQn\000"
 3391      5F495251 
 3391      6E00
 3392              	.LASF82:
 3393 0544 444D4132 		.ascii	"DMA2_Stream4_IRQn\000"
 3393      5F537472 
 3393      65616D34 
 3393      5F495251 
 3393      6E00
 3394              	.LASF70:
 3395 0556 46534D43 		.ascii	"FSMC_IRQn\000"
 3395      5F495251 
 3395      6E00
 3396              	.LASF11:
 3397 0560 5F426F6F 		.ascii	"_Bool\000"
 3397      6C00
 3398              	.LASF6:
 3399 0566 696E7433 		.ascii	"int32_t\000"
 3399      325F7400 
 3400              	.LASF2:
 3401 056e 756E7369 		.ascii	"unsigned char\000"
 3401      676E6564 
 3401      20636861 
 3401      7200
 3402              	.LASF108:
 3403 057c 4558545F 		.ascii	"EXT_UNINIT\000"
 3403      554E494E 
 3403      495400
ARM GAS  C:\Users\Mohamad\AppData\Local\Temp\cc1kb5sj.s 			page 66


 3404              	.LASF46:
 3405 0587 54494D31 		.ascii	"TIM1_BRK_TIM9_IRQn\000"
 3405      5F42524B 
 3405      5F54494D 
 3405      395F4952 
 3405      516E00
 3406              	.LASF137:
 3407 059a 49544D5F 		.ascii	"ITM_RxBuffer\000"
 3407      52784275 
 3407      66666572 
 3407      00
 3408              	.LASF105:
 3409 05a7 46545352 		.ascii	"FTSR\000"
 3409      00
 3410              	.LASF32:
 3411 05ac 45585449 		.ascii	"EXTI4_IRQn\000"
 3411      345F4952 
 3411      516E00
 3412              	.LASF102:
 3413 05b7 48415348 		.ascii	"HASH_RNG_IRQn\000"
 3413      5F524E47 
 3413      5F495251 
 3413      6E00
 3414              	.LASF3:
 3415 05c5 73686F72 		.ascii	"short int\000"
 3415      7420696E 
 3415      7400
 3416              	.LASF75:
 3417 05cf 55415254 		.ascii	"UART5_IRQn\000"
 3417      355F4952 
 3417      516E00
 3418              	.LASF48:
 3419 05da 54494D31 		.ascii	"TIM1_TRG_COM_TIM11_IRQn\000"
 3419      5F545247 
 3419      5F434F4D 
 3419      5F54494D 
 3419      31315F49 
 3420              	.LASF30:
 3421 05f2 45585449 		.ascii	"EXTI2_IRQn\000"
 3421      325F4952 
 3421      516E00
 3422              	.LASF26:
 3423 05fd 464C4153 		.ascii	"FLASH_IRQn\000"
 3423      485F4952 
 3423      516E00
 3424              	.LASF141:
 3425 0608 433A5C43 		.ascii	"C:\\ChibiStudio\\workspace\\DCM_test_3\000"
 3425      68696269 
 3425      53747564 
 3425      696F5C77 
 3425      6F726B73 
 3426              	.LASF7:
 3427 062c 75696E74 		.ascii	"uint32_t\000"
 3427      33325F74 
 3427      00
 3428              	.LASF60:
 3429 0635 55534152 		.ascii	"USART2_IRQn\000"
ARM GAS  C:\Users\Mohamad\AppData\Local\Temp\cc1kb5sj.s 			page 67


 3429      54325F49 
 3429      52516E00 
 3430              	.LASF17:
 3431 0641 55736167 		.ascii	"UsageFault_IRQn\000"
 3431      65466175 
 3431      6C745F49 
 3431      52516E00 
 3432              	.LASF145:
 3433 0651 6E766963 		.ascii	"nvicDisableVector\000"
 3433      44697361 
 3433      626C6556 
 3433      6563746F 
 3433      7200
 3434              	.LASF109:
 3435 0663 4558545F 		.ascii	"EXT_STOP\000"
 3435      53544F50 
 3435      00
 3436              	.LASF69:
 3437 066c 444D4131 		.ascii	"DMA1_Stream7_IRQn\000"
 3437      5F537472 
 3437      65616D37 
 3437      5F495251 
 3437      6E00
 3438              	.LASF13:
 3439 067e 63686172 		.ascii	"char\000"
 3439      00
 3440              	.LASF117:
 3441 0683 6D6F6465 		.ascii	"mode\000"
 3441      00
 3442              	.LASF101:
 3443 0688 43525950 		.ascii	"CRYP_IRQn\000"
 3443      5F495251 
 3443      6E00
 3444              	.LASF114:
 3445 0692 636F6E66 		.ascii	"config\000"
 3445      696700
 3446              	.LASF116:
 3447 0699 65787463 		.ascii	"extcallback_t\000"
 3447      616C6C62 
 3447      61636B5F 
 3447      7400
 3448              	.LASF77:
 3449 06a7 54494D37 		.ascii	"TIM7_IRQn\000"
 3449      5F495251 
 3449      6E00
 3450              	.LASF97:
 3451 06b1 4F54475F 		.ascii	"OTG_HS_EP1_IN_IRQn\000"
 3451      48535F45 
 3451      50315F49 
 3451      4E5F4952 
 3451      516E00
 3452              	.LASF14:
 3453 06c4 4E6F6E4D 		.ascii	"NonMaskableInt_IRQn\000"
 3453      61736B61 
 3453      626C6549 
 3453      6E745F49 
 3453      52516E00 
ARM GAS  C:\Users\Mohamad\AppData\Local\Temp\cc1kb5sj.s 			page 68


 3454              	.LASF54:
 3455 06d8 49324331 		.ascii	"I2C1_ER_IRQn\000"
 3455      5F45525F 
 3455      4952516E 
 3455      00
 3456              	.LASF78:
 3457 06e5 444D4132 		.ascii	"DMA2_Stream0_IRQn\000"
 3457      5F537472 
 3457      65616D30 
 3457      5F495251 
 3457      6E00
 3458              	.LASF61:
 3459 06f7 55534152 		.ascii	"USART3_IRQn\000"
 3459      54335F49 
 3459      52516E00 
 3460              	.LASF112:
 3461 0703 45585444 		.ascii	"EXTDriver\000"
 3461      72697665 
 3461      7200
 3462              	.LASF50:
 3463 070d 54494D32 		.ascii	"TIM2_IRQn\000"
 3463      5F495251 
 3463      6E00
 3464              	.LASF28:
 3465 0717 45585449 		.ascii	"EXTI0_IRQn\000"
 3465      305F4952 
 3465      516E00
 3466              	.LASF31:
 3467 0722 45585449 		.ascii	"EXTI3_IRQn\000"
 3467      335F4952 
 3467      516E00
 3468              	.LASF143:
 3469 072d 5F706F72 		.ascii	"_port_irq_epilogue\000"
 3469      745F6972 
 3469      715F6570 
 3469      696C6F67 
 3469      756500
 3470              	.LASF100:
 3471 0740 44434D49 		.ascii	"DCMI_IRQn\000"
 3471      5F495251 
 3471      6E00
 3472              	.LASF120:
 3473 074a 45585443 		.ascii	"EXTConfig\000"
 3473      6F6E6669 
 3473      6700
 3474              	.LASF103:
 3475 0754 4650555F 		.ascii	"FPU_IRQn\000"
 3475      4952516E 
 3475      00
 3476              	.LASF19:
 3477 075d 44656275 		.ascii	"DebugMonitor_IRQn\000"
 3477      674D6F6E 
 3477      69746F72 
 3477      5F495251 
 3477      6E00
 3478              	.LASF107:
 3479 076f 45585449 		.ascii	"EXTI_TypeDef\000"
ARM GAS  C:\Users\Mohamad\AppData\Local\Temp\cc1kb5sj.s 			page 69


 3479      5F547970 
 3479      65446566 
 3479      00
 3480              	.LASF40:
 3481 077c 4144435F 		.ascii	"ADC_IRQn\000"
 3481      4952516E 
 3481      00
 3482              	.LASF79:
 3483 0785 444D4132 		.ascii	"DMA2_Stream1_IRQn\000"
 3483      5F537472 
 3483      65616D31 
 3483      5F495251 
 3483      6E00
 3484              	.LASF138:
 3485 0797 45585444 		.ascii	"EXTD1\000"
 3485      3100
 3486              	.LASF44:
 3487 079d 43414E31 		.ascii	"CAN1_SCE_IRQn\000"
 3487      5F534345 
 3487      5F495251 
 3487      6E00
 3488              	.LASF88:
 3489 07ab 43414E32 		.ascii	"CAN2_SCE_IRQn\000"
 3489      5F534345 
 3489      5F495251 
 3489      6E00
 3490              	.LASF27:
 3491 07b9 5243435F 		.ascii	"RCC_IRQn\000"
 3491      4952516E 
 3491      00
 3492              	.LASF98:
 3493 07c2 4F54475F 		.ascii	"OTG_HS_WKUP_IRQn\000"
 3493      48535F57 
 3493      4B55505F 
 3493      4952516E 
 3493      00
 3494              	.LASF51:
 3495 07d3 54494D33 		.ascii	"TIM3_IRQn\000"
 3495      5F495251 
 3495      6E00
 3496              	.LASF29:
 3497 07dd 45585449 		.ascii	"EXTI1_IRQn\000"
 3497      315F4952 
 3497      516E00
 3498              	.LASF33:
 3499 07e8 444D4131 		.ascii	"DMA1_Stream0_IRQn\000"
 3499      5F537472 
 3499      65616D30 
 3499      5F495251 
 3499      6E00
 3500              		.ident	"GCC: (GNU Tools for ARM Embedded Processors) 4.7.4 20140401 (release) [ARM/embedded-4_7-br
ARM GAS  C:\Users\Mohamad\AppData\Local\Temp\cc1kb5sj.s 			page 70


DEFINED SYMBOLS
                            *ABS*:00000000 ext_lld_isr.c
C:\Users\Mohamad\AppData\Local\Temp\cc1kb5sj.s:19     .text.Vector58:00000000 $t
C:\Users\Mohamad\AppData\Local\Temp\cc1kb5sj.s:25     .text.Vector58:00000000 Vector58
C:\Users\Mohamad\AppData\Local\Temp\cc1kb5sj.s:63     .text.Vector5C:00000000 $t
C:\Users\Mohamad\AppData\Local\Temp\cc1kb5sj.s:69     .text.Vector5C:00000000 Vector5C
C:\Users\Mohamad\AppData\Local\Temp\cc1kb5sj.s:106    .text.Vector60:00000000 $t
C:\Users\Mohamad\AppData\Local\Temp\cc1kb5sj.s:112    .text.Vector60:00000000 Vector60
C:\Users\Mohamad\AppData\Local\Temp\cc1kb5sj.s:149    .text.Vector64:00000000 $t
C:\Users\Mohamad\AppData\Local\Temp\cc1kb5sj.s:155    .text.Vector64:00000000 Vector64
C:\Users\Mohamad\AppData\Local\Temp\cc1kb5sj.s:192    .text.Vector68:00000000 $t
C:\Users\Mohamad\AppData\Local\Temp\cc1kb5sj.s:198    .text.Vector68:00000000 Vector68
C:\Users\Mohamad\AppData\Local\Temp\cc1kb5sj.s:235    .text.Vector9C:00000000 $t
C:\Users\Mohamad\AppData\Local\Temp\cc1kb5sj.s:241    .text.Vector9C:00000000 Vector9C
C:\Users\Mohamad\AppData\Local\Temp\cc1kb5sj.s:335    .text.Vector9C:00000068 $d
C:\Users\Mohamad\AppData\Local\Temp\cc1kb5sj.s:340    .text.VectorE0:00000000 $t
C:\Users\Mohamad\AppData\Local\Temp\cc1kb5sj.s:346    .text.VectorE0:00000000 VectorE0
C:\Users\Mohamad\AppData\Local\Temp\cc1kb5sj.s:455    .text.VectorE0:00000078 $d
C:\Users\Mohamad\AppData\Local\Temp\cc1kb5sj.s:460    .text.Vector44:00000000 $t
C:\Users\Mohamad\AppData\Local\Temp\cc1kb5sj.s:466    .text.Vector44:00000000 Vector44
C:\Users\Mohamad\AppData\Local\Temp\cc1kb5sj.s:503    .text.VectorE4:00000000 $t
C:\Users\Mohamad\AppData\Local\Temp\cc1kb5sj.s:509    .text.VectorE4:00000000 VectorE4
C:\Users\Mohamad\AppData\Local\Temp\cc1kb5sj.s:546    .text.VectorE8:00000000 $t
C:\Users\Mohamad\AppData\Local\Temp\cc1kb5sj.s:552    .text.VectorE8:00000000 VectorE8
C:\Users\Mohamad\AppData\Local\Temp\cc1kb5sj.s:589    .text.Vector138:00000000 $t
C:\Users\Mohamad\AppData\Local\Temp\cc1kb5sj.s:595    .text.Vector138:00000000 Vector138
C:\Users\Mohamad\AppData\Local\Temp\cc1kb5sj.s:632    .text.Vector170:00000000 $t
C:\Users\Mohamad\AppData\Local\Temp\cc1kb5sj.s:638    .text.Vector170:00000000 Vector170
C:\Users\Mohamad\AppData\Local\Temp\cc1kb5sj.s:675    .text.TAMPER_STAMP_IRQHandler:00000000 $t
C:\Users\Mohamad\AppData\Local\Temp\cc1kb5sj.s:681    .text.TAMPER_STAMP_IRQHandler:00000000 TAMPER_STAMP_IRQHandler
C:\Users\Mohamad\AppData\Local\Temp\cc1kb5sj.s:718    .text.Vector4C:00000000 $t
C:\Users\Mohamad\AppData\Local\Temp\cc1kb5sj.s:724    .text.Vector4C:00000000 Vector4C
C:\Users\Mohamad\AppData\Local\Temp\cc1kb5sj.s:761    .text.ext_lld_exti_irq_enable:00000000 $t
C:\Users\Mohamad\AppData\Local\Temp\cc1kb5sj.s:767    .text.ext_lld_exti_irq_enable:00000000 ext_lld_exti_irq_enable
C:\Users\Mohamad\AppData\Local\Temp\cc1kb5sj.s:855    .text.ext_lld_exti_irq_disable:00000000 $t
C:\Users\Mohamad\AppData\Local\Temp\cc1kb5sj.s:861    .text.ext_lld_exti_irq_disable:00000000 ext_lld_exti_irq_disable
                     .debug_frame:00000010 $d
C:\Users\Mohamad\AppData\Local\Temp\cc1kb5sj.s:339    .text.Vector9C:0000006c $t
C:\Users\Mohamad\AppData\Local\Temp\cc1kb5sj.s:459    .text.VectorE0:0000007c $t

UNDEFINED SYMBOLS
EXTD1
_port_irq_epilogue
nvicEnableVector
nvicDisableVector
