ARM GAS  C:\Users\Mohamad\AppData\Local\Temp\cc1kb5sj.s 			page 1


   1              		.syntax unified
   2              		.cpu cortex-m4
   3              		.fpu softvfp
   4              		.eabi_attribute 20, 1
   5              		.eabi_attribute 21, 1
   6              		.eabi_attribute 23, 3
   7              		.eabi_attribute 24, 1
   8              		.eabi_attribute 25, 1
   9              		.eabi_attribute 26, 1
  10              		.eabi_attribute 30, 2
  11              		.eabi_attribute 34, 1
  12              		.eabi_attribute 18, 4
  13              		.thumb
  14              		.file	"ext_lld_isr.c"
  15              		.text
  16              	.Ltext0:
  17              		.cfi_sections	.debug_frame
  18              		.section	.text.Vector58,"ax",%progbits
  19              		.align	2
  20              		.p2align 4,,15
  21              		.global	Vector58
  22              		.thumb
  23              		.thumb_func
  24              		.type	Vector58, %function
  25              	Vector58:
  26              	.LFB118:
  27              		.file 1 "../../chibios/os/hal/platforms/STM32F4xx/ext_lld_isr.c"
  28              		.loc 1 57 0
  29              		.cfi_startproc
  30              		@ args = 0, pretend = 0, frame = 0
  31              		@ frame_needed = 0, uses_anonymous_args = 0
  32              		.loc 1 62 0
  33 0000 40F20000 		movw	r0, #:lower16:EXTD1
  34 0004 C0F20000 		movt	r0, #:upper16:EXTD1
  35              		.loc 1 57 0
  36 0008 08B5     		push	{r3, lr}
  37              	.LCFI0:
  38              		.cfi_def_cfa_offset 8
  39              		.cfi_offset 3, -8
  40              		.cfi_offset 14, -4
  41              		.loc 1 61 0
  42 000a 4FF47053 		mov	r3, #15360
  43              		.loc 1 62 0
  44 000e 4268     		ldr	r2, [r0, #4]
  45              		.loc 1 61 0
  46 0010 C4F20103 		movt	r3, 16385
  47 0014 0121     		movs	r1, #1
  48 0016 5961     		str	r1, [r3, #20]
  49              		.loc 1 62 0
  50 0018 5368     		ldr	r3, [r2, #4]
  51 001a 0021     		movs	r1, #0
  52 001c 9847     		blx	r3
  53              	.LVL0:
  54              		.loc 1 65 0
  55 001e BDE80840 		pop	{r3, lr}
  56              		.loc 1 64 0
  57 0022 FFF7FEBF 		b	_port_irq_epilogue
ARM GAS  C:\Users\Mohamad\AppData\Local\Temp\cc1kb5sj.s 			page 2


  58              	.LVL1:
  59              		.cfi_endproc
  60              	.LFE118:
  61              		.size	Vector58, .-Vector58
  62 0026 00BFAFF3 		.section	.text.Vector5C,"ax",%progbits
  62      0080AFF3 
  62      0080
  63              		.align	2
  64              		.p2align 4,,15
  65              		.global	Vector5C
  66              		.thumb
  67              		.thumb_func
  68              		.type	Vector5C, %function
  69              	Vector5C:
  70              	.LFB119:
  71              		.loc 1 72 0
  72              		.cfi_startproc
  73              		@ args = 0, pretend = 0, frame = 0
  74              		@ frame_needed = 0, uses_anonymous_args = 0
  75              		.loc 1 77 0
  76 0000 40F20000 		movw	r0, #:lower16:EXTD1
  77 0004 C0F20000 		movt	r0, #:upper16:EXTD1
  78              		.loc 1 72 0
  79 0008 08B5     		push	{r3, lr}
  80              	.LCFI1:
  81              		.cfi_def_cfa_offset 8
  82              		.cfi_offset 3, -8
  83              		.cfi_offset 14, -4
  84              		.loc 1 76 0
  85 000a 4FF47053 		mov	r3, #15360
  86              		.loc 1 77 0
  87 000e 4268     		ldr	r2, [r0, #4]
  88              		.loc 1 76 0
  89 0010 C4F20103 		movt	r3, 16385
  90 0014 0221     		movs	r1, #2
  91 0016 5961     		str	r1, [r3, #20]
  92              		.loc 1 77 0
  93 0018 D368     		ldr	r3, [r2, #12]
  94 001a 0121     		movs	r1, #1
  95 001c 9847     		blx	r3
  96              	.LVL2:
  97              		.loc 1 80 0
  98 001e BDE80840 		pop	{r3, lr}
  99              		.loc 1 79 0
 100 0022 FFF7FEBF 		b	_port_irq_epilogue
 101              	.LVL3:
 102              		.cfi_endproc
 103              	.LFE119:
 104              		.size	Vector5C, .-Vector5C
 105 0026 00BFAFF3 		.section	.text.Vector60,"ax",%progbits
 105      0080AFF3 
 105      0080
 106              		.align	2
 107              		.p2align 4,,15
 108              		.global	Vector60
 109              		.thumb
 110              		.thumb_func
ARM GAS  C:\Users\Mohamad\AppData\Local\Temp\cc1kb5sj.s 			page 3


 111              		.type	Vector60, %function
 112              	Vector60:
 113              	.LFB120:
 114              		.loc 1 87 0
 115              		.cfi_startproc
 116              		@ args = 0, pretend = 0, frame = 0
 117              		@ frame_needed = 0, uses_anonymous_args = 0
 118              		.loc 1 92 0
 119 0000 40F20000 		movw	r0, #:lower16:EXTD1
 120 0004 C0F20000 		movt	r0, #:upper16:EXTD1
 121              		.loc 1 87 0
 122 0008 08B5     		push	{r3, lr}
 123              	.LCFI2:
 124              		.cfi_def_cfa_offset 8
 125              		.cfi_offset 3, -8
 126              		.cfi_offset 14, -4
 127              		.loc 1 91 0
 128 000a 4FF47053 		mov	r3, #15360
 129              		.loc 1 92 0
 130 000e 4268     		ldr	r2, [r0, #4]
 131              		.loc 1 91 0
 132 0010 C4F20103 		movt	r3, 16385
 133 0014 0421     		movs	r1, #4
 134 0016 5961     		str	r1, [r3, #20]
 135              		.loc 1 92 0
 136 0018 5369     		ldr	r3, [r2, #20]
 137 001a 0221     		movs	r1, #2
 138 001c 9847     		blx	r3
 139              	.LVL4:
 140              		.loc 1 95 0
 141 001e BDE80840 		pop	{r3, lr}
 142              		.loc 1 94 0
 143 0022 FFF7FEBF 		b	_port_irq_epilogue
 144              	.LVL5:
 145              		.cfi_endproc
 146              	.LFE120:
 147              		.size	Vector60, .-Vector60
 148 0026 00BFAFF3 		.section	.text.Vector64,"ax",%progbits
 148      0080AFF3 
 148      0080
 149              		.align	2
 150              		.p2align 4,,15
 151              		.global	Vector64
 152              		.thumb
 153              		.thumb_func
 154              		.type	Vector64, %function
 155              	Vector64:
 156              	.LFB121:
 157              		.loc 1 102 0
 158              		.cfi_startproc
 159              		@ args = 0, pretend = 0, frame = 0
 160              		@ frame_needed = 0, uses_anonymous_args = 0
 161              		.loc 1 107 0
 162 0000 40F20000 		movw	r0, #:lower16:EXTD1
 163 0004 C0F20000 		movt	r0, #:upper16:EXTD1
 164              		.loc 1 102 0
 165 0008 08B5     		push	{r3, lr}
ARM GAS  C:\Users\Mohamad\AppData\Local\Temp\cc1kb5sj.s 			page 4


 166              	.LCFI3:
 167              		.cfi_def_cfa_offset 8
 168              		.cfi_offset 3, -8
 169              		.cfi_offset 14, -4
 170              		.loc 1 106 0
 171 000a 4FF47053 		mov	r3, #15360
 172              		.loc 1 107 0
 173 000e 4268     		ldr	r2, [r0, #4]
 174              		.loc 1 106 0
 175 0010 C4F20103 		movt	r3, 16385
 176 0014 0821     		movs	r1, #8
 177 0016 5961     		str	r1, [r3, #20]
 178              		.loc 1 107 0
 179 0018 D369     		ldr	r3, [r2, #28]
 180 001a 0321     		movs	r1, #3
 181 001c 9847     		blx	r3
 182              	.LVL6:
 183              		.loc 1 110 0
 184 001e BDE80840 		pop	{r3, lr}
 185              		.loc 1 109 0
 186 0022 FFF7FEBF 		b	_port_irq_epilogue
 187              	.LVL7:
 188              		.cfi_endproc
 189              	.LFE121:
 190              		.size	Vector64, .-Vector64
 191 0026 00BFAFF3 		.section	.text.Vector68,"ax",%progbits
 191      0080AFF3 
 191      0080
 192              		.align	2
 193              		.p2align 4,,15
 194              		.global	Vector68
 195              		.thumb
 196              		.thumb_func
 197              		.type	Vector68, %function
 198              	Vector68:
 199              	.LFB122:
 200              		.loc 1 117 0
 201              		.cfi_startproc
 202              		@ args = 0, pretend = 0, frame = 0
 203              		@ frame_needed = 0, uses_anonymous_args = 0
 204              		.loc 1 122 0
 205 0000 40F20000 		movw	r0, #:lower16:EXTD1
 206 0004 C0F20000 		movt	r0, #:upper16:EXTD1
 207              		.loc 1 117 0
 208 0008 08B5     		push	{r3, lr}
 209              	.LCFI4:
 210              		.cfi_def_cfa_offset 8
 211              		.cfi_offset 3, -8
 212              		.cfi_offset 14, -4
 213              		.loc 1 121 0
 214 000a 4FF47053 		mov	r3, #15360
 215              		.loc 1 122 0
 216 000e 4268     		ldr	r2, [r0, #4]
 217              		.loc 1 121 0
 218 0010 C4F20103 		movt	r3, 16385
 219 0014 1021     		movs	r1, #16
 220 0016 5961     		str	r1, [r3, #20]
ARM GAS  C:\Users\Mohamad\AppData\Local\Temp\cc1kb5sj.s 			page 5


 221              		.loc 1 122 0
 222 0018 536A     		ldr	r3, [r2, #36]
 223 001a 0421     		movs	r1, #4
 224 001c 9847     		blx	r3
 225              	.LVL8:
 226              		.loc 1 125 0
 227 001e BDE80840 		pop	{r3, lr}
 228              		.loc 1 124 0
 229 0022 FFF7FEBF 		b	_port_irq_epilogue
 230              	.LVL9:
 231              		.cfi_endproc
 232              	.LFE122:
 233              		.size	Vector68, .-Vector68
 234 0026 00BFAFF3 		.section	.text.Vector9C,"ax",%progbits
 234      0080AFF3 
 234      0080
 235              		.align	2
 236              		.p2align 4,,15
 237              		.global	Vector9C
 238              		.thumb
 239              		.thumb_func
 240              		.type	Vector9C, %function
 241              	Vector9C:
 242              	.LFB123:
 243              		.loc 1 132 0
 244              		.cfi_startproc
 245              		@ args = 0, pretend = 0, frame = 0
 246              		@ frame_needed = 0, uses_anonymous_args = 0
 247              		.loc 1 137 0
 248 0000 4FF47053 		mov	r3, #15360
 249 0004 C4F20103 		movt	r3, 16385
 250              		.loc 1 132 0
 251 0008 10B5     		push	{r4, lr}
 252              	.LCFI5:
 253              		.cfi_def_cfa_offset 8
 254              		.cfi_offset 4, -8
 255              		.cfi_offset 14, -4
 256              		.loc 1 137 0
 257 000a 5C69     		ldr	r4, [r3, #20]
 258 000c 04F47872 		and	r2, r4, #992
 259              	.LVL10:
 260              		.loc 1 138 0
 261 0010 5A61     		str	r2, [r3, #20]
 262              		.loc 1 139 0
 263 0012 A306     		lsls	r3, r4, #26
 264 0014 22D4     		bmi	.L28
 265              	.LVL11:
 266              	.L7:
 267              		.loc 1 141 0
 268 0016 6006     		lsls	r0, r4, #25
 269 0018 1AD4     		bmi	.L29
 270              	.L8:
 271              		.loc 1 143 0
 272 001a 2106     		lsls	r1, r4, #24
 273 001c 12D4     		bmi	.L30
 274              	.L9:
 275              		.loc 1 145 0
ARM GAS  C:\Users\Mohamad\AppData\Local\Temp\cc1kb5sj.s 			page 6


 276 001e E205     		lsls	r2, r4, #23
 277 0020 0AD4     		bmi	.L31
 278              	.L10:
 279              		.loc 1 147 0
 280 0022 A305     		lsls	r3, r4, #22
 281 0024 04D5     		bpl	.L11
 282              		.loc 1 148 0
 283 0026 1048     		ldr	r0, .L32
 284 0028 4168     		ldr	r1, [r0, #4]
 285 002a CB6C     		ldr	r3, [r1, #76]
 286 002c 0921     		movs	r1, #9
 287 002e 9847     		blx	r3
 288              	.LVL12:
 289              	.L11:
 290              		.loc 1 151 0
 291 0030 BDE81040 		pop	{r4, lr}
 292              		.loc 1 150 0
 293 0034 FFF7FEBF 		b	_port_irq_epilogue
 294              	.LVL13:
 295              	.L31:
 296              		.loc 1 146 0
 297 0038 0B48     		ldr	r0, .L32
 298 003a 4368     		ldr	r3, [r0, #4]
 299 003c 0821     		movs	r1, #8
 300 003e 5A6C     		ldr	r2, [r3, #68]
 301 0040 9047     		blx	r2
 302              	.LVL14:
 303 0042 EEE7     		b	.L10
 304              	.L30:
 305              		.loc 1 144 0
 306 0044 0848     		ldr	r0, .L32
 307 0046 4168     		ldr	r1, [r0, #4]
 308 0048 CA6B     		ldr	r2, [r1, #60]
 309 004a 0721     		movs	r1, #7
 310 004c 9047     		blx	r2
 311              	.LVL15:
 312 004e E6E7     		b	.L9
 313              	.L29:
 314              		.loc 1 142 0
 315 0050 0548     		ldr	r0, .L32
 316 0052 4268     		ldr	r2, [r0, #4]
 317 0054 0621     		movs	r1, #6
 318 0056 536B     		ldr	r3, [r2, #52]
 319 0058 9847     		blx	r3
 320              	.LVL16:
 321 005a DEE7     		b	.L8
 322              	.LVL17:
 323              	.L28:
 324              		.loc 1 140 0
 325 005c 0248     		ldr	r0, .L32
 326 005e 4168     		ldr	r1, [r0, #4]
 327 0060 CB6A     		ldr	r3, [r1, #44]
 328 0062 0521     		movs	r1, #5
 329 0064 9847     		blx	r3
 330              	.LVL18:
 331 0066 D6E7     		b	.L7
 332              	.L33:
ARM GAS  C:\Users\Mohamad\AppData\Local\Temp\cc1kb5sj.s 			page 7


 333              		.align	2
 334              	.L32:
 335 0068 00000000 		.word	EXTD1
 336              		.cfi_endproc
 337              	.LFE123:
 338              		.size	Vector9C, .-Vector9C
 339 006c AFF30080 		.section	.text.VectorE0,"ax",%progbits
 340              		.align	2
 341              		.p2align 4,,15
 342              		.global	VectorE0
 343              		.thumb
 344              		.thumb_func
 345              		.type	VectorE0, %function
 346              	VectorE0:
 347              	.LFB124:
 348              		.loc 1 158 0
 349              		.cfi_startproc
 350              		@ args = 0, pretend = 0, frame = 0
 351              		@ frame_needed = 0, uses_anonymous_args = 0
 352              		.loc 1 163 0
 353 0000 4FF47053 		mov	r3, #15360
 354 0004 C4F20103 		movt	r3, 16385
 355              		.loc 1 158 0
 356 0008 10B5     		push	{r4, lr}
 357              	.LCFI6:
 358              		.cfi_def_cfa_offset 8
 359              		.cfi_offset 4, -8
 360              		.cfi_offset 14, -4
 361              		.loc 1 163 0
 362 000a 5C69     		ldr	r4, [r3, #20]
 363 000c 04F47C42 		and	r2, r4, #64512
 364              	.LVL19:
 365              		.loc 1 165 0
 366 0010 5A61     		str	r2, [r3, #20]
 367              		.loc 1 166 0
 368 0012 6205     		lsls	r2, r4, #21
 369              	.LVL20:
 370 0014 2AD4     		bmi	.L59
 371              	.LVL21:
 372              	.L35:
 373              		.loc 1 168 0
 374 0016 2305     		lsls	r3, r4, #20
 375 0018 22D4     		bmi	.L60
 376              	.L36:
 377              		.loc 1 170 0
 378 001a E004     		lsls	r0, r4, #19
 379 001c 1AD4     		bmi	.L61
 380              	.L37:
 381              		.loc 1 172 0
 382 001e A104     		lsls	r1, r4, #18
 383 0020 12D4     		bmi	.L62
 384              	.L38:
 385              		.loc 1 174 0
 386 0022 6204     		lsls	r2, r4, #17
 387 0024 0AD4     		bmi	.L63
 388              	.L39:
 389              		.loc 1 176 0
ARM GAS  C:\Users\Mohamad\AppData\Local\Temp\cc1kb5sj.s 			page 8


 390 0026 2304     		lsls	r3, r4, #16
 391 0028 04D5     		bpl	.L40
 392              		.loc 1 177 0
 393 002a 1348     		ldr	r0, .L64
 394 002c 4268     		ldr	r2, [r0, #4]
 395 002e 0F21     		movs	r1, #15
 396 0030 D36F     		ldr	r3, [r2, #124]
 397 0032 9847     		blx	r3
 398              	.LVL22:
 399              	.L40:
 400              		.loc 1 180 0
 401 0034 BDE81040 		pop	{r4, lr}
 402              		.loc 1 179 0
 403 0038 FFF7FEBF 		b	_port_irq_epilogue
 404              	.LVL23:
 405              	.L63:
 406              		.loc 1 175 0
 407 003c 0E48     		ldr	r0, .L64
 408 003e 4168     		ldr	r1, [r0, #4]
 409 0040 4B6F     		ldr	r3, [r1, #116]
 410 0042 0E21     		movs	r1, #14
 411 0044 9847     		blx	r3
 412              	.LVL24:
 413 0046 EEE7     		b	.L39
 414              	.L62:
 415              		.loc 1 173 0
 416 0048 0B48     		ldr	r0, .L64
 417 004a 4368     		ldr	r3, [r0, #4]
 418 004c 0D21     		movs	r1, #13
 419 004e DA6E     		ldr	r2, [r3, #108]
 420 0050 9047     		blx	r2
 421              	.LVL25:
 422 0052 E6E7     		b	.L38
 423              	.L61:
 424              		.loc 1 171 0
 425 0054 0848     		ldr	r0, .L64
 426 0056 4168     		ldr	r1, [r0, #4]
 427 0058 4A6E     		ldr	r2, [r1, #100]
 428 005a 0C21     		movs	r1, #12
 429 005c 9047     		blx	r2
 430              	.LVL26:
 431 005e DEE7     		b	.L37
 432              	.L60:
 433              		.loc 1 169 0
 434 0060 0548     		ldr	r0, .L64
 435 0062 4268     		ldr	r2, [r0, #4]
 436 0064 0B21     		movs	r1, #11
 437 0066 D36D     		ldr	r3, [r2, #92]
 438 0068 9847     		blx	r3
 439              	.LVL27:
 440 006a D6E7     		b	.L36
 441              	.LVL28:
 442              	.L59:
 443              		.loc 1 167 0
 444 006c 0248     		ldr	r0, .L64
 445 006e 4168     		ldr	r1, [r0, #4]
 446 0070 4B6D     		ldr	r3, [r1, #84]
ARM GAS  C:\Users\Mohamad\AppData\Local\Temp\cc1kb5sj.s 			page 9


 447              	.LVL29:
 448 0072 0A21     		movs	r1, #10
 449 0074 9847     		blx	r3
 450              	.LVL30:
 451 0076 CEE7     		b	.L35
 452              	.L65:
 453              		.align	2
 454              	.L64:
 455 0078 00000000 		.word	EXTD1
 456              		.cfi_endproc
 457              	.LFE124:
 458              		.size	VectorE0, .-VectorE0
 459 007c AFF30080 		.section	.text.Vector44,"ax",%progbits
 460              		.align	2
 461              		.p2align 4,,15
 462              		.global	Vector44
 463              		.thumb
 464              		.thumb_func
 465              		.type	Vector44, %function
 466              	Vector44:
 467              	.LFB125:
 468              		.loc 1 187 0
 469              		.cfi_startproc
 470              		@ args = 0, pretend = 0, frame = 0
 471              		@ frame_needed = 0, uses_anonymous_args = 0
 472              		.loc 1 192 0
 473 0000 40F20000 		movw	r0, #:lower16:EXTD1
 474 0004 C0F20000 		movt	r0, #:upper16:EXTD1
 475              		.loc 1 187 0
 476 0008 08B5     		push	{r3, lr}
 477              	.LCFI7:
 478              		.cfi_def_cfa_offset 8
 479              		.cfi_offset 3, -8
 480              		.cfi_offset 14, -4
 481              		.loc 1 191 0
 482 000a 4FF47053 		mov	r3, #15360
 483              		.loc 1 192 0
 484 000e 4268     		ldr	r2, [r0, #4]
 485              		.loc 1 191 0
 486 0010 C4F20103 		movt	r3, 16385
 487 0014 4FF48031 		mov	r1, #65536
 488 0018 5961     		str	r1, [r3, #20]
 489              		.loc 1 192 0
 490 001a D2F88430 		ldr	r3, [r2, #132]
 491 001e 1021     		movs	r1, #16
 492 0020 9847     		blx	r3
 493              	.LVL31:
 494              		.loc 1 195 0
 495 0022 BDE80840 		pop	{r3, lr}
 496              		.loc 1 194 0
 497 0026 FFF7FEBF 		b	_port_irq_epilogue
 498              	.LVL32:
 499              		.cfi_endproc
 500              	.LFE125:
 501              		.size	Vector44, .-Vector44
 502 002a 00BFAFF3 		.section	.text.VectorE4,"ax",%progbits
 502      0080
ARM GAS  C:\Users\Mohamad\AppData\Local\Temp\cc1kb5sj.s 			page 10


 503              		.align	2
 504              		.p2align 4,,15
 505              		.global	VectorE4
 506              		.thumb
 507              		.thumb_func
 508              		.type	VectorE4, %function
 509              	VectorE4:
 510              	.LFB126:
 511              		.loc 1 202 0
 512              		.cfi_startproc
 513              		@ args = 0, pretend = 0, frame = 0
 514              		@ frame_needed = 0, uses_anonymous_args = 0
 515              		.loc 1 207 0
 516 0000 40F20000 		movw	r0, #:lower16:EXTD1
 517 0004 C0F20000 		movt	r0, #:upper16:EXTD1
 518              		.loc 1 202 0
 519 0008 08B5     		push	{r3, lr}
 520              	.LCFI8:
 521              		.cfi_def_cfa_offset 8
 522              		.cfi_offset 3, -8
 523              		.cfi_offset 14, -4
 524              		.loc 1 206 0
 525 000a 4FF47053 		mov	r3, #15360
 526              		.loc 1 207 0
 527 000e 4268     		ldr	r2, [r0, #4]
 528              		.loc 1 206 0
 529 0010 C4F20103 		movt	r3, 16385
 530 0014 4FF40031 		mov	r1, #131072
 531 0018 5961     		str	r1, [r3, #20]
 532              		.loc 1 207 0
 533 001a D2F88C30 		ldr	r3, [r2, #140]
 534 001e 1121     		movs	r1, #17
 535 0020 9847     		blx	r3
 536              	.LVL33:
 537              		.loc 1 210 0
 538 0022 BDE80840 		pop	{r3, lr}
 539              		.loc 1 209 0
 540 0026 FFF7FEBF 		b	_port_irq_epilogue
 541              	.LVL34:
 542              		.cfi_endproc
 543              	.LFE126:
 544              		.size	VectorE4, .-VectorE4
 545 002a 00BFAFF3 		.section	.text.VectorE8,"ax",%progbits
 545      0080
 546              		.align	2
 547              		.p2align 4,,15
 548              		.global	VectorE8
 549              		.thumb
 550              		.thumb_func
 551              		.type	VectorE8, %function
 552              	VectorE8:
 553              	.LFB127:
 554              		.loc 1 217 0
 555              		.cfi_startproc
 556              		@ args = 0, pretend = 0, frame = 0
 557              		@ frame_needed = 0, uses_anonymous_args = 0
 558              		.loc 1 222 0
ARM GAS  C:\Users\Mohamad\AppData\Local\Temp\cc1kb5sj.s 			page 11


 559 0000 40F20000 		movw	r0, #:lower16:EXTD1
 560 0004 C0F20000 		movt	r0, #:upper16:EXTD1
 561              		.loc 1 217 0
 562 0008 08B5     		push	{r3, lr}
 563              	.LCFI9:
 564              		.cfi_def_cfa_offset 8
 565              		.cfi_offset 3, -8
 566              		.cfi_offset 14, -4
 567              		.loc 1 221 0
 568 000a 4FF47053 		mov	r3, #15360
 569              		.loc 1 222 0
 570 000e 4268     		ldr	r2, [r0, #4]
 571              		.loc 1 221 0
 572 0010 C4F20103 		movt	r3, 16385
 573 0014 4FF48021 		mov	r1, #262144
 574 0018 5961     		str	r1, [r3, #20]
 575              		.loc 1 222 0
 576 001a D2F89430 		ldr	r3, [r2, #148]
 577 001e 1221     		movs	r1, #18
 578 0020 9847     		blx	r3
 579              	.LVL35:
 580              		.loc 1 225 0
 581 0022 BDE80840 		pop	{r3, lr}
 582              		.loc 1 224 0
 583 0026 FFF7FEBF 		b	_port_irq_epilogue
 584              	.LVL36:
 585              		.cfi_endproc
 586              	.LFE127:
 587              		.size	VectorE8, .-VectorE8
 588 002a 00BFAFF3 		.section	.text.Vector138,"ax",%progbits
 588      0080
 589              		.align	2
 590              		.p2align 4,,15
 591              		.global	Vector138
 592              		.thumb
 593              		.thumb_func
 594              		.type	Vector138, %function
 595              	Vector138:
 596              	.LFB128:
 597              		.loc 1 232 0
 598              		.cfi_startproc
 599              		@ args = 0, pretend = 0, frame = 0
 600              		@ frame_needed = 0, uses_anonymous_args = 0
 601              		.loc 1 237 0
 602 0000 40F20000 		movw	r0, #:lower16:EXTD1
 603 0004 C0F20000 		movt	r0, #:upper16:EXTD1
 604              		.loc 1 232 0
 605 0008 08B5     		push	{r3, lr}
 606              	.LCFI10:
 607              		.cfi_def_cfa_offset 8
 608              		.cfi_offset 3, -8
 609              		.cfi_offset 14, -4
 610              		.loc 1 236 0
 611 000a 4FF47053 		mov	r3, #15360
 612              		.loc 1 237 0
 613 000e 4268     		ldr	r2, [r0, #4]
 614              		.loc 1 236 0
ARM GAS  C:\Users\Mohamad\AppData\Local\Temp\cc1kb5sj.s 			page 12


 615 0010 C4F20103 		movt	r3, 16385
 616 0014 4FF40021 		mov	r1, #524288
 617 0018 5961     		str	r1, [r3, #20]
 618              		.loc 1 237 0
 619 001a D2F89C30 		ldr	r3, [r2, #156]
 620 001e 1321     		movs	r1, #19
 621 0020 9847     		blx	r3
 622              	.LVL37:
 623              		.loc 1 240 0
 624 0022 BDE80840 		pop	{r3, lr}
 625              		.loc 1 239 0
 626 0026 FFF7FEBF 		b	_port_irq_epilogue
 627              	.LVL38:
 628              		.cfi_endproc
 629              	.LFE128:
 630              		.size	Vector138, .-Vector138
 631 002a 00BFAFF3 		.section	.text.Vector170,"ax",%progbits
 631      0080
 632              		.align	2
 633              		.p2align 4,,15
 634              		.global	Vector170
 635              		.thumb
 636              		.thumb_func
 637              		.type	Vector170, %function
 638              	Vector170:
 639              	.LFB129:
 640              		.loc 1 248 0
 641              		.cfi_startproc
 642              		@ args = 0, pretend = 0, frame = 0
 643              		@ frame_needed = 0, uses_anonymous_args = 0
 644              		.loc 1 253 0
 645 0000 40F20000 		movw	r0, #:lower16:EXTD1
 646 0004 C0F20000 		movt	r0, #:upper16:EXTD1
 647              		.loc 1 248 0
 648 0008 08B5     		push	{r3, lr}
 649              	.LCFI11:
 650              		.cfi_def_cfa_offset 8
 651              		.cfi_offset 3, -8
 652              		.cfi_offset 14, -4
 653              		.loc 1 252 0
 654 000a 4FF47053 		mov	r3, #15360
 655              		.loc 1 253 0
 656 000e 4268     		ldr	r2, [r0, #4]
 657              		.loc 1 252 0
 658 0010 C4F20103 		movt	r3, 16385
 659 0014 4FF48011 		mov	r1, #1048576
 660 0018 5961     		str	r1, [r3, #20]
 661              		.loc 1 253 0
 662 001a D2F8A430 		ldr	r3, [r2, #164]
 663 001e 1421     		movs	r1, #20
 664 0020 9847     		blx	r3
 665              	.LVL39:
 666              		.loc 1 256 0
 667 0022 BDE80840 		pop	{r3, lr}
 668              		.loc 1 255 0
 669 0026 FFF7FEBF 		b	_port_irq_epilogue
 670              	.LVL40:
ARM GAS  C:\Users\Mohamad\AppData\Local\Temp\cc1kb5sj.s 			page 13


 671              		.cfi_endproc
 672              	.LFE129:
 673              		.size	Vector170, .-Vector170
 674 002a 00BFAFF3 		.section	.text.TAMPER_STAMP_IRQHandler,"ax",%progbits
 674      0080
 675              		.align	2
 676              		.p2align 4,,15
 677              		.global	TAMPER_STAMP_IRQHandler
 678              		.thumb
 679              		.thumb_func
 680              		.type	TAMPER_STAMP_IRQHandler, %function
 681              	TAMPER_STAMP_IRQHandler:
 682              	.LFB130:
 683              		.loc 1 263 0
 684              		.cfi_startproc
 685              		@ args = 0, pretend = 0, frame = 0
 686              		@ frame_needed = 0, uses_anonymous_args = 0
 687              		.loc 1 268 0
 688 0000 40F20000 		movw	r0, #:lower16:EXTD1
 689 0004 C0F20000 		movt	r0, #:upper16:EXTD1
 690              		.loc 1 263 0
 691 0008 08B5     		push	{r3, lr}
 692              	.LCFI12:
 693              		.cfi_def_cfa_offset 8
 694              		.cfi_offset 3, -8
 695              		.cfi_offset 14, -4
 696              		.loc 1 267 0
 697 000a 4FF47053 		mov	r3, #15360
 698              		.loc 1 268 0
 699 000e 4268     		ldr	r2, [r0, #4]
 700              		.loc 1 267 0
 701 0010 C4F20103 		movt	r3, 16385
 702 0014 4FF40011 		mov	r1, #2097152
 703 0018 5961     		str	r1, [r3, #20]
 704              		.loc 1 268 0
 705 001a D2F8AC30 		ldr	r3, [r2, #172]
 706 001e 1521     		movs	r1, #21
 707 0020 9847     		blx	r3
 708              	.LVL41:
 709              		.loc 1 271 0
 710 0022 BDE80840 		pop	{r3, lr}
 711              		.loc 1 270 0
 712 0026 FFF7FEBF 		b	_port_irq_epilogue
 713              	.LVL42:
 714              		.cfi_endproc
 715              	.LFE130:
 716              		.size	TAMPER_STAMP_IRQHandler, .-TAMPER_STAMP_IRQHandler
 717 002a 00BFAFF3 		.section	.text.Vector4C,"ax",%progbits
 717      0080
 718              		.align	2
 719              		.p2align 4,,15
 720              		.global	Vector4C
 721              		.thumb
 722              		.thumb_func
 723              		.type	Vector4C, %function
 724              	Vector4C:
 725              	.LFB131:
ARM GAS  C:\Users\Mohamad\AppData\Local\Temp\cc1kb5sj.s 			page 14


 726              		.loc 1 279 0
 727              		.cfi_startproc
 728              		@ args = 0, pretend = 0, frame = 0
 729              		@ frame_needed = 0, uses_anonymous_args = 0
 730              		.loc 1 284 0
 731 0000 40F20000 		movw	r0, #:lower16:EXTD1
 732 0004 C0F20000 		movt	r0, #:upper16:EXTD1
 733              		.loc 1 279 0
 734 0008 08B5     		push	{r3, lr}
 735              	.LCFI13:
 736              		.cfi_def_cfa_offset 8
 737              		.cfi_offset 3, -8
 738              		.cfi_offset 14, -4
 739              		.loc 1 283 0
 740 000a 4FF47053 		mov	r3, #15360
 741              		.loc 1 284 0
 742 000e 4268     		ldr	r2, [r0, #4]
 743              		.loc 1 283 0
 744 0010 C4F20103 		movt	r3, 16385
 745 0014 4FF48001 		mov	r1, #4194304
 746 0018 5961     		str	r1, [r3, #20]
 747              		.loc 1 284 0
 748 001a D2F8B430 		ldr	r3, [r2, #180]
 749 001e 1621     		movs	r1, #22
 750 0020 9847     		blx	r3
 751              	.LVL43:
 752              		.loc 1 287 0
 753 0022 BDE80840 		pop	{r3, lr}
 754              		.loc 1 286 0
 755 0026 FFF7FEBF 		b	_port_irq_epilogue
 756              	.LVL44:
 757              		.cfi_endproc
 758              	.LFE131:
 759              		.size	Vector4C, .-Vector4C
 760 002a 00BFAFF3 		.section	.text.ext_lld_exti_irq_enable,"ax",%progbits
 760      0080
 761              		.align	2
 762              		.p2align 4,,15
 763              		.global	ext_lld_exti_irq_enable
 764              		.thumb
 765              		.thumb_func
 766              		.type	ext_lld_exti_irq_enable, %function
 767              	ext_lld_exti_irq_enable:
 768              	.LFB132:
 769              		.loc 1 298 0
 770              		.cfi_startproc
 771              		@ args = 0, pretend = 0, frame = 0
 772              		@ frame_needed = 0, uses_anonymous_args = 0
 773 0000 08B5     		push	{r3, lr}
 774              	.LCFI14:
 775              		.cfi_def_cfa_offset 8
 776              		.cfi_offset 3, -8
 777              		.cfi_offset 14, -4
 778              		.loc 1 300 0
 779 0002 0620     		movs	r0, #6
 780 0004 6021     		movs	r1, #96
 781 0006 FFF7FEFF 		bl	nvicEnableVector
ARM GAS  C:\Users\Mohamad\AppData\Local\Temp\cc1kb5sj.s 			page 15


 782              	.LVL45:
 783              		.loc 1 302 0
 784 000a 0720     		movs	r0, #7
 785 000c 6021     		movs	r1, #96
 786 000e FFF7FEFF 		bl	nvicEnableVector
 787              	.LVL46:
 788              		.loc 1 304 0
 789 0012 0820     		movs	r0, #8
 790 0014 6021     		movs	r1, #96
 791 0016 FFF7FEFF 		bl	nvicEnableVector
 792              	.LVL47:
 793              		.loc 1 306 0
 794 001a 0920     		movs	r0, #9
 795 001c 6021     		movs	r1, #96
 796 001e FFF7FEFF 		bl	nvicEnableVector
 797              	.LVL48:
 798              		.loc 1 308 0
 799 0022 0A20     		movs	r0, #10
 800 0024 6021     		movs	r1, #96
 801 0026 FFF7FEFF 		bl	nvicEnableVector
 802              	.LVL49:
 803              		.loc 1 310 0
 804 002a 1720     		movs	r0, #23
 805 002c 6021     		movs	r1, #96
 806 002e FFF7FEFF 		bl	nvicEnableVector
 807              	.LVL50:
 808              		.loc 1 312 0
 809 0032 2820     		movs	r0, #40
 810 0034 6021     		movs	r1, #96
 811 0036 FFF7FEFF 		bl	nvicEnableVector
 812              	.LVL51:
 813              		.loc 1 314 0
 814 003a 0120     		movs	r0, #1
 815 003c 6021     		movs	r1, #96
 816 003e FFF7FEFF 		bl	nvicEnableVector
 817              	.LVL52:
 818              		.loc 1 316 0
 819 0042 2920     		movs	r0, #41
 820 0044 F021     		movs	r1, #240
 821 0046 FFF7FEFF 		bl	nvicEnableVector
 822              	.LVL53:
 823              		.loc 1 318 0
 824 004a 2A20     		movs	r0, #42
 825 004c 6021     		movs	r1, #96
 826 004e FFF7FEFF 		bl	nvicEnableVector
 827              	.LVL54:
 828              		.loc 1 320 0
 829 0052 6021     		movs	r1, #96
 830 0054 3E20     		movs	r0, #62
 831 0056 FFF7FEFF 		bl	nvicEnableVector
 832              	.LVL55:
 833              		.loc 1 323 0
 834 005a 4C20     		movs	r0, #76
 835 005c 6021     		movs	r1, #96
 836 005e FFF7FEFF 		bl	nvicEnableVector
 837              	.LVL56:
 838              		.loc 1 325 0
ARM GAS  C:\Users\Mohamad\AppData\Local\Temp\cc1kb5sj.s 			page 16


 839 0062 0220     		movs	r0, #2
 840 0064 F021     		movs	r1, #240
 841 0066 FFF7FEFF 		bl	nvicEnableVector
 842              	.LVL57:
 843              		.loc 1 328 0
 844 006a 0320     		movs	r0, #3
 845 006c F021     		movs	r1, #240
 846              		.loc 1 330 0
 847 006e BDE80840 		pop	{r3, lr}
 848              		.loc 1 328 0
 849 0072 FFF7FEBF 		b	nvicEnableVector
 850              	.LVL58:
 851              		.cfi_endproc
 852              	.LFE132:
 853              		.size	ext_lld_exti_irq_enable, .-ext_lld_exti_irq_enable
 854 0076 00BFAFF3 		.section	.text.ext_lld_exti_irq_disable,"ax",%progbits
 854      0080AFF3 
 854      0080
 855              		.align	2
 856              		.p2align 4,,15
 857              		.global	ext_lld_exti_irq_disable
 858              		.thumb
 859              		.thumb_func
 860              		.type	ext_lld_exti_irq_disable, %function
 861              	ext_lld_exti_irq_disable:
 862              	.LFB133:
 863              		.loc 1 337 0
 864              		.cfi_startproc
 865              		@ args = 0, pretend = 0, frame = 0
 866              		@ frame_needed = 0, uses_anonymous_args = 0
 867 0000 08B5     		push	{r3, lr}
 868              	.LCFI15:
 869              		.cfi_def_cfa_offset 8
 870              		.cfi_offset 3, -8
 871              		.cfi_offset 14, -4
 872              		.loc 1 339 0
 873 0002 0620     		movs	r0, #6
 874 0004 FFF7FEFF 		bl	nvicDisableVector
 875              	.LVL59:
 876              		.loc 1 340 0
 877 0008 0720     		movs	r0, #7
 878 000a FFF7FEFF 		bl	nvicDisableVector
 879              	.LVL60:
 880              		.loc 1 341 0
 881 000e 0820     		movs	r0, #8
 882 0010 FFF7FEFF 		bl	nvicDisableVector
 883              	.LVL61:
 884              		.loc 1 342 0
 885 0014 0920     		movs	r0, #9
 886 0016 FFF7FEFF 		bl	nvicDisableVector
 887              	.LVL62:
 888              		.loc 1 343 0
 889 001a 0A20     		movs	r0, #10
 890 001c FFF7FEFF 		bl	nvicDisableVector
 891              	.LVL63:
 892              		.loc 1 344 0
 893 0020 1720     		movs	r0, #23
ARM GAS  C:\Users\Mohamad\AppData\Local\Temp\cc1kb5sj.s 			page 17


 894 0022 FFF7FEFF 		bl	nvicDisableVector
 895              	.LVL64:
 896              		.loc 1 345 0
 897 0026 2820     		movs	r0, #40
 898 0028 FFF7FEFF 		bl	nvicDisableVector
 899              	.LVL65:
 900              		.loc 1 346 0
 901 002c 0120     		movs	r0, #1
 902 002e FFF7FEFF 		bl	nvicDisableVector
 903              	.LVL66:
 904              		.loc 1 347 0
 905 0032 2920     		movs	r0, #41
 906 0034 FFF7FEFF 		bl	nvicDisableVector
 907              	.LVL67:
 908              		.loc 1 348 0
 909 0038 2A20     		movs	r0, #42
 910 003a FFF7FEFF 		bl	nvicDisableVector
 911              	.LVL68:
 912              		.loc 1 349 0
 913 003e 3E20     		movs	r0, #62
 914 0040 FFF7FEFF 		bl	nvicDisableVector
 915              	.LVL69:
 916              		.loc 1 351 0
 917 0044 4C20     		movs	r0, #76
 918 0046 FFF7FEFF 		bl	nvicDisableVector
 919              	.LVL70:
 920              		.loc 1 352 0
 921 004a 0220     		movs	r0, #2
 922 004c FFF7FEFF 		bl	nvicDisableVector
 923              	.LVL71:
 924              		.loc 1 354 0
 925 0050 0320     		movs	r0, #3
 926              		.loc 1 355 0
 927 0052 BDE80840 		pop	{r3, lr}
 928              		.loc 1 354 0
 929 0056 FFF7FEBF 		b	nvicDisableVector
 930              	.LVL72:
 931              		.cfi_endproc
 932              	.LFE133:
 933              		.size	ext_lld_exti_irq_disable, .-ext_lld_exti_irq_disable
 934 005a 00BFAFF3 		.text
 934      0080
 935              	.Letext0:
 936              		.file 2 "c:\\chibistudio\\tools\\gnu tools arm embedded\\4.7 2014q2\\bin\\../lib/gcc/arm-none-eabi
 937              		.file 3 "../../chibios/os/hal/platforms/STM32F4xx/stm32f4xx.h"
 938              		.file 4 "../../chibios/os/hal/include/ext.h"
 939              		.file 5 "../../chibios/os/hal/platforms/STM32/ext_lld.h"
 940              		.file 6 "../../chibios/os/ports/common/ARMCMx/CMSIS/include/core_cm4.h"
 941              		.file 7 "../../chibios/os/ports/GCC/ARMCMx/chcore_v7m.h"
 942              		.file 8 "../../chibios/os/ports/common/ARMCMx/nvic.h"