ARM GAS  C:\Users\Mohamad\AppData\Local\Temp\ccfsTBGT.s 			page 1


   1              		.syntax unified
   2              		.cpu cortex-m4
   3              		.fpu softvfp
   4              		.eabi_attribute 20, 1
   5              		.eabi_attribute 21, 1
   6              		.eabi_attribute 23, 3
   7              		.eabi_attribute 24, 1
   8              		.eabi_attribute 25, 1
   9              		.eabi_attribute 26, 1
  10              		.eabi_attribute 30, 2
  11              		.eabi_attribute 34, 1
  12              		.eabi_attribute 18, 4
  13              		.thumb
  14              		.file	"i2c_lld.c"
  15              		.text
  16              	.Ltext0:
  17              		.cfi_sections	.debug_frame
  18              		.section	.text.i2c_lld_abort_operation,"ax",%progbits
  19              		.align	2
  20              		.p2align 4,,15
  21              		.thumb
  22              		.thumb_func
  23              		.type	i2c_lld_abort_operation, %function
  24              	i2c_lld_abort_operation:
  25              	.LFB118:
  26              		.file 1 "../../chibios/os/hal/platforms/STM32/I2Cv1/i2c_lld.c"
  27              		.loc 1 142 0
  28              		.cfi_startproc
  29              		@ args = 0, pretend = 0, frame = 0
  30              		@ frame_needed = 0, uses_anonymous_args = 0
  31              		@ link register save eliminated.
  32              	.LVL0:
  33 0000 30B4     		push	{r4, r5}
  34              	.LCFI0:
  35              		.cfi_def_cfa_offset 8
  36              		.cfi_offset 4, -8
  37              		.cfi_offset 5, -4
  38              		.loc 1 152 0
  39 0002 046B     		ldr	r4, [r0, #48]
  40              		.loc 1 143 0
  41 0004 436B     		ldr	r3, [r0, #52]
  42              	.LVL1:
  43              		.loc 1 152 0
  44 0006 2268     		ldr	r2, [r4, #0]
  45              		.loc 1 147 0
  46 0008 0021     		movs	r1, #0
  47              		.loc 1 146 0
  48 000a 4FF40045 		mov	r5, #32768
  49 000e 1D80     		strh	r5, [r3, #0]	@ movhi
  50              		.loc 1 147 0
  51 0010 1980     		strh	r1, [r3, #0]	@ movhi
  52              		.loc 1 148 0
  53 0012 9980     		strh	r1, [r3, #4]	@ movhi
  54              		.loc 1 149 0
  55 0014 9982     		strh	r1, [r3, #20]	@ movhi
  56              		.loc 1 152 0
  57 0016 1168     		ldr	r1, [r2, #0]
ARM GAS  C:\Users\Mohamad\AppData\Local\Temp\ccfsTBGT.s 			page 2


  58 0018 21F01F03 		bic	r3, r1, #31
  59              	.LVL2:
  60 001c 1360     		str	r3, [r2, #0]
  61              	.L2:
  62              		.loc 1 152 0 is_stmt 0 discriminator 1
  63 001e 1568     		ldr	r5, [r2, #0]
  64 0020 E907     		lsls	r1, r5, #31
  65 0022 FCD4     		bmi	.L2
  66              		.loc 1 153 0 is_stmt 1 discriminator 2
  67 0024 C16A     		ldr	r1, [r0, #44]
  68              		.loc 1 152 0 discriminator 2
  69 0026 257A     		ldrb	r5, [r4, #8]	@ zero_extendqisi2
  70 0028 6368     		ldr	r3, [r4, #4]
  71              		.loc 1 153 0 discriminator 2
  72 002a 0A68     		ldr	r2, [r1, #0]
  73              		.loc 1 152 0 discriminator 2
  74 002c 3D20     		movs	r0, #61
  75              	.LVL3:
  76 002e 00FA05F0 		lsl	r0, r0, r5
  77 0032 1860     		str	r0, [r3, #0]
  78              		.loc 1 153 0 discriminator 2
  79 0034 1368     		ldr	r3, [r2, #0]
  80 0036 23F01F00 		bic	r0, r3, #31
  81 003a 1060     		str	r0, [r2, #0]
  82              	.L3:
  83              		.loc 1 153 0 is_stmt 0 discriminator 1
  84 003c 1368     		ldr	r3, [r2, #0]
  85 003e DB07     		lsls	r3, r3, #31
  86 0040 FCD4     		bmi	.L3
  87              		.loc 1 153 0 discriminator 2
  88 0042 0A7A     		ldrb	r2, [r1, #8]	@ zero_extendqisi2
  89 0044 4868     		ldr	r0, [r1, #4]
  90 0046 3D21     		movs	r1, #61
  91 0048 01FA02F3 		lsl	r3, r1, r2
  92 004c 0360     		str	r3, [r0, #0]
  93              		.loc 1 154 0 is_stmt 1 discriminator 2
  94 004e 30BC     		pop	{r4, r5}
  95 0050 7047     		bx	lr
  96              		.cfi_endproc
  97              	.LFE118:
  98              		.size	i2c_lld_abort_operation, .-i2c_lld_abort_operation
  99 0052 00BFAFF3 		.section	.text.i2c_lld_safety_timeout,"ax",%progbits
  99      0080AFF3 
  99      0080AFF3 
  99      0080
 100              		.align	2
 101              		.p2align 4,,15
 102              		.thumb
 103              		.thumb_func
 104              		.type	i2c_lld_safety_timeout, %function
 105              	i2c_lld_safety_timeout:
 106              	.LFB119:
 107              		.loc 1 163 0
 108              		.cfi_startproc
 109              		@ args = 0, pretend = 0, frame = 0
 110              		@ frame_needed = 0, uses_anonymous_args = 0
 111              	.LVL4:
ARM GAS  C:\Users\Mohamad\AppData\Local\Temp\ccfsTBGT.s 			page 3


 112 0000 38B5     		push	{r3, r4, r5, lr}
 113              	.LCFI1:
 114              		.cfi_def_cfa_offset 16
 115              		.cfi_offset 3, -16
 116              		.cfi_offset 4, -12
 117              		.cfi_offset 5, -8
 118              		.cfi_offset 14, -4
 119              		.loc 1 163 0
 120 0002 0546     		mov	r5, r0
 121              	.LVL5:
 122              	.LBB2:
 123              		.loc 1 166 0
 124 0004 2023     		movs	r3, #32
 125              	.LVL6:
 126              	@ 166 "../../chibios/os/hal/platforms/STM32/I2Cv1/i2c_lld.c" 1
 127 0006 83F31188 		msr     BASEPRI, r3
 128              	@ 0 "" 2
 129              	.LVL7:
 130              		.thumb
 131              	.LBE2:
 132              		.loc 1 167 0
 133 000a C469     		ldr	r4, [r0, #28]
 134 000c 4CB1     		cbz	r4, .L8
 135              	.LVL8:
 136              	.LBB3:
 137              		.loc 1 169 0
 138 000e FFF7FEFF 		bl	i2c_lld_abort_operation
 139              	.LVL9:
 140              		.loc 1 170 0
 141 0012 0023     		movs	r3, #0
 142              		.loc 1 171 0
 143 0014 4FF0FF31 		mov	r1, #-1
 144              		.loc 1 170 0
 145 0018 EB61     		str	r3, [r5, #28]
 146              		.loc 1 172 0
 147 001a 2046     		mov	r0, r4
 148              		.loc 1 171 0
 149 001c 6162     		str	r1, [r4, #36]
 150              		.loc 1 172 0
 151 001e FFF7FEFF 		bl	chSchReadyI
 152              	.LVL10:
 153              	.L8:
 154              	.LBE3:
 155              	.LBB4:
 156              		.loc 1 174 0
 157 0022 0023     		movs	r3, #0
 158              	.LVL11:
 159              	@ 174 "../../chibios/os/hal/platforms/STM32/I2Cv1/i2c_lld.c" 1
 160 0024 83F31188 		msr     BASEPRI, r3
 161              	@ 0 "" 2
 162              	.LVL12:
 163              		.thumb
 164 0028 38BD     		pop	{r3, r4, r5, pc}
 165              	.LBE4:
 166              		.cfi_endproc
 167              	.LFE119:
 168              		.size	i2c_lld_safety_timeout, .-i2c_lld_safety_timeout
ARM GAS  C:\Users\Mohamad\AppData\Local\Temp\ccfsTBGT.s 			page 4


 169 002a 00BFAFF3 		.section	.text.i2c_lld_serve_error_interrupt,"ax",%progbits
 169      0080
 170              		.align	2
 171              		.p2align 4,,15
 172              		.thumb
 173              		.thumb_func
 174              		.type	i2c_lld_serve_error_interrupt, %function
 175              	i2c_lld_serve_error_interrupt:
 176              	.LFB125:
 177              		.loc 1 407 0
 178              		.cfi_startproc
 179              		@ args = 0, pretend = 0, frame = 0
 180              		@ frame_needed = 0, uses_anonymous_args = 0
 181              	.LVL13:
 182 0000 70B5     		push	{r4, r5, r6, lr}
 183              	.LCFI2:
 184              		.cfi_def_cfa_offset 16
 185              		.cfi_offset 4, -16
 186              		.cfi_offset 5, -12
 187              		.cfi_offset 6, -8
 188              		.cfi_offset 14, -4
 189              		.loc 1 410 0
 190 0002 056B     		ldr	r5, [r0, #48]
 191 0004 2A68     		ldr	r2, [r5, #0]
 192 0006 1368     		ldr	r3, [r2, #0]
 193 0008 23F01F04 		bic	r4, r3, #31
 194 000c 1460     		str	r4, [r2, #0]
 195              	.L13:
 196              		.loc 1 410 0 is_stmt 0 discriminator 1
 197 000e 1668     		ldr	r6, [r2, #0]
 198 0010 F607     		lsls	r6, r6, #31
 199 0012 FCD4     		bmi	.L13
 200              		.loc 1 410 0 discriminator 2
 201 0014 2E7A     		ldrb	r6, [r5, #8]	@ zero_extendqisi2
 202              		.loc 1 411 0 is_stmt 1 discriminator 2
 203 0016 C46A     		ldr	r4, [r0, #44]
 204              		.loc 1 410 0 discriminator 2
 205 0018 6B68     		ldr	r3, [r5, #4]
 206              		.loc 1 411 0 discriminator 2
 207 001a 2268     		ldr	r2, [r4, #0]
 208              		.loc 1 410 0 discriminator 2
 209 001c 3D25     		movs	r5, #61
 210 001e 05FA06F5 		lsl	r5, r5, r6
 211 0022 1D60     		str	r5, [r3, #0]
 212              		.loc 1 411 0 discriminator 2
 213 0024 1368     		ldr	r3, [r2, #0]
 214 0026 23F01F05 		bic	r5, r3, #31
 215 002a 1560     		str	r5, [r2, #0]
 216              	.L14:
 217              		.loc 1 411 0 is_stmt 0 discriminator 1
 218 002c 1368     		ldr	r3, [r2, #0]
 219 002e DD07     		lsls	r5, r3, #31
 220 0030 FCD4     		bmi	.L14
 221              		.loc 1 411 0 discriminator 2
 222 0032 257A     		ldrb	r5, [r4, #8]	@ zero_extendqisi2
 223 0034 6268     		ldr	r2, [r4, #4]
 224              		.loc 1 415 0 is_stmt 1 discriminator 2
ARM GAS  C:\Users\Mohamad\AppData\Local\Temp\ccfsTBGT.s 			page 5


 225 0036 01F48073 		and	r3, r1, #256
 226              		.loc 1 411 0 discriminator 2
 227 003a 3D24     		movs	r4, #61
 228 003c 04FA05F4 		lsl	r4, r4, r5
 229              		.loc 1 415 0 discriminator 2
 230 0040 9BB2     		uxth	r3, r3
 231              		.loc 1 411 0 discriminator 2
 232 0042 1460     		str	r4, [r2, #0]
 233              		.loc 1 415 0 discriminator 2
 234 0044 03B1     		cbz	r3, .L49
 235              		.loc 1 416 0
 236 0046 0123     		movs	r3, #1
 237              	.L49:
 238              		.loc 1 418 0
 239 0048 01F40072 		and	r2, r1, #512
 240 004c 92B2     		uxth	r2, r2
 241              		.loc 1 416 0
 242 004e 8360     		str	r3, [r0, #8]
 243              		.loc 1 418 0
 244 0050 12B1     		cbz	r2, .L17
 245              		.loc 1 419 0
 246 0052 43F00203 		orr	r3, r3, #2
 247 0056 8360     		str	r3, [r0, #8]
 248              	.L17:
 249              		.loc 1 421 0
 250 0058 01F48062 		and	r2, r1, #1024
 251 005c 92B2     		uxth	r2, r2
 252 005e 72B1     		cbz	r2, .L18
 253              		.loc 1 422 0
 254 0060 446B     		ldr	r4, [r0, #52]
 255 0062 A288     		ldrh	r2, [r4, #4]
 256 0064 22F40072 		bic	r2, r2, #512
 257 0068 1204     		lsls	r2, r2, #16
 258 006a 120C     		lsrs	r2, r2, #16
 259 006c A280     		strh	r2, [r4, #4]	@ movhi
 260              		.loc 1 423 0
 261 006e 2288     		ldrh	r2, [r4, #0]
 262 0070 92B2     		uxth	r2, r2
 263 0072 42F40072 		orr	r2, r2, #512
 264              		.loc 1 424 0
 265 0076 43F00403 		orr	r3, r3, #4
 266              		.loc 1 423 0
 267 007a 2280     		strh	r2, [r4, #0]	@ movhi
 268              		.loc 1 424 0
 269 007c 8360     		str	r3, [r0, #8]
 270              	.L18:
 271              		.loc 1 427 0
 272 007e 01F40062 		and	r2, r1, #2048
 273 0082 92B2     		uxth	r2, r2
 274 0084 12B1     		cbz	r2, .L19
 275              		.loc 1 428 0
 276 0086 43F00803 		orr	r3, r3, #8
 277 008a 8360     		str	r3, [r0, #8]
 278              	.L19:
 279              		.loc 1 430 0
 280 008c 01F48042 		and	r2, r1, #16384
 281 0090 92B2     		uxth	r2, r2
ARM GAS  C:\Users\Mohamad\AppData\Local\Temp\ccfsTBGT.s 			page 6


 282 0092 12B1     		cbz	r2, .L20
 283              		.loc 1 431 0
 284 0094 43F02003 		orr	r3, r3, #32
 285 0098 8360     		str	r3, [r0, #8]
 286              	.L20:
 287              		.loc 1 433 0
 288 009a 01F48052 		and	r2, r1, #4096
 289 009e 92B2     		uxth	r2, r2
 290 00a0 12B1     		cbz	r2, .L21
 291              		.loc 1 434 0
 292 00a2 43F01003 		orr	r3, r3, #16
 293 00a6 8360     		str	r3, [r0, #8]
 294              	.L21:
 295              		.loc 1 436 0
 296 00a8 0A04     		lsls	r2, r1, #16
 297 00aa 01D4     		bmi	.L50
 298              		.loc 1 440 0
 299 00ac 1BB9     		cbnz	r3, .L23
 300 00ae 70BD     		pop	{r4, r5, r6, pc}
 301              	.L50:
 302              		.loc 1 437 0
 303 00b0 43F04001 		orr	r1, r3, #64
 304              	.LVL14:
 305 00b4 8160     		str	r1, [r0, #8]
 306              	.L23:
 307              	.LBB5:
 308              		.loc 1 441 0
 309 00b6 2023     		movs	r3, #32
 310              	.LVL15:
 311              	@ 441 "../../chibios/os/hal/platforms/STM32/I2Cv1/i2c_lld.c" 1
 312 00b8 83F31188 		msr     BASEPRI, r3
 313              	@ 0 "" 2
 314              	.LVL16:
 315              		.thumb
 316              	.LBE5:
 317 00bc C369     		ldr	r3, [r0, #28]
 318              	.LVL17:
 319 00be 3BB1     		cbz	r3, .L25
 320              	.LVL18:
 321              	.LBB6:
 322              		.loc 1 441 0 is_stmt 0 discriminator 1
 323 00c0 0022     		movs	r2, #0
 324 00c2 6FF00101 		mvn	r1, #1
 325 00c6 C261     		str	r2, [r0, #28]
 326 00c8 1846     		mov	r0, r3
 327              	.LVL19:
 328 00ca 5962     		str	r1, [r3, #36]
 329 00cc FFF7FEFF 		bl	chSchReadyI
 330              	.LVL20:
 331              	.L25:
 332              	.LBE6:
 333              	.LBB7:
 334              		.loc 1 441 0 discriminator 2
 335 00d0 0023     		movs	r3, #0
 336              	.LVL21:
 337              	@ 441 "../../chibios/os/hal/platforms/STM32/I2Cv1/i2c_lld.c" 1
 338 00d2 83F31188 		msr     BASEPRI, r3
ARM GAS  C:\Users\Mohamad\AppData\Local\Temp\ccfsTBGT.s 			page 7


 339              	@ 0 "" 2
 340              	.LVL22:
 341              		.thumb
 342 00d6 70BD     		pop	{r4, r5, r6, pc}
 343              	.LBE7:
 344              		.cfi_endproc
 345              	.LFE125:
 346              		.size	i2c_lld_serve_error_interrupt, .-i2c_lld_serve_error_interrupt
 347 00d8 AFF30080 		.section	.text.i2c_lld_serve_event_interrupt,"ax",%progbits
 347      AFF30080 
 348              		.align	2
 349              		.p2align 4,,15
 350              		.thumb
 351              		.thumb_func
 352              		.type	i2c_lld_serve_event_interrupt, %function
 353              	i2c_lld_serve_event_interrupt:
 354              	.LFB122:
 355              		.loc 1 293 0 is_stmt 1
 356              		.cfi_startproc
 357              		@ args = 0, pretend = 0, frame = 0
 358              		@ frame_needed = 0, uses_anonymous_args = 0
 359              	.LVL23:
 360 0000 38B5     		push	{r3, r4, r5, lr}
 361              	.LCFI3:
 362              		.cfi_def_cfa_offset 16
 363              		.cfi_offset 3, -16
 364              		.cfi_offset 4, -12
 365              		.cfi_offset 5, -8
 366              		.cfi_offset 14, -4
 367              		.loc 1 294 0
 368 0002 446B     		ldr	r4, [r0, #52]
 369              	.LVL24:
 370              		.loc 1 295 0
 371 0004 238B     		ldrh	r3, [r4, #24]
 372              	.LVL25:
 373              		.loc 1 296 0
 374 0006 A58A     		ldrh	r5, [r4, #20]
 375 0008 ADB2     		uxth	r5, r5
 376              	.LVL26:
 377              		.loc 1 301 0
 378 000a 0822     		movs	r2, #8
 379 000c 45EA0341 		orr	r1, r5, r3, lsl #16
 380 0010 21F07F43 		bic	r3, r1, #-16777216
 381              	.LVL27:
 382 0014 C0F20302 		movt	r2, 3
 383 0018 9342     		cmp	r3, r2
 384 001a 6CD0     		beq	.L55
 385 001c 0ED9     		bls	.L70
 386 001e 8222     		movs	r2, #130
 387 0020 C0F20702 		movt	r2, 7
 388 0024 9342     		cmp	r3, r2
 389 0026 4CD0     		beq	.L56
 390 0028 8421     		movs	r1, #132
 391 002a C0F20701 		movt	r1, 7
 392 002e 8B42     		cmp	r3, r1
 393 0030 29D0     		beq	.L71
 394              	.LVL28:
ARM GAS  C:\Users\Mohamad\AppData\Local\Temp\ccfsTBGT.s 			page 8


 395              	.L52:
 396              		.loc 1 341 0
 397 0032 15F00A0F 		tst	r5, #10
 398              		.loc 1 342 0
 399 0036 18BF     		it	ne
 400 0038 238B     		ldrhne	r3, [r4, #24]
 401              	.LVL29:
 402 003a 38BD     		pop	{r3, r4, r5, pc}
 403              	.LVL30:
 404              	.L70:
 405              		.loc 1 301 0
 406 003c 0122     		movs	r2, #1
 407 003e C0F20302 		movt	r2, 3
 408 0042 9342     		cmp	r3, r2
 409 0044 4AD0     		beq	.L53
 410 0046 0221     		movs	r1, #2
 411 0048 C0F20301 		movt	r1, 3
 412 004c 8B42     		cmp	r3, r1
 413 004e F0D1     		bne	.L52
 414              		.loc 1 315 0
 415 0050 A388     		ldrh	r3, [r4, #4]
 416              		.loc 1 316 0
 417 0052 C06A     		ldr	r0, [r0, #44]
 418              	.LVL31:
 419              		.loc 1 315 0
 420 0054 23F40072 		bic	r2, r3, #512
 421 0058 1104     		lsls	r1, r2, #16
 422              		.loc 1 316 0
 423 005a 0068     		ldr	r0, [r0, #0]
 424              		.loc 1 315 0
 425 005c 0B0C     		lsrs	r3, r1, #16
 426 005e A380     		strh	r3, [r4, #4]	@ movhi
 427              		.loc 1 316 0
 428 0060 0268     		ldr	r2, [r0, #0]
 429 0062 42F00101 		orr	r1, r2, #1
 430 0066 0160     		str	r1, [r0, #0]
 431              		.loc 1 317 0
 432 0068 A388     		ldrh	r3, [r4, #4]
 433 006a 9AB2     		uxth	r2, r3
 434 006c 42F48051 		orr	r1, r2, #4096
 435 0070 A180     		strh	r1, [r4, #4]	@ movhi
 436              		.loc 1 318 0
 437 0072 4368     		ldr	r3, [r0, #4]
 438 0074 012B     		cmp	r3, #1
 439 0076 DCD8     		bhi	.L52
 440              		.loc 1 319 0
 441 0078 2088     		ldrh	r0, [r4, #0]
 442 007a 20F48063 		bic	r3, r0, #1024
 443 007e 1A04     		lsls	r2, r3, #16
 444 0080 130C     		lsrs	r3, r2, #16
 445 0082 2380     		strh	r3, [r4, #0]	@ movhi
 446 0084 D5E7     		b	.L52
 447              	.LVL32:
 448              	.L71:
 449              		.loc 1 327 0
 450 0086 C36A     		ldr	r3, [r0, #44]
 451 0088 1A68     		ldr	r2, [r3, #0]
ARM GAS  C:\Users\Mohamad\AppData\Local\Temp\ccfsTBGT.s 			page 9


 452 008a 5168     		ldr	r1, [r2, #4]
 453 008c 0029     		cmp	r1, #0
 454 008e 37D1     		bne	.L72
 455              		.loc 1 333 0
 456 0090 A388     		ldrh	r3, [r4, #4]
 457 0092 23F40072 		bic	r2, r3, #512
 458 0096 1304     		lsls	r3, r2, #16
 459 0098 1A0C     		lsrs	r2, r3, #16
 460 009a A280     		strh	r2, [r4, #4]	@ movhi
 461              		.loc 1 334 0
 462 009c 2388     		ldrh	r3, [r4, #0]
 463 009e 9AB2     		uxth	r2, r3
 464 00a0 42F40073 		orr	r3, r2, #512
 465 00a4 2380     		strh	r3, [r4, #0]	@ movhi
 466              	.LBB8:
 467              		.loc 1 335 0
 468 00a6 2023     		movs	r3, #32
 469              	.LVL33:
 470              	@ 335 "../../chibios/os/hal/platforms/STM32/I2Cv1/i2c_lld.c" 1
 471 00a8 83F31188 		msr     BASEPRI, r3
 472              	@ 0 "" 2
 473              	.LVL34:
 474              		.thumb
 475              	.LBE8:
 476 00ac C269     		ldr	r2, [r0, #28]
 477 00ae 22B1     		cbz	r2, .L62
 478              	.LVL35:
 479              	.LBB9:
 480              		.loc 1 335 0 is_stmt 0 discriminator 1
 481 00b0 C161     		str	r1, [r0, #28]
 482 00b2 1046     		mov	r0, r2
 483              	.LVL36:
 484 00b4 5162     		str	r1, [r2, #36]
 485 00b6 FFF7FEFF 		bl	chSchReadyI
 486              	.LVL37:
 487              	.L62:
 488              	.LBE9:
 489              	.LBB10:
 490              		.loc 1 335 0 discriminator 2
 491 00ba 0023     		movs	r3, #0
 492              	.LVL38:
 493              	@ 335 "../../chibios/os/hal/platforms/STM32/I2Cv1/i2c_lld.c" 1
 494 00bc 83F31188 		msr     BASEPRI, r3
 495              	@ 0 "" 2
 496              	.LVL39:
 497              		.thumb
 498              	.LBE10:
 499              		.loc 1 336 0 is_stmt 1 discriminator 2
 500 00c0 B7E7     		b	.L52
 501              	.LVL40:
 502              	.L56:
 503              		.loc 1 322 0
 504 00c2 A388     		ldrh	r3, [r4, #4]
 505              		.loc 1 323 0
 506 00c4 006B     		ldr	r0, [r0, #48]
 507              	.LVL41:
 508              		.loc 1 322 0
ARM GAS  C:\Users\Mohamad\AppData\Local\Temp\ccfsTBGT.s 			page 10


 509 00c6 23F40071 		bic	r1, r3, #512
 510 00ca 0B04     		lsls	r3, r1, #16
 511              		.loc 1 323 0
 512 00cc 0268     		ldr	r2, [r0, #0]
 513              		.loc 1 322 0
 514 00ce 180C     		lsrs	r0, r3, #16
 515 00d0 A080     		strh	r0, [r4, #4]	@ movhi
 516              		.loc 1 323 0
 517 00d2 1168     		ldr	r1, [r2, #0]
 518 00d4 41F00103 		orr	r3, r1, #1
 519 00d8 1360     		str	r3, [r2, #0]
 520              		.loc 1 324 0
 521 00da AAE7     		b	.L52
 522              	.LVL42:
 523              	.L53:
 524              		.loc 1 303 0
 525 00dc 038C     		ldrh	r3, [r0, #32]
 526 00de 190A     		lsrs	r1, r3, #8
 527 00e0 0CD0     		beq	.L69
 528              		.loc 1 305 0
 529 00e2 03F00100 		and	r0, r3, #1
 530              	.LVL43:
 531 00e6 40F0F003 		orr	r3, r0, #240
 532 00ea 01F00602 		and	r2, r1, #6
 533 00ee 43EA0201 		orr	r1, r3, r2
 534 00f2 2182     		strh	r1, [r4, #16]	@ movhi
 535 00f4 9DE7     		b	.L52
 536              	.LVL44:
 537              	.L55:
 538              		.loc 1 312 0
 539 00f6 038C     		ldrh	r3, [r0, #32]
 540 00f8 C3F34703 		ubfx	r3, r3, #1, #8
 541              	.L69:
 542 00fc 2382     		strh	r3, [r4, #16]	@ movhi
 543              		.loc 1 313 0
 544 00fe 98E7     		b	.L52
 545              	.L72:
 546              		.loc 1 330 0
 547 0100 2188     		ldrh	r1, [r4, #0]
 548              		.loc 1 329 0
 549 0102 028C     		ldrh	r2, [r0, #32]
 550              		.loc 1 330 0
 551 0104 8BB2     		uxth	r3, r1
 552              		.loc 1 329 0
 553 0106 42F00101 		orr	r1, r2, #1
 554              		.loc 1 330 0
 555 010a 43F4A062 		orr	r2, r3, #1280
 556              		.loc 1 329 0
 557 010e 0184     		strh	r1, [r0, #32]	@ movhi
 558              		.loc 1 330 0
 559 0110 2280     		strh	r2, [r4, #0]	@ movhi
 560              		.loc 1 331 0
 561 0112 38BD     		pop	{r3, r4, r5, pc}
 562              		.cfi_endproc
 563              	.LFE122:
 564              		.size	i2c_lld_serve_event_interrupt, .-i2c_lld_serve_event_interrupt
 565 0114 AFF30080 		.section	.text.i2c_lld_serve_tx_end_irq,"ax",%progbits
ARM GAS  C:\Users\Mohamad\AppData\Local\Temp\ccfsTBGT.s 			page 11


 565      AFF30080 
 565      AFF30080 
 566              		.align	2
 567              		.p2align 4,,15
 568              		.thumb
 569              		.thumb_func
 570              		.type	i2c_lld_serve_tx_end_irq, %function
 571              	i2c_lld_serve_tx_end_irq:
 572              	.LFB124:
 573              		.loc 1 380 0
 574              		.cfi_startproc
 575              		@ args = 0, pretend = 0, frame = 0
 576              		@ frame_needed = 0, uses_anonymous_args = 0
 577              	.LVL45:
 578              		.loc 1 385 0
 579 0000 11F00C0F 		tst	r1, #12
 580              		.loc 1 380 0
 581 0004 38B5     		push	{r3, r4, r5, lr}
 582              	.LCFI4:
 583              		.cfi_def_cfa_offset 16
 584              		.cfi_offset 3, -16
 585              		.cfi_offset 4, -12
 586              		.cfi_offset 5, -8
 587              		.cfi_offset 14, -4
 588              		.loc 1 380 0
 589 0006 0546     		mov	r5, r0
 590              		.loc 1 381 0
 591 0008 446B     		ldr	r4, [r0, #52]
 592              	.LVL46:
 593              		.loc 1 385 0
 594 000a 14D1     		bne	.L80
 595              	.LVL47:
 596              	.L74:
 597              		.loc 1 392 0
 598 000c 296B     		ldr	r1, [r5, #48]
 599 000e 0A68     		ldr	r2, [r1, #0]
 600 0010 1368     		ldr	r3, [r2, #0]
 601 0012 23F01F00 		bic	r0, r3, #31
 602 0016 1060     		str	r0, [r2, #0]
 603              	.L75:
 604              		.loc 1 392 0 is_stmt 0 discriminator 1
 605 0018 1368     		ldr	r3, [r2, #0]
 606 001a DB07     		lsls	r3, r3, #31
 607 001c FCD4     		bmi	.L75
 608              		.loc 1 392 0 discriminator 2
 609 001e 0A7A     		ldrb	r2, [r1, #8]	@ zero_extendqisi2
 610 0020 4868     		ldr	r0, [r1, #4]
 611 0022 3D21     		movs	r1, #61
 612 0024 01FA02F3 		lsl	r3, r1, r2
 613 0028 0360     		str	r3, [r0, #0]
 614              		.loc 1 396 0 is_stmt 1 discriminator 2
 615 002a A288     		ldrh	r2, [r4, #4]
 616 002c 90B2     		uxth	r0, r2
 617 002e 40F40071 		orr	r1, r0, #512
 618 0032 A180     		strh	r1, [r4, #4]	@ movhi
 619 0034 38BD     		pop	{r3, r4, r5, pc}
 620              	.LVL48:
ARM GAS  C:\Users\Mohamad\AppData\Local\Temp\ccfsTBGT.s 			page 12


 621              	.L80:
 622              		.loc 1 386 0
 623 0036 FFF7FEFF 		bl	port_halt
 624              	.LVL49:
 625 003a E7E7     		b	.L74
 626              		.cfi_endproc
 627              	.LFE124:
 628              		.size	i2c_lld_serve_tx_end_irq, .-i2c_lld_serve_tx_end_irq
 629 003c AFF30080 		.section	.text.i2c_lld_serve_rx_end_irq,"ax",%progbits
 630              		.align	2
 631              		.p2align 4,,15
 632              		.thumb
 633              		.thumb_func
 634              		.type	i2c_lld_serve_rx_end_irq, %function
 635              	i2c_lld_serve_rx_end_irq:
 636              	.LFB123:
 637              		.loc 1 353 0
 638              		.cfi_startproc
 639              		@ args = 0, pretend = 0, frame = 0
 640              		@ frame_needed = 0, uses_anonymous_args = 0
 641              	.LVL50:
 642              		.loc 1 358 0
 643 0000 11F00C0F 		tst	r1, #12
 644              		.loc 1 353 0
 645 0004 38B5     		push	{r3, r4, r5, lr}
 646              	.LCFI5:
 647              		.cfi_def_cfa_offset 16
 648              		.cfi_offset 3, -16
 649              		.cfi_offset 4, -12
 650              		.cfi_offset 5, -8
 651              		.cfi_offset 14, -4
 652              		.loc 1 353 0
 653 0006 0546     		mov	r5, r0
 654              		.loc 1 354 0
 655 0008 446B     		ldr	r4, [r0, #52]
 656              	.LVL51:
 657              		.loc 1 358 0
 658 000a 2ED1     		bne	.L92
 659              	.LVL52:
 660              	.L82:
 661              		.loc 1 365 0
 662 000c E86A     		ldr	r0, [r5, #44]
 663 000e 0268     		ldr	r2, [r0, #0]
 664 0010 1368     		ldr	r3, [r2, #0]
 665 0012 23F01F01 		bic	r1, r3, #31
 666 0016 1160     		str	r1, [r2, #0]
 667              	.L83:
 668              		.loc 1 365 0 is_stmt 0 discriminator 1
 669 0018 1368     		ldr	r3, [r2, #0]
 670 001a 13F00101 		ands	r1, r3, #1
 671 001e FBD1     		bne	.L83
 672              		.loc 1 365 0 discriminator 2
 673 0020 027A     		ldrb	r2, [r0, #8]	@ zero_extendqisi2
 674 0022 4368     		ldr	r3, [r0, #4]
 675 0024 3D20     		movs	r0, #61
 676 0026 00FA02F2 		lsl	r2, r0, r2
 677 002a 1A60     		str	r2, [r3, #0]
ARM GAS  C:\Users\Mohamad\AppData\Local\Temp\ccfsTBGT.s 			page 13


 678              		.loc 1 367 0 is_stmt 1 discriminator 2
 679 002c A388     		ldrh	r3, [r4, #4]
 680 002e 23F48050 		bic	r0, r3, #4096
 681 0032 0204     		lsls	r2, r0, #16
 682 0034 130C     		lsrs	r3, r2, #16
 683 0036 A380     		strh	r3, [r4, #4]	@ movhi
 684              		.loc 1 368 0 discriminator 2
 685 0038 2088     		ldrh	r0, [r4, #0]
 686 003a 20F48062 		bic	r2, r0, #1024
 687 003e 1304     		lsls	r3, r2, #16
 688 0040 180C     		lsrs	r0, r3, #16
 689 0042 2080     		strh	r0, [r4, #0]	@ movhi
 690              		.loc 1 369 0 discriminator 2
 691 0044 2288     		ldrh	r2, [r4, #0]
 692 0046 93B2     		uxth	r3, r2
 693 0048 43F40070 		orr	r0, r3, #512
 694 004c 2080     		strh	r0, [r4, #0]	@ movhi
 695              	.LBB11:
 696              		.loc 1 370 0 discriminator 2
 697 004e 2023     		movs	r3, #32
 698              	.LVL53:
 699              	@ 370 "../../chibios/os/hal/platforms/STM32/I2Cv1/i2c_lld.c" 1
 700 0050 83F31188 		msr     BASEPRI, r3
 701              	@ 0 "" 2
 702              	.LVL54:
 703              		.thumb
 704              	.LBE11:
 705 0054 EA69     		ldr	r2, [r5, #28]
 706 0056 22B1     		cbz	r2, .L84
 707              	.LVL55:
 708              	.LBB12:
 709              		.loc 1 370 0 is_stmt 0 discriminator 1
 710 0058 E961     		str	r1, [r5, #28]
 711 005a 1046     		mov	r0, r2
 712 005c 5162     		str	r1, [r2, #36]
 713 005e FFF7FEFF 		bl	chSchReadyI
 714              	.LVL56:
 715              	.L84:
 716              	.LBE12:
 717              	.LBB13:
 718              		.loc 1 370 0 discriminator 2
 719 0062 0023     		movs	r3, #0
 720              	.LVL57:
 721              	@ 370 "../../chibios/os/hal/platforms/STM32/I2Cv1/i2c_lld.c" 1
 722 0064 83F31188 		msr     BASEPRI, r3
 723              	@ 0 "" 2
 724              	.LVL58:
 725              		.thumb
 726 0068 38BD     		pop	{r3, r4, r5, pc}
 727              	.LVL59:
 728              	.L92:
 729              	.LBE13:
 730              		.loc 1 359 0 is_stmt 1
 731 006a FFF7FEFF 		bl	port_halt
 732              	.LVL60:
 733 006e CDE7     		b	.L82
 734              		.cfi_endproc
ARM GAS  C:\Users\Mohamad\AppData\Local\Temp\ccfsTBGT.s 			page 14


 735              	.LFE123:
 736              		.size	i2c_lld_serve_rx_end_irq, .-i2c_lld_serve_rx_end_irq
 737              		.section	.text.VectorBC,"ax",%progbits
 738              		.align	2
 739              		.p2align 4,,15
 740              		.global	VectorBC
 741              		.thumb
 742              		.thumb_func
 743              		.type	VectorBC, %function
 744              	VectorBC:
 745              	.LFB126:
 746              		.loc 1 454 0
 747              		.cfi_startproc
 748              		@ args = 0, pretend = 0, frame = 0
 749              		@ frame_needed = 0, uses_anonymous_args = 0
 750 0000 08B5     		push	{r3, lr}
 751              	.LCFI6:
 752              		.cfi_def_cfa_offset 8
 753              		.cfi_offset 3, -8
 754              		.cfi_offset 14, -4
 755              		.loc 1 458 0
 756 0002 40F20000 		movw	r0, #:lower16:.LANCHOR0
 757 0006 C0F20000 		movt	r0, #:upper16:.LANCHOR0
 758 000a FFF7FEFF 		bl	i2c_lld_serve_event_interrupt
 759              	.LVL61:
 760              		.loc 1 461 0
 761 000e BDE80840 		pop	{r3, lr}
 762              		.loc 1 460 0
 763 0012 FFF7FEBF 		b	_port_irq_epilogue
 764              	.LVL62:
 765              		.cfi_endproc
 766              	.LFE126:
 767              		.size	VectorBC, .-VectorBC
 768 0016 00BFAFF3 		.section	.text.VectorC0,"ax",%progbits
 768      0080AFF3 
 768      0080
 769              		.align	2
 770              		.p2align 4,,15
 771              		.global	VectorC0
 772              		.thumb
 773              		.thumb_func
 774              		.type	VectorC0, %function
 775              	VectorC0:
 776              	.LFB127:
 777              		.loc 1 466 0
 778              		.cfi_startproc
 779              		@ args = 0, pretend = 0, frame = 0
 780              		@ frame_needed = 0, uses_anonymous_args = 0
 781 0000 08B5     		push	{r3, lr}
 782              	.LCFI7:
 783              		.cfi_def_cfa_offset 8
 784              		.cfi_offset 3, -8
 785              		.cfi_offset 14, -4
 786              		.loc 1 467 0
 787 0002 40F20003 		movw	r3, #:lower16:.LANCHOR0
 788 0006 C0F20003 		movt	r3, #:upper16:.LANCHOR0
 789              		.loc 1 472 0
ARM GAS  C:\Users\Mohamad\AppData\Local\Temp\ccfsTBGT.s 			page 15


 790 000a 1846     		mov	r0, r3
 791              		.loc 1 467 0
 792 000c 5A6B     		ldr	r2, [r3, #52]
 793 000e 918A     		ldrh	r1, [r2, #20]
 794 0010 89B2     		uxth	r1, r1
 795              	.LVL63:
 796              		.loc 1 471 0
 797 0012 01F45F43 		and	r3, r1, #57088
 798 0016 83F47F43 		eor	r3, r3, #65280
 799 001a 83F0FF03 		eor	r3, r3, #255
 800 001e 9382     		strh	r3, [r2, #20]	@ movhi
 801              		.loc 1 472 0
 802 0020 FFF7FEFF 		bl	i2c_lld_serve_error_interrupt
 803              	.LVL64:
 804              		.loc 1 475 0
 805 0024 BDE80840 		pop	{r3, lr}
 806              		.loc 1 474 0
 807 0028 FFF7FEBF 		b	_port_irq_epilogue
 808              	.LVL65:
 809              		.cfi_endproc
 810              	.LFE127:
 811              		.size	VectorC0, .-VectorC0
 812 002c AFF30080 		.section	.text.VectorC4,"ax",%progbits
 813              		.align	2
 814              		.p2align 4,,15
 815              		.global	VectorC4
 816              		.thumb
 817              		.thumb_func
 818              		.type	VectorC4, %function
 819              	VectorC4:
 820              	.LFB128:
 821              		.loc 1 484 0
 822              		.cfi_startproc
 823              		@ args = 0, pretend = 0, frame = 0
 824              		@ frame_needed = 0, uses_anonymous_args = 0
 825 0000 08B5     		push	{r3, lr}
 826              	.LCFI8:
 827              		.cfi_def_cfa_offset 8
 828              		.cfi_offset 3, -8
 829              		.cfi_offset 14, -4
 830              		.loc 1 488 0
 831 0002 40F20000 		movw	r0, #:lower16:.LANCHOR1
 832 0006 C0F20000 		movt	r0, #:upper16:.LANCHOR1
 833 000a FFF7FEFF 		bl	i2c_lld_serve_event_interrupt
 834              	.LVL66:
 835              		.loc 1 491 0
 836 000e BDE80840 		pop	{r3, lr}
 837              		.loc 1 490 0
 838 0012 FFF7FEBF 		b	_port_irq_epilogue
 839              	.LVL67:
 840              		.cfi_endproc
 841              	.LFE128:
 842              		.size	VectorC4, .-VectorC4
 843 0016 00BFAFF3 		.section	.text.VectorC8,"ax",%progbits
 843      0080AFF3 
 843      0080
 844              		.align	2
ARM GAS  C:\Users\Mohamad\AppData\Local\Temp\ccfsTBGT.s 			page 16


 845              		.p2align 4,,15
 846              		.global	VectorC8
 847              		.thumb
 848              		.thumb_func
 849              		.type	VectorC8, %function
 850              	VectorC8:
 851              	.LFB129:
 852              		.loc 1 498 0
 853              		.cfi_startproc
 854              		@ args = 0, pretend = 0, frame = 0
 855              		@ frame_needed = 0, uses_anonymous_args = 0
 856 0000 08B5     		push	{r3, lr}
 857              	.LCFI9:
 858              		.cfi_def_cfa_offset 8
 859              		.cfi_offset 3, -8
 860              		.cfi_offset 14, -4
 861              		.loc 1 499 0
 862 0002 40F20003 		movw	r3, #:lower16:.LANCHOR1
 863 0006 C0F20003 		movt	r3, #:upper16:.LANCHOR1
 864              		.loc 1 504 0
 865 000a 1846     		mov	r0, r3
 866              		.loc 1 499 0
 867 000c 5A6B     		ldr	r2, [r3, #52]
 868 000e 918A     		ldrh	r1, [r2, #20]
 869 0010 89B2     		uxth	r1, r1
 870              	.LVL68:
 871              		.loc 1 503 0
 872 0012 01F45F43 		and	r3, r1, #57088
 873 0016 83F47F43 		eor	r3, r3, #65280
 874 001a 83F0FF03 		eor	r3, r3, #255
 875 001e 9382     		strh	r3, [r2, #20]	@ movhi
 876              		.loc 1 504 0
 877 0020 FFF7FEFF 		bl	i2c_lld_serve_error_interrupt
 878              	.LVL69:
 879              		.loc 1 507 0
 880 0024 BDE80840 		pop	{r3, lr}
 881              		.loc 1 506 0
 882 0028 FFF7FEBF 		b	_port_irq_epilogue
 883              	.LVL70:
 884              		.cfi_endproc
 885              	.LFE129:
 886              		.size	VectorC8, .-VectorC8
 887 002c AFF30080 		.section	.text.Vector160,"ax",%progbits
 888              		.align	2
 889              		.p2align 4,,15
 890              		.global	Vector160
 891              		.thumb
 892              		.thumb_func
 893              		.type	Vector160, %function
 894              	Vector160:
 895              	.LFB130:
 896              		.loc 1 516 0
 897              		.cfi_startproc
 898              		@ args = 0, pretend = 0, frame = 0
 899              		@ frame_needed = 0, uses_anonymous_args = 0
 900 0000 08B5     		push	{r3, lr}
 901              	.LCFI10:
ARM GAS  C:\Users\Mohamad\AppData\Local\Temp\ccfsTBGT.s 			page 17


 902              		.cfi_def_cfa_offset 8
 903              		.cfi_offset 3, -8
 904              		.cfi_offset 14, -4
 905              		.loc 1 520 0
 906 0002 40F20000 		movw	r0, #:lower16:.LANCHOR2
 907 0006 C0F20000 		movt	r0, #:upper16:.LANCHOR2
 908 000a FFF7FEFF 		bl	i2c_lld_serve_event_interrupt
 909              	.LVL71:
 910              		.loc 1 523 0
 911 000e BDE80840 		pop	{r3, lr}
 912              		.loc 1 522 0
 913 0012 FFF7FEBF 		b	_port_irq_epilogue
 914              	.LVL72:
 915              		.cfi_endproc
 916              	.LFE130:
 917              		.size	Vector160, .-Vector160
 918 0016 00BFAFF3 		.section	.text.Vector164,"ax",%progbits
 918      0080AFF3 
 918      0080
 919              		.align	2
 920              		.p2align 4,,15
 921              		.global	Vector164
 922              		.thumb
 923              		.thumb_func
 924              		.type	Vector164, %function
 925              	Vector164:
 926              	.LFB131:
 927              		.loc 1 530 0
 928              		.cfi_startproc
 929              		@ args = 0, pretend = 0, frame = 0
 930              		@ frame_needed = 0, uses_anonymous_args = 0
 931 0000 08B5     		push	{r3, lr}
 932              	.LCFI11:
 933              		.cfi_def_cfa_offset 8
 934              		.cfi_offset 3, -8
 935              		.cfi_offset 14, -4
 936              		.loc 1 531 0
 937 0002 40F20003 		movw	r3, #:lower16:.LANCHOR2
 938 0006 C0F20003 		movt	r3, #:upper16:.LANCHOR2
 939              		.loc 1 536 0
 940 000a 1846     		mov	r0, r3
 941              		.loc 1 531 0
 942 000c 5A6B     		ldr	r2, [r3, #52]
 943 000e 918A     		ldrh	r1, [r2, #20]
 944 0010 89B2     		uxth	r1, r1
 945              	.LVL73:
 946              		.loc 1 535 0
 947 0012 01F45F43 		and	r3, r1, #57088
 948 0016 83F47F43 		eor	r3, r3, #65280
 949 001a 83F0FF03 		eor	r3, r3, #255
 950 001e 9382     		strh	r3, [r2, #20]	@ movhi
 951              		.loc 1 536 0
 952 0020 FFF7FEFF 		bl	i2c_lld_serve_error_interrupt
 953              	.LVL74:
 954              		.loc 1 539 0
 955 0024 BDE80840 		pop	{r3, lr}
 956              		.loc 1 538 0
ARM GAS  C:\Users\Mohamad\AppData\Local\Temp\ccfsTBGT.s 			page 18


 957 0028 FFF7FEBF 		b	_port_irq_epilogue
 958              	.LVL75:
 959              		.cfi_endproc
 960              	.LFE131:
 961              		.size	Vector164, .-Vector164
 962 002c AFF30080 		.section	.text.i2c_lld_init,"ax",%progbits
 963              		.align	2
 964              		.p2align 4,,15
 965              		.global	i2c_lld_init
 966              		.thumb
 967              		.thumb_func
 968              		.type	i2c_lld_init, %function
 969              	i2c_lld_init:
 970              	.LFB132:
 971              		.loc 1 551 0
 972              		.cfi_startproc
 973              		@ args = 0, pretend = 0, frame = 0
 974              		@ frame_needed = 0, uses_anonymous_args = 0
 975 0000 2DE9F041 		push	{r4, r5, r6, r7, r8, lr}
 976              	.LCFI12:
 977              		.cfi_def_cfa_offset 24
 978              		.cfi_offset 4, -24
 979              		.cfi_offset 5, -20
 980              		.cfi_offset 6, -16
 981              		.cfi_offset 7, -12
 982              		.cfi_offset 8, -8
 983              		.cfi_offset 14, -4
 984              		.loc 1 554 0
 985 0004 40F20007 		movw	r7, #:lower16:.LANCHOR0
 986 0008 C0F20007 		movt	r7, #:upper16:.LANCHOR0
 987 000c 3846     		mov	r0, r7
 988              		.loc 1 557 0
 989 000e 40F20005 		movw	r5, #:lower16:_stm32_dma_streams
 990              		.loc 1 562 0
 991 0012 40F20006 		movw	r6, #:lower16:.LANCHOR1
 992              		.loc 1 554 0
 993 0016 FFF7FEFF 		bl	i2cObjectInit
 994              	.LVL76:
 995              		.loc 1 557 0
 996 001a C0F20005 		movt	r5, #:upper16:_stm32_dma_streams
 997              		.loc 1 562 0
 998 001e C0F20006 		movt	r6, #:upper16:.LANCHOR1
 999              		.loc 1 556 0
 1000 0022 4FF4A843 		mov	r3, #21504
 1001              		.loc 1 558 0
 1002 0026 05F14802 		add	r2, r5, #72
 1003              		.loc 1 555 0
 1004 002a 4FF00008 		mov	r8, #0
 1005              		.loc 1 556 0
 1006 002e C4F20003 		movt	r3, 16384
 1007              		.loc 1 562 0
 1008 0032 3046     		mov	r0, r6
 1009              		.loc 1 570 0
 1010 0034 40F20004 		movw	r4, #:lower16:.LANCHOR2
 1011 0038 C0F20004 		movt	r4, #:upper16:.LANCHOR2
 1012              		.loc 1 556 0
 1013 003c 7B63     		str	r3, [r7, #52]
ARM GAS  C:\Users\Mohamad\AppData\Local\Temp\ccfsTBGT.s 			page 19


 1014              		.loc 1 557 0
 1015 003e FD62     		str	r5, [r7, #44]
 1016              		.loc 1 558 0
 1017 0040 3A63     		str	r2, [r7, #48]
 1018              		.loc 1 555 0
 1019 0042 C7F81C80 		str	r8, [r7, #28]
 1020              		.loc 1 562 0
 1021 0046 FFF7FEFF 		bl	i2cObjectInit
 1022              	.LVL77:
 1023              		.loc 1 564 0
 1024 004a 4FF4B041 		mov	r1, #22528
 1025              		.loc 1 565 0
 1026 004e 05F11807 		add	r7, r5, #24
 1027              		.loc 1 566 0
 1028 0052 05F15403 		add	r3, r5, #84
 1029              		.loc 1 564 0
 1030 0056 C4F20001 		movt	r1, 16384
 1031              		.loc 1 570 0
 1032 005a 2046     		mov	r0, r4
 1033              		.loc 1 563 0
 1034 005c C6F81C80 		str	r8, [r6, #28]
 1035              		.loc 1 564 0
 1036 0060 7163     		str	r1, [r6, #52]
 1037              		.loc 1 565 0
 1038 0062 F762     		str	r7, [r6, #44]
 1039              		.loc 1 566 0
 1040 0064 3363     		str	r3, [r6, #48]
 1041              		.loc 1 570 0
 1042 0066 FFF7FEFF 		bl	i2cObjectInit
 1043              	.LVL78:
 1044              		.loc 1 572 0
 1045 006a 4FF4B840 		mov	r0, #23552
 1046 006e C4F20000 		movt	r0, 16384
 1047              		.loc 1 574 0
 1048 0072 3035     		adds	r5, r5, #48
 1049              		.loc 1 571 0
 1050 0074 C4F81C80 		str	r8, [r4, #28]
 1051              		.loc 1 572 0
 1052 0078 6063     		str	r0, [r4, #52]
 1053              		.loc 1 573 0
 1054 007a E762     		str	r7, [r4, #44]
 1055              		.loc 1 574 0
 1056 007c 2563     		str	r5, [r4, #48]
 1057 007e BDE8F081 		pop	{r4, r5, r6, r7, r8, pc}
 1058              		.cfi_endproc
 1059              	.LFE132:
 1060              		.size	i2c_lld_init, .-i2c_lld_init
 1061 0082 00BFAFF3 		.section	.text.i2c_lld_start,"ax",%progbits
 1061      0080AFF3 
 1061      0080AFF3 
 1061      0080
 1062              		.align	2
 1063              		.p2align 4,,15
 1064              		.global	i2c_lld_start
 1065              		.thumb
 1066              		.thumb_func
 1067              		.type	i2c_lld_start, %function
ARM GAS  C:\Users\Mohamad\AppData\Local\Temp\ccfsTBGT.s 			page 20


 1068              	i2c_lld_start:
 1069              	.LFB133:
 1070              		.loc 1 585 0
 1071              		.cfi_startproc
 1072              		@ args = 0, pretend = 0, frame = 0
 1073              		@ frame_needed = 0, uses_anonymous_args = 0
 1074              	.LVL79:
 1075 0000 F8B5     		push	{r3, r4, r5, r6, r7, lr}
 1076              	.LCFI13:
 1077              		.cfi_def_cfa_offset 24
 1078              		.cfi_offset 3, -24
 1079              		.cfi_offset 4, -20
 1080              		.cfi_offset 5, -16
 1081              		.cfi_offset 6, -12
 1082              		.cfi_offset 7, -8
 1083              		.cfi_offset 14, -4
 1084              		.loc 1 598 0
 1085 0002 0378     		ldrb	r3, [r0, #0]	@ zero_extendqisi2
 1086              		.loc 1 585 0
 1087 0004 0446     		mov	r4, r0
 1088              		.loc 1 588 0
 1089 0006 40F25642 		movw	r2, #1110
 1090 000a 8262     		str	r2, [r0, #40]
 1091              		.loc 1 598 0
 1092 000c 012B     		cmp	r3, #1
 1093              		.loc 1 592 0
 1094 000e 40F21640 		movw	r0, #1046
 1095              	.LVL80:
 1096 0012 6062     		str	r0, [r4, #36]
 1097              		.loc 1 586 0
 1098 0014 656B     		ldr	r5, [r4, #52]
 1099              	.LVL81:
 1100              		.loc 1 598 0
 1101 0016 55D0     		beq	.L116
 1102              	.L113:
 1103              		.loc 1 586 0
 1104 0018 2B46     		mov	r3, r5
 1105              	.L101:
 1106              		.loc 1 686 0
 1107 001a E66A     		ldr	r6, [r4, #44]
 1108              		.loc 1 687 0
 1109 001c 276B     		ldr	r7, [r4, #48]
 1110              		.loc 1 686 0
 1111 001e 3668     		ldr	r6, [r6, #0]
 1112              		.loc 1 687 0
 1113 0020 3868     		ldr	r0, [r7, #0]
 1114              	.LBB21:
 1115              	.LBB22:
 1116              		.loc 1 187 0
 1117 0022 6168     		ldr	r1, [r4, #4]
 1118              	.LBE22:
 1119              	.LBE21:
 1120              		.loc 1 686 0
 1121 0024 05F11002 		add	r2, r5, #16
 1122 0028 B260     		str	r2, [r6, #8]
 1123              		.loc 1 691 0
 1124 002a 0024     		movs	r4, #0
ARM GAS  C:\Users\Mohamad\AppData\Local\Temp\ccfsTBGT.s 			page 21


 1125              	.LVL82:
 1126              		.loc 1 690 0
 1127 002c 4FF40047 		mov	r7, #32768
 1128              		.loc 1 692 0
 1129 0030 4FF41066 		mov	r6, #2304
 1130              		.loc 1 687 0
 1131 0034 8260     		str	r2, [r0, #8]
 1132              		.loc 1 690 0
 1133 0036 2F80     		strh	r7, [r5, #0]	@ movhi
 1134              		.loc 1 691 0
 1135 0038 2C80     		strh	r4, [r5, #0]	@ movhi
 1136              		.loc 1 692 0
 1137 003a AE80     		strh	r6, [r5, #4]	@ movhi
 1138              	.LVL83:
 1139              	.LBB26:
 1140              	.LBB23:
 1141              		.loc 1 194 0
 1142 003c 9A88     		ldrh	r2, [r3, #4]
 1143              		.loc 1 187 0
 1144 003e 4868     		ldr	r0, [r1, #4]
 1145              	.LVL84:
 1146              		.loc 1 188 0
 1147 0040 0F7A     		ldrb	r7, [r1, #8]	@ zero_extendqisi2
 1148              	.LVL85:
 1149              		.loc 1 194 0
 1150 0042 22F03F06 		bic	r6, r2, #63
 1151 0046 3204     		lsls	r2, r6, #16
 1152 0048 160C     		lsrs	r6, r2, #16
 1153 004a 9E80     		strh	r6, [r3, #4]	@ movhi
 1154              		.loc 1 195 0
 1155 004c 9E88     		ldrh	r6, [r3, #4]
 1156              		.loc 1 201 0
 1157 004e 48F2A062 		movw	r2, #34464
 1158              		.loc 1 195 0
 1159 0052 B6B2     		uxth	r6, r6
 1160              		.loc 1 201 0
 1161 0054 C0F20102 		movt	r2, 1
 1162              		.loc 1 195 0
 1163 0058 46F02A06 		orr	r6, r6, #42
 1164              		.loc 1 201 0
 1165 005c 9042     		cmp	r0, r2
 1166              		.loc 1 195 0
 1167 005e 9E80     		strh	r6, [r3, #4]	@ movhi
 1168              	.LVL86:
 1169              		.loc 1 201 0
 1170 0060 24DD     		ble	.L117
 1171              		.loc 1 221 0
 1172 0062 4FF4D452 		mov	r2, #6784
 1173 0066 C0F20602 		movt	r2, 6
 1174 006a 9042     		cmp	r0, r2
 1175 006c 08DC     		bgt	.L114
 1176              		.loc 1 227 0
 1177 006e 022F     		cmp	r7, #2
 1178 0070 7BD0     		beq	.L118
 1179              		.loc 1 234 0
 1180 0072 032F     		cmp	r7, #3
 1181 0074 69D0     		beq	.L119
ARM GAS  C:\Users\Mohamad\AppData\Local\Temp\ccfsTBGT.s 			page 22


 1182 0076 48F6FF70 		movw	r0, #36863
 1183              	.LVL87:
 1184              	.L107:
 1185              		.loc 1 249 0
 1186 007a 0D22     		movs	r2, #13
 1187 007c 1A84     		strh	r2, [r3, #32]	@ movhi
 1188 007e 00E0     		b	.L105
 1189              	.LVL88:
 1190              	.L114:
 1191              		.loc 1 198 0
 1192 0080 2046     		mov	r0, r4
 1193              	.LVL89:
 1194              	.L105:
 1195              		.loc 1 255 0
 1196 0082 9883     		strh	r0, [r3, #28]	@ movhi
 1197              	.LVL90:
 1198              	.LBE23:
 1199              	.LBE26:
 1200              	.LBB27:
 1201              	.LBB28:
 1202              		.loc 1 271 0
 1203 0084 0978     		ldrb	r1, [r1, #0]	@ zero_extendqisi2
 1204              	.LVL91:
 1205              		.loc 1 270 0
 1206 0086 1888     		ldrh	r0, [r3, #0]
 1207              	.LVL92:
 1208              		.loc 1 271 0
 1209 0088 0229     		cmp	r1, #2
 1210              		.loc 1 270 0
 1211 008a 82B2     		uxth	r2, r0
 1212              	.LVL93:
 1213              		.loc 1 271 0
 1214 008c 57D0     		beq	.L110
 1215 008e 0329     		cmp	r1, #3
 1216 0090 52D0     		beq	.L111
 1217 0092 0129     		cmp	r1, #1
 1218 0094 03D1     		bne	.L108
 1219              		.loc 1 273 0
 1220 0096 22F00A02 		bic	r2, r2, #10
 1221 009a 1004     		lsls	r0, r2, #16
 1222              	.LVL94:
 1223 009c 020C     		lsrs	r2, r0, #16
 1224              	.LVL95:
 1225              	.L108:
 1226              		.loc 1 283 0
 1227 009e 1A80     		strh	r2, [r3, #0]	@ movhi
 1228              	.LBE28:
 1229              	.LBE27:
 1230              		.loc 1 699 0
 1231 00a0 2B88     		ldrh	r3, [r5, #0]
 1232              	.LVL96:
 1233 00a2 98B2     		uxth	r0, r3
 1234 00a4 40F00102 		orr	r2, r0, #1
 1235              	.LVL97:
 1236 00a8 2A80     		strh	r2, [r5, #0]	@ movhi
 1237 00aa F8BD     		pop	{r3, r4, r5, r6, r7, pc}
 1238              	.LVL98:
ARM GAS  C:\Users\Mohamad\AppData\Local\Temp\ccfsTBGT.s 			page 23


 1239              	.L117:
 1240              	.LBB31:
 1241              	.LBB24:
 1242              		.loc 1 211 0
 1243 00ac 4DF68062 		movw	r2, #56960
 1244 00b0 4000     		lsls	r0, r0, #1
 1245              	.LVL99:
 1246 00b2 C0F28022 		movt	r2, 640
 1247 00b6 92FBF0F2 		sdiv	r2, r2, r0
 1248              		.loc 1 216 0
 1249 00ba 1005     		lsls	r0, r2, #20
 1250              		.loc 1 219 0
 1251 00bc 2B22     		movs	r2, #43
 1252              		.loc 1 216 0
 1253 00be 000D     		lsrs	r0, r0, #20
 1254              	.LVL100:
 1255              		.loc 1 219 0
 1256 00c0 1A84     		strh	r2, [r3, #32]	@ movhi
 1257 00c2 DEE7     		b	.L105
 1258              	.LVL101:
 1259              	.L116:
 1260              	.LBE24:
 1261              	.LBE31:
 1262              		.loc 1 601 0
 1263 00c4 6049     		ldr	r1, .L122
 1264 00c6 8C42     		cmp	r4, r1
 1265 00c8 5DD0     		beq	.L120
 1266              		.loc 1 629 0
 1267 00ca 604E     		ldr	r6, .L122+4
 1268 00cc B442     		cmp	r4, r6
 1269 00ce 00F08A80 		beq	.L121
 1270              		.loc 1 657 0
 1271 00d2 5F4F     		ldr	r7, .L122+8
 1272 00d4 BC42     		cmp	r4, r7
 1273 00d6 9FD1     		bne	.L113
 1274              	.LBB32:
 1275              		.loc 1 660 0
 1276 00d8 4FF46056 		mov	r6, #14336
 1277 00dc C4F20206 		movt	r6, 16386
 1278              		.loc 1 661 0
 1279 00e0 E06A     		ldr	r0, [r4, #44]
 1280              		.loc 1 660 0
 1281 00e2 316A     		ldr	r1, [r6, #32]
 1282              		.loc 1 661 0
 1283 00e4 5B4A     		ldr	r2, .L122+12
 1284              		.loc 1 660 0
 1285 00e6 41F40007 		orr	r7, r1, #8388608
 1286 00ea 3762     		str	r7, [r6, #32]
 1287 00ec 0027     		movs	r7, #0
 1288 00ee 3762     		str	r7, [r6, #32]
 1289              		.loc 1 661 0
 1290 00f0 0521     		movs	r1, #5
 1291 00f2 2346     		mov	r3, r4
 1292 00f4 FFF7FEFF 		bl	dmaStreamAllocate
 1293              	.LVL102:
 1294              		.loc 1 666 0
 1295 00f8 574A     		ldr	r2, .L122+16
ARM GAS  C:\Users\Mohamad\AppData\Local\Temp\ccfsTBGT.s 			page 24


 1296 00fa 206B     		ldr	r0, [r4, #48]
 1297 00fc 2346     		mov	r3, r4
 1298 00fe 0521     		movs	r1, #5
 1299 0100 FFF7FEFF 		bl	dmaStreamAllocate
 1300              	.LVL103:
 1301              		.loc 1 671 0
 1302 0104 326C     		ldr	r2, [r6, #64]
 1303 0106 42F40003 		orr	r3, r2, #8388608
 1304 010a 3364     		str	r3, [r6, #64]
 1305              		.loc 1 672 0
 1306 010c 4820     		movs	r0, #72
 1307 010e 5021     		movs	r1, #80
 1308 0110 FFF7FEFF 		bl	nvicEnableVector
 1309              	.LVL104:
 1310              		.loc 1 674 0
 1311 0114 4920     		movs	r0, #73
 1312 0116 5021     		movs	r1, #80
 1313 0118 FFF7FEFF 		bl	nvicEnableVector
 1314              	.LVL105:
 1315              		.loc 1 677 0
 1316 011c 606A     		ldr	r0, [r4, #36]
 1317              		.loc 1 679 0
 1318 011e A66A     		ldr	r6, [r4, #40]
 1319 0120 636B     		ldr	r3, [r4, #52]
 1320              		.loc 1 677 0
 1321 0122 40F0C061 		orr	r1, r0, #100663296
 1322              		.loc 1 679 0
 1323 0126 46F0C067 		orr	r7, r6, #100663296
 1324              		.loc 1 677 0
 1325 012a 41F44030 		orr	r0, r1, #196608
 1326              		.loc 1 679 0
 1327 012e 47F44032 		orr	r2, r7, #196608
 1328              		.loc 1 677 0
 1329 0132 6062     		str	r0, [r4, #36]
 1330              		.loc 1 679 0
 1331 0134 A262     		str	r2, [r4, #40]
 1332 0136 70E7     		b	.L101
 1333              	.LVL106:
 1334              	.L111:
 1335              	.LBE32:
 1336              	.LBB33:
 1337              	.LBB29:
 1338              		.loc 1 280 0
 1339 0138 42F00A02 		orr	r2, r2, #10
 1340              	.LVL107:
 1341 013c AFE7     		b	.L108
 1342              	.LVL108:
 1343              	.L110:
 1344              	.LBE29:
 1345              		.loc 1 277 0
 1346 013e 4FF6F771 		movw	r1, #65527
 1347 0142 1140     		ands	r1, r1, r2
 1348              	.LBB30:
 1349 0144 41F00202 		orr	r2, r1, #2
 1350              	.LVL109:
 1351 0148 A9E7     		b	.L108
 1352              	.LVL110:
ARM GAS  C:\Users\Mohamad\AppData\Local\Temp\ccfsTBGT.s 			page 25


 1353              	.L119:
 1354              	.LBE30:
 1355              	.LBE33:
 1356              	.LBB34:
 1357              	.LBB25:
 1358              		.loc 1 239 0
 1359 014a 00EB8000 		add	r0, r0, r0, lsl #2
 1360              	.LVL111:
 1361 014e 4DF68062 		movw	r2, #56960
 1362 0152 00EB8000 		add	r0, r0, r0, lsl #2
 1363 0156 C0F28022 		movt	r2, 640
 1364 015a 92FBF0F2 		sdiv	r2, r2, r0
 1365              	.LVL112:
 1366 015e 6FEA8240 		mvn	r0, r2, lsl #18
 1367 0162 6FEA9042 		mvn	r2, r0, lsr #18
 1368              	.LVL113:
 1369 0166 90B2     		uxth	r0, r2
 1370 0168 87E7     		b	.L107
 1371              	.LVL114:
 1372              	.L118:
 1373              		.loc 1 232 0
 1374 016a 4DF68062 		movw	r2, #56960
 1375 016e 00EB4000 		add	r0, r0, r0, lsl #1
 1376              	.LVL115:
 1377 0172 C0F28022 		movt	r2, 640
 1378 0176 92FBF0F2 		sdiv	r2, r2, r0
 1379              	.LVL116:
 1380 017a 6FEA4240 		mvn	r0, r2, lsl #17
 1381 017e 6FEA5042 		mvn	r2, r0, lsr #17
 1382              	.LVL117:
 1383 0182 90B2     		uxth	r0, r2
 1384 0184 79E7     		b	.L107
 1385              	.LVL118:
 1386              	.L120:
 1387              	.LBE25:
 1388              	.LBE34:
 1389              	.LBB35:
 1390              		.loc 1 604 0
 1391 0186 4FF46056 		mov	r6, #14336
 1392 018a C4F20206 		movt	r6, 16386
 1393              		.loc 1 605 0
 1394 018e E06A     		ldr	r0, [r4, #44]
 1395              		.loc 1 604 0
 1396 0190 336A     		ldr	r3, [r6, #32]
 1397              		.loc 1 605 0
 1398 0192 304A     		ldr	r2, .L122+12
 1399              		.loc 1 604 0
 1400 0194 43F40017 		orr	r7, r3, #2097152
 1401 0198 3762     		str	r7, [r6, #32]
 1402 019a 0027     		movs	r7, #0
 1403 019c 3762     		str	r7, [r6, #32]
 1404              		.loc 1 605 0
 1405 019e 0521     		movs	r1, #5
 1406 01a0 2346     		mov	r3, r4
 1407 01a2 FFF7FEFF 		bl	dmaStreamAllocate
 1408              	.LVL119:
 1409              		.loc 1 610 0
ARM GAS  C:\Users\Mohamad\AppData\Local\Temp\ccfsTBGT.s 			page 26


 1410 01a6 2346     		mov	r3, r4
 1411 01a8 2B4A     		ldr	r2, .L122+16
 1412 01aa 206B     		ldr	r0, [r4, #48]
 1413 01ac 0521     		movs	r1, #5
 1414 01ae FFF7FEFF 		bl	dmaStreamAllocate
 1415              	.LVL120:
 1416              		.loc 1 615 0
 1417 01b2 316C     		ldr	r1, [r6, #64]
 1418 01b4 41F40012 		orr	r2, r1, #2097152
 1419 01b8 3264     		str	r2, [r6, #64]
 1420              		.loc 1 616 0
 1421 01ba 1F20     		movs	r0, #31
 1422 01bc 5021     		movs	r1, #80
 1423 01be FFF7FEFF 		bl	nvicEnableVector
 1424              	.LVL121:
 1425              		.loc 1 618 0
 1426 01c2 2020     		movs	r0, #32
 1427 01c4 5021     		movs	r1, #80
 1428 01c6 FFF7FEFF 		bl	nvicEnableVector
 1429              	.LVL122:
 1430              		.loc 1 621 0
 1431 01ca 606A     		ldr	r0, [r4, #36]
 1432              		.loc 1 623 0
 1433 01cc A66A     		ldr	r6, [r4, #40]
 1434 01ce 636B     		ldr	r3, [r4, #52]
 1435              		.loc 1 621 0
 1436 01d0 40F00077 		orr	r7, r0, #33554432
 1437              		.loc 1 623 0
 1438 01d4 46F00072 		orr	r2, r6, #33554432
 1439              		.loc 1 621 0
 1440 01d8 47F44031 		orr	r1, r7, #196608
 1441              		.loc 1 623 0
 1442 01dc 42F44030 		orr	r0, r2, #196608
 1443              		.loc 1 621 0
 1444 01e0 6162     		str	r1, [r4, #36]
 1445              		.loc 1 623 0
 1446 01e2 A062     		str	r0, [r4, #40]
 1447 01e4 19E7     		b	.L101
 1448              	.L121:
 1449              	.LBE35:
 1450              	.LBB36:
 1451              		.loc 1 632 0
 1452 01e6 4FF46056 		mov	r6, #14336
 1453 01ea C4F20206 		movt	r6, 16386
 1454 01ee 0027     		movs	r7, #0
 1455 01f0 336A     		ldr	r3, [r6, #32]
 1456              		.loc 1 633 0
 1457 01f2 E06A     		ldr	r0, [r4, #44]
 1458 01f4 174A     		ldr	r2, .L122+12
 1459              		.loc 1 632 0
 1460 01f6 43F48001 		orr	r1, r3, #4194304
 1461 01fa 3162     		str	r1, [r6, #32]
 1462              		.loc 1 633 0
 1463 01fc 2346     		mov	r3, r4
 1464              		.loc 1 632 0
 1465 01fe 3762     		str	r7, [r6, #32]
 1466              		.loc 1 633 0
ARM GAS  C:\Users\Mohamad\AppData\Local\Temp\ccfsTBGT.s 			page 27


 1467 0200 0521     		movs	r1, #5
 1468 0202 FFF7FEFF 		bl	dmaStreamAllocate
 1469              	.LVL123:
 1470              		.loc 1 638 0
 1471 0206 2346     		mov	r3, r4
 1472 0208 134A     		ldr	r2, .L122+16
 1473 020a 206B     		ldr	r0, [r4, #48]
 1474 020c 0521     		movs	r1, #5
 1475 020e FFF7FEFF 		bl	dmaStreamAllocate
 1476              	.LVL124:
 1477              		.loc 1 643 0
 1478 0212 306C     		ldr	r0, [r6, #64]
 1479 0214 40F48002 		orr	r2, r0, #4194304
 1480 0218 3264     		str	r2, [r6, #64]
 1481              		.loc 1 644 0
 1482 021a 2120     		movs	r0, #33
 1483 021c 5021     		movs	r1, #80
 1484 021e FFF7FEFF 		bl	nvicEnableVector
 1485              	.LVL125:
 1486              		.loc 1 646 0
 1487 0222 2220     		movs	r0, #34
 1488 0224 5021     		movs	r1, #80
 1489 0226 FFF7FEFF 		bl	nvicEnableVector
 1490              	.LVL126:
 1491              		.loc 1 649 0
 1492 022a 666A     		ldr	r6, [r4, #36]
 1493              		.loc 1 651 0
 1494 022c A76A     		ldr	r7, [r4, #40]
 1495 022e 636B     		ldr	r3, [r4, #52]
 1496              		.loc 1 649 0
 1497 0230 46F06061 		orr	r1, r6, #234881024
 1498              		.loc 1 651 0
 1499 0234 47F06060 		orr	r0, r7, #234881024
 1500              		.loc 1 649 0
 1501 0238 41F44036 		orr	r6, r1, #196608
 1502              		.loc 1 651 0
 1503 023c 40F44032 		orr	r2, r0, #196608
 1504              		.loc 1 649 0
 1505 0240 6662     		str	r6, [r4, #36]
 1506              		.loc 1 651 0
 1507 0242 A262     		str	r2, [r4, #40]
 1508 0244 E9E6     		b	.L101
 1509              	.L123:
 1510 0246 00BF     		.align	2
 1511              	.L122:
 1512 0248 00000000 		.word	.LANCHOR0
 1513 024c 00000000 		.word	.LANCHOR1
 1514 0250 00000000 		.word	.LANCHOR2
 1515 0254 00000000 		.word	i2c_lld_serve_rx_end_irq
 1516 0258 00000000 		.word	i2c_lld_serve_tx_end_irq
 1517              	.LBE36:
 1518              		.cfi_endproc
 1519              	.LFE133:
 1520              		.size	i2c_lld_start, .-i2c_lld_start
 1521 025c AFF30080 		.section	.text.i2c_lld_stop,"ax",%progbits
 1522              		.align	2
 1523              		.p2align 4,,15
ARM GAS  C:\Users\Mohamad\AppData\Local\Temp\ccfsTBGT.s 			page 28


 1524              		.global	i2c_lld_stop
 1525              		.thumb
 1526              		.thumb_func
 1527              		.type	i2c_lld_stop, %function
 1528              	i2c_lld_stop:
 1529              	.LFB134:
 1530              		.loc 1 709 0
 1531              		.cfi_startproc
 1532              		@ args = 0, pretend = 0, frame = 0
 1533              		@ frame_needed = 0, uses_anonymous_args = 0
 1534              	.LVL127:
 1535              		.loc 1 712 0
 1536 0000 0378     		ldrb	r3, [r0, #0]	@ zero_extendqisi2
 1537 0002 012B     		cmp	r3, #1
 1538              		.loc 1 709 0
 1539 0004 10B5     		push	{r4, lr}
 1540              	.LCFI14:
 1541              		.cfi_def_cfa_offset 8
 1542              		.cfi_offset 4, -8
 1543              		.cfi_offset 14, -4
 1544              		.loc 1 709 0
 1545 0006 0446     		mov	r4, r0
 1546              		.loc 1 712 0
 1547 0008 10D0     		beq	.L124
 1548              		.loc 1 715 0
 1549 000a FFF7FEFF 		bl	i2c_lld_abort_operation
 1550              	.LVL128:
 1551              		.loc 1 716 0
 1552 000e 206B     		ldr	r0, [r4, #48]
 1553 0010 FFF7FEFF 		bl	dmaStreamRelease
 1554              	.LVL129:
 1555              		.loc 1 717 0
 1556 0014 E06A     		ldr	r0, [r4, #44]
 1557 0016 FFF7FEFF 		bl	dmaStreamRelease
 1558              	.LVL130:
 1559              		.loc 1 720 0
 1560 001a 1B48     		ldr	r0, .L133
 1561 001c 8442     		cmp	r4, r0
 1562 001e 15D0     		beq	.L130
 1563              		.loc 1 728 0
 1564 0020 1A49     		ldr	r1, .L133+4
 1565 0022 8C42     		cmp	r4, r1
 1566 0024 21D0     		beq	.L131
 1567              		.loc 1 736 0
 1568 0026 1A4A     		ldr	r2, .L133+8
 1569 0028 9442     		cmp	r4, r2
 1570 002a 00D0     		beq	.L132
 1571              	.L124:
 1572 002c 10BD     		pop	{r4, pc}
 1573              	.L132:
 1574              		.loc 1 737 0
 1575 002e 4820     		movs	r0, #72
 1576 0030 FFF7FEFF 		bl	nvicDisableVector
 1577              	.LVL131:
 1578              		.loc 1 738 0
 1579 0034 4920     		movs	r0, #73
 1580 0036 FFF7FEFF 		bl	nvicDisableVector
ARM GAS  C:\Users\Mohamad\AppData\Local\Temp\ccfsTBGT.s 			page 29


 1581              	.LVL132:
 1582              		.loc 1 739 0
 1583 003a 4FF46053 		mov	r3, #14336
 1584 003e C4F20203 		movt	r3, 16386
 1585 0042 186C     		ldr	r0, [r3, #64]
 1586 0044 20F40001 		bic	r1, r0, #8388608
 1587 0048 1964     		str	r1, [r3, #64]
 1588 004a EFE7     		b	.L124
 1589              	.L130:
 1590              		.loc 1 721 0
 1591 004c 1F20     		movs	r0, #31
 1592 004e FFF7FEFF 		bl	nvicDisableVector
 1593              	.LVL133:
 1594              		.loc 1 722 0
 1595 0052 2020     		movs	r0, #32
 1596 0054 FFF7FEFF 		bl	nvicDisableVector
 1597              	.LVL134:
 1598              		.loc 1 723 0
 1599 0058 4FF46051 		mov	r1, #14336
 1600 005c C4F20201 		movt	r1, 16386
 1601 0060 0B6C     		ldr	r3, [r1, #64]
 1602 0062 23F40012 		bic	r2, r3, #2097152
 1603 0066 0A64     		str	r2, [r1, #64]
 1604 0068 10BD     		pop	{r4, pc}
 1605              	.L131:
 1606              		.loc 1 729 0
 1607 006a 2120     		movs	r0, #33
 1608 006c FFF7FEFF 		bl	nvicDisableVector
 1609              	.LVL135:
 1610              		.loc 1 730 0
 1611 0070 2220     		movs	r0, #34
 1612 0072 FFF7FEFF 		bl	nvicDisableVector
 1613              	.LVL136:
 1614              		.loc 1 731 0
 1615 0076 4FF46053 		mov	r3, #14336
 1616 007a C4F20203 		movt	r3, 16386
 1617 007e 1A6C     		ldr	r2, [r3, #64]
 1618 0080 22F48000 		bic	r0, r2, #4194304
 1619 0084 1864     		str	r0, [r3, #64]
 1620 0086 10BD     		pop	{r4, pc}
 1621              	.L134:
 1622              		.align	2
 1623              	.L133:
 1624 0088 00000000 		.word	.LANCHOR0
 1625 008c 00000000 		.word	.LANCHOR1
 1626 0090 00000000 		.word	.LANCHOR2
 1627              		.cfi_endproc
 1628              	.LFE134:
 1629              		.size	i2c_lld_stop, .-i2c_lld_stop
 1630 0094 AFF30080 		.section	.text.i2c_lld_master_receive_timeout,"ax",%progbits
 1630      AFF30080 
 1630      AFF30080 
 1631              		.align	2
 1632              		.p2align 4,,15
 1633              		.global	i2c_lld_master_receive_timeout
 1634              		.thumb
 1635              		.thumb_func
ARM GAS  C:\Users\Mohamad\AppData\Local\Temp\ccfsTBGT.s 			page 30


 1636              		.type	i2c_lld_master_receive_timeout, %function
 1637              	i2c_lld_master_receive_timeout:
 1638              	.LFB135:
 1639              		.loc 1 770 0
 1640              		.cfi_startproc
 1641              		@ args = 4, pretend = 0, frame = 24
 1642              		@ frame_needed = 0, uses_anonymous_args = 0
 1643              	.LVL137:
 1644 0000 2DE9F046 		push	{r4, r5, r6, r7, r9, sl, lr}
 1645              	.LCFI15:
 1646              		.cfi_def_cfa_offset 28
 1647              		.cfi_offset 4, -28
 1648              		.cfi_offset 5, -24
 1649              		.cfi_offset 6, -20
 1650              		.cfi_offset 7, -16
 1651              		.cfi_offset 9, -12
 1652              		.cfi_offset 10, -8
 1653              		.cfi_offset 14, -4
 1654 0004 87B0     		sub	sp, sp, #28
 1655              	.LCFI16:
 1656              		.cfi_def_cfa_offset 56
 1657              		.loc 1 770 0
 1658 0006 8A46     		mov	sl, r1
 1659 0008 0E9D     		ldr	r5, [sp, #56]
 1660              		.loc 1 771 0
 1661 000a 446B     		ldr	r4, [r0, #52]
 1662              	.LVL138:
 1663              		.loc 1 779 0
 1664 000c 691C     		adds	r1, r5, #1
 1665              	.LVL139:
 1666              		.loc 1 770 0
 1667 000e 0646     		mov	r6, r0
 1668 0010 9146     		mov	r9, r2
 1669 0012 1F46     		mov	r7, r3
 1670              		.loc 1 779 0
 1671 0014 05D0     		beq	.L136
 1672              		.loc 1 780 0
 1673 0016 01A8     		add	r0, sp, #4
 1674              	.LVL140:
 1675 0018 2946     		mov	r1, r5
 1676 001a 304A     		ldr	r2, .L158
 1677              	.LVL141:
 1678 001c 3346     		mov	r3, r6
 1679              	.LVL142:
 1680 001e FFF7FEFF 		bl	chVTSetI
 1681              	.LVL143:
 1682              	.L136:
 1683              	.LBB37:
 1684              		.loc 1 783 0
 1685 0022 0023     		movs	r3, #0
 1686              	.LVL144:
 1687              	@ 783 "../../chibios/os/hal/platforms/STM32/I2Cv1/i2c_lld.c" 1
 1688 0024 83F31188 		msr     BASEPRI, r3
 1689              	@ 0 "" 2
 1690              	.LVL145:
 1691              		.thumb
 1692              	.LBE37:
ARM GAS  C:\Users\Mohamad\AppData\Local\Temp\ccfsTBGT.s 			page 31


 1693              		.loc 1 790 0
 1694 0028 F06A     		ldr	r0, [r6, #44]
 1695 002a 726A     		ldr	r2, [r6, #36]
 1696 002c 0168     		ldr	r1, [r0, #0]
 1697              		.loc 1 787 0
 1698 002e B360     		str	r3, [r6, #8]
 1699              	.LVL146:
 1700              		.loc 1 786 0
 1701 0030 4FEA4A0C 		lsl	ip, sl, #1
 1702 0034 4CF0010A 		orr	sl, ip, #1
 1703 0038 A6F820A0 		strh	sl, [r6, #32]	@ movhi
 1704              		.loc 1 790 0
 1705 003c 0A60     		str	r2, [r1, #0]
 1706              		.loc 1 791 0
 1707 003e C1F80C90 		str	r9, [r1, #12]
 1708              		.loc 1 792 0
 1709 0042 4F60     		str	r7, [r1, #4]
 1710              		.loc 1 796 0
 1711 0044 02E0     		b	.L137
 1712              	.LVL147:
 1713              	.L138:
 1714              	.LBB38:
 1715              		.loc 1 800 0
 1716 0046 0023     		movs	r3, #0
 1717              	.LVL148:
 1718              	@ 800 "../../chibios/os/hal/platforms/STM32/I2Cv1/i2c_lld.c" 1
 1719 0048 83F31188 		msr     BASEPRI, r3
 1720              	@ 0 "" 2
 1721              	.LVL149:
 1722              		.thumb
 1723              	.L137:
 1724              	.LBE38:
 1725              		.loc 1 796 0 discriminator 1
 1726 004c 208B     		ldrh	r0, [r4, #24]
 1727 004e 00F00202 		and	r2, r0, #2
 1728 0052 91B2     		uxth	r1, r2
 1729              	.LBB39:
 1730              		.loc 1 797 0 discriminator 1
 1731 0054 2023     		movs	r3, #32
 1732              	.LVL150:
 1733              	.LBE39:
 1734              		.loc 1 796 0 discriminator 1
 1735 0056 21B9     		cbnz	r1, .L140
 1736              		.loc 1 796 0 is_stmt 0 discriminator 2
 1737 0058 2088     		ldrh	r0, [r4, #0]
 1738 005a 00F40072 		and	r2, r0, #512
 1739 005e 91B2     		uxth	r1, r2
 1740 0060 59B1     		cbz	r1, .L157
 1741              	.L140:
 1742              	.LBB40:
 1743              		.loc 1 797 0 is_stmt 1
 1744              	@ 797 "../../chibios/os/hal/platforms/STM32/I2Cv1/i2c_lld.c" 1
 1745 0062 83F31188 		msr     BASEPRI, r3
 1746              	@ 0 "" 2
 1747              	.LVL151:
 1748              		.thumb
 1749              	.LBE40:
ARM GAS  C:\Users\Mohamad\AppData\Local\Temp\ccfsTBGT.s 			page 32


 1750              		.loc 1 798 0
 1751 0066 6A1C     		adds	r2, r5, #1
 1752 0068 EDD0     		beq	.L138
 1753              		.loc 1 798 0 is_stmt 0 discriminator 1
 1754 006a 0498     		ldr	r0, [sp, #16]
 1755 006c 0028     		cmp	r0, #0
 1756 006e EAD1     		bne	.L138
 1757              	.L142:
 1758              		.loc 1 799 0 is_stmt 1
 1759 0070 4FF0FF30 		mov	r0, #-1
 1760              	.L155:
 1761              		.loc 1 822 0
 1762 0074 07B0     		add	sp, sp, #28
 1763 0076 BDE8F086 		pop	{r4, r5, r6, r7, r9, sl, pc}
 1764              	.LVL152:
 1765              	.L157:
 1766              	.LBB41:
 1767              		.loc 1 804 0
 1768              	@ 804 "../../chibios/os/hal/platforms/STM32/I2Cv1/i2c_lld.c" 1
 1769 007a 83F31188 		msr     BASEPRI, r3
 1770              	@ 0 "" 2
 1771              	.LVL153:
 1772              		.thumb
 1773              	.LBE41:
 1774              		.loc 1 808 0
 1775 007e 6B1C     		adds	r3, r5, #1
 1776              	.LVL154:
 1777 0080 1AD0     		beq	.L141
 1778              		.loc 1 808 0 is_stmt 0 discriminator 1
 1779 0082 0499     		ldr	r1, [sp, #16]
 1780 0084 0029     		cmp	r1, #0
 1781 0086 F3D0     		beq	.L142
 1782              		.loc 1 812 0 is_stmt 1
 1783 0088 A388     		ldrh	r3, [r4, #4]
 1784              		.loc 1 816 0
 1785 008a 154D     		ldr	r5, .L158+4
 1786              		.loc 1 812 0
 1787 008c 98B2     		uxth	r0, r3
 1788 008e 40F40072 		orr	r2, r0, #512
 1789 0092 A280     		strh	r2, [r4, #4]	@ movhi
 1790              		.loc 1 813 0
 1791 0094 2188     		ldrh	r1, [r4, #0]
 1792              		.loc 1 816 0
 1793 0096 AB69     		ldr	r3, [r5, #24]
 1794              		.loc 1 813 0
 1795 0098 88B2     		uxth	r0, r1
 1796 009a 40F4A062 		orr	r2, r0, #1280
 1797 009e 2280     		strh	r2, [r4, #0]	@ movhi
 1798              		.loc 1 817 0
 1799 00a0 0220     		movs	r0, #2
 1800              		.loc 1 816 0
 1801 00a2 F361     		str	r3, [r6, #28]
 1802              		.loc 1 817 0
 1803 00a4 FFF7FEFF 		bl	chSchGoSleepS
 1804              	.LVL155:
 1805              		.loc 1 818 0
 1806 00a8 0499     		ldr	r1, [sp, #16]
ARM GAS  C:\Users\Mohamad\AppData\Local\Temp\ccfsTBGT.s 			page 33


 1807 00aa 11B1     		cbz	r1, .L144
 1808              		.loc 1 819 0
 1809 00ac 01A8     		add	r0, sp, #4
 1810 00ae FFF7FEFF 		bl	chVTResetI
 1811              	.LVL156:
 1812              	.L144:
 1813              		.loc 1 821 0
 1814 00b2 AB69     		ldr	r3, [r5, #24]
 1815 00b4 586A     		ldr	r0, [r3, #36]
 1816 00b6 DDE7     		b	.L155
 1817              	.L141:
 1818              		.loc 1 812 0
 1819 00b8 A388     		ldrh	r3, [r4, #4]
 1820              		.loc 1 816 0
 1821 00ba 094D     		ldr	r5, .L158+4
 1822              		.loc 1 812 0
 1823 00bc 98B2     		uxth	r0, r3
 1824 00be 40F40072 		orr	r2, r0, #512
 1825 00c2 A280     		strh	r2, [r4, #4]	@ movhi
 1826              		.loc 1 813 0
 1827 00c4 2188     		ldrh	r1, [r4, #0]
 1828              		.loc 1 816 0
 1829 00c6 AB69     		ldr	r3, [r5, #24]
 1830              		.loc 1 813 0
 1831 00c8 88B2     		uxth	r0, r1
 1832 00ca 40F4A062 		orr	r2, r0, #1280
 1833 00ce 2280     		strh	r2, [r4, #0]	@ movhi
 1834              		.loc 1 817 0
 1835 00d0 0220     		movs	r0, #2
 1836              		.loc 1 816 0
 1837 00d2 F361     		str	r3, [r6, #28]
 1838              		.loc 1 817 0
 1839 00d4 FFF7FEFF 		bl	chSchGoSleepS
 1840              	.LVL157:
 1841 00d8 EBE7     		b	.L144
 1842              	.L159:
 1843 00da 00BF     		.align	2
 1844              	.L158:
 1845 00dc 00000000 		.word	i2c_lld_safety_timeout
 1846 00e0 00000000 		.word	rlist
 1847              		.cfi_endproc
 1848              	.LFE135:
 1849              		.size	i2c_lld_master_receive_timeout, .-i2c_lld_master_receive_timeout
 1850 00e4 AFF30080 		.section	.text.i2c_lld_master_transmit_timeout,"ax",%progbits
 1850      AFF30080 
 1850      AFF30080 
 1851              		.align	2
 1852              		.p2align 4,,15
 1853              		.global	i2c_lld_master_transmit_timeout
 1854              		.thumb
 1855              		.thumb_func
 1856              		.type	i2c_lld_master_transmit_timeout, %function
 1857              	i2c_lld_master_transmit_timeout:
 1858              	.LFB136:
 1859              		.loc 1 852 0
 1860              		.cfi_startproc
 1861              		@ args = 12, pretend = 0, frame = 24
ARM GAS  C:\Users\Mohamad\AppData\Local\Temp\ccfsTBGT.s 			page 34


 1862              		@ frame_needed = 0, uses_anonymous_args = 0
 1863              	.LVL158:
 1864 0000 2DE9F046 		push	{r4, r5, r6, r7, r9, sl, lr}
 1865              	.LCFI17:
 1866              		.cfi_def_cfa_offset 28
 1867              		.cfi_offset 4, -28
 1868              		.cfi_offset 5, -24
 1869              		.cfi_offset 6, -20
 1870              		.cfi_offset 7, -16
 1871              		.cfi_offset 9, -12
 1872              		.cfi_offset 10, -8
 1873              		.cfi_offset 14, -4
 1874 0004 87B0     		sub	sp, sp, #28
 1875              	.LCFI18:
 1876              		.cfi_def_cfa_offset 56
 1877              		.loc 1 852 0
 1878 0006 8A46     		mov	sl, r1
 1879 0008 109D     		ldr	r5, [sp, #64]
 1880              		.loc 1 853 0
 1881 000a 446B     		ldr	r4, [r0, #52]
 1882              	.LVL159:
 1883              		.loc 1 862 0
 1884 000c 691C     		adds	r1, r5, #1
 1885              	.LVL160:
 1886              		.loc 1 852 0
 1887 000e 0646     		mov	r6, r0
 1888 0010 9146     		mov	r9, r2
 1889 0012 1F46     		mov	r7, r3
 1890              		.loc 1 862 0
 1891 0014 05D0     		beq	.L161
 1892              		.loc 1 863 0
 1893 0016 01A8     		add	r0, sp, #4
 1894              	.LVL161:
 1895 0018 2946     		mov	r1, r5
 1896 001a 334A     		ldr	r2, .L183
 1897              	.LVL162:
 1898 001c 3346     		mov	r3, r6
 1899              	.LVL163:
 1900 001e FFF7FEFF 		bl	chVTSetI
 1901              	.LVL164:
 1902              	.L161:
 1903              	.LBB42:
 1904              		.loc 1 866 0
 1905 0022 0023     		movs	r3, #0
 1906              	.LVL165:
 1907              	@ 866 "../../chibios/os/hal/platforms/STM32/I2Cv1/i2c_lld.c" 1
 1908 0024 83F31188 		msr     BASEPRI, r3
 1909              	@ 0 "" 2
 1910              	.LVL166:
 1911              		.thumb
 1912              	.LBE42:
 1913              		.loc 1 878 0
 1914 0028 F16A     		ldr	r1, [r6, #44]
 1915              		.loc 1 873 0
 1916 002a 326B     		ldr	r2, [r6, #48]
 1917              		.loc 1 878 0
 1918 002c 0868     		ldr	r0, [r1, #0]
ARM GAS  C:\Users\Mohamad\AppData\Local\Temp\ccfsTBGT.s 			page 35


 1919              		.loc 1 873 0
 1920 002e 1268     		ldr	r2, [r2, #0]
 1921              		.loc 1 878 0
 1922 0030 716A     		ldr	r1, [r6, #36]
 1923              		.loc 1 870 0
 1924 0032 B360     		str	r3, [r6, #8]
 1925              	.LVL167:
 1926              		.loc 1 873 0
 1927 0034 B36A     		ldr	r3, [r6, #40]
 1928              		.loc 1 869 0
 1929 0036 4FEA4A0A 		lsl	sl, sl, #1
 1930 003a A6F820A0 		strh	sl, [r6, #32]	@ movhi
 1931              		.loc 1 873 0
 1932 003e 1360     		str	r3, [r2, #0]
 1933              		.loc 1 874 0
 1934 0040 C2F80C90 		str	r9, [r2, #12]
 1935              		.loc 1 875 0
 1936 0044 5760     		str	r7, [r2, #4]
 1937              		.loc 1 878 0
 1938 0046 0160     		str	r1, [r0, #0]
 1939              		.loc 1 879 0
 1940 0048 0E9A     		ldr	r2, [sp, #56]
 1941              		.loc 1 880 0
 1942 004a 0F99     		ldr	r1, [sp, #60]
 1943              		.loc 1 879 0
 1944 004c C260     		str	r2, [r0, #12]
 1945              		.loc 1 880 0
 1946 004e 4160     		str	r1, [r0, #4]
 1947              		.loc 1 884 0
 1948 0050 02E0     		b	.L162
 1949              	.LVL168:
 1950              	.L163:
 1951              	.LBB43:
 1952              		.loc 1 888 0
 1953 0052 0023     		movs	r3, #0
 1954              	.LVL169:
 1955              	@ 888 "../../chibios/os/hal/platforms/STM32/I2Cv1/i2c_lld.c" 1
 1956 0054 83F31188 		msr     BASEPRI, r3
 1957              	@ 0 "" 2
 1958              	.LVL170:
 1959              		.thumb
 1960              	.L162:
 1961              	.LBE43:
 1962              		.loc 1 884 0 discriminator 1
 1963 0058 208B     		ldrh	r0, [r4, #24]
 1964 005a 00F00202 		and	r2, r0, #2
 1965 005e 91B2     		uxth	r1, r2
 1966              	.LBB44:
 1967              		.loc 1 885 0 discriminator 1
 1968 0060 2023     		movs	r3, #32
 1969              	.LVL171:
 1970              	.LBE44:
 1971              		.loc 1 884 0 discriminator 1
 1972 0062 21B9     		cbnz	r1, .L165
 1973              		.loc 1 884 0 is_stmt 0 discriminator 2
 1974 0064 2088     		ldrh	r0, [r4, #0]
 1975 0066 00F40072 		and	r2, r0, #512
ARM GAS  C:\Users\Mohamad\AppData\Local\Temp\ccfsTBGT.s 			page 36


 1976 006a 91B2     		uxth	r1, r2
 1977 006c 59B1     		cbz	r1, .L182
 1978              	.L165:
 1979              	.LBB45:
 1980              		.loc 1 885 0 is_stmt 1
 1981              	@ 885 "../../chibios/os/hal/platforms/STM32/I2Cv1/i2c_lld.c" 1
 1982 006e 83F31188 		msr     BASEPRI, r3
 1983              	@ 0 "" 2
 1984              	.LVL172:
 1985              		.thumb
 1986              	.LBE45:
 1987              		.loc 1 886 0
 1988 0072 6A1C     		adds	r2, r5, #1
 1989 0074 EDD0     		beq	.L163
 1990              		.loc 1 886 0 is_stmt 0 discriminator 1
 1991 0076 0498     		ldr	r0, [sp, #16]
 1992 0078 0028     		cmp	r0, #0
 1993 007a EAD1     		bne	.L163
 1994              	.L167:
 1995              		.loc 1 887 0 is_stmt 1
 1996 007c 4FF0FF30 		mov	r0, #-1
 1997              	.L180:
 1998              		.loc 1 910 0
 1999 0080 07B0     		add	sp, sp, #28
 2000 0082 BDE8F086 		pop	{r4, r5, r6, r7, r9, sl, pc}
 2001              	.LVL173:
 2002              	.L182:
 2003              	.LBB46:
 2004              		.loc 1 892 0
 2005              	@ 892 "../../chibios/os/hal/platforms/STM32/I2Cv1/i2c_lld.c" 1
 2006 0086 83F31188 		msr     BASEPRI, r3
 2007              	@ 0 "" 2
 2008              	.LVL174:
 2009              		.thumb
 2010              	.LBE46:
 2011              		.loc 1 896 0
 2012 008a 6B1C     		adds	r3, r5, #1
 2013              	.LVL175:
 2014 008c 1AD0     		beq	.L166
 2015              		.loc 1 896 0 is_stmt 0 discriminator 1
 2016 008e 0499     		ldr	r1, [sp, #16]
 2017 0090 0029     		cmp	r1, #0
 2018 0092 F3D0     		beq	.L167
 2019              		.loc 1 900 0 is_stmt 1
 2020 0094 A388     		ldrh	r3, [r4, #4]
 2021              		.loc 1 904 0
 2022 0096 154D     		ldr	r5, .L183+4
 2023              		.loc 1 900 0
 2024 0098 98B2     		uxth	r0, r3
 2025 009a 40F40072 		orr	r2, r0, #512
 2026 009e A280     		strh	r2, [r4, #4]	@ movhi
 2027              		.loc 1 901 0
 2028 00a0 2188     		ldrh	r1, [r4, #0]
 2029              		.loc 1 904 0
 2030 00a2 AB69     		ldr	r3, [r5, #24]
 2031              		.loc 1 901 0
 2032 00a4 88B2     		uxth	r0, r1
ARM GAS  C:\Users\Mohamad\AppData\Local\Temp\ccfsTBGT.s 			page 37


 2033 00a6 40F48072 		orr	r2, r0, #256
 2034 00aa 2280     		strh	r2, [r4, #0]	@ movhi
 2035              		.loc 1 905 0
 2036 00ac 0220     		movs	r0, #2
 2037              		.loc 1 904 0
 2038 00ae F361     		str	r3, [r6, #28]
 2039              		.loc 1 905 0
 2040 00b0 FFF7FEFF 		bl	chSchGoSleepS
 2041              	.LVL176:
 2042              		.loc 1 906 0
 2043 00b4 0499     		ldr	r1, [sp, #16]
 2044 00b6 11B1     		cbz	r1, .L169
 2045              		.loc 1 907 0
 2046 00b8 01A8     		add	r0, sp, #4
 2047 00ba FFF7FEFF 		bl	chVTResetI
 2048              	.LVL177:
 2049              	.L169:
 2050              		.loc 1 909 0
 2051 00be AB69     		ldr	r3, [r5, #24]
 2052 00c0 586A     		ldr	r0, [r3, #36]
 2053 00c2 DDE7     		b	.L180
 2054              	.L166:
 2055              		.loc 1 900 0
 2056 00c4 A388     		ldrh	r3, [r4, #4]
 2057              		.loc 1 904 0
 2058 00c6 094D     		ldr	r5, .L183+4
 2059              		.loc 1 900 0
 2060 00c8 98B2     		uxth	r0, r3
 2061 00ca 40F40072 		orr	r2, r0, #512
 2062 00ce A280     		strh	r2, [r4, #4]	@ movhi
 2063              		.loc 1 901 0
 2064 00d0 2188     		ldrh	r1, [r4, #0]
 2065              		.loc 1 904 0
 2066 00d2 AB69     		ldr	r3, [r5, #24]
 2067              		.loc 1 901 0
 2068 00d4 88B2     		uxth	r0, r1
 2069 00d6 40F48072 		orr	r2, r0, #256
 2070 00da 2280     		strh	r2, [r4, #0]	@ movhi
 2071              		.loc 1 905 0
 2072 00dc 0220     		movs	r0, #2
 2073              		.loc 1 904 0
 2074 00de F361     		str	r3, [r6, #28]
 2075              		.loc 1 905 0
 2076 00e0 FFF7FEFF 		bl	chSchGoSleepS
 2077              	.LVL178:
 2078 00e4 EBE7     		b	.L169
 2079              	.L184:
 2080 00e6 00BF     		.align	2
 2081              	.L183:
 2082 00e8 00000000 		.word	i2c_lld_safety_timeout
 2083 00ec 00000000 		.word	rlist
 2084              		.cfi_endproc
 2085              	.LFE136:
 2086              		.size	i2c_lld_master_transmit_timeout, .-i2c_lld_master_transmit_timeout
 2087              		.global	I2CD3
 2088              		.global	I2CD2
 2089              		.global	I2CD1
ARM GAS  C:\Users\Mohamad\AppData\Local\Temp\ccfsTBGT.s 			page 38


 2090              		.section	.bss.I2CD1,"aw",%nobits
 2091              		.align	2
 2092              		.set	.LANCHOR0,. + 0
 2093              		.type	I2CD1, %object
 2094              		.size	I2CD1, 56
 2095              	I2CD1:
 2096 0000 00000000 		.space	56
 2096      00000000 
 2096      00000000 
 2096      00000000 
 2096      00000000 
 2097              		.section	.bss.I2CD2,"aw",%nobits
 2098              		.align	2
 2099              		.set	.LANCHOR1,. + 0
 2100              		.type	I2CD2, %object
 2101              		.size	I2CD2, 56
 2102              	I2CD2:
 2103 0000 00000000 		.space	56
 2103      00000000 
 2103      00000000 
 2103      00000000 
 2103      00000000 
 2104              		.section	.bss.I2CD3,"aw",%nobits
 2105              		.align	2
 2106              		.set	.LANCHOR2,. + 0
 2107              		.type	I2CD3, %object
 2108              		.size	I2CD3, 56
 2109              	I2CD3:
 2110 0000 00000000 		.space	56
 2110      00000000 
 2110      00000000 
 2110      00000000 
 2110      00000000 
 2111              		.text
 2112              	.Letext0:
 2113              		.file 2 "c:\\chibistudio\\tools\\gnu tools arm embedded\\4.7 2014q2\\bin\\../lib/gcc/arm-none-eabi
 2114              		.file 3 "c:\\chibistudio\\tools\\gnu tools arm embedded\\4.7 2014q2\\bin\\../lib/gcc/arm-none-eabi
 2115              		.file 4 "../../chibios/os/ports/GCC/ARMCMx/chtypes.h"
 2116              		.file 5 "../../chibios/os/kernel/include/chlists.h"
 2117              		.file 6 "../../chibios/os/kernel/include/chthreads.h"
 2118              		.file 7 "../../chibios/os/ports/GCC/ARMCMx/chcore_v7m.h"
 2119              		.file 8 "../../chibios/os/kernel/include/chvt.h"
 2120              		.file 9 "../../chibios/os/kernel/include/chschd.h"
 2121              		.file 10 "../../chibios/os/kernel/include/chmtx.h"
 2122              		.file 11 "../../chibios/os/hal/platforms/STM32F4xx/stm32f4xx.h"
 2123              		.file 12 "../../chibios/os/hal/platforms/STM32F4xx/stm32_dma.h"
 2124              		.file 13 "../../chibios/os/hal/include/i2c.h"
 2125              		.file 14 "../../chibios/os/hal/platforms/STM32/I2Cv1/i2c_lld.h"
 2126              		.file 15 "../../chibios/os/ports/common/ARMCMx/CMSIS/include/core_cm4.h"
 2127              		.file 16 "../../chibios/os/ports/common/ARMCMx/nvic.h"