ARM GAS  C:\Users\Mohamad\AppData\Local\Temp\ccDsqi1j.s 			page 1


   1              		.syntax unified
   2              		.cpu cortex-m4
   3              		.fpu softvfp
   4              		.eabi_attribute 20, 1
   5              		.eabi_attribute 21, 1
   6              		.eabi_attribute 23, 3
   7              		.eabi_attribute 24, 1
   8              		.eabi_attribute 25, 1
   9              		.eabi_attribute 26, 1
  10              		.eabi_attribute 30, 2
  11              		.eabi_attribute 34, 1
  12              		.eabi_attribute 18, 4
  13              		.thumb
  14              		.file	"main.c"
  15              		.text
  16              	.Ltext0:
  17              		.cfi_sections	.debug_frame
  18              		.section	.text.rxchar,"ax",%progbits
  19              		.align	2
  20              		.p2align 4,,15
  21              		.thumb
  22              		.thumb_func
  23              		.type	rxchar, %function
  24              	rxchar:
  25              	.LFB1532:
  26              		.file 1 "main.c"
  27              		.loc 1 58 0
  28              		.cfi_startproc
  29              		@ args = 0, pretend = 0, frame = 0
  30              		@ frame_needed = 0, uses_anonymous_args = 0
  31              		@ link register save eliminated.
  32              	.LVL0:
  33 0000 7047     		bx	lr
  34              		.cfi_endproc
  35              	.LFE1532:
  36              		.size	rxchar, .-rxchar
  37 0002 00BFAFF3 		.section	.text.uart3_txend2,"ax",%progbits
  37      0080AFF3 
  37      0080AFF3 
  37      0080
  38              		.align	2
  39              		.p2align 4,,15
  40              		.thumb
  41              		.thumb_func
  42              		.type	uart3_txend2, %function
  43              	uart3_txend2:
  44              	.LFB1533:
  45              		.loc 1 63 0
  46              		.cfi_startproc
  47              		@ args = 0, pretend = 0, frame = 0
  48              		@ frame_needed = 0, uses_anonymous_args = 0
  49              		@ link register save eliminated.
  50              	.LVL1:
  51              	.LBB32:
  52              		.loc 1 66 0
  53 0000 2023     		movs	r3, #32
  54              	.LVL2:
ARM GAS  C:\Users\Mohamad\AppData\Local\Temp\ccDsqi1j.s 			page 2


  55              	@ 66 "main.c" 1
  56 0002 83F31188 		msr     BASEPRI, r3
  57              	@ 0 "" 2
  58              	.LVL3:
  59              		.thumb
  60              	.LBE32:
  61              		.loc 1 67 0
  62 0006 40F20003 		movw	r3, #:lower16:.LANCHOR0
  63              	.LVL4:
  64 000a C0F20003 		movt	r3, #:upper16:.LANCHOR0
  65 000e 0122     		movs	r2, #1
  66 0010 1A70     		strb	r2, [r3, #0]
  67              	.LBB33:
  68              		.loc 1 68 0
  69 0012 0023     		movs	r3, #0
  70              	.LVL5:
  71              	@ 68 "main.c" 1
  72 0014 83F31188 		msr     BASEPRI, r3
  73              	@ 0 "" 2
  74              	.LVL6:
  75              		.thumb
  76 0018 7047     		bx	lr
  77              	.LBE33:
  78              		.cfi_endproc
  79              	.LFE1533:
  80              		.size	uart3_txend2, .-uart3_txend2
  81 001a 00BFAFF3 		.section	.text.Thread1,"ax",%progbits
  81      0080
  82              		.align	2
  83              		.p2align 4,,15
  84              		.thumb
  85              		.thumb_func
  86              		.type	Thread1, %function
  87              	Thread1:
  88              	.LFB1534:
  89              		.loc 1 99 0
  90              		.cfi_startproc
  91              		@ Volatile: function does not return.
  92              		@ args = 0, pretend = 0, frame = 0
  93              		@ frame_needed = 0, uses_anonymous_args = 0
  94              	.LVL7:
  95 0000 08B5     		push	{r3, lr}
  96              	.LCFI0:
  97              		.cfi_def_cfa_offset 8
  98              		.cfi_offset 3, -8
  99              		.cfi_offset 14, -4
 100              	.LVL8:
 101              	.L4:
 102              		.loc 1 105 0 discriminator 1
 103 0002 0348     		ldr	r0, .L6
 104 0004 FFF7FEFF 		bl	ReadMPU
 105              	.LVL9:
 106              		.loc 1 107 0 discriminator 1
 107 0008 0120     		movs	r0, #1
 108 000a FFF7FEFF 		bl	chThdSleep
 109              	.LVL10:
 110 000e F8E7     		b	.L4
ARM GAS  C:\Users\Mohamad\AppData\Local\Temp\ccDsqi1j.s 			page 3


 111              	.L7:
 112              		.align	2
 113              	.L6:
 114 0010 00000000 		.word	.LANCHOR1
 115              		.cfi_endproc
 116              	.LFE1534:
 117              		.size	Thread1, .-Thread1
 118 0014 AFF30080 		.section	.text.byteToInt16,"ax",%progbits
 118      AFF30080 
 118      AFF30080 
 119              		.align	2
 120              		.p2align 4,,15
 121              		.global	byteToInt16
 122              		.thumb
 123              		.thumb_func
 124              		.type	byteToInt16, %function
 125              	byteToInt16:
 126              	.LFB1535:
 127              		.loc 1 113 0
 128              		.cfi_startproc
 129              		@ args = 0, pretend = 0, frame = 0
 130              		@ frame_needed = 0, uses_anonymous_args = 0
 131              		@ link register save eliminated.
 132              	.LVL11:
 133              		.loc 1 114 0
 134 0000 41EA0020 		orr	r0, r1, r0, lsl #8
 135              	.LVL12:
 136              		.loc 1 116 0
 137 0004 00B2     		sxth	r0, r0
 138 0006 7047     		bx	lr
 139              		.cfi_endproc
 140              	.LFE1535:
 141              		.size	byteToInt16, .-byteToInt16
 142              		.global	__aeabi_f2d
 143              		.global	__aeabi_dmul
 144              		.global	__aeabi_d2f
 145              		.global	__aeabi_fsub
 146              		.global	__aeabi_fmul
 147              		.global	__aeabi_f2iz
 148 0008 AFF30080 		.section	.text.startup.main,"ax",%progbits
 148      AFF30080 
 149              		.align	2
 150              		.p2align 4,,15
 151              		.global	main
 152              		.thumb
 153              		.thumb_func
 154              		.type	main, %function
 155              	main:
 156              	.LFB1536:
 157              		.loc 1 137 0
 158              		.cfi_startproc
 159              		@ args = 0, pretend = 0, frame = 296
 160              		@ frame_needed = 0, uses_anonymous_args = 0
 161 0000 2DE9F04F 		push	{r4, r5, r6, r7, r8, r9, sl, fp, lr}
 162              	.LCFI1:
 163              		.cfi_def_cfa_offset 36
 164              		.cfi_offset 4, -36
ARM GAS  C:\Users\Mohamad\AppData\Local\Temp\ccDsqi1j.s 			page 4


 165              		.cfi_offset 5, -32
 166              		.cfi_offset 6, -28
 167              		.cfi_offset 7, -24
 168              		.cfi_offset 8, -20
 169              		.cfi_offset 9, -16
 170              		.cfi_offset 10, -12
 171              		.cfi_offset 11, -8
 172              		.cfi_offset 14, -4
 173 0004 CDB0     		sub	sp, sp, #308
 174              	.LCFI2:
 175              		.cfi_def_cfa_offset 344
 176              		.loc 1 139 0
 177 0006 FFF7FEFF 		bl	halInit
 178              	.LVL13:
 179              		.loc 1 140 0
 180 000a FFF7FEFF 		bl	chSysInit
 181              	.LVL14:
 182              		.loc 1 142 0
 183 000e 4FF44062 		mov	r2, #3072
 184              		.loc 1 143 0
 185 0012 4FF48053 		mov	r3, #4096
 186 0016 C4F20203 		movt	r3, 16386
 187              		.loc 1 142 0
 188 001a C4F20202 		movt	r2, 16386
 189 001e 4FF40051 		mov	r1, #8192
 190              		.loc 1 143 0
 191 0022 4FF40064 		mov	r4, #2048
 192              		.loc 1 144 0
 193 0026 4FF48055 		mov	r5, #4096
 194              		.loc 1 142 0
 195 002a 1183     		strh	r1, [r2, #24]	@ movhi
 196              		.loc 1 148 0
 197 002c A748     		ldr	r0, .L45
 198              		.loc 1 143 0
 199 002e 1C83     		strh	r4, [r3, #24]	@ movhi
 200              		.loc 1 148 0
 201 0030 A749     		ldr	r1, .L45+4
 202              		.loc 1 144 0
 203 0032 1D83     		strh	r5, [r3, #24]	@ movhi
 204              		.loc 1 148 0
 205 0034 FFF7FEFF 		bl	i2cStart
 206              	.LVL15:
 207              		.loc 1 155 0
 208 0038 A649     		ldr	r1, .L45+8
 209 003a A748     		ldr	r0, .L45+12
 210              		.loc 1 177 0
 211 003c A74E     		ldr	r6, .L45+16
 212 003e DFF8B092 		ldr	r9, .L45+36
 213 0042 DFF8B4B2 		ldr	fp, .L45+44
 214              		.loc 1 155 0
 215 0046 FFF7FEFF 		bl	uartStart
 216              	.LVL16:
 217              		.loc 1 159 0
 218 004a FFF7FEFF 		bl	mpu6050_init
 219              	.LVL17:
 220              		.loc 1 160 0
 221 004e 6420     		movs	r0, #100
ARM GAS  C:\Users\Mohamad\AppData\Local\Temp\ccDsqi1j.s 			page 5


 222 0050 FFF7FEFF 		bl	chThdSleep
 223              	.LVL18:
 224              		.loc 1 161 0
 225 0054 0120     		movs	r0, #1
 226 0056 FFF7FEFF 		bl	HMC5883_Init
 227              	.LVL19:
 228              		.loc 1 163 0
 229 005a 0A20     		movs	r0, #10
 230 005c FFF7FEFF 		bl	chThdSleep
 231              	.LVL20:
 232              		.loc 1 164 0
 233 0060 9F48     		ldr	r0, .L45+20
 234 0062 FFF7FEFF 		bl	ReadMPU
 235              	.LVL21:
 236              		.loc 1 165 0
 237 0066 FFF7FEFF 		bl	dcm_init
 238              	.LVL22:
 239              		.loc 1 166 0
 240 006a 0020     		movs	r0, #0
 241 006c 9D4B     		ldr	r3, .L45+24
 242 006e 0090     		str	r0, [sp, #0]
 243 0070 4FF4A871 		mov	r1, #336
 244 0074 4022     		movs	r2, #64
 245 0076 9C48     		ldr	r0, .L45+28
 246 0078 FFF7FEFF 		bl	chThdCreateStatic
 247              	.LVL23:
 248 007c 30AF     		add	r7, sp, #192
 249              		.loc 1 169 0
 250 007e FFF7FEFF 		bl	mpu6050_gyro_calibration
 251              	.LVL24:
 252              		.loc 1 177 0
 253 0082 F368     		ldr	r3, [r6, #12]
 254              	.LVL25:
 255 0084 0797     		str	r7, [sp, #28]
 256              		.loc 1 186 0
 257 0086 B246     		mov	sl, r6
 258              	.LVL26:
 259              	.L42:
 260              		.loc 1 185 0
 261 0088 FFF7FEFF 		bl	dcm_update
 262              	.LVL27:
 263              		.loc 1 186 0
 264 008c F368     		ldr	r3, [r6, #12]
 265              		.loc 1 195 0
 266 008e DBF80030 		ldr	r3, [fp, #0]
 267              		.loc 1 187 0
 268 0092 F268     		ldr	r2, [r6, #12]
 269              		.loc 1 195 0
 270 0094 F268     		ldr	r2, [r6, #12]
 271 0096 D11A     		subs	r1, r2, r3
 272 0098 1829     		cmp	r1, #24
 273 009a F5D9     		bls	.L42
 274              	.LBB140:
 275              	.LBB141:
 276              		.loc 1 206 0
 277 009c 40F20005 		movw	r5, #:lower16:.LANCHOR0
 278 00a0 C0F20005 		movt	r5, #:upper16:.LANCHOR0
ARM GAS  C:\Users\Mohamad\AppData\Local\Temp\ccDsqi1j.s 			page 6


 279              	.LBE141:
 280              	.LBE140:
 281              		.loc 1 196 0
 282 00a4 40F20007 		movw	r7, #:lower16:.LANCHOR6
 283 00a8 DAF80C40 		ldr	r4, [sl, #12]
 284              	.LBB690:
 285              	.LBB688:
 286              		.loc 1 206 0
 287 00ac 2878     		ldrb	r0, [r5, #0]	@ zero_extendqisi2
 288              	.LBE688:
 289              	.LBE690:
 290              		.loc 1 196 0
 291 00ae C0F20007 		movt	r7, #:upper16:.LANCHOR6
 292 00b2 3C60     		str	r4, [r7, #0]
 293              	.LBB691:
 294              	.LBB689:
 295              		.loc 1 206 0
 296 00b4 0028     		cmp	r0, #0
 297 00b6 E7D0     		beq	.L42
 298 00b8 40F20008 		movw	r8, #:lower16:.LANCHOR7
 299 00bc C0F20008 		movt	r8, #:upper16:.LANCHOR7
 300 00c0 98F80040 		ldrb	r4, [r8, #0]	@ zero_extendqisi2
 301 00c4 DFF83482 		ldr	r8, .L45+48
 302 00c8 012C     		cmp	r4, #1
 303 00ca 00F0C782 		beq	.L43
 304              		.loc 1 214 0
 305 00ce 022C     		cmp	r4, #2
 306 00d0 00F0F283 		beq	.L44
 307              		.loc 1 222 0
 308 00d4 032C     		cmp	r4, #3
 309 00d6 40F01381 		bne	.L17
 310 00da 40F20002 		movw	r2, #:lower16:.LANCHOR12
 311 00de C0F20002 		movt	r2, #:upper16:.LANCHOR12
 312 00e2 1578     		ldrb	r5, [r2, #0]	@ zero_extendqisi2
 313 00e4 002D     		cmp	r5, #0
 314 00e6 CFD0     		beq	.L42
 315              		.loc 1 224 0
 316 00e8 40F20003 		movw	r3, #:lower16:.LANCHOR0
 317 00ec C0F20003 		movt	r3, #:upper16:.LANCHOR0
 318 00f0 0027     		movs	r7, #0
 319              		.loc 1 225 0
 320 00f2 0424     		movs	r4, #4
 321              		.loc 1 224 0
 322 00f4 1F70     		strb	r7, [r3, #0]
 323              		.loc 1 225 0
 324 00f6 88F80040 		strb	r4, [r8, #0]
 325              	.LBB142:
 326              	.LBB143:
 327              		.loc 1 258 0
 328 00fa FFF7FEFF 		bl	chCoreStatus
 329              	.LVL28:
 330 00fe 40F20001 		movw	r1, #:lower16:Home_Altitude
 331 0102 8046     		mov	r8, r0
 332 0104 40F20000 		movw	r0, #:lower16:CurrentAlt
 333 0108 C0F20001 		movt	r1, #:upper16:Home_Altitude
 334 010c C0F20000 		movt	r0, #:upper16:CurrentAlt
 335 0110 40F2000C 		movw	ip, #:lower16:latitude
ARM GAS  C:\Users\Mohamad\AppData\Local\Temp\ccDsqi1j.s 			page 7


 336 0114 40F20002 		movw	r2, #:lower16:longitude
 337 0118 C0F20002 		movt	r2, #:upper16:longitude
 338 011c C0F2000C 		movt	ip, #:upper16:latitude
 339 0120 0968     		ldr	r1, [r1, #0]	@ float
 340 0122 0068     		ldr	r0, [r0, #0]	@ float
 341 0124 1468     		ldr	r4, [r2, #0]
 342 0126 DCF80050 		ldr	r5, [ip, #0]
 343 012a FFF7FEFF 		bl	__aeabi_fsub
 344              	.LVL29:
 345 012e 0021     		movs	r1, #0
 346 0130 C4F27A41 		movt	r1, 17530
 347 0134 FFF7FEFF 		bl	__aeabi_fmul
 348              	.LVL30:
 349 0138 FFF7FEFF 		bl	__aeabi_f2iz
 350              	.LVL31:
 351 013c 3D97     		str	r7, [sp, #244]
 352              	.LBB144:
 353              	.LBB145:
 354              		.file 2 "MAVLink/common/./mavlink_msg_gps_raw_int.h"
 355              		.loc 2 82 0
 356 013e 3E95     		str	r5, [sp, #248]
 357              		.loc 2 83 0
 358 0140 3F94     		str	r4, [sp, #252]
 359              	.LBE145:
 360              	.LBE144:
 361              		.loc 1 258 0
 362 0142 CDF8F080 		str	r8, [sp, #240]
 363              	.LBB206:
 364              	.LBB202:
 365              		.loc 2 92 0
 366 0146 3CAD     		add	r5, sp, #240
 367              	.LVL32:
 368              		.loc 2 84 0
 369 0148 4090     		str	r0, [sp, #256]
 370              		.loc 2 92 0
 371 014a 0FCD     		ldmia	r5!, {r0, r1, r2, r3}
 372              	.LVL33:
 373 014c 674C     		ldr	r4, .L45+32
 374              	.LVL34:
 375              		.loc 2 85 0
 376 014e ADF80471 		strh	r7, [sp, #260]	@ movhi
 377              		.loc 2 86 0
 378 0152 ADF80671 		strh	r7, [sp, #262]	@ movhi
 379              		.loc 2 87 0
 380 0156 ADF80871 		strh	r7, [sp, #264]	@ movhi
 381              		.loc 2 88 0
 382 015a ADF80A71 		strh	r7, [sp, #266]	@ movhi
 383              		.loc 2 89 0
 384 015e 8DF80C71 		strb	r7, [sp, #268]
 385              		.loc 2 90 0
 386 0162 8DF80D71 		strb	r7, [sp, #269]
 387              		.loc 2 92 0
 388 0166 0FC4     		stmia	r4!, {r0, r1, r2, r3}
 389 0168 95E80F00 		ldmia	r5, {r0, r1, r2, r3}
 390 016c 07C4     		stmia	r4!, {r0, r1, r2}
 391 016e 2246     		mov	r2, r4
 392              	.LBB146:
ARM GAS  C:\Users\Mohamad\AppData\Local\Temp\ccDsqi1j.s 			page 8


 393              	.LBB147:
 394              	.LBB148:
 395              	.LBB149:
 396              		.file 3 "MAVLink/common/../mavlink_helpers.h"
 397              		.loc 3 78 0
 398 0170 0127     		movs	r7, #1
 399              	.LBE149:
 400              	.LBE148:
 401              	.LBE147:
 402              	.LBE146:
 403              		.loc 2 92 0
 404 0172 22F81C39 		strh	r3, [r2], #-28	@ movhi
 405              	.LBB196:
 406              	.LBB190:
 407              	.LBB184:
 408              	.LBB178:
 409              		.loc 3 81 0
 410 0176 40F20003 		movw	r3, #:lower16:.LANCHOR9
 411 017a C0F20003 		movt	r3, #:upper16:.LANCHOR9
 412              		.loc 3 78 0
 413 017e 89F80570 		strb	r7, [r9, #5]
 414              		.loc 3 81 0
 415 0182 9979     		ldrb	r1, [r3, #6]	@ zero_extendqisi2
 416              		.loc 3 79 0
 417 0184 89F80670 		strb	r7, [r9, #6]
 418              	.LBB150:
 419              	.LBB151:
 420              	.LBB152:
 421              	.LBB153:
 422              		.file 4 "MAVLink/common/../checksum.h"
 423              		.loc 4 33 0
 424 0188 81F07800 		eor	r0, r1, #120
 425              		.loc 4 34 0
 426 018c 80EA0015 		eor	r5, r0, r0, lsl #4
 427 0190 EBB2     		uxtb	r3, r5
 428              		.loc 4 35 0
 429 0192 1C09     		lsrs	r4, r3, #4
 430 0194 84F0F600 		eor	r0, r4, #246
 431 0198 40EA0325 		orr	r5, r0, r3, lsl #8
 432 019c 85EAC304 		eor	r4, r5, r3, lsl #3
 433              		.loc 4 33 0
 434 01a0 84EA0703 		eor	r3, r4, r7
 435              		.loc 4 34 0
 436 01a4 83EA0310 		eor	r0, r3, r3, lsl #4
 437 01a8 C5B2     		uxtb	r5, r0
 438              		.loc 4 35 0
 439 01aa 240A     		lsrs	r4, r4, #8
 440 01ac 84EA1513 		eor	r3, r4, r5, lsr #4
 441 01b0 43EA0520 		orr	r0, r3, r5, lsl #8
 442 01b4 80EAC505 		eor	r5, r0, r5, lsl #3
 443              		.loc 4 33 0
 444 01b8 85EA0704 		eor	r4, r5, r7
 445              		.loc 4 34 0
 446 01bc 84EA0413 		eor	r3, r4, r4, lsl #4
 447 01c0 D8B2     		uxtb	r0, r3
 448              		.loc 4 35 0
 449 01c2 2D0A     		lsrs	r5, r5, #8
ARM GAS  C:\Users\Mohamad\AppData\Local\Temp\ccDsqi1j.s 			page 9


 450 01c4 85EA1014 		eor	r4, r5, r0, lsr #4
 451 01c8 44EA0023 		orr	r3, r4, r0, lsl #8
 452 01cc 83EAC000 		eor	r0, r3, r0, lsl #3
 453              		.loc 4 33 0
 454 01d0 80F01805 		eor	r5, r0, #24
 455              		.loc 4 34 0
 456 01d4 85EA0514 		eor	r4, r5, r5, lsl #4
 457 01d8 E3B2     		uxtb	r3, r4
 458              		.loc 4 35 0
 459 01da 000A     		lsrs	r0, r0, #8
 460 01dc 80EA1315 		eor	r5, r0, r3, lsr #4
 461              	.LBE153:
 462              	.LBE152:
 463              	.LBE151:
 464              	.LBE150:
 465              		.loc 3 82 0
 466 01e0 CC19     		adds	r4, r1, r7
 467 01e2 40F20007 		movw	r7, #:lower16:.LANCHOR9
 468              	.LBB160:
 469              	.LBB158:
 470              	.LBB156:
 471              	.LBB154:
 472              		.loc 4 35 0
 473 01e6 45EA0320 		orr	r0, r5, r3, lsl #8
 474              	.LBE154:
 475              	.LBE156:
 476              	.LBE158:
 477              	.LBE160:
 478              		.loc 3 82 0
 479 01ea C0F20007 		movt	r7, #:upper16:.LANCHOR9
 480              	.LBE178:
 481              	.LBE184:
 482              	.LBE190:
 483              	.LBE196:
 484              		.loc 2 95 0
 485 01ee 1825     		movs	r5, #24
 486              	.LBB197:
 487              	.LBB191:
 488              	.LBB185:
 489              	.LBB179:
 490              	.LBB161:
 491              	.LBB159:
 492              	.LBB157:
 493              	.LBB155:
 494              		.loc 4 35 0
 495 01f0 80EAC303 		eor	r3, r0, r3, lsl #3
 496              	.LBE155:
 497              	.LBE157:
 498              	.LBE159:
 499              	.LBE161:
 500              	.LBE179:
 501              	.LBE185:
 502              	.LBE191:
 503              	.LBE197:
 504              		.loc 2 95 0
 505 01f4 89F80750 		strb	r5, [r9, #7]
 506              	.LVL35:
ARM GAS  C:\Users\Mohamad\AppData\Local\Temp\ccDsqi1j.s 			page 10


 507              	.LBB198:
 508              	.LBB192:
 509              	.LBB186:
 510              	.LBB180:
 511              		.loc 3 76 0
 512 01f8 FE20     		movs	r0, #254
 513              		.loc 3 77 0
 514 01fa 1E25     		movs	r5, #30
 515              		.loc 3 76 0
 516 01fc 89F80200 		strb	r0, [r9, #2]
 517              		.loc 3 77 0
 518 0200 89F80350 		strb	r5, [r9, #3]
 519              		.loc 3 81 0
 520 0204 89F80410 		strb	r1, [r9, #4]
 521              	.LVL36:
 522              		.loc 3 82 0
 523 0208 BC71     		strb	r4, [r7, #6]
 524              	.LVL37:
 525              		.loc 3 83 0
 526 020a A9F80030 		strh	r3, [r9, #0]	@ movhi
 527              	.LVL38:
 528              	.L18:
 529              	.LBB162:
 530              	.LBB163:
 531              		.loc 4 82 0
 532 020e 1146     		mov	r1, r2
 533              	.LBB164:
 534              	.LBB165:
 535              		.loc 4 35 0
 536 0210 180A     		lsrs	r0, r3, #8
 537              	.LBE165:
 538              	.LBE164:
 539              		.loc 4 82 0
 540 0212 11F8015B 		ldrb	r5, [r1], #1	@ zero_extendqisi2
 541              	.LVL39:
 542              	.LBB169:
 543              	.LBB166:
 544              		.loc 4 35 0
 545 0216 364C     		ldr	r4, .L45+36
 546              		.loc 4 33 0
 547 0218 6B40     		eors	r3, r3, r5
 548              	.LVL40:
 549              		.loc 4 34 0
 550 021a 83EA0317 		eor	r7, r3, r3, lsl #4
 551 021e FDB2     		uxtb	r5, r7
 552              	.LVL41:
 553              		.loc 4 35 0
 554 0220 80EA1510 		eor	r0, r0, r5, lsr #4
 555 0224 40EA0523 		orr	r3, r0, r5, lsl #8
 556 0228 83EAC507 		eor	r7, r3, r5, lsl #3
 557              	.LVL42:
 558 022c A9F80070 		strh	r7, [r9, #0]	@ movhi
 559              	.LBE166:
 560              	.LBE169:
 561              		.loc 4 82 0
 562 0230 5278     		ldrb	r2, [r2, #1]	@ zero_extendqisi2
 563              	.LVL43:
ARM GAS  C:\Users\Mohamad\AppData\Local\Temp\ccDsqi1j.s 			page 11


 564              	.LBB170:
 565              	.LBB167:
 566              		.loc 4 33 0
 567 0232 7A40     		eors	r2, r2, r7
 568              		.loc 4 34 0
 569 0234 82EA0215 		eor	r5, r2, r2, lsl #4
 570              	.LVL44:
 571 0238 E8B2     		uxtb	r0, r5
 572              		.loc 4 35 0
 573 023a 3B0A     		lsrs	r3, r7, #8
 574 023c 83EA1017 		eor	r7, r3, r0, lsr #4
 575 0240 47EA0022 		orr	r2, r7, r0, lsl #8
 576 0244 82EAC003 		eor	r3, r2, r0, lsl #3
 577              	.LBE167:
 578              	.LBE170:
 579              		.loc 4 82 0
 580 0248 4A1C     		adds	r2, r1, #1
 581              	.LVL45:
 582              		.loc 4 81 0
 583 024a 04F12601 		add	r1, r4, #38
 584              	.LVL46:
 585 024e 8A42     		cmp	r2, r1
 586              	.LBB171:
 587              	.LBB168:
 588              		.loc 4 35 0
 589 0250 A9F80030 		strh	r3, [r9, #0]	@ movhi
 590              	.LBE168:
 591              	.LBE171:
 592              		.loc 4 81 0
 593 0254 DBD1     		bne	.L18
 594              	.LVL47:
 595              		.loc 4 33 0
 596 0256 83F01805 		eor	r5, r3, #24
 597              	.LVL48:
 598              	.LBE163:
 599              	.LBE162:
 600              	.LBB172:
 601              	.LBB173:
 602              		.loc 4 34 0
 603 025a 85EA0510 		eor	r0, r5, r5, lsl #4
 604 025e C7B2     		uxtb	r7, r0
 605              	.LVL49:
 606              		.loc 4 35 0
 607 0260 1B0A     		lsrs	r3, r3, #8
 608 0262 83EA1712 		eor	r2, r3, r7, lsr #4
 609              	.LVL50:
 610 0266 82EA0721 		eor	r1, r2, r7, lsl #8
 611 026a 81EAC705 		eor	r5, r1, r7, lsl #3
 612              	.LBE173:
 613              	.LBE172:
 614              	.LBE180:
 615              	.LBE186:
 616              	.LBE192:
 617              	.LBE198:
 618              	.LBE202:
 619              	.LBE206:
 620              	.LBB207:
ARM GAS  C:\Users\Mohamad\AppData\Local\Temp\ccDsqi1j.s 			page 12


 621              	.LBB208:
 622              		.loc 3 176 0
 623 026e E378     		ldrb	r3, [r4, #3]	@ zero_extendqisi2
 624 0270 2048     		ldr	r0, .L45+40
 625              	.LVL51:
 626              	.LBE208:
 627              	.LBE207:
 628              	.LBB213:
 629              	.LBB203:
 630              	.LBB199:
 631              	.LBB193:
 632              	.LBB187:
 633              	.LBB181:
 634              	.LBB176:
 635              	.LBB174:
 636              		.loc 4 35 0
 637 0272 AFB2     		uxth	r7, r5
 638              	.LVL52:
 639 0274 1FFA87FC 		uxth	ip, r7
 640              	.LBE174:
 641              	.LBE176:
 642              	.LBE181:
 643              	.LBE187:
 644              	.LBE193:
 645              	.LBE199:
 646              	.LBE203:
 647              	.LBE213:
 648              	.LBB214:
 649              	.LBB209:
 650              		.loc 3 176 0
 651 0278 9D1D     		adds	r5, r3, #6
 652              	.LBE209:
 653              	.LBE214:
 654              	.LBB215:
 655              	.LBB204:
 656              	.LBB200:
 657              	.LBB194:
 658              	.LBB188:
 659              	.LBB182:
 660              		.loc 3 89 0
 661 027a 4FEA1C28 		lsr	r8, ip, #8
 662              	.LVL53:
 663              	.LBB177:
 664              	.LBB175:
 665              		.loc 4 35 0
 666 027e A4F800C0 		strh	ip, [r4, #0]	@ movhi
 667              	.LBE175:
 668              	.LBE177:
 669              		.loc 3 88 0
 670 0282 84F82670 		strb	r7, [r4, #38]
 671              	.LBE182:
 672              	.LBE188:
 673              	.LBE194:
 674              	.LBE200:
 675              	.LBE204:
 676              	.LBE215:
 677              	.LBB216:
ARM GAS  C:\Users\Mohamad\AppData\Local\Temp\ccDsqi1j.s 			page 13


 678              	.LBB210:
 679              		.loc 3 176 0
 680 0286 A11C     		adds	r1, r4, #2
 681 0288 2A46     		mov	r2, r5
 682              	.LBE210:
 683              	.LBE216:
 684              	.LBB217:
 685              	.LBB205:
 686              	.LBB201:
 687              	.LBB195:
 688              	.LBB189:
 689              	.LBB183:
 690              		.loc 3 89 0
 691 028a 84F82780 		strb	r8, [r4, #39]
 692              	.LVL54:
 693              	.LBE183:
 694              	.LBE189:
 695              	.LBE195:
 696              	.LBE201:
 697              	.LBE205:
 698              	.LBE217:
 699              	.LBB218:
 700              	.LBB211:
 701              		.loc 3 176 0
 702 028e 0693     		str	r3, [sp, #24]
 703 0290 FFF7FEFF 		bl	memcpy
 704              	.LVL55:
 705              		.loc 3 178 0
 706 0294 40F20001 		movw	r1, #:lower16:.LANCHOR10
 707 0298 C0F20001 		movt	r1, #:upper16:.LANCHOR10
 708 029c 4C19     		adds	r4, r1, r5
 709              	.LVL56:
 710              		.loc 3 180 0
 711 029e 4F55     		strb	r7, [r1, r5]
 712              	.LBE211:
 713              	.LBE218:
 714              		.loc 1 260 0
 715 02a0 069B     		ldr	r3, [sp, #24]
 716 02a2 0D48     		ldr	r0, .L45+12
 717 02a4 134A     		ldr	r2, .L45+40
 718              	.LBB219:
 719              	.LBB212:
 720              		.loc 3 181 0
 721 02a6 84F80180 		strb	r8, [r4, #1]
 722              	.LBE212:
 723              	.LBE219:
 724              		.loc 1 260 0
 725 02aa 03F10801 		add	r1, r3, #8
 726 02ae FFF7FEFF 		bl	uartStartSendI
 727              	.LVL57:
 728              	.LBE143:
 729              	.LBE142:
 730              		.loc 1 228 0
 731 02b2 40F20005 		movw	r5, #:lower16:.LANCHOR13
 732              		.loc 1 227 0
 733 02b6 40F20002 		movw	r2, #:lower16:.LANCHOR12
 734 02ba C0F20002 		movt	r2, #:upper16:.LANCHOR12
ARM GAS  C:\Users\Mohamad\AppData\Local\Temp\ccDsqi1j.s 			page 14


 735              		.loc 1 228 0
 736 02be C0F20005 		movt	r5, #:upper16:.LANCHOR13
 737              		.loc 1 227 0
 738 02c2 0020     		movs	r0, #0
 739              		.loc 1 228 0
 740 02c4 0127     		movs	r7, #1
 741              		.loc 1 227 0
 742 02c6 1070     		strb	r0, [r2, #0]
 743              		.loc 1 228 0
 744 02c8 2F70     		strb	r7, [r5, #0]
 745 02ca DDE6     		b	.L42
 746              	.L46:
 747              		.align	2
 748              	.L45:
 749 02cc 00000000 		.word	I2CD2
 750 02d0 00000000 		.word	.LANCHOR3
 751 02d4 00000000 		.word	.LANCHOR4
 752 02d8 00000000 		.word	UARTD3
 753 02dc 00000000 		.word	vtlist
 754 02e0 00000000 		.word	.LANCHOR1
 755 02e4 00000000 		.word	Thread1
 756 02e8 00000000 		.word	.LANCHOR5
 757 02ec 08000000 		.word	.LANCHOR2+8
 758 02f0 00000000 		.word	.LANCHOR2
 759 02f4 00000000 		.word	.LANCHOR10
 760 02f8 00000000 		.word	.LANCHOR6
 761 02fc 00000000 		.word	.LANCHOR7
 762              	.LVL58:
 763              	.L17:
 764              		.loc 1 230 0
 765 0300 042C     		cmp	r4, #4
 766 0302 7FF4C1AE 		bne	.L42
 767 0306 40F20003 		movw	r3, #:lower16:.LANCHOR13
 768 030a C0F20003 		movt	r3, #:upper16:.LANCHOR13
 769 030e 1A78     		ldrb	r2, [r3, #0]	@ zero_extendqisi2
 770 0310 002A     		cmp	r2, #0
 771 0312 3FF4B9AE 		beq	.L42
 772              	.LBB220:
 773              	.LBB221:
 774              	.LBB222:
 775              	.LBB223:
 776              	.LBB224:
 777              	.LBB225:
 778              	.LBB226:
 779              	.LBB227:
 780              		.loc 3 81 0
 781 0316 40F20001 		movw	r1, #:lower16:.LANCHOR9
 782 031a C0F20001 		movt	r1, #:upper16:.LANCHOR9
 783              	.LBE227:
 784              	.LBE226:
 785              	.LBE225:
 786              	.LBE224:
 787              		.file 5 "MAVLink/common/./mavlink_msg_raw_pressure.h"
 788              		.loc 5 67 0
 789 031e DDF81CC0 		ldr	ip, [sp, #28]
 790              	.LBB342:
 791              	.LBB330:
ARM GAS  C:\Users\Mohamad\AppData\Local\Temp\ccDsqi1j.s 			page 15


 792              	.LBB318:
 793              	.LBB306:
 794              		.loc 3 81 0
 795 0322 8D79     		ldrb	r5, [r1, #6]	@ zero_extendqisi2
 796              	.LBB228:
 797              	.LBB229:
 798              	.LBB230:
 799              	.LBB231:
 800              		.loc 4 33 0
 801 0324 85F00600 		eor	r0, r5, #6
 802              		.loc 4 34 0
 803 0328 80EA0017 		eor	r7, r0, r0, lsl #4
 804 032c FCB2     		uxtb	r4, r7
 805              		.loc 4 35 0
 806 032e 2309     		lsrs	r3, r4, #4
 807 0330 83F01F02 		eor	r2, r3, #31
 808 0334 42EA0421 		orr	r1, r2, r4, lsl #8
 809              	.LBE231:
 810              	.LBE230:
 811              	.LBE229:
 812              	.LBE228:
 813              		.loc 3 81 0
 814 0338 0895     		str	r5, [sp, #32]
 815              	.LBB262:
 816              	.LBB252:
 817              	.LBB242:
 818              	.LBB232:
 819              		.loc 4 35 0
 820 033a 81EAC405 		eor	r5, r1, r4, lsl #3
 821              		.loc 4 33 0
 822 033e 85F00100 		eor	r0, r5, #1
 823              		.loc 4 34 0
 824 0342 80EA0017 		eor	r7, r0, r0, lsl #4
 825 0346 FCB2     		uxtb	r4, r7
 826              		.loc 4 35 0
 827 0348 290A     		lsrs	r1, r5, #8
 828              	.LBE232:
 829              	.LBE242:
 830              	.LBE252:
 831              	.LBE262:
 832              	.LBE306:
 833              	.LBE318:
 834              	.LBE330:
 835              	.LBE342:
 836              		.loc 5 61 0
 837 034a 0022     		movs	r2, #0
 838 034c 0023     		movs	r3, #0
 839 034e CDE93023 		strd	r2, [sp, #192]
 840              	.LBB343:
 841              	.LBB331:
 842              	.LBB319:
 843              	.LBB307:
 844              	.LBB263:
 845              	.LBB253:
 846              	.LBB243:
 847              	.LBB233:
 848              		.loc 4 35 0
ARM GAS  C:\Users\Mohamad\AppData\Local\Temp\ccDsqi1j.s 			page 16


 849 0352 81EA1412 		eor	r2, r1, r4, lsr #4
 850 0356 42EA0425 		orr	r5, r2, r4, lsl #8
 851              	.LBE233:
 852              	.LBE243:
 853              	.LBE253:
 854              	.LBE263:
 855              	.LBE307:
 856              	.LBE319:
 857              	.LBE331:
 858              	.LBE343:
 859              		.loc 5 63 0
 860 035a 0C23     		movs	r3, #12
 861              		.loc 5 62 0
 862 035c 0020     		movs	r0, #0
 863              	.LBB344:
 864              	.LBB332:
 865              	.LBB320:
 866              	.LBB308:
 867              	.LBB264:
 868              	.LBB254:
 869              	.LBB244:
 870              	.LBB234:
 871              		.loc 4 35 0
 872 035e 85EAC407 		eor	r7, r5, r4, lsl #3
 873              	.LBE234:
 874              	.LBE244:
 875              	.LBE254:
 876              	.LBE264:
 877              	.LBE308:
 878              	.LBE320:
 879              	.LBE332:
 880              	.LBE344:
 881              		.loc 5 62 0
 882 0362 ADF8C800 		strh	r0, [sp, #200]	@ movhi
 883              		.loc 5 63 0
 884 0366 ADF8CA30 		strh	r3, [sp, #202]	@ movhi
 885              		.loc 5 64 0
 886 036a ADF8CC00 		strh	r0, [sp, #204]	@ movhi
 887              		.loc 5 65 0
 888 036e ADF8CE30 		strh	r3, [sp, #206]	@ movhi
 889              		.loc 5 67 0
 890 0372 9CE80F00 		ldmia	ip, {r0, r1, r2, r3}
 891              	.LBB345:
 892              	.LBB333:
 893              	.LBB321:
 894              	.LBB309:
 895              	.LBB265:
 896              	.LBB255:
 897              	.LBB245:
 898              	.LBB235:
 899              		.loc 4 33 0
 900 0376 87F00104 		eor	r4, r7, #1
 901              		.loc 4 34 0
 902 037a 84EA0415 		eor	r5, r4, r4, lsl #4
 903 037e ECB2     		uxtb	r4, r5
 904              		.loc 4 35 0
 905 0380 3F0A     		lsrs	r7, r7, #8
ARM GAS  C:\Users\Mohamad\AppData\Local\Temp\ccDsqi1j.s 			page 17


 906 0382 87EA1415 		eor	r5, r7, r4, lsr #4
 907              	.LBE235:
 908              	.LBE245:
 909              	.LBE255:
 910              	.LBE265:
 911              	.LBE309:
 912              	.LBE321:
 913              	.LBE333:
 914              	.LBE345:
 915              		.loc 5 67 0
 916 0386 B04F     		ldr	r7, .L47
 917              	.LBB346:
 918              	.LBB334:
 919              	.LBB322:
 920              	.LBB310:
 921              	.LBB266:
 922              	.LBB256:
 923              	.LBB246:
 924              	.LBB236:
 925              		.loc 4 35 0
 926 0388 45EA0425 		orr	r5, r5, r4, lsl #8
 927              	.LBE236:
 928              	.LBE246:
 929              	.LBE256:
 930              	.LBE266:
 931              	.LBE310:
 932              	.LBE322:
 933              	.LBE334:
 934              	.LBE346:
 935              		.loc 5 67 0
 936 038c 87E80F00 		stmia	r7, {r0, r1, r2, r3}
 937              	.LBB347:
 938              	.LBB335:
 939              	.LBB323:
 940              	.LBB311:
 941              	.LBB267:
 942              	.LBB257:
 943              	.LBB247:
 944              	.LBB237:
 945              		.loc 4 35 0
 946 0390 85EAC401 		eor	r1, r5, r4, lsl #3
 947              		.loc 4 33 0
 948 0394 81F01C02 		eor	r2, r1, #28
 949              		.loc 4 34 0
 950 0398 82EA0213 		eor	r3, r2, r2, lsl #4
 951 039c DBB2     		uxtb	r3, r3
 952              		.loc 4 35 0
 953 039e 080A     		lsrs	r0, r1, #8
 954 03a0 80EA1314 		eor	r4, r0, r3, lsr #4
 955              	.LBE237:
 956              	.LBE247:
 957              	.LBE257:
 958              	.LBE267:
 959              	.LBB268:
 960              	.LBB269:
 961              	.LBB270:
 962              	.LBB271:
ARM GAS  C:\Users\Mohamad\AppData\Local\Temp\ccDsqi1j.s 			page 18


 963              		.loc 4 33 0
 964 03a4 99F80C10 		ldrb	r1, [r9, #12]	@ zero_extendqisi2
 965 03a8 99F80D20 		ldrb	r2, [r9, #13]	@ zero_extendqisi2
 966 03ac 99F80E00 		ldrb	r0, [r9, #14]	@ zero_extendqisi2
 967 03b0 0491     		str	r1, [sp, #16]
 968              	.LBE271:
 969              	.LBE270:
 970              	.LBE269:
 971              	.LBE268:
 972              	.LBB290:
 973              	.LBB258:
 974              	.LBB248:
 975              	.LBB238:
 976              		.loc 4 35 0
 977 03b2 44EA0325 		orr	r5, r4, r3, lsl #8
 978              	.LBE238:
 979              	.LBE248:
 980              	.LBE258:
 981              	.LBE290:
 982              	.LBB291:
 983              	.LBB284:
 984              	.LBB278:
 985              	.LBB272:
 986              		.loc 4 33 0
 987 03b6 99F81010 		ldrb	r1, [r9, #16]	@ zero_extendqisi2
 988 03ba 99F80F40 		ldrb	r4, [r9, #15]	@ zero_extendqisi2
 989 03be 0392     		str	r2, [sp, #12]
 990 03c0 0A90     		str	r0, [sp, #40]
 991 03c2 99F81120 		ldrb	r2, [r9, #17]	@ zero_extendqisi2
 992 03c6 99F81200 		ldrb	r0, [r9, #18]	@ zero_extendqisi2
 993              	.LBE272:
 994              	.LBE278:
 995              	.LBE284:
 996              	.LBE291:
 997              	.LBB292:
 998              	.LBB259:
 999              	.LBB249:
 1000              	.LBB239:
 1001              		.loc 4 35 0
 1002 03ca 0995     		str	r5, [sp, #36]
 1003              	.LBE239:
 1004              	.LBE249:
 1005              	.LBE259:
 1006              	.LBE292:
 1007              	.LBB293:
 1008              	.LBB285:
 1009              	.LBB279:
 1010              	.LBB273:
 1011              		.loc 4 33 0
 1012 03cc 99F808C0 		ldrb	ip, [r9, #8]	@ zero_extendqisi2
 1013 03d0 99F809E0 		ldrb	lr, [r9, #9]	@ zero_extendqisi2
 1014 03d4 99F80A70 		ldrb	r7, [r9, #10]	@ zero_extendqisi2
 1015 03d8 99F80B50 		ldrb	r5, [r9, #11]	@ zero_extendqisi2
 1016 03dc 0B94     		str	r4, [sp, #44]
 1017 03de 0C91     		str	r1, [sp, #48]
 1018 03e0 0D92     		str	r2, [sp, #52]
 1019 03e2 0E90     		str	r0, [sp, #56]
ARM GAS  C:\Users\Mohamad\AppData\Local\Temp\ccDsqi1j.s 			page 19


 1020 03e4 99F81340 		ldrb	r4, [r9, #19]	@ zero_extendqisi2
 1021 03e8 99F81520 		ldrb	r2, [r9, #21]	@ zero_extendqisi2
 1022 03ec 0F94     		str	r4, [sp, #60]
 1023 03ee 99F81740 		ldrb	r4, [r9, #23]	@ zero_extendqisi2
 1024 03f2 1192     		str	r2, [sp, #68]
 1025 03f4 1394     		str	r4, [sp, #76]
 1026              	.LBE273:
 1027              	.LBE279:
 1028              	.LBE285:
 1029              	.LBE293:
 1030              	.LBE311:
 1031              	.LBE323:
 1032              	.LBE335:
 1033              	.LBE347:
 1034              	.LBE223:
 1035              	.LBE222:
 1036              	.LBE221:
 1037              	.LBE220:
 1038              		.loc 1 232 0
 1039 03f6 40F20004 		movw	r4, #:lower16:.LANCHOR0
 1040 03fa C0F20004 		movt	r4, #:upper16:.LANCHOR0
 1041 03fe 0022     		movs	r2, #0
 1042 0400 2270     		strb	r2, [r4, #0]
 1043              	.LBB380:
 1044              	.LBB376:
 1045              	.LBB360:
 1046              	.LBB354:
 1047              	.LBB348:
 1048              	.LBB336:
 1049              	.LBB324:
 1050              	.LBB312:
 1051              	.LBB294:
 1052              	.LBB260:
 1053              	.LBB250:
 1054              	.LBB240:
 1055              		.loc 4 35 0
 1056 0402 099A     		ldr	r2, [sp, #36]
 1057              	.LBE240:
 1058              	.LBE250:
 1059              	.LBE260:
 1060              	.LBE294:
 1061              	.LBB295:
 1062              	.LBB286:
 1063              	.LBB280:
 1064              	.LBB274:
 1065              		.loc 4 33 0
 1066 0404 99F81410 		ldrb	r1, [r9, #20]	@ zero_extendqisi2
 1067 0408 99F81600 		ldrb	r0, [r9, #22]	@ zero_extendqisi2
 1068 040c 1091     		str	r1, [sp, #64]
 1069              	.LBE274:
 1070              	.LBE280:
 1071              	.LBE286:
 1072              	.LBE295:
 1073              	.LBB296:
 1074              	.LBB261:
 1075              	.LBB251:
 1076              	.LBB241:
ARM GAS  C:\Users\Mohamad\AppData\Local\Temp\ccDsqi1j.s 			page 20


 1077              		.loc 4 35 0
 1078 040e 82EAC303 		eor	r3, r2, r3, lsl #3
 1079              	.LBE241:
 1080              	.LBE251:
 1081              	.LBE261:
 1082              	.LBE296:
 1083              	.LBB297:
 1084              	.LBB287:
 1085              	.LBB281:
 1086              	.LBB275:
 1087              		.loc 4 33 0
 1088 0412 83EA0C0C 		eor	ip, r3, ip
 1089              		.loc 4 34 0
 1090 0416 8CEA0C14 		eor	r4, ip, ip, lsl #4
 1091 041a E2B2     		uxtb	r2, r4
 1092              		.loc 4 35 0
 1093 041c 1B0A     		lsrs	r3, r3, #8
 1094 041e 83EA1214 		eor	r4, r3, r2, lsr #4
 1095 0422 44EA0223 		orr	r3, r4, r2, lsl #8
 1096 0426 83EAC202 		eor	r2, r3, r2, lsl #3
 1097              		.loc 4 33 0
 1098 042a 82EA0E0E 		eor	lr, r2, lr
 1099              		.loc 4 34 0
 1100 042e 8EEA0E14 		eor	r4, lr, lr, lsl #4
 1101 0432 5FFA84FC 		uxtb	ip, r4
 1102              		.loc 4 35 0
 1103 0436 130A     		lsrs	r3, r2, #8
 1104 0438 83EA1C12 		eor	r2, r3, ip, lsr #4
 1105 043c 42EA0C24 		orr	r4, r2, ip, lsl #8
 1106 0440 84EACC03 		eor	r3, r4, ip, lsl #3
 1107              		.loc 4 33 0
 1108 0444 5F40     		eors	r7, r7, r3
 1109              		.loc 4 34 0
 1110 0446 87EA0712 		eor	r2, r7, r7, lsl #4
 1111 044a D4B2     		uxtb	r4, r2
 1112              		.loc 4 35 0
 1113 044c 1B0A     		lsrs	r3, r3, #8
 1114 044e 83EA1417 		eor	r7, r3, r4, lsr #4
 1115 0452 47EA0422 		orr	r2, r7, r4, lsl #8
 1116 0456 82EAC404 		eor	r4, r2, r4, lsl #3
 1117              		.loc 4 33 0
 1118 045a 6540     		eors	r5, r5, r4
 1119              		.loc 4 34 0
 1120 045c 85EA0513 		eor	r3, r5, r5, lsl #4
 1121 0460 DFB2     		uxtb	r7, r3
 1122              		.loc 4 35 0
 1123 0462 220A     		lsrs	r2, r4, #8
 1124 0464 82EA1714 		eor	r4, r2, r7, lsr #4
 1125 0468 44EA0725 		orr	r5, r4, r7, lsl #8
 1126 046c 85EAC703 		eor	r3, r5, r7, lsl #3
 1127              		.loc 4 33 0
 1128 0470 049F     		ldr	r7, [sp, #16]
 1129 0472 DDF828E0 		ldr	lr, [sp, #40]
 1130 0476 DDF838C0 		ldr	ip, [sp, #56]
 1131 047a 1290     		str	r0, [sp, #72]
 1132 047c 83EA0702 		eor	r2, r3, r7
 1133              		.loc 4 34 0
ARM GAS  C:\Users\Mohamad\AppData\Local\Temp\ccDsqi1j.s 			page 21


 1134 0480 82EA0214 		eor	r4, r2, r2, lsl #4
 1135 0484 E5B2     		uxtb	r5, r4
 1136              		.loc 4 35 0
 1137 0486 1B0A     		lsrs	r3, r3, #8
 1138 0488 83EA1517 		eor	r7, r3, r5, lsr #4
 1139 048c 47EA0522 		orr	r2, r7, r5, lsl #8
 1140 0490 82EAC504 		eor	r4, r2, r5, lsl #3
 1141              		.loc 4 33 0
 1142 0494 039D     		ldr	r5, [sp, #12]
 1143              	.LBE275:
 1144              	.LBE281:
 1145              	.LBE287:
 1146              	.LBE297:
 1147              	.LBE312:
 1148              	.LBE324:
 1149              	.LBE336:
 1150              	.LBE348:
 1151              	.LBE354:
 1152              	.LBE360:
 1153              	.LBB361:
 1154              	.LBB362:
 1155              		.loc 3 176 0
 1156 0496 6D49     		ldr	r1, .L47+4
 1157 0498 6D48     		ldr	r0, .L47+8
 1158              	.LBE362:
 1159              	.LBE361:
 1160              	.LBB367:
 1161              	.LBB355:
 1162              	.LBB349:
 1163              	.LBB337:
 1164              	.LBB325:
 1165              	.LBB313:
 1166              	.LBB298:
 1167              	.LBB288:
 1168              	.LBB282:
 1169              	.LBB276:
 1170              		.loc 4 33 0
 1171 049a 84EA0503 		eor	r3, r4, r5
 1172              		.loc 4 34 0
 1173 049e 83EA0317 		eor	r7, r3, r3, lsl #4
 1174 04a2 FAB2     		uxtb	r2, r7
 1175              		.loc 4 35 0
 1176 04a4 240A     		lsrs	r4, r4, #8
 1177 04a6 84EA1215 		eor	r5, r4, r2, lsr #4
 1178 04aa 45EA0223 		orr	r3, r5, r2, lsl #8
 1179 04ae 83EAC207 		eor	r7, r3, r2, lsl #3
 1180              		.loc 4 33 0
 1181 04b2 87EA0E02 		eor	r2, r7, lr
 1182              		.loc 4 34 0
 1183 04b6 82EA0214 		eor	r4, r2, r2, lsl #4
 1184 04ba E5B2     		uxtb	r5, r4
 1185              		.loc 4 35 0
 1186 04bc 3B0A     		lsrs	r3, r7, #8
 1187 04be 83EA1517 		eor	r7, r3, r5, lsr #4
 1188 04c2 47EA0522 		orr	r2, r7, r5, lsl #8
 1189              		.loc 4 33 0
 1190 04c6 0B9C     		ldr	r4, [sp, #44]
ARM GAS  C:\Users\Mohamad\AppData\Local\Temp\ccDsqi1j.s 			page 22


 1191 04c8 DDF848E0 		ldr	lr, [sp, #72]
 1192              		.loc 4 35 0
 1193 04cc 82EAC505 		eor	r5, r2, r5, lsl #3
 1194              		.loc 4 33 0
 1195 04d0 85EA0403 		eor	r3, r5, r4
 1196              		.loc 4 34 0
 1197 04d4 83EA0317 		eor	r7, r3, r3, lsl #4
 1198 04d8 FAB2     		uxtb	r2, r7
 1199              		.loc 4 35 0
 1200 04da 2D0A     		lsrs	r5, r5, #8
 1201 04dc 85EA1214 		eor	r4, r5, r2, lsr #4
 1202 04e0 44EA0223 		orr	r3, r4, r2, lsl #8
 1203 04e4 83EAC207 		eor	r7, r3, r2, lsl #3
 1204              		.loc 4 33 0
 1205 04e8 0C9A     		ldr	r2, [sp, #48]
 1206 04ea 87EA0205 		eor	r5, r7, r2
 1207              		.loc 4 34 0
 1208 04ee 85EA0514 		eor	r4, r5, r5, lsl #4
 1209 04f2 E2B2     		uxtb	r2, r4
 1210              		.loc 4 35 0
 1211 04f4 3B0A     		lsrs	r3, r7, #8
 1212 04f6 83EA1217 		eor	r7, r3, r2, lsr #4
 1213 04fa 47EA0225 		orr	r5, r7, r2, lsl #8
 1214 04fe 85EAC204 		eor	r4, r5, r2, lsl #3
 1215              		.loc 4 33 0
 1216 0502 0D9A     		ldr	r2, [sp, #52]
 1217 0504 84EA0203 		eor	r3, r4, r2
 1218              		.loc 4 34 0
 1219 0508 83EA0317 		eor	r7, r3, r3, lsl #4
 1220 050c FDB2     		uxtb	r5, r7
 1221              		.loc 4 35 0
 1222 050e 240A     		lsrs	r4, r4, #8
 1223 0510 84EA1512 		eor	r2, r4, r5, lsr #4
 1224 0514 42EA0523 		orr	r3, r2, r5, lsl #8
 1225 0518 83EAC507 		eor	r7, r3, r5, lsl #3
 1226              		.loc 4 33 0
 1227 051c 87EA0C05 		eor	r5, r7, ip
 1228              		.loc 4 34 0
 1229 0520 85EA0514 		eor	r4, r5, r5, lsl #4
 1230 0524 E2B2     		uxtb	r2, r4
 1231              		.loc 4 35 0
 1232 0526 3B0A     		lsrs	r3, r7, #8
 1233 0528 83EA1217 		eor	r7, r3, r2, lsr #4
 1234 052c 47EA0225 		orr	r5, r7, r2, lsl #8
 1235              		.loc 4 33 0
 1236 0530 0F9C     		ldr	r4, [sp, #60]
 1237              	.LBE276:
 1238              	.LBE282:
 1239              	.LBE288:
 1240              	.LBE298:
 1241              		.loc 3 82 0
 1242 0532 DDF820C0 		ldr	ip, [sp, #32]
 1243              	.LBB299:
 1244              	.LBB289:
 1245              	.LBB283:
 1246              	.LBB277:
 1247              		.loc 4 35 0
ARM GAS  C:\Users\Mohamad\AppData\Local\Temp\ccDsqi1j.s 			page 23


 1248 0536 85EAC203 		eor	r3, r5, r2, lsl #3
 1249              		.loc 4 33 0
 1250 053a 83EA0402 		eor	r2, r3, r4
 1251              		.loc 4 34 0
 1252 053e 82EA0217 		eor	r7, r2, r2, lsl #4
 1253 0542 FDB2     		uxtb	r5, r7
 1254              		.loc 4 35 0
 1255 0544 1B0A     		lsrs	r3, r3, #8
 1256 0546 83EA1514 		eor	r4, r3, r5, lsr #4
 1257 054a 44EA0522 		orr	r2, r4, r5, lsl #8
 1258 054e 82EAC507 		eor	r7, r2, r5, lsl #3
 1259              		.loc 4 33 0
 1260 0552 109D     		ldr	r5, [sp, #64]
 1261 0554 87EA0503 		eor	r3, r7, r5
 1262              		.loc 4 34 0
 1263 0558 83EA0314 		eor	r4, r3, r3, lsl #4
 1264 055c E2B2     		uxtb	r2, r4
 1265              		.loc 4 35 0
 1266 055e 3F0A     		lsrs	r7, r7, #8
 1267 0560 87EA1215 		eor	r5, r7, r2, lsr #4
 1268 0564 45EA0223 		orr	r3, r5, r2, lsl #8
 1269 0568 83EAC204 		eor	r4, r3, r2, lsl #3
 1270              		.loc 4 33 0
 1271 056c 119A     		ldr	r2, [sp, #68]
 1272 056e 84EA0207 		eor	r7, r4, r2
 1273              		.loc 4 34 0
 1274 0572 87EA0715 		eor	r5, r7, r7, lsl #4
 1275 0576 EBB2     		uxtb	r3, r5
 1276              		.loc 4 35 0
 1277 0578 240A     		lsrs	r4, r4, #8
 1278 057a 84EA1312 		eor	r2, r4, r3, lsr #4
 1279 057e 42EA0327 		orr	r7, r2, r3, lsl #8
 1280 0582 87EAC305 		eor	r5, r7, r3, lsl #3
 1281              		.loc 4 33 0
 1282 0586 85EA0E03 		eor	r3, r5, lr
 1283              		.loc 4 34 0
 1284 058a 83EA0314 		eor	r4, r3, r3, lsl #4
 1285 058e E7B2     		uxtb	r7, r4
 1286              		.loc 4 35 0
 1287 0590 2A0A     		lsrs	r2, r5, #8
 1288 0592 82EA1715 		eor	r5, r2, r7, lsr #4
 1289 0596 45EA0723 		orr	r3, r5, r7, lsl #8
 1290              		.loc 4 33 0
 1291 059a 139C     		ldr	r4, [sp, #76]
 1292              		.loc 4 35 0
 1293 059c 83EAC707 		eor	r7, r3, r7, lsl #3
 1294              		.loc 4 33 0
 1295 05a0 87EA0402 		eor	r2, r7, r4
 1296              		.loc 4 34 0
 1297 05a4 82EA0215 		eor	r5, r2, r2, lsl #4
 1298 05a8 EBB2     		uxtb	r3, r5
 1299              		.loc 4 35 0
 1300 05aa 3F0A     		lsrs	r7, r7, #8
 1301 05ac 87EA1314 		eor	r4, r7, r3, lsr #4
 1302 05b0 44EA0322 		orr	r2, r4, r3, lsl #8
 1303 05b4 82EAC305 		eor	r5, r2, r3, lsl #3
 1304              		.loc 4 33 0
ARM GAS  C:\Users\Mohamad\AppData\Local\Temp\ccDsqi1j.s 			page 24


 1305 05b8 85F04303 		eor	r3, r5, #67
 1306              	.LBE277:
 1307              	.LBE283:
 1308              	.LBE289:
 1309              	.LBE299:
 1310              	.LBB300:
 1311              	.LBB301:
 1312              		.loc 4 34 0
 1313 05bc 83EA0317 		eor	r7, r3, r3, lsl #4
 1314 05c0 FCB2     		uxtb	r4, r7
 1315              		.loc 4 35 0
 1316 05c2 2A0A     		lsrs	r2, r5, #8
 1317 05c4 82EA1415 		eor	r5, r2, r4, lsr #4
 1318 05c8 45EA0423 		orr	r3, r5, r4, lsl #8
 1319 05cc 83EAC405 		eor	r5, r3, r4, lsl #3
 1320              	.LBE301:
 1321              	.LBE300:
 1322              	.LBE313:
 1323              	.LBE325:
 1324              	.LBE337:
 1325              	.LBE349:
 1326              	.LBE355:
 1327              	.LBE367:
 1328              	.LBE376:
 1329              	.LBE380:
 1330              		.loc 1 233 0
 1331 05d0 0124     		movs	r4, #1
 1332              	.LBB381:
 1333              	.LBB377:
 1334              	.LBB368:
 1335              	.LBB356:
 1336              	.LBB350:
 1337              	.LBB338:
 1338              	.LBB326:
 1339              	.LBB314:
 1340              		.loc 3 82 0
 1341 05d2 0CEB040E 		add	lr, ip, r4
 1342              	.LBE314:
 1343              	.LBE326:
 1344              	.LBE338:
 1345              	.LBE350:
 1346              		.loc 5 70 0
 1347 05d6 4FF01C0C 		mov	ip, #28
 1348 05da 89F807C0 		strb	ip, [r9, #7]
 1349              	.LBB351:
 1350              	.LBB339:
 1351              	.LBB327:
 1352              	.LBB315:
 1353              		.loc 3 76 0
 1354 05de 4FF0FE0C 		mov	ip, #254
 1355 05e2 89F802C0 		strb	ip, [r9, #2]
 1356              		.loc 3 77 0
 1357 05e6 4FF0100C 		mov	ip, #16
 1358 05ea 89F803C0 		strb	ip, [r9, #3]
 1359              		.loc 3 81 0
 1360 05ee DDF820C0 		ldr	ip, [sp, #32]
 1361              	.LBE315:
ARM GAS  C:\Users\Mohamad\AppData\Local\Temp\ccDsqi1j.s 			page 25


 1362              	.LBE327:
 1363              	.LBE339:
 1364              	.LBE351:
 1365              	.LBE356:
 1366              	.LBE368:
 1367              	.LBE377:
 1368              	.LBE381:
 1369              		.loc 1 233 0
 1370 05f2 88F80040 		strb	r4, [r8, #0]
 1371              	.LVL59:
 1372              	.LBB382:
 1373              	.LBB378:
 1374              	.LBB369:
 1375              	.LBB357:
 1376              	.LBB352:
 1377              	.LBB340:
 1378              	.LBB328:
 1379              	.LBB316:
 1380              		.loc 3 81 0
 1381 05f6 89F804C0 		strb	ip, [r9, #4]
 1382              		.loc 3 82 0
 1383 05fa 40F2000C 		movw	ip, #:lower16:.LANCHOR9
 1384              	.LBB304:
 1385              	.LBB302:
 1386              		.loc 4 35 0
 1387 05fe ABB2     		uxth	r3, r5
 1388              	.LBE302:
 1389              	.LBE304:
 1390              		.loc 3 82 0
 1391 0600 C0F2000C 		movt	ip, #:upper16:.LANCHOR9
 1392              		.loc 3 89 0
 1393 0604 1F0A     		lsrs	r7, r3, #8
 1394              	.LBE316:
 1395              	.LBE328:
 1396              	.LBE340:
 1397              	.LBE352:
 1398              	.LBE357:
 1399              	.LBE369:
 1400              	.LBB370:
 1401              	.LBB363:
 1402              		.loc 3 176 0
 1403 0606 1622     		movs	r2, #22
 1404              	.LBE363:
 1405              	.LBE370:
 1406              	.LBB371:
 1407              	.LBB358:
 1408              	.LBB353:
 1409              	.LBB341:
 1410              	.LBB329:
 1411              	.LBB317:
 1412              		.loc 3 82 0
 1413 0608 8CF806E0 		strb	lr, [ip, #6]
 1414              		.loc 3 78 0
 1415 060c 89F80540 		strb	r4, [r9, #5]
 1416              		.loc 3 79 0
 1417 0610 89F80640 		strb	r4, [r9, #6]
 1418              	.LVL60:
ARM GAS  C:\Users\Mohamad\AppData\Local\Temp\ccDsqi1j.s 			page 26


 1419              	.LBB305:
 1420              	.LBB303:
 1421              		.loc 4 35 0
 1422 0614 A9F80030 		strh	r3, [r9, #0]	@ movhi
 1423              	.LBE303:
 1424              	.LBE305:
 1425              		.loc 3 88 0
 1426 0618 89F81850 		strb	r5, [r9, #24]
 1427              		.loc 3 89 0
 1428 061c 89F81970 		strb	r7, [r9, #25]
 1429              	.LVL61:
 1430              	.LBE317:
 1431              	.LBE329:
 1432              	.LBE341:
 1433              	.LBE353:
 1434              	.LBE358:
 1435              	.LBE371:
 1436              	.LBB372:
 1437              	.LBB364:
 1438              		.loc 3 176 0
 1439 0620 FFF7FEFF 		bl	memcpy
 1440              	.LVL62:
 1441              	.LBE364:
 1442              	.LBE372:
 1443              		.loc 1 268 0
 1444 0624 0A4A     		ldr	r2, .L47+8
 1445 0626 0B48     		ldr	r0, .L47+12
 1446              	.LBB373:
 1447              	.LBB365:
 1448              		.loc 3 180 0
 1449 0628 9575     		strb	r5, [r2, #22]
 1450              	.LBE365:
 1451              	.LBE373:
 1452              		.loc 1 268 0
 1453 062a 1821     		movs	r1, #24
 1454              	.LBB374:
 1455              	.LBB366:
 1456              		.loc 3 181 0
 1457 062c D775     		strb	r7, [r2, #23]
 1458              	.LBE366:
 1459              	.LBE374:
 1460              		.loc 1 268 0
 1461 062e FFF7FEFF 		bl	uartStartSendI
 1462              	.LVL63:
 1463              	.LBE378:
 1464              	.LBE382:
 1465              		.loc 1 236 0
 1466 0632 40F20000 		movw	r0, #:lower16:.LANCHOR8
 1467              		.loc 1 235 0
 1468 0636 0849     		ldr	r1, .L47+16
 1469              		.loc 1 236 0
 1470 0638 C0F20000 		movt	r0, #:upper16:.LANCHOR8
 1471              	.LBB383:
 1472              	.LBB379:
 1473              	.LBB375:
 1474              	.LBB359:
 1475              		.loc 5 62 0
ARM GAS  C:\Users\Mohamad\AppData\Local\Temp\ccDsqi1j.s 			page 27


 1476 063c 4FF00008 		mov	r8, #0	@ movhi
 1477              	.LBE359:
 1478              	.LBE375:
 1479              	.LBE379:
 1480              	.LBE383:
 1481              		.loc 1 235 0
 1482 0640 81F80080 		strb	r8, [r1, #0]
 1483              		.loc 1 236 0
 1484 0644 0470     		strb	r4, [r0, #0]
 1485 0646 1FE5     		b	.L42
 1486              	.L48:
 1487              		.align	2
 1488              	.L47:
 1489 0648 08000000 		.word	.LANCHOR2+8
 1490 064c 02000000 		.word	.LANCHOR2+2
 1491 0650 00000000 		.word	.LANCHOR10
 1492 0654 00000000 		.word	UARTD3
 1493 0658 00000000 		.word	.LANCHOR13
 1494              	.LVL64:
 1495              	.L43:
 1496              		.loc 1 206 0
 1497 065c 40F20007 		movw	r7, #:lower16:.LANCHOR8
 1498 0660 C0F20007 		movt	r7, #:upper16:.LANCHOR8
 1499 0664 3B78     		ldrb	r3, [r7, #0]	@ zero_extendqisi2
 1500 0666 002B     		cmp	r3, #0
 1501 0668 3FF40EAD 		beq	.L42
 1502              	.LBB384:
 1503              	.LBB385:
 1504              		.loc 1 251 0
 1505 066c 40F20000 		movw	r0, #:lower16:roll
 1506              	.LBE385:
 1507              	.LBE384:
 1508              		.loc 1 208 0
 1509 0670 40F20002 		movw	r2, #:lower16:.LANCHOR0
 1510 0674 C0F20002 		movt	r2, #:upper16:.LANCHOR0
 1511              	.LBB543:
 1512              	.LBB540:
 1513              		.loc 1 251 0
 1514 0678 C0F20000 		movt	r0, #:upper16:roll
 1515              	.LBE540:
 1516              	.LBE543:
 1517              		.loc 1 208 0
 1518 067c 0021     		movs	r1, #0
 1519              		.loc 1 209 0
 1520 067e 0227     		movs	r7, #2
 1521              	.LBB544:
 1522              	.LBB541:
 1523              		.loc 1 251 0
 1524 0680 0068     		ldr	r0, [r0, #0]	@ float
 1525              	.LBE541:
 1526              	.LBE544:
 1527              		.loc 1 209 0
 1528 0682 88F80070 		strb	r7, [r8, #0]
 1529              		.loc 1 208 0
 1530 0686 1170     		strb	r1, [r2, #0]
 1531              	.LBB545:
 1532              	.LBB542:
ARM GAS  C:\Users\Mohamad\AppData\Local\Temp\ccDsqi1j.s 			page 28


 1533              		.loc 1 251 0
 1534 0688 FFF7FEFF 		bl	__aeabi_f2d
 1535              	.LVL65:
 1536 068c 84A3     		adr	r3, .L49
 1537 068e D3E90023 		ldrd	r2, [r3]
 1538 0692 FFF7FEFF 		bl	__aeabi_dmul
 1539              	.LVL66:
 1540 0696 FFF7FEFF 		bl	__aeabi_d2f
 1541              	.LVL67:
 1542 069a 40F20003 		movw	r3, #:lower16:pitch
 1543 069e C0F20003 		movt	r3, #:upper16:pitch
 1544 06a2 8046     		mov	r8, r0
 1545 06a4 1868     		ldr	r0, [r3, #0]	@ float
 1546 06a6 DAF80C50 		ldr	r5, [sl, #12]
 1547 06aa FFF7FEFF 		bl	__aeabi_f2d
 1548              	.LVL68:
 1549 06ae 7CA3     		adr	r3, .L49
 1550 06b0 D3E90023 		ldrd	r2, [r3]
 1551 06b4 FFF7FEFF 		bl	__aeabi_dmul
 1552              	.LVL69:
 1553 06b8 FFF7FEFF 		bl	__aeabi_d2f
 1554              	.LVL70:
 1555 06bc 40F2000C 		movw	ip, #:lower16:yaw
 1556 06c0 C0F2000C 		movt	ip, #:upper16:yaw
 1557 06c4 0746     		mov	r7, r0
 1558 06c6 DCF80000 		ldr	r0, [ip, #0]	@ float
 1559 06ca FFF7FEFF 		bl	__aeabi_f2d
 1560              	.LVL71:
 1561 06ce 74A3     		adr	r3, .L49
 1562 06d0 D3E90023 		ldrd	r2, [r3]
 1563 06d4 FFF7FEFF 		bl	__aeabi_dmul
 1564              	.LVL72:
 1565 06d8 FFF7FEFF 		bl	__aeabi_d2f
 1566              	.LVL73:
 1567 06dc 0146     		mov	r1, r0
 1568 06de 1BA8     		add	r0, sp, #108
 1569 06e0 0591     		str	r1, [sp, #20]
 1570 06e2 FFF7FEFF 		bl	ins_get_Gyro_drift
 1571              	.LVL74:
 1572 06e6 1B9A     		ldr	r2, [sp, #108]	@ float
 1573 06e8 18A8     		add	r0, sp, #96
 1574 06ea 0892     		str	r2, [sp, #32]	@ float
 1575 06ec FFF7FEFF 		bl	ins_get_Gyro_drift
 1576              	.LVL75:
 1577 06f0 199B     		ldr	r3, [sp, #100]	@ float
 1578 06f2 15A8     		add	r0, sp, #84
 1579 06f4 0993     		str	r3, [sp, #36]	@ float
 1580 06f6 FFF7FEFF 		bl	ins_get_Gyro_drift
 1581              	.LVL76:
 1582              	.LBB386:
 1583              	.LBB387:
 1584              	.LBB388:
 1585              	.LBB389:
 1586              	.LBB390:
 1587              	.LBB391:
 1588              		.loc 3 81 0
 1589 06fa 40F20000 		movw	r0, #:lower16:.LANCHOR9
ARM GAS  C:\Users\Mohamad\AppData\Local\Temp\ccDsqi1j.s 			page 29


 1590 06fe C0F20000 		movt	r0, #:upper16:.LANCHOR9
 1591              	.LBE391:
 1592              	.LBE390:
 1593              	.LBE389:
 1594              	.LBE388:
 1595              		.file 6 "MAVLink/common/./mavlink_msg_attitude.h"
 1596              		.loc 6 69 0
 1597 0702 3595     		str	r5, [sp, #212]
 1598              	.LBB503:
 1599              	.LBB486:
 1600              	.LBB469:
 1601              	.LBB452:
 1602              		.loc 3 81 0
 1603 0704 90F806E0 		ldrb	lr, [r0, #6]	@ zero_extendqisi2
 1604              	.LBE452:
 1605              	.LBE469:
 1606              	.LBE486:
 1607              	.LBE503:
 1608              		.loc 6 70 0
 1609 0708 CDF8D880 		str	r8, [sp, #216]	@ float
 1610              	.LBB504:
 1611              	.LBB487:
 1612              	.LBB470:
 1613              	.LBB453:
 1614              	.LBB392:
 1615              	.LBB393:
 1616              	.LBB394:
 1617              	.LBB395:
 1618              		.loc 4 33 0
 1619 070c 8EF06A05 		eor	r5, lr, #106
 1620              		.loc 4 34 0
 1621 0710 85EA0511 		eor	r1, r5, r5, lsl #4
 1622 0714 CAB2     		uxtb	r2, r1
 1623              		.loc 4 35 0
 1624 0716 1309     		lsrs	r3, r2, #4
 1625 0718 83F0D500 		eor	r0, r3, #213
 1626 071c 40EA0225 		orr	r5, r0, r2, lsl #8
 1627 0720 85EAC201 		eor	r1, r5, r2, lsl #3
 1628              		.loc 4 33 0
 1629 0724 81F00102 		eor	r2, r1, #1
 1630              		.loc 4 34 0
 1631 0728 82EA0213 		eor	r3, r2, r2, lsl #4
 1632 072c DDB2     		uxtb	r5, r3
 1633              		.loc 4 35 0
 1634 072e 080A     		lsrs	r0, r1, #8
 1635 0730 80EA1511 		eor	r1, r0, r5, lsr #4
 1636 0734 41EA0528 		orr	r8, r1, r5, lsl #8
 1637 0738 88EAC50C 		eor	ip, r8, r5, lsl #3
 1638              		.loc 4 33 0
 1639 073c 8CF00105 		eor	r5, ip, #1
 1640              	.LBE395:
 1641              	.LBE394:
 1642              	.LBE393:
 1643              	.LBE392:
 1644              	.LBE453:
 1645              	.LBE470:
 1646              	.LBE487:
ARM GAS  C:\Users\Mohamad\AppData\Local\Temp\ccDsqi1j.s 			page 30


 1647              	.LBE504:
 1648              		.loc 6 71 0
 1649 0740 3797     		str	r7, [sp, #220]	@ float
 1650              	.LBB505:
 1651              	.LBB488:
 1652              	.LBB471:
 1653              	.LBB454:
 1654              	.LBB426:
 1655              	.LBB416:
 1656              	.LBB406:
 1657              	.LBB396:
 1658              		.loc 4 34 0
 1659 0742 85EA0518 		eor	r8, r5, r5, lsl #4
 1660              	.LBE396:
 1661              	.LBE406:
 1662              	.LBE416:
 1663              	.LBE426:
 1664              	.LBE454:
 1665              	.LBE471:
 1666              	.LBE488:
 1667              	.LBE505:
 1668              		.loc 6 72 0
 1669 0746 059F     		ldr	r7, [sp, #20]
 1670              	.LBB506:
 1671              	.LBB489:
 1672              	.LBB472:
 1673              	.LBB455:
 1674              	.LBB427:
 1675              	.LBB417:
 1676              	.LBB407:
 1677              	.LBB397:
 1678              		.loc 4 35 0
 1679 0748 CDF828C0 		str	ip, [sp, #40]
 1680              		.loc 4 34 0
 1681 074c 5FFA88FC 		uxtb	ip, r8
 1682              	.LBE397:
 1683              	.LBE407:
 1684              	.LBE417:
 1685              	.LBE427:
 1686              	.LBE455:
 1687              	.LBE472:
 1688              	.LBE489:
 1689              	.LBE506:
 1690              		.loc 6 73 0
 1691 0750 DDF82080 		ldr	r8, [sp, #32]	@ float
 1692              		.loc 6 72 0
 1693 0754 3897     		str	r7, [sp, #224]	@ float
 1694              		.loc 6 77 0
 1695 0756 35AF     		add	r7, sp, #212
 1696 0758 0FCF     		ldmia	r7!, {r0, r1, r2, r3}
 1697              		.loc 6 73 0
 1698 075a CDF8E480 		str	r8, [sp, #228]	@ float
 1699              	.LBB507:
 1700              	.LBB490:
 1701              	.LBB473:
 1702              	.LBB456:
 1703              	.LBB428:
ARM GAS  C:\Users\Mohamad\AppData\Local\Temp\ccDsqi1j.s 			page 31


 1704              	.LBB418:
 1705              	.LBB408:
 1706              	.LBB398:
 1707              		.loc 4 35 0
 1708 075e DDF82880 		ldr	r8, [sp, #40]
 1709              	.LBE398:
 1710              	.LBE408:
 1711              	.LBE418:
 1712              	.LBE428:
 1713              	.LBE456:
 1714              	.LBE473:
 1715              	.LBE490:
 1716              	.LBE507:
 1717              	.LBE387:
 1718              	.LBE386:
 1719              		.loc 1 251 0
 1720 0762 179D     		ldr	r5, [sp, #92]	@ float
 1721              	.LBB525:
 1722              	.LBB520:
 1723              	.LBB508:
 1724              	.LBB491:
 1725              	.LBB474:
 1726              	.LBB457:
 1727              	.LBB429:
 1728              	.LBB419:
 1729              	.LBB409:
 1730              	.LBB399:
 1731              		.loc 4 35 0
 1732 0764 4FEA1828 		lsr	r8, r8, #8
 1733              	.LBE399:
 1734              	.LBE409:
 1735              	.LBE419:
 1736              	.LBE429:
 1737              	.LBE457:
 1738              	.LBE474:
 1739              	.LBE491:
 1740              	.LBE508:
 1741              	.LBE520:
 1742              	.LBE525:
 1743              		.loc 1 251 0
 1744 0768 3B95     		str	r5, [sp, #236]	@ float
 1745              	.LVL77:
 1746              	.LBB526:
 1747              	.LBB521:
 1748              	.LBB509:
 1749              	.LBB492:
 1750              	.LBB475:
 1751              	.LBB458:
 1752              	.LBB430:
 1753              	.LBB420:
 1754              	.LBB410:
 1755              	.LBB400:
 1756              		.loc 4 35 0
 1757 076a 88EA1C18 		eor	r8, r8, ip, lsr #4
 1758              	.LBE400:
 1759              	.LBE410:
 1760              	.LBE420:
ARM GAS  C:\Users\Mohamad\AppData\Local\Temp\ccDsqi1j.s 			page 32


 1761              	.LBE430:
 1762              	.LBE458:
 1763              	.LBE475:
 1764              	.LBE492:
 1765              	.LBE509:
 1766              		.loc 6 77 0
 1767 076e 4E4D     		ldr	r5, .L49+8
 1768              	.LVL78:
 1769              	.LBB510:
 1770              	.LBB493:
 1771              	.LBB476:
 1772              	.LBB459:
 1773              	.LBB431:
 1774              	.LBB421:
 1775              	.LBB411:
 1776              	.LBB401:
 1777              		.loc 4 35 0
 1778 0770 CDF82080 		str	r8, [sp, #32]
 1779              	.LBE401:
 1780              	.LBE411:
 1781              	.LBE421:
 1782              	.LBE431:
 1783              	.LBE459:
 1784              	.LBE476:
 1785              	.LBE493:
 1786              	.LBE510:
 1787              		.loc 6 77 0
 1788 0774 0FC5     		stmia	r5!, {r0, r1, r2, r3}
 1789              	.LBB511:
 1790              	.LBB494:
 1791              	.LBB477:
 1792              	.LBB460:
 1793              	.LBB432:
 1794              	.LBB422:
 1795              	.LBB412:
 1796              	.LBB402:
 1797              		.loc 4 35 0
 1798 0776 089B     		ldr	r3, [sp, #32]
 1799              	.LBE402:
 1800              	.LBE412:
 1801              	.LBE422:
 1802              	.LBE432:
 1803              	.LBE460:
 1804              	.LBE477:
 1805              	.LBE494:
 1806              	.LBE511:
 1807              		.loc 6 74 0
 1808 0778 099A     		ldr	r2, [sp, #36]	@ float
 1809              	.LBB512:
 1810              	.LBB495:
 1811              	.LBB478:
 1812              	.LBB461:
 1813              	.LBB433:
 1814              	.LBB423:
 1815              	.LBB413:
 1816              	.LBB403:
 1817              		.loc 4 35 0
ARM GAS  C:\Users\Mohamad\AppData\Local\Temp\ccDsqi1j.s 			page 33


 1818 077a 43EA0C20 		orr	r0, r3, ip, lsl #8
 1819              	.LVL79:
 1820 077e 80EACC0C 		eor	ip, r0, ip, lsl #3
 1821              	.LBE403:
 1822              	.LBE413:
 1823              	.LBE423:
 1824              	.LBE433:
 1825              	.LBE461:
 1826              	.LBE478:
 1827              	.LBE495:
 1828              	.LBE512:
 1829              		.loc 6 74 0
 1830 0782 3A92     		str	r2, [sp, #232]	@ float
 1831              		.loc 6 77 0
 1832 0784 97E80700 		ldmia	r7, {r0, r1, r2}
 1833              	.LBB513:
 1834              	.LBB496:
 1835              	.LBB479:
 1836              	.LBB462:
 1837              	.LBB434:
 1838              	.LBB424:
 1839              	.LBB414:
 1840              	.LBB404:
 1841              		.loc 4 33 0
 1842 0788 8CF01E07 		eor	r7, ip, #30
 1843              		.loc 4 34 0
 1844 078c 87EA0713 		eor	r3, r7, r7, lsl #4
 1845 0790 DBB2     		uxtb	r3, r3
 1846              		.loc 4 35 0
 1847 0792 4FEA1C27 		lsr	r7, ip, #8
 1848 0796 87EA1317 		eor	r7, r7, r3, lsr #4
 1849              	.LBE404:
 1850              	.LBE414:
 1851              	.LBE424:
 1852              	.LBE434:
 1853              	.LBE462:
 1854              	.LBE479:
 1855              	.LBE496:
 1856              	.LBE513:
 1857              		.loc 6 77 0
 1858 079a 85E80700 		stmia	r5, {r0, r1, r2}
 1859              	.LBB514:
 1860              	.LBB497:
 1861              	.LBB480:
 1862              	.LBB463:
 1863              	.LBB435:
 1864              	.LBB425:
 1865              	.LBB415:
 1866              	.LBB405:
 1867              		.loc 4 35 0
 1868 079e 47EA0321 		orr	r1, r7, r3, lsl #8
 1869 07a2 81EAC303 		eor	r3, r1, r3, lsl #3
 1870              	.LBE405:
 1871              	.LBE415:
 1872              	.LBE425:
 1873              	.LBE435:
 1874              	.LBE463:
ARM GAS  C:\Users\Mohamad\AppData\Local\Temp\ccDsqi1j.s 			page 34


 1875              	.LBE480:
 1876              	.LBE497:
 1877              	.LBE514:
 1878              		.loc 6 80 0
 1879 07a6 1E20     		movs	r0, #30
 1880              	.LBB515:
 1881              	.LBB498:
 1882              	.LBB481:
 1883              	.LBB464:
 1884              		.loc 3 76 0
 1885 07a8 FE27     		movs	r7, #254
 1886              		.loc 3 77 0
 1887 07aa 1C21     		movs	r1, #28
 1888              	.LBE464:
 1889              	.LBE481:
 1890              	.LBE498:
 1891              	.LBE515:
 1892              		.loc 6 80 0
 1893 07ac 89F80700 		strb	r0, [r9, #7]
 1894              	.LBB516:
 1895              	.LBB499:
 1896              	.LBB482:
 1897              	.LBB465:
 1898              		.loc 3 76 0
 1899 07b0 89F80270 		strb	r7, [r9, #2]
 1900              		.loc 3 77 0
 1901 07b4 89F80310 		strb	r1, [r9, #3]
 1902              		.loc 3 78 0
 1903 07b8 89F80540 		strb	r4, [r9, #5]
 1904              		.loc 3 79 0
 1905 07bc 89F80640 		strb	r4, [r9, #6]
 1906              		.loc 3 82 0
 1907 07c0 40F20004 		movw	r4, #:lower16:.LANCHOR9
 1908 07c4 C0F20004 		movt	r4, #:upper16:.LANCHOR9
 1909 07c8 0EF10102 		add	r2, lr, #1
 1910              	.LVL80:
 1911              		.loc 3 81 0
 1912 07cc 89F804E0 		strb	lr, [r9, #4]
 1913              	.LVL81:
 1914              		.loc 3 82 0
 1915 07d0 A271     		strb	r2, [r4, #6]
 1916              	.LVL82:
 1917              		.loc 3 83 0
 1918 07d2 A9F80030 		strh	r3, [r9, #0]	@ movhi
 1919              	.LVL83:
 1920              		.loc 3 84 0
 1921 07d6 103D     		subs	r5, r5, #16
 1922              	.LVL84:
 1923              	.L14:
 1924              	.LBB436:
 1925              	.LBB437:
 1926              		.loc 4 82 0
 1927 07d8 2A46     		mov	r2, r5
 1928              	.LBB438:
 1929              	.LBB439:
 1930              		.loc 4 35 0
 1931 07da 180A     		lsrs	r0, r3, #8
ARM GAS  C:\Users\Mohamad\AppData\Local\Temp\ccDsqi1j.s 			page 35


 1932              	.LBE439:
 1933              	.LBE438:
 1934              		.loc 4 82 0
 1935 07dc 12F8017B 		ldrb	r7, [r2], #1	@ zero_extendqisi2
 1936              	.LVL85:
 1937              	.LBB443:
 1938              	.LBB440:
 1939              		.loc 4 35 0
 1940 07e0 324C     		ldr	r4, .L49+12
 1941              		.loc 4 33 0
 1942 07e2 7B40     		eors	r3, r3, r7
 1943              	.LVL86:
 1944              		.loc 4 34 0
 1945 07e4 83EA0311 		eor	r1, r3, r3, lsl #4
 1946 07e8 CFB2     		uxtb	r7, r1
 1947              	.LVL87:
 1948              		.loc 4 35 0
 1949 07ea 80EA1710 		eor	r0, r0, r7, lsr #4
 1950 07ee 40EA0723 		orr	r3, r0, r7, lsl #8
 1951 07f2 83EAC707 		eor	r7, r3, r7, lsl #3
 1952 07f6 A9F80070 		strh	r7, [r9, #0]	@ movhi
 1953              	.LBE440:
 1954              	.LBE443:
 1955              		.loc 4 82 0
 1956 07fa 6D78     		ldrb	r5, [r5, #1]	@ zero_extendqisi2
 1957              	.LVL88:
 1958              	.LBB444:
 1959              	.LBB441:
 1960              		.loc 4 33 0
 1961 07fc 7D40     		eors	r5, r5, r7
 1962              		.loc 4 34 0
 1963 07fe 85EA0511 		eor	r1, r5, r5, lsl #4
 1964              	.LVL89:
 1965 0802 C8B2     		uxtb	r0, r1
 1966              		.loc 4 35 0
 1967 0804 3B0A     		lsrs	r3, r7, #8
 1968 0806 83EA1017 		eor	r7, r3, r0, lsr #4
 1969 080a 47EA0025 		orr	r5, r7, r0, lsl #8
 1970 080e 85EAC003 		eor	r3, r5, r0, lsl #3
 1971              	.LBE441:
 1972              	.LBE444:
 1973              		.loc 4 82 0
 1974 0812 551C     		adds	r5, r2, #1
 1975              	.LVL90:
 1976              		.loc 4 81 0
 1977 0814 04F12402 		add	r2, r4, #36
 1978              	.LVL91:
 1979 0818 9542     		cmp	r5, r2
 1980              	.LBB445:
 1981              	.LBB442:
 1982              		.loc 4 35 0
 1983 081a A9F80030 		strh	r3, [r9, #0]	@ movhi
 1984              	.LBE442:
 1985              	.LBE445:
 1986              		.loc 4 81 0
 1987 081e DBD1     		bne	.L14
 1988              	.LVL92:
ARM GAS  C:\Users\Mohamad\AppData\Local\Temp\ccDsqi1j.s 			page 36


 1989              		.loc 4 33 0
 1990 0820 83F02701 		eor	r1, r3, #39
 1991              	.LVL93:
 1992              	.LBE437:
 1993              	.LBE436:
 1994              	.LBB446:
 1995              	.LBB447:
 1996              		.loc 4 34 0
 1997 0824 81EA0110 		eor	r0, r1, r1, lsl #4
 1998 0828 C7B2     		uxtb	r7, r0
 1999              	.LVL94:
 2000              		.loc 4 35 0
 2001 082a 1B0A     		lsrs	r3, r3, #8
 2002 082c 83EA1715 		eor	r5, r3, r7, lsr #4
 2003              	.LVL95:
 2004 0830 85EA0722 		eor	r2, r5, r7, lsl #8
 2005 0834 82EAC701 		eor	r1, r2, r7, lsl #3
 2006              	.LBE447:
 2007              	.LBE446:
 2008              	.LBE465:
 2009              	.LBE482:
 2010              	.LBE499:
 2011              	.LBE516:
 2012              	.LBE521:
 2013              	.LBE526:
 2014              	.LBB527:
 2015              	.LBB528:
 2016              		.loc 3 176 0
 2017 0838 E378     		ldrb	r3, [r4, #3]	@ zero_extendqisi2
 2018 083a 1D48     		ldr	r0, .L49+16
 2019              	.LVL96:
 2020              	.LBE528:
 2021              	.LBE527:
 2022              	.LBB533:
 2023              	.LBB522:
 2024              	.LBB517:
 2025              	.LBB500:
 2026              	.LBB483:
 2027              	.LBB466:
 2028              	.LBB450:
 2029              	.LBB448:
 2030              		.loc 4 35 0
 2031 083c 8FB2     		uxth	r7, r1
 2032              	.LVL97:
 2033 083e 1FFA87FE 		uxth	lr, r7
 2034              	.LBE448:
 2035              	.LBE450:
 2036              	.LBE466:
 2037              	.LBE483:
 2038              	.LBE500:
 2039              	.LBE517:
 2040              	.LBE522:
 2041              	.LBE533:
 2042              	.LBB534:
 2043              	.LBB529:
 2044              		.loc 3 176 0
 2045 0842 9D1D     		adds	r5, r3, #6
ARM GAS  C:\Users\Mohamad\AppData\Local\Temp\ccDsqi1j.s 			page 37


 2046              	.LBE529:
 2047              	.LBE534:
 2048              	.LBB535:
 2049              	.LBB523:
 2050              	.LBB518:
 2051              	.LBB501:
 2052              	.LBB484:
 2053              	.LBB467:
 2054              		.loc 3 89 0
 2055 0844 4FEA1E28 		lsr	r8, lr, #8
 2056              	.LBB451:
 2057              	.LBB449:
 2058              		.loc 4 35 0
 2059 0848 A4F800E0 		strh	lr, [r4, #0]	@ movhi
 2060              	.LBE449:
 2061              	.LBE451:
 2062              		.loc 3 88 0
 2063 084c 84F82470 		strb	r7, [r4, #36]
 2064              	.LBE467:
 2065              	.LBE484:
 2066              	.LBE501:
 2067              	.LBE518:
 2068              	.LBE523:
 2069              	.LBE535:
 2070              	.LBB536:
 2071              	.LBB530:
 2072              		.loc 3 176 0
 2073 0850 A11C     		adds	r1, r4, #2
 2074              	.LBE530:
 2075              	.LBE536:
 2076              	.LBB537:
 2077              	.LBB524:
 2078              	.LBB519:
 2079              	.LBB502:
 2080              	.LBB485:
 2081              	.LBB468:
 2082              		.loc 3 89 0
 2083 0852 84F82580 		strb	r8, [r4, #37]
 2084              	.LVL98:
 2085              	.LBE468:
 2086              	.LBE485:
 2087              	.LBE502:
 2088              	.LBE519:
 2089              	.LBE524:
 2090              	.LBE537:
 2091              	.LBB538:
 2092              	.LBB531:
 2093              		.loc 3 176 0
 2094 0856 2A46     		mov	r2, r5
 2095 0858 0693     		str	r3, [sp, #24]
 2096 085a FFF7FEFF 		bl	memcpy
 2097              	.LVL99:
 2098              		.loc 3 178 0
 2099 085e 40F2000C 		movw	ip, #:lower16:.LANCHOR10
 2100 0862 C0F2000C 		movt	ip, #:upper16:.LANCHOR10
 2101 0866 0CEB0504 		add	r4, ip, r5
 2102              	.LVL100:
ARM GAS  C:\Users\Mohamad\AppData\Local\Temp\ccDsqi1j.s 			page 38


 2103              		.loc 3 180 0
 2104 086a 0CF80570 		strb	r7, [ip, r5]
 2105              	.LBE531:
 2106              	.LBE538:
 2107              		.loc 1 253 0
 2108 086e 069B     		ldr	r3, [sp, #24]
 2109 0870 1048     		ldr	r0, .L49+20
 2110 0872 0F4A     		ldr	r2, .L49+16
 2111              	.LBB539:
 2112              	.LBB532:
 2113              		.loc 3 181 0
 2114 0874 84F80180 		strb	r8, [r4, #1]
 2115              	.LBE532:
 2116              	.LBE539:
 2117              		.loc 1 253 0
 2118 0878 03F10801 		add	r1, r3, #8
 2119 087c FFF7FEFF 		bl	uartStartSend
 2120              	.LVL101:
 2121              	.LBE542:
 2122              	.LBE545:
 2123              		.loc 1 212 0
 2124 0880 40F20007 		movw	r7, #:lower16:.LANCHOR11
 2125              		.loc 1 211 0
 2126 0884 40F20002 		movw	r2, #:lower16:.LANCHOR8
 2127 0888 C0F20002 		movt	r2, #:upper16:.LANCHOR8
 2128              		.loc 1 212 0
 2129 088c C0F20007 		movt	r7, #:upper16:.LANCHOR11
 2130              		.loc 1 211 0
 2131 0890 0020     		movs	r0, #0
 2132              		.loc 1 212 0
 2133 0892 0121     		movs	r1, #1
 2134              		.loc 1 211 0
 2135 0894 1070     		strb	r0, [r2, #0]
 2136              		.loc 1 212 0
 2137 0896 3970     		strb	r1, [r7, #0]
 2138 0898 FFF7F6BB 		b	.L42
 2139              	.L50:
 2140 089c AFF30080 		.align	3
 2141              	.L49:
 2142 08a0 E79AD561 		.word	1641388775
 2143 08a4 94A94C40 		.word	1078765972
 2144 08a8 08000000 		.word	.LANCHOR2+8
 2145 08ac 00000000 		.word	.LANCHOR2
 2146 08b0 00000000 		.word	.LANCHOR10
 2147 08b4 00000000 		.word	UARTD3
 2148              	.LVL102:
 2149              	.L44:
 2150              		.loc 1 214 0
 2151 08b8 40F20001 		movw	r1, #:lower16:.LANCHOR11
 2152 08bc C0F20001 		movt	r1, #:upper16:.LANCHOR11
 2153 08c0 0C78     		ldrb	r4, [r1, #0]	@ zero_extendqisi2
 2154 08c2 002C     		cmp	r4, #0
 2155 08c4 3FF4E0AB 		beq	.L42
 2156              		.loc 1 216 0
 2157 08c8 40F20003 		movw	r3, #:lower16:.LANCHOR0
 2158 08cc C0F20003 		movt	r3, #:upper16:.LANCHOR0
 2159              		.loc 1 217 0
ARM GAS  C:\Users\Mohamad\AppData\Local\Temp\ccDsqi1j.s 			page 39


 2160 08d0 0322     		movs	r2, #3
 2161              		.loc 1 216 0
 2162 08d2 0024     		movs	r4, #0
 2163              	.LBB546:
 2164              	.LBB547:
 2165              		.loc 1 243 0
 2166 08d4 2DA8     		add	r0, sp, #180
 2167              	.LBE547:
 2168              	.LBE546:
 2169              		.loc 1 216 0
 2170 08d6 1C70     		strb	r4, [r3, #0]
 2171              		.loc 1 217 0
 2172 08d8 88F80020 		strb	r2, [r8, #0]
 2173              	.LBB687:
 2174              	.LBB686:
 2175              		.loc 1 243 0
 2176 08dc FFF7FEFF 		bl	ins_get_Accel
 2177              	.LVL103:
 2178 08e0 2D9F     		ldr	r7, [sp, #180]	@ float
 2179 08e2 2AA8     		add	r0, sp, #168
 2180 08e4 0697     		str	r7, [sp, #24]
 2181 08e6 FFF7FEFF 		bl	ins_get_Accel
 2182              	.LVL104:
 2183 08ea 2B9D     		ldr	r5, [sp, #172]	@ float
 2184 08ec 27A8     		add	r0, sp, #156
 2185 08ee 0595     		str	r5, [sp, #20]
 2186 08f0 FFF7FEFF 		bl	ins_get_Accel
 2187              	.LVL105:
 2188 08f4 24A8     		add	r0, sp, #144
 2189 08f6 299D     		ldr	r5, [sp, #164]	@ float
 2190 08f8 FFF7FEFF 		bl	ins_get_gyro
 2191              	.LVL106:
 2192 08fc 21A8     		add	r0, sp, #132
 2193 08fe DDF89080 		ldr	r8, [sp, #144]	@ float
 2194 0902 FFF7FEFF 		bl	ins_get_gyro
 2195              	.LVL107:
 2196 0906 2299     		ldr	r1, [sp, #136]	@ float
 2197 0908 1EA8     		add	r0, sp, #120
 2198 090a 0891     		str	r1, [sp, #32]	@ float
 2199 090c FFF7FEFF 		bl	ins_get_gyro
 2200              	.LVL108:
 2201              	.LBB548:
 2202              	.LBB549:
 2203              	.LBB550:
 2204              	.LBB551:
 2205              	.LBB552:
 2206              	.LBB553:
 2207              		.loc 3 81 0
 2208 0910 40F2000C 		movw	ip, #:lower16:.LANCHOR9
 2209 0914 C0F2000C 		movt	ip, #:upper16:.LANCHOR9
 2210              	.LBE553:
 2211              	.LBE552:
 2212              	.LBE551:
 2213              	.LBE550:
 2214              		.file 7 "MAVLink/common/./mavlink_msg_attitude_quaternion.h"
 2215              		.loc 7 73 0
 2216 0918 4494     		str	r4, [sp, #272]
ARM GAS  C:\Users\Mohamad\AppData\Local\Temp\ccDsqi1j.s 			page 40


 2217              	.LBB654:
 2218              	.LBB640:
 2219              	.LBB626:
 2220              	.LBB612:
 2221              		.loc 3 81 0
 2222 091a 9CF80670 		ldrb	r7, [ip, #6]	@ zero_extendqisi2
 2223              	.LBE612:
 2224              	.LBE626:
 2225              	.LBE640:
 2226              	.LBE654:
 2227              		.loc 7 76 0
 2228 091e 4795     		str	r5, [sp, #284]	@ float
 2229              	.LBB655:
 2230              	.LBB641:
 2231              	.LBB627:
 2232              	.LBB613:
 2233              	.LBB554:
 2234              	.LBB555:
 2235              	.LBB556:
 2236              	.LBB557:
 2237              		.loc 4 33 0
 2238 0920 87F08500 		eor	r0, r7, #133
 2239              		.loc 4 34 0
 2240 0924 80EA0014 		eor	r4, r0, r0, lsl #4
 2241 0928 E3B2     		uxtb	r3, r4
 2242              		.loc 4 35 0
 2243 092a 1A09     		lsrs	r2, r3, #4
 2244 092c 82F02E01 		eor	r1, r2, #46
 2245 0930 81EAC300 		eor	r0, r1, r3, lsl #3
 2246 0934 80EA0324 		eor	r4, r0, r3, lsl #8
 2247              		.loc 4 33 0
 2248 0938 84F00103 		eor	r3, r4, #1
 2249              		.loc 4 34 0
 2250 093c 83EA0312 		eor	r2, r3, r3, lsl #4
 2251 0940 D1B2     		uxtb	r1, r2
 2252              		.loc 4 35 0
 2253 0942 200A     		lsrs	r0, r4, #8
 2254 0944 80EA1114 		eor	r4, r0, r1, lsr #4
 2255 0948 84EAC103 		eor	r3, r4, r1, lsl #3
 2256              	.LBE557:
 2257              	.LBE556:
 2258              	.LBE555:
 2259              	.LBE554:
 2260              	.LBE613:
 2261              	.LBE627:
 2262              	.LBE641:
 2263              	.LBE655:
 2264              		.loc 7 74 0
 2265 094c 069A     		ldr	r2, [sp, #24]
 2266              		.loc 7 77 0
 2267 094e CDF82081 		str	r8, [sp, #288]	@ float
 2268              	.LBB656:
 2269              	.LBB642:
 2270              	.LBB628:
 2271              	.LBB614:
 2272              	.LBB588:
 2273              	.LBB578:
ARM GAS  C:\Users\Mohamad\AppData\Local\Temp\ccDsqi1j.s 			page 41


 2274              	.LBB568:
 2275              	.LBB558:
 2276              		.loc 4 35 0
 2277 0952 83EA0124 		eor	r4, r3, r1, lsl #8
 2278              	.LBE558:
 2279              	.LBE568:
 2280              	.LBE578:
 2281              	.LBE588:
 2282              	.LBE614:
 2283              	.LBE628:
 2284              	.LBE642:
 2285              	.LBE656:
 2286              		.loc 7 75 0
 2287 0956 0599     		ldr	r1, [sp, #20]
 2288              		.loc 7 74 0
 2289 0958 4592     		str	r2, [sp, #276]	@ float
 2290              	.LBB657:
 2291              	.LBB643:
 2292              	.LBB629:
 2293              	.LBB615:
 2294              	.LBB589:
 2295              	.LBB579:
 2296              	.LBB569:
 2297              	.LBB559:
 2298              		.loc 4 33 0
 2299 095a 84F0010E 		eor	lr, r4, #1
 2300              	.LBE559:
 2301              	.LBE569:
 2302              	.LBE579:
 2303              	.LBE589:
 2304              	.LBE615:
 2305              	.LBE629:
 2306              	.LBE643:
 2307              	.LBE657:
 2308              		.loc 7 75 0
 2309 095e 4691     		str	r1, [sp, #280]	@ float
 2310              	.LBB658:
 2311              	.LBB644:
 2312              	.LBB630:
 2313              	.LBB616:
 2314              	.LBB590:
 2315              	.LBB580:
 2316              	.LBB570:
 2317              	.LBB560:
 2318              		.loc 4 34 0
 2319 0960 8EEA0E1C 		eor	ip, lr, lr, lsl #4
 2320              	.LBE560:
 2321              	.LBE570:
 2322              	.LBE580:
 2323              	.LBE590:
 2324              	.LBE616:
 2325              	.LBE630:
 2326              	.LBE644:
 2327              	.LBE658:
 2328              		.loc 7 82 0
 2329 0964 44AD     		add	r5, sp, #272
 2330 0966 0FCD     		ldmia	r5!, {r0, r1, r2, r3}
ARM GAS  C:\Users\Mohamad\AppData\Local\Temp\ccDsqi1j.s 			page 42


 2331              	.LBB659:
 2332              	.LBB645:
 2333              	.LBB631:
 2334              	.LBB617:
 2335              	.LBB591:
 2336              	.LBB581:
 2337              	.LBB571:
 2338              	.LBB561:
 2339              		.loc 4 34 0
 2340 0968 5FFA8CFE 		uxtb	lr, ip
 2341              		.loc 4 35 0
 2342 096c 240A     		lsrs	r4, r4, #8
 2343 096e 84EA1E1C 		eor	ip, r4, lr, lsr #4
 2344              	.LBE561:
 2345              	.LBE571:
 2346              	.LBE581:
 2347              	.LBE591:
 2348              	.LBE617:
 2349              	.LBE631:
 2350              	.LBE645:
 2351              	.LBE659:
 2352              	.LBE549:
 2353              	.LBE548:
 2354              		.loc 1 243 0
 2355 0972 209C     		ldr	r4, [sp, #128]	@ float
 2356              	.LBB672:
 2357              	.LBB668:
 2358              	.LBB660:
 2359              	.LBB646:
 2360              	.LBB632:
 2361              	.LBB618:
 2362              	.LBB592:
 2363              	.LBB582:
 2364              	.LBB572:
 2365              	.LBB562:
 2366              		.loc 4 35 0
 2367 0974 8CEACE08 		eor	r8, ip, lr, lsl #3
 2368              	.LBE562:
 2369              	.LBE572:
 2370              	.LBE582:
 2371              	.LBE592:
 2372              	.LBE618:
 2373              	.LBE632:
 2374              	.LBE646:
 2375              	.LBE660:
 2376              		.loc 7 78 0
 2377 0978 DDF820C0 		ldr	ip, [sp, #32]	@ float
 2378              	.LBE668:
 2379              	.LBE672:
 2380              		.loc 1 243 0
 2381 097c 4A94     		str	r4, [sp, #296]	@ float
 2382              	.LVL109:
 2383              	.LBB673:
 2384              	.LBB669:
 2385              	.LBB661:
 2386              	.LBB647:
 2387              	.LBB633:
ARM GAS  C:\Users\Mohamad\AppData\Local\Temp\ccDsqi1j.s 			page 43


 2388              	.LBB619:
 2389              	.LBB593:
 2390              	.LBB583:
 2391              	.LBB573:
 2392              	.LBB563:
 2393              		.loc 4 35 0
 2394 097e 88EA0E2E 		eor	lr, r8, lr, lsl #8
 2395              	.LBE563:
 2396              	.LBE573:
 2397              	.LBE583:
 2398              	.LBE593:
 2399              	.LBE619:
 2400              	.LBE633:
 2401              	.LBE647:
 2402              	.LBE661:
 2403              		.loc 7 82 0
 2404 0982 4C4C     		ldr	r4, .L51
 2405              	.LVL110:
 2406              		.loc 7 78 0
 2407 0984 CDF824C1 		str	ip, [sp, #292]	@ float
 2408              		.loc 7 80 0
 2409 0988 4FF00008 		mov	r8, #0
 2410 098c CDF82C81 		str	r8, [sp, #300]	@ float
 2411              		.loc 7 82 0
 2412 0990 0FC4     		stmia	r4!, {r0, r1, r2, r3}
 2413 0992 95E80F00 		ldmia	r5, {r0, r1, r2, r3}
 2414              	.LBB662:
 2415              	.LBB648:
 2416              	.LBB634:
 2417              	.LBB620:
 2418              	.LBB594:
 2419              	.LBB584:
 2420              	.LBB574:
 2421              	.LBB564:
 2422              		.loc 4 33 0
 2423 0996 8EF01F0C 		eor	ip, lr, #31
 2424              	.LVL111:
 2425              		.loc 4 34 0
 2426 099a 8CEA0C18 		eor	r8, ip, ip, lsl #4
 2427 099e 5FFA88F5 		uxtb	r5, r8
 2428              		.loc 4 35 0
 2429 09a2 4FEA1E2E 		lsr	lr, lr, #8
 2430              	.LBE564:
 2431              	.LBE574:
 2432              	.LBE584:
 2433              	.LBE594:
 2434              	.LBE620:
 2435              	.LBE634:
 2436              	.LBE648:
 2437              	.LBE662:
 2438              		.loc 7 82 0
 2439 09a6 84E80F00 		stmia	r4, {r0, r1, r2, r3}
 2440              	.LBB663:
 2441              	.LBB649:
 2442              	.LBB635:
 2443              	.LBB621:
 2444              	.LBB595:
ARM GAS  C:\Users\Mohamad\AppData\Local\Temp\ccDsqi1j.s 			page 44


 2445              	.LBB585:
 2446              	.LBB575:
 2447              	.LBB565:
 2448              		.loc 4 35 0
 2449 09aa 8EEA151C 		eor	ip, lr, r5, lsr #4
 2450              	.LBE565:
 2451              	.LBE575:
 2452              	.LBE585:
 2453              	.LBE595:
 2454              	.LBE621:
 2455              	.LBE635:
 2456              	.LBE649:
 2457              	.LBE663:
 2458              		.loc 7 85 0
 2459 09ae 1F20     		movs	r0, #31
 2460              	.LBB664:
 2461              	.LBB650:
 2462              	.LBB636:
 2463              	.LBB622:
 2464              		.loc 3 78 0
 2465 09b0 4FF0010E 		mov	lr, #1
 2466              		.loc 3 76 0
 2467 09b4 FE23     		movs	r3, #254
 2468              		.loc 3 77 0
 2469 09b6 2022     		movs	r2, #32
 2470              	.LBB596:
 2471              	.LBB586:
 2472              	.LBB576:
 2473              	.LBB566:
 2474              		.loc 4 35 0
 2475 09b8 4CEA0528 		orr	r8, ip, r5, lsl #8
 2476              	.LBE566:
 2477              	.LBE576:
 2478              	.LBE586:
 2479              	.LBE596:
 2480              	.LBE622:
 2481              	.LBE636:
 2482              	.LBE650:
 2483              	.LBE664:
 2484              		.loc 7 85 0
 2485 09bc 89F80700 		strb	r0, [r9, #7]
 2486              	.LBB665:
 2487              	.LBB651:
 2488              	.LBB637:
 2489              	.LBB623:
 2490              		.loc 3 82 0
 2491 09c0 07EB0E0C 		add	ip, r7, lr
 2492              	.LVL112:
 2493              		.loc 3 76 0
 2494 09c4 89F80230 		strb	r3, [r9, #2]
 2495              		.loc 3 77 0
 2496 09c8 89F80320 		strb	r2, [r9, #3]
 2497              		.loc 3 78 0
 2498 09cc 89F805E0 		strb	lr, [r9, #5]
 2499              		.loc 3 79 0
 2500 09d0 89F806E0 		strb	lr, [r9, #6]
 2501              	.LVL113:
ARM GAS  C:\Users\Mohamad\AppData\Local\Temp\ccDsqi1j.s 			page 45


 2502              		.loc 3 81 0
 2503 09d4 89F80470 		strb	r7, [r9, #4]
 2504              	.LVL114:
 2505              		.loc 3 82 0
 2506 09d8 40F20007 		movw	r7, #:lower16:.LANCHOR9
 2507 09dc C0F20007 		movt	r7, #:upper16:.LANCHOR9
 2508              	.LBB597:
 2509              	.LBB587:
 2510              	.LBB577:
 2511              	.LBB567:
 2512              		.loc 4 35 0
 2513 09e0 88EAC505 		eor	r5, r8, r5, lsl #3
 2514              	.LBE567:
 2515              	.LBE577:
 2516              	.LBE587:
 2517              	.LBE597:
 2518              		.loc 3 82 0
 2519 09e4 87F806C0 		strb	ip, [r7, #6]
 2520              	.LVL115:
 2521              		.loc 3 84 0
 2522 09e8 103C     		subs	r4, r4, #16
 2523              		.loc 3 83 0
 2524 09ea A9F80050 		strh	r5, [r9, #0]	@ movhi
 2525              	.LVL116:
 2526              	.L16:
 2527              	.LBB598:
 2528              	.LBB599:
 2529              		.loc 4 82 0
 2530 09ee 2046     		mov	r0, r4
 2531              	.LBB600:
 2532              	.LBB601:
 2533              		.loc 4 35 0
 2534 09f0 290A     		lsrs	r1, r5, #8
 2535              	.LBE601:
 2536              	.LBE600:
 2537              		.loc 4 82 0
 2538 09f2 10F8013B 		ldrb	r3, [r0], #1	@ zero_extendqisi2
 2539              	.LVL117:
 2540              	.LBB605:
 2541              	.LBB602:
 2542              		.loc 4 35 0
 2543 09f6 304F     		ldr	r7, .L51+4
 2544              		.loc 4 33 0
 2545 09f8 5D40     		eors	r5, r5, r3
 2546              	.LVL118:
 2547              		.loc 4 34 0
 2548 09fa 85EA0512 		eor	r2, r5, r5, lsl #4
 2549 09fe D3B2     		uxtb	r3, r2
 2550              	.LVL119:
 2551              		.loc 4 35 0
 2552 0a00 81EA1311 		eor	r1, r1, r3, lsr #4
 2553 0a04 41EA0325 		orr	r5, r1, r3, lsl #8
 2554 0a08 85EAC303 		eor	r3, r5, r3, lsl #3
 2555 0a0c A9F80030 		strh	r3, [r9, #0]	@ movhi
 2556              	.LBE602:
 2557              	.LBE605:
 2558              		.loc 4 82 0
ARM GAS  C:\Users\Mohamad\AppData\Local\Temp\ccDsqi1j.s 			page 46


 2559 0a10 6478     		ldrb	r4, [r4, #1]	@ zero_extendqisi2
 2560              	.LVL120:
 2561              	.LBB606:
 2562              	.LBB603:
 2563              		.loc 4 33 0
 2564 0a12 5C40     		eors	r4, r4, r3
 2565              		.loc 4 34 0
 2566 0a14 84EA0412 		eor	r2, r4, r4, lsl #4
 2567              	.LVL121:
 2568 0a18 D1B2     		uxtb	r1, r2
 2569              		.loc 4 35 0
 2570 0a1a 1D0A     		lsrs	r5, r3, #8
 2571 0a1c 85EA1113 		eor	r3, r5, r1, lsr #4
 2572 0a20 43EA0124 		orr	r4, r3, r1, lsl #8
 2573 0a24 84EAC105 		eor	r5, r4, r1, lsl #3
 2574              	.LBE603:
 2575              	.LBE606:
 2576              		.loc 4 82 0
 2577 0a28 441C     		adds	r4, r0, #1
 2578              	.LVL122:
 2579              		.loc 4 81 0
 2580 0a2a 07F12800 		add	r0, r7, #40
 2581              	.LVL123:
 2582 0a2e 8442     		cmp	r4, r0
 2583              	.LBB607:
 2584              	.LBB604:
 2585              		.loc 4 35 0
 2586 0a30 A9F80050 		strh	r5, [r9, #0]	@ movhi
 2587              	.LBE604:
 2588              	.LBE607:
 2589              		.loc 4 81 0
 2590 0a34 DBD1     		bne	.L16
 2591              	.LVL124:
 2592              		.loc 4 33 0
 2593 0a36 85F0F602 		eor	r2, r5, #246
 2594              	.LVL125:
 2595              	.LBE599:
 2596              	.LBE598:
 2597              	.LBB608:
 2598              	.LBB609:
 2599              		.loc 4 34 0
 2600 0a3a 82EA0211 		eor	r1, r2, r2, lsl #4
 2601 0a3e CBB2     		uxtb	r3, r1
 2602              	.LVL126:
 2603              		.loc 4 35 0
 2604 0a40 2D0A     		lsrs	r5, r5, #8
 2605 0a42 85EA1314 		eor	r4, r5, r3, lsr #4
 2606              	.LVL127:
 2607 0a46 84EA0322 		eor	r2, r4, r3, lsl #8
 2608 0a4a 82EAC301 		eor	r1, r2, r3, lsl #3
 2609              	.LVL128:
 2610 0a4e 8DB2     		uxth	r5, r1
 2611 0a50 ABB2     		uxth	r3, r5
 2612              	.LVL129:
 2613              	.LBE609:
 2614              	.LBE608:
 2615              	.LBE623:
ARM GAS  C:\Users\Mohamad\AppData\Local\Temp\ccDsqi1j.s 			page 47


 2616              	.LBE637:
 2617              	.LBE651:
 2618              	.LBE665:
 2619              	.LBE669:
 2620              	.LBE673:
 2621              	.LBB674:
 2622              	.LBB675:
 2623              		.loc 3 176 0
 2624 0a52 97F803E0 		ldrb	lr, [r7, #3]	@ zero_extendqisi2
 2625              	.LBE675:
 2626              	.LBE674:
 2627              	.LBB680:
 2628              	.LBB670:
 2629              	.LBB666:
 2630              	.LBB652:
 2631              	.LBB638:
 2632              	.LBB624:
 2633              	.LBB611:
 2634              	.LBB610:
 2635              		.loc 4 35 0
 2636 0a56 3B80     		strh	r3, [r7, #0]	@ movhi
 2637              	.LBE610:
 2638              	.LBE611:
 2639              		.loc 3 89 0
 2640 0a58 4FEA1328 		lsr	r8, r3, #8
 2641              		.loc 3 88 0
 2642 0a5c 87F82850 		strb	r5, [r7, #40]
 2643              	.LBE624:
 2644              	.LBE638:
 2645              	.LBE652:
 2646              	.LBE666:
 2647              	.LBE670:
 2648              	.LBE680:
 2649              	.LBB681:
 2650              	.LBB676:
 2651              		.loc 3 176 0
 2652 0a60 B91C     		adds	r1, r7, #2
 2653              	.LBE676:
 2654              	.LBE681:
 2655              	.LBB682:
 2656              	.LBB671:
 2657              	.LBB667:
 2658              	.LBB653:
 2659              	.LBB639:
 2660              	.LBB625:
 2661              		.loc 3 89 0
 2662 0a62 87F82980 		strb	r8, [r7, #41]
 2663              	.LVL130:
 2664              	.LBE625:
 2665              	.LBE639:
 2666              	.LBE653:
 2667              	.LBE667:
 2668              	.LBE671:
 2669              	.LBE682:
 2670              	.LBB683:
 2671              	.LBB677:
 2672              		.loc 3 178 0
ARM GAS  C:\Users\Mohamad\AppData\Local\Temp\ccDsqi1j.s 			page 48


 2673 0a66 40F20007 		movw	r7, #:lower16:.LANCHOR10
 2674              		.loc 3 176 0
 2675 0a6a 0EF10604 		add	r4, lr, #6
 2676              		.loc 3 178 0
 2677 0a6e C0F20007 		movt	r7, #:upper16:.LANCHOR10
 2678              		.loc 3 176 0
 2679 0a72 2246     		mov	r2, r4
 2680 0a74 1148     		ldr	r0, .L51+8
 2681 0a76 CDF818E0 		str	lr, [sp, #24]
 2682 0a7a FFF7FEFF 		bl	memcpy
 2683              	.LVL131:
 2684              		.loc 3 180 0
 2685 0a7e 3D55     		strb	r5, [r7, r4]
 2686              	.LBE677:
 2687              	.LBE683:
 2688              		.loc 1 245 0
 2689 0a80 DDF818C0 		ldr	ip, [sp, #24]
 2690 0a84 0E48     		ldr	r0, .L51+12
 2691 0a86 0D4A     		ldr	r2, .L51+8
 2692              	.LBB684:
 2693              	.LBB678:
 2694              		.loc 3 178 0
 2695 0a88 3B19     		adds	r3, r7, r4
 2696              	.LVL132:
 2697              	.LBE678:
 2698              	.LBE684:
 2699              		.loc 1 245 0
 2700 0a8a 0CF10801 		add	r1, ip, #8
 2701              	.LBB685:
 2702              	.LBB679:
 2703              		.loc 3 181 0
 2704 0a8e 83F80180 		strb	r8, [r3, #1]
 2705              	.LBE679:
 2706              	.LBE685:
 2707              		.loc 1 245 0
 2708 0a92 FFF7FEFF 		bl	uartStartSendI
 2709              	.LVL133:
 2710              	.LBE686:
 2711              	.LBE687:
 2712              		.loc 1 220 0
 2713 0a96 40F20005 		movw	r5, #:lower16:.LANCHOR12
 2714              		.loc 1 219 0
 2715 0a9a 40F20002 		movw	r2, #:lower16:.LANCHOR11
 2716 0a9e C0F20002 		movt	r2, #:upper16:.LANCHOR11
 2717              		.loc 1 220 0
 2718 0aa2 C0F20005 		movt	r5, #:upper16:.LANCHOR12
 2719              		.loc 1 219 0
 2720 0aa6 0020     		movs	r0, #0
 2721              		.loc 1 220 0
 2722 0aa8 0121     		movs	r1, #1
 2723              		.loc 1 219 0
 2724 0aaa 1070     		strb	r0, [r2, #0]
 2725              		.loc 1 220 0
 2726 0aac 2970     		strb	r1, [r5, #0]
 2727 0aae FFF7EBBA 		b	.L42
 2728              	.L52:
 2729 0ab2 00BF     		.align	2
ARM GAS  C:\Users\Mohamad\AppData\Local\Temp\ccDsqi1j.s 			page 49


 2730              	.L51:
 2731 0ab4 08000000 		.word	.LANCHOR2+8
 2732 0ab8 00000000 		.word	.LANCHOR2
 2733 0abc 00000000 		.word	.LANCHOR10
 2734 0ac0 00000000 		.word	UARTD3
 2735              	.LBE689:
 2736              	.LBE691:
 2737              		.cfi_endproc
 2738              	.LFE1536:
 2739              		.size	main, .-main
 2740 0ac4 AFF30080 		.section	.text.check_ready_to_send_params,"ax",%progbits
 2740      AFF30080 
 2740      AFF30080 
 2741              		.align	2
 2742              		.p2align 4,,15
 2743              		.global	check_ready_to_send_params
 2744              		.thumb
 2745              		.thumb_func
 2746              		.type	check_ready_to_send_params, %function
 2747              	check_ready_to_send_params:
 2748              	.LFB1537:
 2749              		.loc 1 205 0
 2750              		.cfi_startproc
 2751              		@ args = 0, pretend = 0, frame = 272
 2752              		@ frame_needed = 0, uses_anonymous_args = 0
 2753 0000 2DE9F04F 		push	{r4, r5, r6, r7, r8, r9, sl, fp, lr}
 2754              	.LCFI3:
 2755              		.cfi_def_cfa_offset 36
 2756              		.cfi_offset 4, -36
 2757              		.cfi_offset 5, -32
 2758              		.cfi_offset 6, -28
 2759              		.cfi_offset 7, -24
 2760              		.cfi_offset 8, -20
 2761              		.cfi_offset 9, -16
 2762              		.cfi_offset 10, -12
 2763              		.cfi_offset 11, -8
 2764              		.cfi_offset 14, -4
 2765              		.loc 1 206 0
 2766 0004 0A4D     		ldr	r5, .L85
 2767 0006 2B78     		ldrb	r3, [r5, #0]	@ zero_extendqisi2
 2768              		.loc 1 205 0
 2769 0008 C5B0     		sub	sp, sp, #276
 2770              	.LCFI4:
 2771              		.cfi_def_cfa_offset 312
 2772              		.loc 1 206 0
 2773 000a 73B1     		cbz	r3, .L53
 2774              		.loc 1 206 0 is_stmt 0 discriminator 1
 2775 000c 094E     		ldr	r6, .L85+4
 2776 000e 3478     		ldrb	r4, [r6, #0]	@ zero_extendqisi2
 2777 0010 012C     		cmp	r4, #1
 2778 0012 00F0AB81 		beq	.L82
 2779              		.loc 1 214 0 is_stmt 1 discriminator 1
 2780 0016 022C     		cmp	r4, #2
 2781 0018 00F0BA82 		beq	.L83
 2782              		.loc 1 222 0 discriminator 1
 2783 001c 032C     		cmp	r4, #3
 2784 001e 0DD1     		bne	.L59
ARM GAS  C:\Users\Mohamad\AppData\Local\Temp\ccDsqi1j.s 			page 50


 2785 0020 054C     		ldr	r4, .L85+8
 2786 0022 2278     		ldrb	r2, [r4, #0]	@ zero_extendqisi2
 2787 0024 002A     		cmp	r2, #0
 2788 0026 40F09D83 		bne	.L84
 2789              	.L53:
 2790              		.loc 1 239 0
 2791 002a 45B0     		add	sp, sp, #276
 2792 002c BDE8F08F 		pop	{r4, r5, r6, r7, r8, r9, sl, fp, pc}
 2793              	.L86:
 2794              		.align	2
 2795              	.L85:
 2796 0030 00000000 		.word	.LANCHOR0
 2797 0034 00000000 		.word	.LANCHOR7
 2798 0038 00000000 		.word	.LANCHOR12
 2799              	.L59:
 2800              		.loc 1 230 0 discriminator 1
 2801 003c 042C     		cmp	r4, #4
 2802 003e F4D1     		bne	.L53
 2803 0040 C54F     		ldr	r7, .L87
 2804 0042 3878     		ldrb	r0, [r7, #0]	@ zero_extendqisi2
 2805 0044 0028     		cmp	r0, #0
 2806 0046 F0D0     		beq	.L53
 2807              	.LBB796:
 2808              	.LBB797:
 2809              	.LBB798:
 2810              	.LBB799:
 2811              	.LBB800:
 2812              	.LBB801:
 2813              	.LBB802:
 2814              	.LBB803:
 2815              		.loc 3 81 0
 2816 0048 40F2000E 		movw	lr, #:lower16:.LANCHOR9
 2817 004c C0F2000E 		movt	lr, #:upper16:.LANCHOR9
 2818              	.LBE803:
 2819              	.LBE802:
 2820              	.LBE801:
 2821              	.LBE800:
 2822              		.loc 5 67 0
 2823 0050 C24C     		ldr	r4, .L87+4
 2824              	.LBB900:
 2825              	.LBB890:
 2826              	.LBB880:
 2827              	.LBB870:
 2828              		.loc 3 81 0
 2829 0052 9EF806C0 		ldrb	ip, [lr, #6]	@ zero_extendqisi2
 2830              	.LBE870:
 2831              	.LBE880:
 2832              	.LBE890:
 2833              	.LBE900:
 2834              	.LBE799:
 2835              	.LBE798:
 2836              	.LBB916:
 2837              	.LBB917:
 2838              		.loc 1 252 0
 2839 0056 DFF81083 		ldr	r8, .L87+16
 2840              	.LBE917:
 2841              	.LBE916:
ARM GAS  C:\Users\Mohamad\AppData\Local\Temp\ccDsqi1j.s 			page 51


 2842              	.LBB923:
 2843              	.LBB910:
 2844              	.LBB901:
 2845              	.LBB891:
 2846              	.LBB881:
 2847              	.LBB871:
 2848              		.loc 3 81 0
 2849 005a 84F804C0 		strb	ip, [r4, #4]
 2850              	.LBB804:
 2851              	.LBB805:
 2852              	.LBB806:
 2853              	.LBB807:
 2854              		.loc 4 33 0
 2855 005e 8CF00601 		eor	r1, ip, #6
 2856              		.loc 4 34 0
 2857 0062 81EA0112 		eor	r2, r1, r1, lsl #4
 2858 0066 D3B2     		uxtb	r3, r2
 2859              		.loc 4 35 0
 2860 0068 1809     		lsrs	r0, r3, #4
 2861 006a 80F01F01 		eor	r1, r0, #31
 2862 006e 41EA0322 		orr	r2, r1, r3, lsl #8
 2863 0072 82EAC303 		eor	r3, r2, r3, lsl #3
 2864              		.loc 4 33 0
 2865 0076 83F00100 		eor	r0, r3, #1
 2866              		.loc 4 34 0
 2867 007a 80EA0011 		eor	r1, r0, r0, lsl #4
 2868 007e C8B2     		uxtb	r0, r1
 2869              		.loc 4 35 0
 2870 0080 4FEA132B 		lsr	fp, r3, #8
 2871              	.LBE807:
 2872              	.LBE806:
 2873              	.LBE805:
 2874              	.LBE804:
 2875              	.LBE871:
 2876              	.LBE881:
 2877              	.LBE891:
 2878              	.LBE901:
 2879              		.loc 5 61 0
 2880 0084 0022     		movs	r2, #0
 2881 0086 0023     		movs	r3, #0
 2882 0088 CDE92823 		strd	r2, [sp, #160]
 2883              	.LBB902:
 2884              	.LBB892:
 2885              	.LBB882:
 2886              	.LBB872:
 2887              	.LBB832:
 2888              	.LBB824:
 2889              	.LBB816:
 2890              	.LBB808:
 2891              		.loc 4 35 0
 2892 008c 8BEA1013 		eor	r3, fp, r0, lsr #4
 2893              	.LBE808:
 2894              	.LBE816:
 2895              	.LBE824:
 2896              	.LBE832:
 2897              	.LBE872:
 2898              	.LBE882:
ARM GAS  C:\Users\Mohamad\AppData\Local\Temp\ccDsqi1j.s 			page 52


 2899              	.LBE892:
 2900              	.LBE902:
 2901              	.LBE910:
 2902              	.LBE923:
 2903              	.LBE797:
 2904              	.LBE796:
 2905              		.loc 1 232 0
 2906 0090 4FF0000E 		mov	lr, #0
 2907              	.LBB937:
 2908              	.LBB934:
 2909              	.LBB924:
 2910              	.LBB911:
 2911              		.loc 5 63 0
 2912 0094 0C22     		movs	r2, #12
 2913              	.LBB903:
 2914              	.LBB893:
 2915              	.LBB883:
 2916              	.LBB873:
 2917              	.LBB833:
 2918              	.LBB825:
 2919              	.LBB817:
 2920              	.LBB809:
 2921              		.loc 4 35 0
 2922 0096 43EA0021 		orr	r1, r3, r0, lsl #8
 2923 009a 81EAC009 		eor	r9, r1, r0, lsl #3
 2924              	.LBE809:
 2925              	.LBE817:
 2926              	.LBE825:
 2927              	.LBE833:
 2928              	.LBE873:
 2929              	.LBE883:
 2930              	.LBE893:
 2931              	.LBE903:
 2932              		.loc 5 62 0
 2933 009e ADF8A8E0 		strh	lr, [sp, #168]	@ movhi
 2934              		.loc 5 64 0
 2935 00a2 ADF8ACE0 		strh	lr, [sp, #172]	@ movhi
 2936              		.loc 5 63 0
 2937 00a6 ADF8AA20 		strh	r2, [sp, #170]	@ movhi
 2938              		.loc 5 65 0
 2939 00aa ADF8AE20 		strh	r2, [sp, #174]	@ movhi
 2940              		.loc 5 67 0
 2941 00ae 28A8     		add	r0, sp, #160
 2942 00b0 0FC8     		ldmia	r0, {r0, r1, r2, r3}
 2943              	.LBB904:
 2944              	.LBB894:
 2945              	.LBB884:
 2946              	.LBB874:
 2947              	.LBB834:
 2948              	.LBB826:
 2949              	.LBB818:
 2950              	.LBB810:
 2951              		.loc 4 33 0
 2952 00b2 89F0010A 		eor	sl, r9, #1
 2953              		.loc 4 34 0
 2954 00b6 8AEA0A1B 		eor	fp, sl, sl, lsl #4
 2955 00ba 5FFA8BFA 		uxtb	sl, fp
ARM GAS  C:\Users\Mohamad\AppData\Local\Temp\ccDsqi1j.s 			page 53


 2956              		.loc 4 35 0
 2957 00be 4FEA1929 		lsr	r9, r9, #8
 2958 00c2 89EA1A1B 		eor	fp, r9, sl, lsr #4
 2959              	.LBE810:
 2960              	.LBE818:
 2961              	.LBE826:
 2962              	.LBE834:
 2963              	.LBE874:
 2964              	.LBE884:
 2965              	.LBE894:
 2966              	.LBE904:
 2967              		.loc 5 67 0
 2968 00c6 04F10809 		add	r9, r4, #8
 2969 00ca 89E80F00 		stmia	r9, {r0, r1, r2, r3}
 2970              	.LBB905:
 2971              	.LBB895:
 2972              	.LBB885:
 2973              	.LBB875:
 2974              	.LBB835:
 2975              	.LBB827:
 2976              	.LBB819:
 2977              	.LBB811:
 2978              		.loc 4 35 0
 2979 00ce 4BEA0A2B 		orr	fp, fp, sl, lsl #8
 2980 00d2 8BEACA02 		eor	r2, fp, sl, lsl #3
 2981              		.loc 4 33 0
 2982 00d6 82F01C03 		eor	r3, r2, #28
 2983              		.loc 4 35 0
 2984 00da 4FEA1220 		lsr	r0, r2, #8
 2985              	.LBE811:
 2986              	.LBE819:
 2987              	.LBE827:
 2988              	.LBE835:
 2989              	.LBB836:
 2990              	.LBB837:
 2991              	.LBB838:
 2992              	.LBB839:
 2993              		.loc 4 33 0
 2994 00de 227B     		ldrb	r2, [r4, #12]	@ zero_extendqisi2
 2995 00e0 94F808A0 		ldrb	sl, [r4, #8]	@ zero_extendqisi2
 2996 00e4 0092     		str	r2, [sp, #0]
 2997 00e6 627B     		ldrb	r2, [r4, #13]	@ zero_extendqisi2
 2998 00e8 94F80990 		ldrb	r9, [r4, #9]	@ zero_extendqisi2
 2999 00ec 0192     		str	r2, [sp, #4]
 3000 00ee A27B     		ldrb	r2, [r4, #14]	@ zero_extendqisi2
 3001 00f0 0292     		str	r2, [sp, #8]
 3002 00f2 E27B     		ldrb	r2, [r4, #15]	@ zero_extendqisi2
 3003 00f4 0392     		str	r2, [sp, #12]
 3004 00f6 227C     		ldrb	r2, [r4, #16]	@ zero_extendqisi2
 3005 00f8 0492     		str	r2, [sp, #16]
 3006 00fa 627C     		ldrb	r2, [r4, #17]	@ zero_extendqisi2
 3007 00fc 0592     		str	r2, [sp, #20]
 3008 00fe A27C     		ldrb	r2, [r4, #18]	@ zero_extendqisi2
 3009              	.LBE839:
 3010              	.LBE838:
 3011              	.LBE837:
 3012              	.LBE836:
ARM GAS  C:\Users\Mohamad\AppData\Local\Temp\ccDsqi1j.s 			page 54


 3013              	.LBB855:
 3014              	.LBB828:
 3015              	.LBB820:
 3016              	.LBB812:
 3017              		.loc 4 34 0
 3018 0100 83EA0311 		eor	r1, r3, r3, lsl #4
 3019              	.LBE812:
 3020              	.LBE820:
 3021              	.LBE828:
 3022              	.LBE855:
 3023              	.LBB856:
 3024              	.LBB850:
 3025              	.LBB845:
 3026              	.LBB840:
 3027              		.loc 4 33 0
 3028 0104 0692     		str	r2, [sp, #24]
 3029 0106 E27C     		ldrb	r2, [r4, #19]	@ zero_extendqisi2
 3030              	.LBE840:
 3031              	.LBE845:
 3032              	.LBE850:
 3033              	.LBE856:
 3034              	.LBB857:
 3035              	.LBB829:
 3036              	.LBB821:
 3037              	.LBB813:
 3038              		.loc 4 34 0
 3039 0108 CBB2     		uxtb	r3, r1
 3040              		.loc 4 35 0
 3041 010a 80EA131B 		eor	fp, r0, r3, lsr #4
 3042              	.LBE813:
 3043              	.LBE821:
 3044              	.LBE829:
 3045              	.LBE857:
 3046              	.LBB858:
 3047              	.LBB851:
 3048              	.LBB846:
 3049              	.LBB841:
 3050              		.loc 4 33 0
 3051 010e E17A     		ldrb	r1, [r4, #11]	@ zero_extendqisi2
 3052 0110 A07A     		ldrb	r0, [r4, #10]	@ zero_extendqisi2
 3053 0112 0792     		str	r2, [sp, #28]
 3054 0114 227D     		ldrb	r2, [r4, #20]	@ zero_extendqisi2
 3055              	.LBE841:
 3056              	.LBE846:
 3057              	.LBE851:
 3058              	.LBE858:
 3059              	.LBE875:
 3060              	.LBE885:
 3061              	.LBE895:
 3062              	.LBE905:
 3063              	.LBE911:
 3064              	.LBE924:
 3065              	.LBE934:
 3066              	.LBE937:
 3067              		.loc 1 232 0
 3068 0116 85F800E0 		strb	lr, [r5, #0]
 3069              	.LBB938:
ARM GAS  C:\Users\Mohamad\AppData\Local\Temp\ccDsqi1j.s 			page 55


 3070              	.LBB935:
 3071              	.LBB925:
 3072              	.LBB912:
 3073              	.LBB906:
 3074              	.LBB896:
 3075              	.LBB886:
 3076              	.LBB876:
 3077              	.LBB859:
 3078              	.LBB852:
 3079              	.LBB847:
 3080              	.LBB842:
 3081              		.loc 4 33 0
 3082 011a 0892     		str	r2, [sp, #32]
 3083 011c 627D     		ldrb	r2, [r4, #21]	@ zero_extendqisi2
 3084              	.LBE842:
 3085              	.LBE847:
 3086              	.LBE852:
 3087              	.LBE859:
 3088              	.LBB860:
 3089              	.LBB830:
 3090              	.LBB822:
 3091              	.LBB814:
 3092              		.loc 4 35 0
 3093 011e 4BEA0325 		orr	r5, fp, r3, lsl #8
 3094              	.LBE814:
 3095              	.LBE822:
 3096              	.LBE830:
 3097              	.LBE860:
 3098              	.LBB861:
 3099              	.LBB853:
 3100              	.LBB848:
 3101              	.LBB843:
 3102              		.loc 4 33 0
 3103 0122 0992     		str	r2, [sp, #36]
 3104 0124 A27D     		ldrb	r2, [r4, #22]	@ zero_extendqisi2
 3105              	.LBE843:
 3106              	.LBE848:
 3107              	.LBE853:
 3108              	.LBE861:
 3109              	.LBB862:
 3110              	.LBB831:
 3111              	.LBB823:
 3112              	.LBB815:
 3113              		.loc 4 35 0
 3114 0126 85EAC303 		eor	r3, r5, r3, lsl #3
 3115              	.LBE815:
 3116              	.LBE823:
 3117              	.LBE831:
 3118              	.LBE862:
 3119              	.LBB863:
 3120              	.LBB854:
 3121              	.LBB849:
 3122              	.LBB844:
 3123              		.loc 4 33 0
 3124 012a 0A92     		str	r2, [sp, #40]
 3125 012c 83EA0A0B 		eor	fp, r3, sl
 3126 0130 E27D     		ldrb	r2, [r4, #23]	@ zero_extendqisi2
ARM GAS  C:\Users\Mohamad\AppData\Local\Temp\ccDsqi1j.s 			page 56


 3127              		.loc 4 34 0
 3128 0132 8BEA0B1A 		eor	sl, fp, fp, lsl #4
 3129              		.loc 4 33 0
 3130 0136 0B92     		str	r2, [sp, #44]
 3131              		.loc 4 35 0
 3132 0138 4FEA1325 		lsr	r5, r3, #8
 3133              		.loc 4 34 0
 3134 013c 5FFA8AF2 		uxtb	r2, sl
 3135              		.loc 4 35 0
 3136 0140 85EA1213 		eor	r3, r5, r2, lsr #4
 3137 0144 43EA022B 		orr	fp, r3, r2, lsl #8
 3138 0148 8BEAC20A 		eor	sl, fp, r2, lsl #3
 3139              		.loc 4 33 0
 3140 014c 8AEA0909 		eor	r9, sl, r9
 3141              		.loc 4 34 0
 3142 0150 89EA0912 		eor	r2, r9, r9, lsl #4
 3143 0154 D5B2     		uxtb	r5, r2
 3144              		.loc 4 35 0
 3145 0156 4FEA1A23 		lsr	r3, sl, #8
 3146 015a 83EA151A 		eor	sl, r3, r5, lsr #4
 3147 015e 4AEA0522 		orr	r2, sl, r5, lsl #8
 3148 0162 82EAC509 		eor	r9, r2, r5, lsl #3
 3149              		.loc 4 33 0
 3150 0166 89EA0000 		eor	r0, r9, r0
 3151              		.loc 4 34 0
 3152 016a 80EA0015 		eor	r5, r0, r0, lsl #4
 3153 016e EBB2     		uxtb	r3, r5
 3154              		.loc 4 35 0
 3155 0170 4FEA1922 		lsr	r2, r9, #8
 3156 0174 82EA131A 		eor	sl, r2, r3, lsr #4
 3157 0178 4AEA0329 		orr	r9, sl, r3, lsl #8
 3158 017c 89EAC300 		eor	r0, r9, r3, lsl #3
 3159              		.loc 4 33 0
 3160 0180 4140     		eors	r1, r1, r0
 3161              		.loc 4 34 0
 3162 0182 81EA0115 		eor	r5, r1, r1, lsl #4
 3163 0186 EBB2     		uxtb	r3, r5
 3164              		.loc 4 35 0
 3165 0188 020A     		lsrs	r2, r0, #8
 3166 018a 82EA1310 		eor	r0, r2, r3, lsr #4
 3167 018e 40EA0321 		orr	r1, r0, r3, lsl #8
 3168 0192 81EAC305 		eor	r5, r1, r3, lsl #3
 3169              		.loc 4 33 0
 3170 0196 009B     		ldr	r3, [sp, #0]
 3171 0198 DDF804A0 		ldr	sl, [sp, #4]
 3172 019c DDF81090 		ldr	r9, [sp, #16]
 3173 01a0 85EA0302 		eor	r2, r5, r3
 3174              		.loc 4 34 0
 3175 01a4 82EA0210 		eor	r0, r2, r2, lsl #4
 3176 01a8 C3B2     		uxtb	r3, r0
 3177              		.loc 4 35 0
 3178 01aa 290A     		lsrs	r1, r5, #8
 3179 01ac 81EA1315 		eor	r5, r1, r3, lsr #4
 3180 01b0 45EA0322 		orr	r2, r5, r3, lsl #8
 3181 01b4 82EAC300 		eor	r0, r2, r3, lsl #3
 3182              		.loc 4 33 0
 3183 01b8 80EA0A03 		eor	r3, r0, sl
ARM GAS  C:\Users\Mohamad\AppData\Local\Temp\ccDsqi1j.s 			page 57


 3184              		.loc 4 34 0
 3185 01bc 83EA0311 		eor	r1, r3, r3, lsl #4
 3186 01c0 CDB2     		uxtb	r5, r1
 3187              		.loc 4 35 0
 3188 01c2 020A     		lsrs	r2, r0, #8
 3189 01c4 82EA1510 		eor	r0, r2, r5, lsr #4
 3190 01c8 40EA0523 		orr	r3, r0, r5, lsl #8
 3191              		.loc 4 33 0
 3192 01cc 0299     		ldr	r1, [sp, #8]
 3193 01ce DDF81CA0 		ldr	sl, [sp, #28]
 3194              		.loc 4 35 0
 3195 01d2 83EAC505 		eor	r5, r3, r5, lsl #3
 3196              		.loc 4 33 0
 3197 01d6 85EA0102 		eor	r2, r5, r1
 3198              		.loc 4 34 0
 3199 01da 82EA0210 		eor	r0, r2, r2, lsl #4
 3200 01de C1B2     		uxtb	r1, r0
 3201              		.loc 4 35 0
 3202 01e0 2B0A     		lsrs	r3, r5, #8
 3203 01e2 83EA1115 		eor	r5, r3, r1, lsr #4
 3204 01e6 45EA0122 		orr	r2, r5, r1, lsl #8
 3205 01ea 82EAC100 		eor	r0, r2, r1, lsl #3
 3206              		.loc 4 33 0
 3207 01ee 0399     		ldr	r1, [sp, #12]
 3208 01f0 80EA0103 		eor	r3, r0, r1
 3209              		.loc 4 34 0
 3210 01f4 83EA0315 		eor	r5, r3, r3, lsl #4
 3211 01f8 EAB2     		uxtb	r2, r5
 3212              		.loc 4 35 0
 3213 01fa 000A     		lsrs	r0, r0, #8
 3214 01fc 80EA1211 		eor	r1, r0, r2, lsr #4
 3215 0200 41EA0223 		orr	r3, r1, r2, lsl #8
 3216 0204 83EAC205 		eor	r5, r3, r2, lsl #3
 3217              		.loc 4 33 0
 3218 0208 85EA0902 		eor	r2, r5, r9
 3219              		.loc 4 34 0
 3220 020c 82EA0210 		eor	r0, r2, r2, lsl #4
 3221 0210 C1B2     		uxtb	r1, r0
 3222              		.loc 4 35 0
 3223 0212 2B0A     		lsrs	r3, r5, #8
 3224 0214 83EA1115 		eor	r5, r3, r1, lsr #4
 3225 0218 45EA0122 		orr	r2, r5, r1, lsl #8
 3226 021c 82EAC100 		eor	r0, r2, r1, lsl #3
 3227              		.loc 4 33 0
 3228 0220 0599     		ldr	r1, [sp, #20]
 3229 0222 DDF82490 		ldr	r9, [sp, #36]
 3230 0226 80EA0103 		eor	r3, r0, r1
 3231              		.loc 4 34 0
 3232 022a 83EA0315 		eor	r5, r3, r3, lsl #4
 3233 022e EAB2     		uxtb	r2, r5
 3234              		.loc 4 35 0
 3235 0230 000A     		lsrs	r0, r0, #8
 3236 0232 80EA1211 		eor	r1, r0, r2, lsr #4
 3237 0236 41EA0223 		orr	r3, r1, r2, lsl #8
 3238 023a 83EAC205 		eor	r5, r3, r2, lsl #3
 3239              		.loc 4 33 0
 3240 023e 069A     		ldr	r2, [sp, #24]
ARM GAS  C:\Users\Mohamad\AppData\Local\Temp\ccDsqi1j.s 			page 58


 3241 0240 85EA0200 		eor	r0, r5, r2
 3242              		.loc 4 34 0
 3243 0244 80EA0011 		eor	r1, r0, r0, lsl #4
 3244 0248 CBB2     		uxtb	r3, r1
 3245              		.loc 4 35 0
 3246 024a 2D0A     		lsrs	r5, r5, #8
 3247 024c 85EA1312 		eor	r2, r5, r3, lsr #4
 3248 0250 42EA0320 		orr	r0, r2, r3, lsl #8
 3249 0254 80EAC301 		eor	r1, r0, r3, lsl #3
 3250              		.loc 4 33 0
 3251 0258 81EA0A03 		eor	r3, r1, sl
 3252              		.loc 4 34 0
 3253 025c 83EA0315 		eor	r5, r3, r3, lsl #4
 3254 0260 E8B2     		uxtb	r0, r5
 3255              		.loc 4 35 0
 3256 0262 0A0A     		lsrs	r2, r1, #8
 3257 0264 82EA1011 		eor	r1, r2, r0, lsr #4
 3258 0268 41EA0023 		orr	r3, r1, r0, lsl #8
 3259 026c 83EAC005 		eor	r5, r3, r0, lsl #3
 3260              		.loc 4 33 0
 3261 0270 0898     		ldr	r0, [sp, #32]
 3262 0272 DDF82CA0 		ldr	sl, [sp, #44]
 3263 0276 85EA0002 		eor	r2, r5, r0
 3264              		.loc 4 34 0
 3265 027a 82EA0211 		eor	r1, r2, r2, lsl #4
 3266 027e CBB2     		uxtb	r3, r1
 3267              		.loc 4 35 0
 3268 0280 2D0A     		lsrs	r5, r5, #8
 3269 0282 85EA1310 		eor	r0, r5, r3, lsr #4
 3270 0286 40EA0322 		orr	r2, r0, r3, lsl #8
 3271 028a 82EAC301 		eor	r1, r2, r3, lsl #3
 3272              		.loc 4 33 0
 3273 028e 81EA0903 		eor	r3, r1, r9
 3274              		.loc 4 34 0
 3275 0292 83EA0315 		eor	r5, r3, r3, lsl #4
 3276 0296 E8B2     		uxtb	r0, r5
 3277              		.loc 4 35 0
 3278 0298 0A0A     		lsrs	r2, r1, #8
 3279 029a 82EA1011 		eor	r1, r2, r0, lsr #4
 3280 029e 41EA0023 		orr	r3, r1, r0, lsl #8
 3281 02a2 83EAC005 		eor	r5, r3, r0, lsl #3
 3282              		.loc 4 33 0
 3283 02a6 0A98     		ldr	r0, [sp, #40]
 3284 02a8 85EA0002 		eor	r2, r5, r0
 3285              		.loc 4 34 0
 3286 02ac 82EA0211 		eor	r1, r2, r2, lsl #4
 3287 02b0 CBB2     		uxtb	r3, r1
 3288              		.loc 4 35 0
 3289 02b2 2D0A     		lsrs	r5, r5, #8
 3290 02b4 85EA1310 		eor	r0, r5, r3, lsr #4
 3291 02b8 40EA0322 		orr	r2, r0, r3, lsl #8
 3292 02bc 82EAC301 		eor	r1, r2, r3, lsl #3
 3293              		.loc 4 33 0
 3294 02c0 81EA0A03 		eor	r3, r1, sl
 3295              		.loc 4 34 0
 3296 02c4 83EA0315 		eor	r5, r3, r3, lsl #4
 3297 02c8 E8B2     		uxtb	r0, r5
ARM GAS  C:\Users\Mohamad\AppData\Local\Temp\ccDsqi1j.s 			page 59


 3298              		.loc 4 35 0
 3299 02ca 0A0A     		lsrs	r2, r1, #8
 3300 02cc 82EA1011 		eor	r1, r2, r0, lsr #4
 3301 02d0 41EA0023 		orr	r3, r1, r0, lsl #8
 3302 02d4 83EAC005 		eor	r5, r3, r0, lsl #3
 3303              		.loc 4 33 0
 3304 02d8 85F04300 		eor	r0, r5, #67
 3305              	.LBE844:
 3306              	.LBE849:
 3307              	.LBE854:
 3308              	.LBE863:
 3309              	.LBB864:
 3310              	.LBB865:
 3311              		.loc 4 34 0
 3312 02dc 80EA0012 		eor	r2, r0, r0, lsl #4
 3313 02e0 D1B2     		uxtb	r1, r2
 3314              		.loc 4 35 0
 3315 02e2 4FEA1529 		lsr	r9, r5, #8
 3316 02e6 89EA1113 		eor	r3, r9, r1, lsr #4
 3317 02ea 43EA0125 		orr	r5, r3, r1, lsl #8
 3318 02ee 85EAC109 		eor	r9, r5, r1, lsl #3
 3319              	.LBE865:
 3320              	.LBE864:
 3321              	.LBE876:
 3322              	.LBE886:
 3323              	.LBE896:
 3324              	.LBE906:
 3325              	.LBE912:
 3326              	.LBE925:
 3327              	.LBE935:
 3328              	.LBE938:
 3329              		.loc 1 233 0
 3330 02f2 0125     		movs	r5, #1
 3331 02f4 3570     		strb	r5, [r6, #0]
 3332              	.LVL134:
 3333              	.LBB939:
 3334              	.LBB936:
 3335              	.LBB926:
 3336              	.LBB913:
 3337              		.loc 5 62 0
 3338 02f6 7646     		mov	r6, lr	@ movhi
 3339              		.loc 5 70 0
 3340 02f8 4FF01C0E 		mov	lr, #28
 3341 02fc 84F807E0 		strb	lr, [r4, #7]
 3342              	.LVL135:
 3343              	.LBB907:
 3344              	.LBB897:
 3345              	.LBB887:
 3346              	.LBB877:
 3347              		.loc 3 76 0
 3348 0300 4FF0FE0E 		mov	lr, #254
 3349 0304 84F802E0 		strb	lr, [r4, #2]
 3350              		.loc 3 77 0
 3351 0308 4FF0100E 		mov	lr, #16
 3352 030c 84F803E0 		strb	lr, [r4, #3]
 3353              		.loc 3 82 0
 3354 0310 40F2000E 		movw	lr, #:lower16:.LANCHOR9
ARM GAS  C:\Users\Mohamad\AppData\Local\Temp\ccDsqi1j.s 			page 60


 3355              	.LBB868:
 3356              	.LBB866:
 3357              		.loc 4 35 0
 3358 0314 1FFA89F3 		uxth	r3, r9
 3359              	.LBE866:
 3360              	.LBE868:
 3361              		.loc 3 82 0
 3362 0318 C0F2000E 		movt	lr, #:upper16:.LANCHOR9
 3363              		.loc 3 89 0
 3364 031c 4FEA132A 		lsr	sl, r3, #8
 3365              		.loc 3 82 0
 3366 0320 AC44     		add	ip, ip, r5
 3367              	.LBE877:
 3368              	.LBE887:
 3369              	.LBE897:
 3370              	.LBE907:
 3371              	.LBE913:
 3372              	.LBE926:
 3373              	.LBB927:
 3374              	.LBB918:
 3375              		.loc 3 176 0
 3376 0322 A11C     		adds	r1, r4, #2
 3377 0324 1622     		movs	r2, #22
 3378              	.LBE918:
 3379              	.LBE927:
 3380              	.LBB928:
 3381              	.LBB914:
 3382              	.LBB908:
 3383              	.LBB898:
 3384              	.LBB888:
 3385              	.LBB878:
 3386              		.loc 3 82 0
 3387 0326 8EF806C0 		strb	ip, [lr, #6]
 3388              	.LBB869:
 3389              	.LBB867:
 3390              		.loc 4 35 0
 3391 032a 2380     		strh	r3, [r4, #0]	@ movhi
 3392              	.LBE867:
 3393              	.LBE869:
 3394              	.LBE878:
 3395              	.LBE888:
 3396              	.LBE898:
 3397              	.LBE908:
 3398              	.LBE914:
 3399              	.LBE928:
 3400              	.LBB929:
 3401              	.LBB919:
 3402              		.loc 3 176 0
 3403 032c 4046     		mov	r0, r8
 3404              	.LBE919:
 3405              	.LBE929:
 3406              	.LBB930:
 3407              	.LBB915:
 3408              	.LBB909:
 3409              	.LBB899:
 3410              	.LBB889:
 3411              	.LBB879:
ARM GAS  C:\Users\Mohamad\AppData\Local\Temp\ccDsqi1j.s 			page 61


 3412              		.loc 3 88 0
 3413 032e 84F81890 		strb	r9, [r4, #24]
 3414              		.loc 3 89 0
 3415 0332 84F819A0 		strb	sl, [r4, #25]
 3416              		.loc 3 78 0
 3417 0336 6571     		strb	r5, [r4, #5]
 3418              		.loc 3 79 0
 3419 0338 A571     		strb	r5, [r4, #6]
 3420              	.LVL136:
 3421              	.LBE879:
 3422              	.LBE889:
 3423              	.LBE899:
 3424              	.LBE909:
 3425              	.LBE915:
 3426              	.LBE930:
 3427              	.LBB931:
 3428              	.LBB920:
 3429              		.loc 3 176 0
 3430 033a FFF7FEFF 		bl	memcpy
 3431              	.LVL137:
 3432              	.LBE920:
 3433              	.LBE931:
 3434              		.loc 1 268 0
 3435 033e 0848     		ldr	r0, .L87+8
 3436              	.LBB932:
 3437              	.LBB921:
 3438              		.loc 3 180 0
 3439 0340 88F81690 		strb	r9, [r8, #22]
 3440              	.LBE921:
 3441              	.LBE932:
 3442              		.loc 1 268 0
 3443 0344 1821     		movs	r1, #24
 3444 0346 4246     		mov	r2, r8
 3445              	.LBB933:
 3446              	.LBB922:
 3447              		.loc 3 181 0
 3448 0348 88F817A0 		strb	sl, [r8, #23]
 3449              	.LBE922:
 3450              	.LBE933:
 3451              		.loc 1 268 0
 3452 034c FFF7FEFF 		bl	uartStartSendI
 3453              	.LVL138:
 3454              	.LBE936:
 3455              	.LBE939:
 3456              		.loc 1 236 0
 3457 0350 0448     		ldr	r0, .L87+12
 3458              		.loc 1 235 0
 3459 0352 3E70     		strb	r6, [r7, #0]
 3460              		.loc 1 236 0
 3461 0354 0570     		strb	r5, [r0, #0]
 3462 0356 68E6     		b	.L53
 3463              	.L88:
 3464              		.align	2
 3465              	.L87:
 3466 0358 00000000 		.word	.LANCHOR13
 3467 035c 00000000 		.word	.LANCHOR2
 3468 0360 00000000 		.word	UARTD3
ARM GAS  C:\Users\Mohamad\AppData\Local\Temp\ccDsqi1j.s 			page 62


 3469 0364 00000000 		.word	.LANCHOR8
 3470 0368 00000000 		.word	.LANCHOR10
 3471              	.LVL139:
 3472              	.L82:
 3473              		.loc 1 206 0 discriminator 1
 3474 036c 7E4F     		ldr	r7, .L89+8
 3475 036e 3B78     		ldrb	r3, [r7, #0]	@ zero_extendqisi2
 3476 0370 002B     		cmp	r3, #0
 3477 0372 3FF45AAE 		beq	.L53
 3478              		.loc 1 208 0
 3479 0376 0021     		movs	r1, #0
 3480              	.LBB940:
 3481              	.LBB941:
 3482              		.loc 1 251 0
 3483 0378 7C48     		ldr	r0, .L89+12
 3484 037a 7D4A     		ldr	r2, .L89+16
 3485              	.LBE941:
 3486              	.LBE940:
 3487              		.loc 1 208 0
 3488 037c 2970     		strb	r1, [r5, #0]
 3489              		.loc 1 209 0
 3490 037e 0225     		movs	r5, #2
 3491 0380 3570     		strb	r5, [r6, #0]
 3492              	.LBB1079:
 3493              	.LBB1078:
 3494              		.loc 1 251 0
 3495 0382 0068     		ldr	r0, [r0, #0]	@ float
 3496 0384 D2F80CA0 		ldr	sl, [r2, #12]
 3497              	.LBB942:
 3498              	.LBB943:
 3499              	.LBB944:
 3500              	.LBB945:
 3501              	.LBB946:
 3502              	.LBB947:
 3503              		.loc 3 81 0
 3504 0388 DFF80092 		ldr	r9, .L89+44
 3505              	.LBE947:
 3506              	.LBE946:
 3507              	.LBE945:
 3508              	.LBE944:
 3509              	.LBE943:
 3510              	.LBE942:
 3511              		.loc 1 251 0
 3512 038c FFF7FEFF 		bl	__aeabi_f2d
 3513              	.LVL140:
 3514 0390 73A3     		adr	r3, .L89
 3515 0392 D3E90023 		ldrd	r2, [r3]
 3516 0396 FFF7FEFF 		bl	__aeabi_dmul
 3517              	.LVL141:
 3518 039a FFF7FEFF 		bl	__aeabi_d2f
 3519              	.LVL142:
 3520 039e 754B     		ldr	r3, .L89+20
 3521 03a0 0646     		mov	r6, r0
 3522 03a2 1868     		ldr	r0, [r3, #0]	@ float
 3523 03a4 FFF7FEFF 		bl	__aeabi_f2d
 3524              	.LVL143:
 3525 03a8 6DA3     		adr	r3, .L89
ARM GAS  C:\Users\Mohamad\AppData\Local\Temp\ccDsqi1j.s 			page 63


 3526 03aa D3E90023 		ldrd	r2, [r3]
 3527 03ae FFF7FEFF 		bl	__aeabi_dmul
 3528              	.LVL144:
 3529 03b2 FFF7FEFF 		bl	__aeabi_d2f
 3530              	.LVL145:
 3531 03b6 0546     		mov	r5, r0
 3532 03b8 6F48     		ldr	r0, .L89+24
 3533 03ba 0068     		ldr	r0, [r0, #0]	@ float
 3534 03bc FFF7FEFF 		bl	__aeabi_f2d
 3535              	.LVL146:
 3536 03c0 67A3     		adr	r3, .L89
 3537 03c2 D3E90023 		ldrd	r2, [r3]
 3538 03c6 FFF7FEFF 		bl	__aeabi_dmul
 3539              	.LVL147:
 3540 03ca FFF7FEFF 		bl	__aeabi_d2f
 3541              	.LVL148:
 3542 03ce 8046     		mov	r8, r0
 3543 03d0 13A8     		add	r0, sp, #76
 3544 03d2 FFF7FEFF 		bl	ins_get_Gyro_drift
 3545              	.LVL149:
 3546 03d6 10A8     		add	r0, sp, #64
 3547 03d8 DDF84CB0 		ldr	fp, [sp, #76]	@ float
 3548 03dc FFF7FEFF 		bl	ins_get_Gyro_drift
 3549              	.LVL150:
 3550 03e0 119A     		ldr	r2, [sp, #68]	@ float
 3551 03e2 0DA8     		add	r0, sp, #52
 3552 03e4 0292     		str	r2, [sp, #8]	@ float
 3553 03e6 FFF7FEFF 		bl	ins_get_Gyro_drift
 3554              	.LVL151:
 3555              	.LBB1060:
 3556              	.LBB1054:
 3557              	.LBB1040:
 3558              	.LBB1026:
 3559              	.LBB1012:
 3560              	.LBB998:
 3561              		.loc 3 81 0
 3562 03ea 99F806C0 		ldrb	ip, [r9, #6]	@ zero_extendqisi2
 3563              	.LBE998:
 3564              	.LBE1012:
 3565              	.LBE1026:
 3566              	.LBE1040:
 3567              		.loc 6 70 0
 3568 03ee 2E96     		str	r6, [sp, #184]	@ float
 3569              	.LBB1041:
 3570              	.LBB1027:
 3571              	.LBB1013:
 3572              	.LBB999:
 3573              	.LBB948:
 3574              	.LBB949:
 3575              	.LBB950:
 3576              	.LBB951:
 3577              		.loc 4 33 0
 3578 03f0 8CF06A01 		eor	r1, ip, #106
 3579              		.loc 4 34 0
 3580 03f4 81EA0116 		eor	r6, r1, r1, lsl #4
 3581 03f8 F3B2     		uxtb	r3, r6
 3582              		.loc 4 35 0
ARM GAS  C:\Users\Mohamad\AppData\Local\Temp\ccDsqi1j.s 			page 64


 3583 03fa 1809     		lsrs	r0, r3, #4
 3584 03fc 80F0D502 		eor	r2, r0, #213
 3585 0400 42EA0321 		orr	r1, r2, r3, lsl #8
 3586 0404 81EAC306 		eor	r6, r1, r3, lsl #3
 3587              		.loc 4 33 0
 3588 0408 86F00103 		eor	r3, r6, #1
 3589              		.loc 4 34 0
 3590 040c 83EA0310 		eor	r0, r3, r3, lsl #4
 3591 0410 C2B2     		uxtb	r2, r0
 3592              		.loc 4 35 0
 3593 0412 310A     		lsrs	r1, r6, #8
 3594 0414 81EA1216 		eor	r6, r1, r2, lsr #4
 3595              	.LBE951:
 3596              	.LBE950:
 3597              	.LBE949:
 3598              	.LBE948:
 3599              	.LBE999:
 3600              	.LBE1013:
 3601              	.LBE1027:
 3602              	.LBE1041:
 3603              		.loc 6 69 0
 3604 0418 CDF8B4A0 		str	sl, [sp, #180]
 3605              	.LBB1042:
 3606              	.LBB1028:
 3607              	.LBB1014:
 3608              	.LBB1000:
 3609              	.LBB973:
 3610              	.LBB966:
 3611              	.LBB959:
 3612              	.LBB952:
 3613              		.loc 4 35 0
 3614 041c 46EA0223 		orr	r3, r6, r2, lsl #8
 3615              	.LBE952:
 3616              	.LBE959:
 3617              	.LBE966:
 3618              	.LBE973:
 3619              	.LBE1000:
 3620              	.LBE1014:
 3621              	.LBE1028:
 3622              	.LBE1042:
 3623              		.loc 6 71 0
 3624 0420 2F95     		str	r5, [sp, #188]	@ float
 3625              		.loc 6 72 0
 3626 0422 CDF8C080 		str	r8, [sp, #192]	@ float
 3627              		.loc 6 77 0
 3628 0426 0DF1B40E 		add	lr, sp, #180
 3629              	.LBB1043:
 3630              	.LBB1029:
 3631              	.LBB1015:
 3632              	.LBB1001:
 3633              	.LBB974:
 3634              	.LBB967:
 3635              	.LBB960:
 3636              	.LBB953:
 3637              		.loc 4 35 0
 3638 042a 83EAC206 		eor	r6, r3, r2, lsl #3
 3639              	.LBE953:
ARM GAS  C:\Users\Mohamad\AppData\Local\Temp\ccDsqi1j.s 			page 65


 3640              	.LBE960:
 3641              	.LBE967:
 3642              	.LBE974:
 3643              	.LBE1001:
 3644              	.LBE1015:
 3645              	.LBE1029:
 3646              	.LBE1043:
 3647              		.loc 6 77 0
 3648 042e BEE80F00 		ldmia	lr!, {r0, r1, r2, r3}
 3649              	.LBB1044:
 3650              	.LBB1030:
 3651              	.LBB1016:
 3652              	.LBB1002:
 3653              	.LBB975:
 3654              	.LBB968:
 3655              	.LBB961:
 3656              	.LBB954:
 3657              		.loc 4 33 0
 3658 0432 86F00105 		eor	r5, r6, #1
 3659              		.loc 4 34 0
 3660 0436 85EA0518 		eor	r8, r5, r5, lsl #4
 3661              	.LBE954:
 3662              	.LBE961:
 3663              	.LBE968:
 3664              	.LBE975:
 3665              	.LBE1002:
 3666              	.LBE1016:
 3667              	.LBE1030:
 3668              	.LBE1044:
 3669              		.loc 6 77 0
 3670 043a 504D     		ldr	r5, .L89+28
 3671              	.LBE1054:
 3672              	.LBE1060:
 3673              		.loc 1 251 0
 3674 043c DDF83CA0 		ldr	sl, [sp, #60]	@ float
 3675              	.LBB1061:
 3676              	.LBB1055:
 3677              		.loc 6 73 0
 3678 0440 CDF8C4B0 		str	fp, [sp, #196]	@ float
 3679              	.LBB1045:
 3680              	.LBB1031:
 3681              	.LBB1017:
 3682              	.LBB1003:
 3683              	.LBB976:
 3684              	.LBB969:
 3685              	.LBB962:
 3686              	.LBB955:
 3687              		.loc 4 34 0
 3688 0444 5FFA88F8 		uxtb	r8, r8
 3689              		.loc 4 35 0
 3690 0448 4FEA162B 		lsr	fp, r6, #8
 3691              	.LBE955:
 3692              	.LBE962:
 3693              	.LBE969:
 3694              	.LBE976:
 3695              	.LBE1003:
 3696              	.LBE1017:
ARM GAS  C:\Users\Mohamad\AppData\Local\Temp\ccDsqi1j.s 			page 66


 3697              	.LBE1031:
 3698              	.LBE1045:
 3699              		.loc 6 77 0
 3700 044c 05F10806 		add	r6, r5, #8
 3701 0450 0FC6     		stmia	r6!, {r0, r1, r2, r3}
 3702              	.LBE1055:
 3703              	.LBE1061:
 3704              		.loc 1 251 0
 3705 0452 CDF8CCA0 		str	sl, [sp, #204]	@ float
 3706              	.LVL152:
 3707              	.LBB1062:
 3708              	.LBB1056:
 3709              		.loc 6 74 0
 3710 0456 0298     		ldr	r0, [sp, #8]	@ float
 3711              	.LVL153:
 3712              	.LBB1046:
 3713              	.LBB1032:
 3714              	.LBB1018:
 3715              	.LBB1004:
 3716              		.loc 3 78 0
 3717 0458 6C71     		strb	r4, [r5, #5]
 3718              	.LBB977:
 3719              	.LBB970:
 3720              	.LBB963:
 3721              	.LBB956:
 3722              		.loc 4 35 0
 3723 045a 8BEA181A 		eor	sl, fp, r8, lsr #4
 3724              	.LVL154:
 3725 045e 4AEA082B 		orr	fp, sl, r8, lsl #8
 3726 0462 8BEAC803 		eor	r3, fp, r8, lsl #3
 3727              	.LBE956:
 3728              	.LBE963:
 3729              	.LBE970:
 3730              	.LBE977:
 3731              	.LBE1004:
 3732              	.LBE1018:
 3733              	.LBE1032:
 3734              	.LBE1046:
 3735              		.loc 6 74 0
 3736 0466 3290     		str	r0, [sp, #200]	@ float
 3737              		.loc 6 77 0
 3738 0468 9EE80700 		ldmia	lr, {r0, r1, r2}
 3739              	.LBB1047:
 3740              	.LBB1033:
 3741              	.LBB1019:
 3742              	.LBB1005:
 3743              	.LBB978:
 3744              	.LBB971:
 3745              	.LBB964:
 3746              	.LBB957:
 3747              		.loc 4 33 0
 3748 046c 83F01E0E 		eor	lr, r3, #30
 3749              		.loc 4 34 0
 3750 0470 8EEA0E18 		eor	r8, lr, lr, lsl #4
 3751 0474 5FFA88FA 		uxtb	sl, r8
 3752              		.loc 4 35 0
 3753 0478 4FEA1323 		lsr	r3, r3, #8
ARM GAS  C:\Users\Mohamad\AppData\Local\Temp\ccDsqi1j.s 			page 67


 3754 047c 83EA1A13 		eor	r3, r3, sl, lsr #4
 3755 0480 43EA0A23 		orr	r3, r3, sl, lsl #8
 3756              	.LBE957:
 3757              	.LBE964:
 3758              	.LBE971:
 3759              	.LBE978:
 3760              		.loc 3 83 0
 3761 0484 AE46     		mov	lr, r5
 3762              	.LBB979:
 3763              	.LBB972:
 3764              	.LBB965:
 3765              	.LBB958:
 3766              		.loc 4 35 0
 3767 0486 83EACA03 		eor	r3, r3, sl, lsl #3
 3768              	.LBE958:
 3769              	.LBE965:
 3770              	.LBE972:
 3771              	.LBE979:
 3772              	.LBE1005:
 3773              	.LBE1019:
 3774              	.LBE1033:
 3775              	.LBE1047:
 3776              		.loc 6 77 0
 3777 048a 86E80700 		stmia	r6, {r0, r1, r2}
 3778              	.LBB1048:
 3779              	.LBB1034:
 3780              	.LBB1020:
 3781              	.LBB1006:
 3782              		.loc 3 83 0
 3783 048e 2EF8083B 		strh	r3, [lr], #8	@ movhi
 3784              	.LVL155:
 3785              		.loc 3 76 0
 3786 0492 FE26     		movs	r6, #254
 3787              		.loc 3 82 0
 3788 0494 0CF10102 		add	r2, ip, #1
 3789              	.LBE1006:
 3790              	.LBE1020:
 3791              	.LBE1034:
 3792              	.LBE1048:
 3793              		.loc 6 80 0
 3794 0498 1E21     		movs	r1, #30
 3795              	.LBB1049:
 3796              	.LBB1035:
 3797              	.LBB1021:
 3798              	.LBB1007:
 3799              		.loc 3 77 0
 3800 049a 1C20     		movs	r0, #28
 3801              		.loc 3 76 0
 3802 049c AE70     		strb	r6, [r5, #2]
 3803              	.LBE1007:
 3804              	.LBE1021:
 3805              	.LBE1035:
 3806              	.LBE1049:
 3807              		.loc 6 80 0
 3808 049e E971     		strb	r1, [r5, #7]
 3809              	.LVL156:
 3810              	.LBB1050:
ARM GAS  C:\Users\Mohamad\AppData\Local\Temp\ccDsqi1j.s 			page 68


 3811              	.LBB1036:
 3812              	.LBB1022:
 3813              	.LBB1008:
 3814              		.loc 3 77 0
 3815 04a0 E870     		strb	r0, [r5, #3]
 3816              		.loc 3 79 0
 3817 04a2 AC71     		strb	r4, [r5, #6]
 3818              	.LVL157:
 3819              		.loc 3 81 0
 3820 04a4 85F804C0 		strb	ip, [r5, #4]
 3821              	.LVL158:
 3822              		.loc 3 82 0
 3823 04a8 89F80620 		strb	r2, [r9, #6]
 3824              	.LVL159:
 3825 04ac 05F12406 		add	r6, r5, #36
 3826              	.LVL160:
 3827              	.L56:
 3828              	.LBB980:
 3829              	.LBB981:
 3830              		.loc 4 82 0
 3831 04b0 7246     		mov	r2, lr
 3832              	.LBB982:
 3833              	.LBB983:
 3834              		.loc 4 35 0
 3835 04b2 180A     		lsrs	r0, r3, #8
 3836              	.LBE983:
 3837              	.LBE982:
 3838              		.loc 4 82 0
 3839 04b4 12F8011B 		ldrb	r1, [r2], #1	@ zero_extendqisi2
 3840              	.LVL161:
 3841              	.LBB988:
 3842              	.LBB984:
 3843              		.loc 4 35 0
 3844 04b8 304C     		ldr	r4, .L89+28
 3845              		.loc 4 33 0
 3846 04ba 4B40     		eors	r3, r3, r1
 3847              	.LVL162:
 3848              		.loc 4 34 0
 3849 04bc 83EA0311 		eor	r1, r3, r3, lsl #4
 3850 04c0 CBB2     		uxtb	r3, r1
 3851              	.LVL163:
 3852              		.loc 4 35 0
 3853 04c2 80EA1310 		eor	r0, r0, r3, lsr #4
 3854 04c6 40EA0321 		orr	r1, r0, r3, lsl #8
 3855              	.LVL164:
 3856 04ca 81EAC303 		eor	r3, r1, r3, lsl #3
 3857              	.LVL165:
 3858 04ce 2B80     		strh	r3, [r5, #0]	@ movhi
 3859              	.LBE984:
 3860              	.LBE988:
 3861              		.loc 4 82 0
 3862 04d0 9EF80100 		ldrb	r0, [lr, #1]	@ zero_extendqisi2
 3863              	.LBB989:
 3864              	.LBB985:
 3865              		.loc 4 33 0
 3866 04d4 5840     		eors	r0, r0, r3
 3867              		.loc 4 34 0
ARM GAS  C:\Users\Mohamad\AppData\Local\Temp\ccDsqi1j.s 			page 69


 3868 04d6 80EA0011 		eor	r1, r0, r0, lsl #4
 3869 04da C8B2     		uxtb	r0, r1
 3870              		.loc 4 35 0
 3871 04dc 1B0A     		lsrs	r3, r3, #8
 3872 04de 83EA1011 		eor	r1, r3, r0, lsr #4
 3873 04e2 41EA0023 		orr	r3, r1, r0, lsl #8
 3874              	.LBE985:
 3875              	.LBE989:
 3876              		.loc 4 82 0
 3877 04e6 02F1010E 		add	lr, r2, #1
 3878              	.LVL166:
 3879              	.LBB990:
 3880              	.LBB986:
 3881              		.loc 4 35 0
 3882 04ea 83EAC003 		eor	r3, r3, r0, lsl #3
 3883              	.LBE986:
 3884              	.LBE990:
 3885              		.loc 4 81 0
 3886 04ee B645     		cmp	lr, r6
 3887              	.LBB991:
 3888              	.LBB987:
 3889              		.loc 4 35 0
 3890 04f0 2B80     		strh	r3, [r5, #0]	@ movhi
 3891              	.LBE987:
 3892              	.LBE991:
 3893              		.loc 4 81 0
 3894 04f2 DDD1     		bne	.L56
 3895              	.LVL167:
 3896              		.loc 4 33 0
 3897 04f4 83F02705 		eor	r5, r3, #39
 3898              	.LVL168:
 3899              	.LBE981:
 3900              	.LBE980:
 3901              	.LBB992:
 3902              	.LBB993:
 3903              		.loc 4 34 0
 3904 04f8 85EA0516 		eor	r6, r5, r5, lsl #4
 3905 04fc F2B2     		uxtb	r2, r6
 3906              	.LVL169:
 3907              		.loc 4 35 0
 3908 04fe 4FEA1329 		lsr	r9, r3, #8
 3909 0502 89EA121C 		eor	ip, r9, r2, lsr #4
 3910 0506 8CEA0228 		eor	r8, ip, r2, lsl #8
 3911 050a 88EAC200 		eor	r0, r8, r2, lsl #3
 3912 050e 1FFA80F8 		uxth	r8, r0
 3913              	.LBE993:
 3914              	.LBE992:
 3915              	.LBE1008:
 3916              	.LBE1022:
 3917              	.LBE1036:
 3918              	.LBE1050:
 3919              	.LBE1056:
 3920              	.LBE1062:
 3921              	.LBB1063:
 3922              	.LBB1064:
 3923              		.loc 3 176 0
 3924 0512 94F803A0 		ldrb	sl, [r4, #3]	@ zero_extendqisi2
ARM GAS  C:\Users\Mohamad\AppData\Local\Temp\ccDsqi1j.s 			page 70


 3925              	.LVL170:
 3926              		.loc 1 252 0
 3927 0516 1A4D     		ldr	r5, .L89+32
 3928              	.LBE1064:
 3929              	.LBE1063:
 3930              	.LBB1070:
 3931              	.LBB1057:
 3932              	.LBB1051:
 3933              	.LBB1037:
 3934              	.LBB1023:
 3935              	.LBB1009:
 3936              		.loc 3 88 0
 3937 0518 84F82480 		strb	r8, [r4, #36]
 3938              	.LBB996:
 3939              	.LBB994:
 3940              		.loc 4 35 0
 3941 051c 1FFA88F3 		uxth	r3, r8
 3942              	.LBE994:
 3943              	.LBE996:
 3944              		.loc 3 89 0
 3945 0520 4FEA1329 		lsr	r9, r3, #8
 3946              	.LBE1009:
 3947              	.LBE1023:
 3948              	.LBE1037:
 3949              	.LBE1051:
 3950              	.LBE1057:
 3951              	.LBE1070:
 3952              	.LBB1071:
 3953              	.LBB1065:
 3954              		.loc 3 176 0
 3955 0524 0AF10606 		add	r6, sl, #6
 3956              	.LVL171:
 3957 0528 A11C     		adds	r1, r4, #2
 3958 052a 3246     		mov	r2, r6
 3959              	.LVL172:
 3960              	.LBE1065:
 3961              	.LBE1071:
 3962              	.LBB1072:
 3963              	.LBB1058:
 3964              	.LBB1052:
 3965              	.LBB1038:
 3966              	.LBB1024:
 3967              	.LBB1010:
 3968              	.LBB997:
 3969              	.LBB995:
 3970              		.loc 4 35 0
 3971 052c 2380     		strh	r3, [r4, #0]	@ movhi
 3972              	.LBE995:
 3973              	.LBE997:
 3974              	.LBE1010:
 3975              	.LBE1024:
 3976              	.LBE1038:
 3977              	.LBE1052:
 3978              	.LBE1058:
 3979              	.LBE1072:
 3980              	.LBB1073:
 3981              	.LBB1066:
ARM GAS  C:\Users\Mohamad\AppData\Local\Temp\ccDsqi1j.s 			page 71


 3982              		.loc 3 176 0
 3983 052e 2846     		mov	r0, r5
 3984              	.LBE1066:
 3985              	.LBE1073:
 3986              	.LBB1074:
 3987              	.LBB1059:
 3988              	.LBB1053:
 3989              	.LBB1039:
 3990              	.LBB1025:
 3991              	.LBB1011:
 3992              		.loc 3 89 0
 3993 0530 84F82590 		strb	r9, [r4, #37]
 3994              	.LVL173:
 3995              	.LBE1011:
 3996              	.LBE1025:
 3997              	.LBE1039:
 3998              	.LBE1053:
 3999              	.LBE1059:
 4000              	.LBE1074:
 4001              	.LBB1075:
 4002              	.LBB1067:
 4003              		.loc 3 176 0
 4004 0534 FFF7FEFF 		bl	memcpy
 4005              	.LVL174:
 4006              		.loc 3 178 0
 4007 0538 AB19     		adds	r3, r5, r6
 4008              	.LVL175:
 4009              	.LBE1067:
 4010              	.LBE1075:
 4011              		.loc 1 253 0
 4012 053a 1248     		ldr	r0, .L89+36
 4013              	.LBB1076:
 4014              	.LBB1068:
 4015              		.loc 3 180 0
 4016 053c 05F80680 		strb	r8, [r5, r6]
 4017              	.LBE1068:
 4018              	.LBE1076:
 4019              		.loc 1 253 0
 4020 0540 0AF10801 		add	r1, sl, #8
 4021 0544 2A46     		mov	r2, r5
 4022              	.LBB1077:
 4023              	.LBB1069:
 4024              		.loc 3 181 0
 4025 0546 83F80190 		strb	r9, [r3, #1]
 4026              	.LBE1069:
 4027              	.LBE1077:
 4028              		.loc 1 253 0
 4029 054a FFF7FEFF 		bl	uartStartSend
 4030              	.LVL176:
 4031              	.LBE1078:
 4032              	.LBE1079:
 4033              		.loc 1 212 0
 4034 054e 0E48     		ldr	r0, .L89+40
 4035              		.loc 1 211 0
 4036 0550 0021     		movs	r1, #0
 4037              		.loc 1 212 0
 4038 0552 0122     		movs	r2, #1
ARM GAS  C:\Users\Mohamad\AppData\Local\Temp\ccDsqi1j.s 			page 72


 4039              		.loc 1 211 0
 4040 0554 3970     		strb	r1, [r7, #0]
 4041              		.loc 1 212 0
 4042 0556 0270     		strb	r2, [r0, #0]
 4043 0558 67E5     		b	.L53
 4044              	.L90:
 4045 055a 00BFAFF3 		.align	3
 4045      0080
 4046              	.L89:
 4047 0560 E79AD561 		.word	1641388775
 4048 0564 94A94C40 		.word	1078765972
 4049 0568 00000000 		.word	.LANCHOR8
 4050 056c 00000000 		.word	roll
 4051 0570 00000000 		.word	vtlist
 4052 0574 00000000 		.word	pitch
 4053 0578 00000000 		.word	yaw
 4054 057c 00000000 		.word	.LANCHOR2
 4055 0580 00000000 		.word	.LANCHOR10
 4056 0584 00000000 		.word	UARTD3
 4057 0588 00000000 		.word	.LANCHOR11
 4058 058c 00000000 		.word	.LANCHOR9
 4059              	.LVL177:
 4060              	.L83:
 4061              		.loc 1 214 0 discriminator 1
 4062 0590 6E4F     		ldr	r7, .L91
 4063 0592 3B78     		ldrb	r3, [r7, #0]	@ zero_extendqisi2
 4064 0594 002B     		cmp	r3, #0
 4065 0596 3FF448AD 		beq	.L53
 4066              		.loc 1 216 0
 4067 059a 0024     		movs	r4, #0
 4068 059c 2C70     		strb	r4, [r5, #0]
 4069              	.LBB1080:
 4070              	.LBB1081:
 4071              		.loc 1 243 0
 4072 059e 25A8     		add	r0, sp, #148
 4073              	.LBE1081:
 4074              	.LBE1080:
 4075              		.loc 1 217 0
 4076 05a0 0325     		movs	r5, #3
 4077 05a2 3570     		strb	r5, [r6, #0]
 4078              	.LBB1229:
 4079              	.LBB1228:
 4080              		.loc 1 243 0
 4081 05a4 FFF7FEFF 		bl	ins_get_Accel
 4082              	.LVL178:
 4083 05a8 22A8     		add	r0, sp, #136
 4084 05aa 259E     		ldr	r6, [sp, #148]	@ float
 4085              	.LBB1082:
 4086              	.LBB1083:
 4087              	.LBB1084:
 4088              	.LBB1085:
 4089              	.LBB1086:
 4090              	.LBB1087:
 4091              		.loc 3 81 0
 4092 05ac DFF8B091 		ldr	r9, .L91+20
 4093              	.LBE1087:
 4094              	.LBE1086:
ARM GAS  C:\Users\Mohamad\AppData\Local\Temp\ccDsqi1j.s 			page 73


 4095              	.LBE1085:
 4096              	.LBE1084:
 4097              	.LBE1083:
 4098              	.LBE1082:
 4099              		.loc 1 243 0
 4100 05b0 FFF7FEFF 		bl	ins_get_Accel
 4101              	.LVL179:
 4102 05b4 1FA8     		add	r0, sp, #124
 4103 05b6 DDF88CB0 		ldr	fp, [sp, #140]	@ float
 4104 05ba FFF7FEFF 		bl	ins_get_Accel
 4105              	.LVL180:
 4106 05be 1CA8     		add	r0, sp, #112
 4107 05c0 219D     		ldr	r5, [sp, #132]	@ float
 4108 05c2 FFF7FEFF 		bl	ins_get_gyro
 4109              	.LVL181:
 4110 05c6 19A8     		add	r0, sp, #100
 4111 05c8 DDF870A0 		ldr	sl, [sp, #112]	@ float
 4112 05cc FFF7FEFF 		bl	ins_get_gyro
 4113              	.LVL182:
 4114 05d0 16A8     		add	r0, sp, #88
 4115 05d2 DDF86880 		ldr	r8, [sp, #104]	@ float
 4116 05d6 FFF7FEFF 		bl	ins_get_gyro
 4117              	.LVL183:
 4118              	.LBB1211:
 4119              	.LBB1206:
 4120              	.LBB1191:
 4121              	.LBB1176:
 4122              	.LBB1161:
 4123              	.LBB1146:
 4124              		.loc 3 81 0
 4125 05da 99F806C0 		ldrb	ip, [r9, #6]	@ zero_extendqisi2
 4126              	.LBE1146:
 4127              	.LBE1161:
 4128              	.LBE1176:
 4129              	.LBE1191:
 4130              		.loc 7 73 0
 4131 05de 3C94     		str	r4, [sp, #240]
 4132              	.LBB1192:
 4133              	.LBB1177:
 4134              	.LBB1162:
 4135              	.LBB1147:
 4136              	.LBB1088:
 4137              	.LBB1089:
 4138              	.LBB1090:
 4139              	.LBB1091:
 4140              		.loc 4 33 0
 4141 05e0 8CF08501 		eor	r1, ip, #133
 4142              		.loc 4 34 0
 4143 05e4 81EA0110 		eor	r0, r1, r1, lsl #4
 4144 05e8 C3B2     		uxtb	r3, r0
 4145              		.loc 4 35 0
 4146 05ea 1A09     		lsrs	r2, r3, #4
 4147 05ec 82F02E04 		eor	r4, r2, #46
 4148              	.LBE1091:
 4149              	.LBE1090:
 4150              	.LBE1089:
 4151              	.LBE1088:
ARM GAS  C:\Users\Mohamad\AppData\Local\Temp\ccDsqi1j.s 			page 74


 4152              	.LBE1147:
 4153              	.LBE1162:
 4154              	.LBE1177:
 4155              	.LBE1192:
 4156              		.loc 7 74 0
 4157 05f0 3D96     		str	r6, [sp, #244]	@ float
 4158              	.LBB1193:
 4159              	.LBB1178:
 4160              	.LBB1163:
 4161              	.LBB1148:
 4162              	.LBB1119:
 4163              	.LBB1110:
 4164              	.LBB1101:
 4165              	.LBB1092:
 4166              		.loc 4 35 0
 4167 05f2 84EAC306 		eor	r6, r4, r3, lsl #3
 4168 05f6 86EA0321 		eor	r1, r6, r3, lsl #8
 4169              		.loc 4 33 0
 4170 05fa 81F00100 		eor	r0, r1, #1
 4171              		.loc 4 34 0
 4172 05fe 80EA0013 		eor	r3, r0, r0, lsl #4
 4173 0602 DAB2     		uxtb	r2, r3
 4174              		.loc 4 35 0
 4175 0604 0C0A     		lsrs	r4, r1, #8
 4176 0606 84EA1216 		eor	r6, r4, r2, lsr #4
 4177 060a 86EAC201 		eor	r1, r6, r2, lsl #3
 4178 060e 81EA0226 		eor	r6, r1, r2, lsl #8
 4179              		.loc 4 33 0
 4180 0612 86F00100 		eor	r0, r6, #1
 4181              	.LBE1092:
 4182              	.LBE1101:
 4183              	.LBE1110:
 4184              	.LBE1119:
 4185              	.LBE1148:
 4186              	.LBE1163:
 4187              	.LBE1178:
 4188              	.LBE1193:
 4189              		.loc 7 75 0
 4190 0616 CDF8F8B0 		str	fp, [sp, #248]	@ float
 4191              		.loc 7 76 0
 4192 061a 3F95     		str	r5, [sp, #252]	@ float
 4193              		.loc 7 82 0
 4194 061c 3CAD     		add	r5, sp, #240
 4195              	.LBB1194:
 4196              	.LBB1179:
 4197              	.LBB1164:
 4198              	.LBB1149:
 4199              	.LBB1120:
 4200              	.LBB1111:
 4201              	.LBB1102:
 4202              	.LBB1093:
 4203              		.loc 4 34 0
 4204 061e 80EA0014 		eor	r4, r0, r0, lsl #4
 4205              	.LBE1093:
 4206              	.LBE1102:
 4207              	.LBE1111:
 4208              	.LBE1120:
ARM GAS  C:\Users\Mohamad\AppData\Local\Temp\ccDsqi1j.s 			page 75


 4209              	.LBE1149:
 4210              	.LBE1164:
 4211              	.LBE1179:
 4212              	.LBE1194:
 4213              		.loc 7 82 0
 4214 0622 0FCD     		ldmia	r5!, {r0, r1, r2, r3}
 4215              	.LBB1195:
 4216              	.LBB1180:
 4217              	.LBB1165:
 4218              	.LBB1150:
 4219              	.LBB1121:
 4220              	.LBB1112:
 4221              	.LBB1103:
 4222              	.LBB1094:
 4223              		.loc 4 34 0
 4224 0624 E4B2     		uxtb	r4, r4
 4225              		.loc 4 35 0
 4226 0626 360A     		lsrs	r6, r6, #8
 4227 0628 86EA141B 		eor	fp, r6, r4, lsr #4
 4228              	.LBE1094:
 4229              	.LBE1103:
 4230              	.LBE1112:
 4231              	.LBE1121:
 4232              	.LBE1150:
 4233              	.LBE1165:
 4234              	.LBE1180:
 4235              	.LBE1195:
 4236              	.LBE1206:
 4237              	.LBE1211:
 4238              		.loc 1 243 0
 4239 062c DDF860E0 		ldr	lr, [sp, #96]	@ float
 4240              	.LVL184:
 4241              	.LBB1212:
 4242              	.LBB1207:
 4243              		.loc 7 82 0
 4244 0630 474E     		ldr	r6, .L91+4
 4245              		.loc 7 77 0
 4246 0632 CDF800A1 		str	sl, [sp, #256]	@ float
 4247              		.loc 7 78 0
 4248 0636 CDF80481 		str	r8, [sp, #260]	@ float
 4249              	.LBB1196:
 4250              	.LBB1181:
 4251              	.LBB1166:
 4252              	.LBB1151:
 4253              	.LBB1122:
 4254              	.LBB1113:
 4255              	.LBB1104:
 4256              	.LBB1095:
 4257              		.loc 4 35 0
 4258 063a 8BEAC40A 		eor	sl, fp, r4, lsl #3
 4259              	.LVL185:
 4260              	.LBE1095:
 4261              	.LBE1104:
 4262              	.LBE1113:
 4263              	.LBE1122:
 4264              	.LBE1151:
 4265              	.LBE1166:
ARM GAS  C:\Users\Mohamad\AppData\Local\Temp\ccDsqi1j.s 			page 76


 4266              	.LBE1181:
 4267              	.LBE1196:
 4268              		.loc 7 80 0
 4269 063e 4FF00008 		mov	r8, #0
 4270              	.LVL186:
 4271              	.LBB1197:
 4272              	.LBB1182:
 4273              	.LBB1167:
 4274              	.LBB1152:
 4275              	.LBB1123:
 4276              	.LBB1114:
 4277              	.LBB1105:
 4278              	.LBB1096:
 4279              		.loc 4 35 0
 4280 0642 8AEA0424 		eor	r4, sl, r4, lsl #8
 4281              	.LBE1096:
 4282              	.LBE1105:
 4283              	.LBE1114:
 4284              	.LBE1123:
 4285              	.LBE1152:
 4286              	.LBE1167:
 4287              	.LBE1182:
 4288              	.LBE1197:
 4289              		.loc 7 79 0
 4290 0646 CDF808E1 		str	lr, [sp, #264]	@ float
 4291              		.loc 7 80 0
 4292 064a CDF80C81 		str	r8, [sp, #268]	@ float
 4293              		.loc 7 82 0
 4294 064e 06F1080E 		add	lr, r6, #8
 4295              	.LVL187:
 4296              	.LBB1198:
 4297              	.LBB1183:
 4298              	.LBB1168:
 4299              	.LBB1153:
 4300              	.LBB1124:
 4301              	.LBB1115:
 4302              	.LBB1106:
 4303              	.LBB1097:
 4304              		.loc 4 33 0
 4305 0652 84F01F0B 		eor	fp, r4, #31
 4306              	.LBE1097:
 4307              	.LBE1106:
 4308              	.LBE1115:
 4309              	.LBE1124:
 4310              	.LBE1153:
 4311              	.LBE1168:
 4312              	.LBE1183:
 4313              	.LBE1198:
 4314              		.loc 7 82 0
 4315 0656 AEE80F00 		stmia	lr!, {r0, r1, r2, r3}
 4316 065a 95E80F00 		ldmia	r5, {r0, r1, r2, r3}
 4317              	.LBB1199:
 4318              	.LBB1184:
 4319              	.LBB1169:
 4320              	.LBB1154:
 4321              	.LBB1125:
 4322              	.LBB1116:
ARM GAS  C:\Users\Mohamad\AppData\Local\Temp\ccDsqi1j.s 			page 77


 4323              	.LBB1107:
 4324              	.LBB1098:
 4325              		.loc 4 34 0
 4326 065e 8BEA0B1A 		eor	sl, fp, fp, lsl #4
 4327 0662 5FFA8AF8 		uxtb	r8, sl
 4328              		.loc 4 35 0
 4329 0666 250A     		lsrs	r5, r4, #8
 4330 0668 85EA1814 		eor	r4, r5, r8, lsr #4
 4331              	.LBE1098:
 4332              	.LBE1107:
 4333              	.LBE1116:
 4334              	.LBE1125:
 4335              		.loc 3 78 0
 4336 066c 4FF0010A 		mov	sl, #1
 4337              	.LBB1126:
 4338              	.LBB1117:
 4339              	.LBB1108:
 4340              	.LBB1099:
 4341              		.loc 4 35 0
 4342 0670 44EA0824 		orr	r4, r4, r8, lsl #8
 4343              	.LBE1099:
 4344              	.LBE1108:
 4345              	.LBE1117:
 4346              	.LBE1126:
 4347              		.loc 3 83 0
 4348 0674 3546     		mov	r5, r6
 4349              	.LBE1154:
 4350              	.LBE1169:
 4351              	.LBE1184:
 4352              	.LBE1199:
 4353              		.loc 7 82 0
 4354 0676 8EE80F00 		stmia	lr, {r0, r1, r2, r3}
 4355              	.LBB1200:
 4356              	.LBB1185:
 4357              	.LBB1170:
 4358              	.LBB1155:
 4359              		.loc 3 82 0
 4360 067a 0CEB0A0B 		add	fp, ip, sl
 4361              	.LBB1127:
 4362              	.LBB1118:
 4363              	.LBB1109:
 4364              	.LBB1100:
 4365              		.loc 4 35 0
 4366 067e 84EAC804 		eor	r4, r4, r8, lsl #3
 4367              	.LBE1100:
 4368              	.LBE1109:
 4369              	.LBE1118:
 4370              	.LBE1127:
 4371              	.LBE1155:
 4372              	.LBE1170:
 4373              	.LBE1185:
 4374              	.LBE1200:
 4375              		.loc 7 85 0
 4376 0682 1F23     		movs	r3, #31
 4377              	.LBB1201:
 4378              	.LBB1186:
 4379              	.LBB1171:
ARM GAS  C:\Users\Mohamad\AppData\Local\Temp\ccDsqi1j.s 			page 78


 4380              	.LBB1156:
 4381              		.loc 3 76 0
 4382 0684 FE22     		movs	r2, #254
 4383              		.loc 3 77 0
 4384 0686 2021     		movs	r1, #32
 4385              	.LBE1156:
 4386              	.LBE1171:
 4387              	.LBE1186:
 4388              	.LBE1201:
 4389              		.loc 7 85 0
 4390 0688 F371     		strb	r3, [r6, #7]
 4391              	.LVL188:
 4392              	.LBB1202:
 4393              	.LBB1187:
 4394              	.LBB1172:
 4395              	.LBB1157:
 4396              		.loc 3 76 0
 4397 068a B270     		strb	r2, [r6, #2]
 4398              		.loc 3 77 0
 4399 068c F170     		strb	r1, [r6, #3]
 4400              		.loc 3 78 0
 4401 068e 86F805A0 		strb	sl, [r6, #5]
 4402              		.loc 3 79 0
 4403 0692 86F806A0 		strb	sl, [r6, #6]
 4404              	.LVL189:
 4405              		.loc 3 81 0
 4406 0696 86F804C0 		strb	ip, [r6, #4]
 4407              	.LVL190:
 4408              		.loc 3 82 0
 4409 069a 89F806B0 		strb	fp, [r9, #6]
 4410              	.LVL191:
 4411              		.loc 3 83 0
 4412 069e 25F8084B 		strh	r4, [r5], #8	@ movhi
 4413              	.LVL192:
 4414 06a2 06F12800 		add	r0, r6, #40
 4415              	.LVL193:
 4416              	.L58:
 4417              	.LBB1128:
 4418              	.LBB1129:
 4419              		.loc 4 82 0
 4420 06a6 2B46     		mov	r3, r5
 4421              	.LBB1130:
 4422              	.LBB1131:
 4423              		.loc 4 35 0
 4424 06a8 210A     		lsrs	r1, r4, #8
 4425              	.LBE1131:
 4426              	.LBE1130:
 4427              		.loc 4 82 0
 4428 06aa 13F8012B 		ldrb	r2, [r3], #1	@ zero_extendqisi2
 4429              	.LVL194:
 4430              	.LBB1136:
 4431              	.LBB1132:
 4432              		.loc 4 35 0
 4433 06ae DFF8A0C0 		ldr	ip, .L91+4
 4434              		.loc 4 33 0
 4435 06b2 5440     		eors	r4, r4, r2
 4436              	.LVL195:
ARM GAS  C:\Users\Mohamad\AppData\Local\Temp\ccDsqi1j.s 			page 79


 4437              		.loc 4 34 0
 4438 06b4 84EA0412 		eor	r2, r4, r4, lsl #4
 4439 06b8 D4B2     		uxtb	r4, r2
 4440              	.LVL196:
 4441              		.loc 4 35 0
 4442 06ba 81EA1411 		eor	r1, r1, r4, lsr #4
 4443 06be 41EA0422 		orr	r2, r1, r4, lsl #8
 4444              	.LVL197:
 4445 06c2 82EAC404 		eor	r4, r2, r4, lsl #3
 4446              	.LVL198:
 4447 06c6 3480     		strh	r4, [r6, #0]	@ movhi
 4448              	.LBE1132:
 4449              	.LBE1136:
 4450              		.loc 4 82 0
 4451 06c8 6D78     		ldrb	r5, [r5, #1]	@ zero_extendqisi2
 4452              	.LVL199:
 4453              	.LBB1137:
 4454              	.LBB1133:
 4455              		.loc 4 33 0
 4456 06ca 6540     		eors	r5, r5, r4
 4457              		.loc 4 34 0
 4458 06cc 85EA0511 		eor	r1, r5, r5, lsl #4
 4459 06d0 CAB2     		uxtb	r2, r1
 4460              		.loc 4 35 0
 4461 06d2 240A     		lsrs	r4, r4, #8
 4462 06d4 84EA1215 		eor	r5, r4, r2, lsr #4
 4463 06d8 45EA0221 		orr	r1, r5, r2, lsl #8
 4464              	.LBE1133:
 4465              	.LBE1137:
 4466              		.loc 4 82 0
 4467 06dc 5D1C     		adds	r5, r3, #1
 4468              	.LVL200:
 4469              	.LBB1138:
 4470              	.LBB1134:
 4471              		.loc 4 35 0
 4472 06de 81EAC204 		eor	r4, r1, r2, lsl #3
 4473              	.LBE1134:
 4474              	.LBE1138:
 4475              		.loc 4 81 0
 4476 06e2 8542     		cmp	r5, r0
 4477              	.LBB1139:
 4478              	.LBB1135:
 4479              		.loc 4 35 0
 4480 06e4 3480     		strh	r4, [r6, #0]	@ movhi
 4481              	.LBE1135:
 4482              	.LBE1139:
 4483              		.loc 4 81 0
 4484 06e6 DED1     		bne	.L58
 4485              	.LVL201:
 4486              		.loc 4 33 0
 4487 06e8 84F0F606 		eor	r6, r4, #246
 4488              	.LVL202:
 4489              	.LBE1129:
 4490              	.LBE1128:
 4491              	.LBB1140:
 4492              	.LBB1141:
 4493              		.loc 4 34 0
ARM GAS  C:\Users\Mohamad\AppData\Local\Temp\ccDsqi1j.s 			page 80


 4494 06ec 86EA0610 		eor	r0, r6, r6, lsl #4
 4495 06f0 C3B2     		uxtb	r3, r0
 4496              	.LVL203:
 4497              		.loc 4 35 0
 4498 06f2 220A     		lsrs	r2, r4, #8
 4499 06f4 82EA1311 		eor	r1, r2, r3, lsr #4
 4500 06f8 81EA0325 		eor	r5, r1, r3, lsl #8
 4501              	.LVL204:
 4502 06fc 85EAC306 		eor	r6, r5, r3, lsl #3
 4503              	.LBE1141:
 4504              	.LBE1140:
 4505              	.LBE1157:
 4506              	.LBE1172:
 4507              	.LBE1187:
 4508              	.LBE1202:
 4509              	.LBE1207:
 4510              	.LBE1212:
 4511              	.LBB1213:
 4512              	.LBB1214:
 4513              		.loc 3 176 0
 4514 0700 9CF80390 		ldrb	r9, [ip, #3]	@ zero_extendqisi2
 4515              		.loc 1 252 0
 4516 0704 134C     		ldr	r4, .L91+8
 4517              	.LBE1214:
 4518              	.LBE1213:
 4519              	.LBB1220:
 4520              	.LBB1208:
 4521              	.LBB1203:
 4522              	.LBB1188:
 4523              	.LBB1173:
 4524              	.LBB1158:
 4525              	.LBB1144:
 4526              	.LBB1142:
 4527              		.loc 4 35 0
 4528 0706 B6B2     		uxth	r6, r6
 4529 0708 B3B2     		uxth	r3, r6
 4530              	.LBE1142:
 4531              	.LBE1144:
 4532              		.loc 3 89 0
 4533 070a 4FEA1328 		lsr	r8, r3, #8
 4534              	.LVL205:
 4535              	.LBE1158:
 4536              	.LBE1173:
 4537              	.LBE1188:
 4538              	.LBE1203:
 4539              	.LBE1208:
 4540              	.LBE1220:
 4541              	.LBB1221:
 4542              	.LBB1215:
 4543              		.loc 3 176 0
 4544 070e 09F10605 		add	r5, r9, #6
 4545 0712 0CF10201 		add	r1, ip, #2
 4546              	.LBE1215:
 4547              	.LBE1221:
 4548              	.LBB1222:
 4549              	.LBB1209:
 4550              	.LBB1204:
ARM GAS  C:\Users\Mohamad\AppData\Local\Temp\ccDsqi1j.s 			page 81


 4551              	.LBB1189:
 4552              	.LBB1174:
 4553              	.LBB1159:
 4554              	.LBB1145:
 4555              	.LBB1143:
 4556              		.loc 4 35 0
 4557 0716 ACF80030 		strh	r3, [ip, #0]	@ movhi
 4558              	.LBE1143:
 4559              	.LBE1145:
 4560              	.LBE1159:
 4561              	.LBE1174:
 4562              	.LBE1189:
 4563              	.LBE1204:
 4564              	.LBE1209:
 4565              	.LBE1222:
 4566              	.LBB1223:
 4567              	.LBB1216:
 4568              		.loc 3 176 0
 4569 071a 2A46     		mov	r2, r5
 4570              	.LBE1216:
 4571              	.LBE1223:
 4572              	.LBB1224:
 4573              	.LBB1210:
 4574              	.LBB1205:
 4575              	.LBB1190:
 4576              	.LBB1175:
 4577              	.LBB1160:
 4578              		.loc 3 88 0
 4579 071c 8CF82860 		strb	r6, [ip, #40]
 4580              		.loc 3 89 0
 4581 0720 8CF82980 		strb	r8, [ip, #41]
 4582              	.LVL206:
 4583              	.LBE1160:
 4584              	.LBE1175:
 4585              	.LBE1190:
 4586              	.LBE1205:
 4587              	.LBE1210:
 4588              	.LBE1224:
 4589              	.LBB1225:
 4590              	.LBB1217:
 4591              		.loc 3 176 0
 4592 0724 2046     		mov	r0, r4
 4593              	.LVL207:
 4594 0726 FFF7FEFF 		bl	memcpy
 4595              	.LVL208:
 4596              		.loc 3 178 0
 4597 072a 6319     		adds	r3, r4, r5
 4598              	.LVL209:
 4599              	.LBE1217:
 4600              	.LBE1225:
 4601              		.loc 1 245 0
 4602 072c 0A48     		ldr	r0, .L91+12
 4603              	.LBB1226:
 4604              	.LBB1218:
 4605              		.loc 3 180 0
 4606 072e 6655     		strb	r6, [r4, r5]
 4607              	.LBE1218:
ARM GAS  C:\Users\Mohamad\AppData\Local\Temp\ccDsqi1j.s 			page 82


 4608              	.LBE1226:
 4609              		.loc 1 245 0
 4610 0730 09F10801 		add	r1, r9, #8
 4611 0734 2246     		mov	r2, r4
 4612              	.LBB1227:
 4613              	.LBB1219:
 4614              		.loc 3 181 0
 4615 0736 83F80180 		strb	r8, [r3, #1]
 4616              	.LBE1219:
 4617              	.LBE1227:
 4618              		.loc 1 245 0
 4619 073a FFF7FEFF 		bl	uartStartSendI
 4620              	.LVL210:
 4621              	.LBE1228:
 4622              	.LBE1229:
 4623              		.loc 1 220 0
 4624 073e 0749     		ldr	r1, .L91+16
 4625              		.loc 1 219 0
 4626 0740 0020     		movs	r0, #0
 4627              		.loc 1 220 0
 4628 0742 0122     		movs	r2, #1
 4629              		.loc 1 219 0
 4630 0744 3870     		strb	r0, [r7, #0]
 4631              		.loc 1 220 0
 4632 0746 0A70     		strb	r2, [r1, #0]
 4633 0748 6FE4     		b	.L53
 4634              	.L92:
 4635 074a 00BF     		.align	2
 4636              	.L91:
 4637 074c 00000000 		.word	.LANCHOR11
 4638 0750 00000000 		.word	.LANCHOR2
 4639 0754 00000000 		.word	.LANCHOR10
 4640 0758 00000000 		.word	UARTD3
 4641 075c 00000000 		.word	.LANCHOR12
 4642 0760 00000000 		.word	.LANCHOR9
 4643              	.LVL211:
 4644              	.L84:
 4645              		.loc 1 224 0
 4646 0764 4FF00008 		mov	r8, #0
 4647              		.loc 1 225 0
 4648 0768 0427     		movs	r7, #4
 4649 076a 3770     		strb	r7, [r6, #0]
 4650              		.loc 1 224 0
 4651 076c 85F80080 		strb	r8, [r5, #0]
 4652              	.LBB1230:
 4653              	.LBB1231:
 4654              		.loc 1 258 0
 4655 0770 FFF7FEFF 		bl	chCoreStatus
 4656              	.LVL212:
 4657 0774 654E     		ldr	r6, .L93
 4658 0776 664D     		ldr	r5, .L93+4
 4659 0778 664B     		ldr	r3, .L93+8
 4660 077a 674A     		ldr	r2, .L93+12
 4661 077c 3168     		ldr	r1, [r6, #0]	@ float
 4662 077e 1E68     		ldr	r6, [r3, #0]
 4663 0780 0746     		mov	r7, r0
 4664 0782 2868     		ldr	r0, [r5, #0]	@ float
ARM GAS  C:\Users\Mohamad\AppData\Local\Temp\ccDsqi1j.s 			page 83


 4665 0784 1568     		ldr	r5, [r2, #0]
 4666 0786 FFF7FEFF 		bl	__aeabi_fsub
 4667              	.LVL213:
 4668 078a 0021     		movs	r1, #0
 4669 078c C4F27A41 		movt	r1, 17530
 4670 0790 FFF7FEFF 		bl	__aeabi_fmul
 4671              	.LVL214:
 4672 0794 FFF7FEFF 		bl	__aeabi_f2iz
 4673              	.LVL215:
 4674 0798 3497     		str	r7, [sp, #208]
 4675              	.LBB1232:
 4676              	.LBB1233:
 4677              		.loc 2 82 0
 4678 079a 3696     		str	r6, [sp, #216]
 4679              		.loc 2 83 0
 4680 079c 3795     		str	r5, [sp, #220]
 4681              	.LBE1233:
 4682              	.LBE1232:
 4683              		.loc 1 258 0
 4684 079e CDF8D480 		str	r8, [sp, #212]
 4685              	.LBB1290:
 4686              	.LBB1286:
 4687              		.loc 2 92 0
 4688 07a2 34AF     		add	r7, sp, #208
 4689              	.LVL216:
 4690              		.loc 2 84 0
 4691 07a4 3890     		str	r0, [sp, #224]
 4692              		.loc 2 92 0
 4693 07a6 0FCF     		ldmia	r7!, {r0, r1, r2, r3}
 4694              	.LVL217:
 4695 07a8 5C4D     		ldr	r5, .L93+16
 4696              	.LVL218:
 4697              		.loc 2 85 0
 4698 07aa ADF8E480 		strh	r8, [sp, #228]	@ movhi
 4699              		.loc 2 86 0
 4700 07ae ADF8E680 		strh	r8, [sp, #230]	@ movhi
 4701              		.loc 2 87 0
 4702 07b2 ADF8E880 		strh	r8, [sp, #232]	@ movhi
 4703              		.loc 2 88 0
 4704 07b6 ADF8EA80 		strh	r8, [sp, #234]	@ movhi
 4705              		.loc 2 89 0
 4706 07ba 8DF8EC80 		strb	r8, [sp, #236]
 4707              		.loc 2 90 0
 4708 07be 8DF8ED80 		strb	r8, [sp, #237]
 4709              		.loc 2 92 0
 4710 07c2 05F10806 		add	r6, r5, #8
 4711              	.LVL219:
 4712 07c6 0FC6     		stmia	r6!, {r0, r1, r2, r3}
 4713 07c8 97E80F00 		ldmia	r7, {r0, r1, r2, r3}
 4714              	.LVL220:
 4715 07cc 07C6     		stmia	r6!, {r0, r1, r2}
 4716              	.LVL221:
 4717              	.LBB1234:
 4718              	.LBB1235:
 4719              	.LBB1236:
 4720              	.LBB1237:
 4721              		.loc 3 81 0
ARM GAS  C:\Users\Mohamad\AppData\Local\Temp\ccDsqi1j.s 			page 84


 4722 07ce 544F     		ldr	r7, .L93+20
 4723              	.LBE1237:
 4724              	.LBE1236:
 4725              	.LBE1235:
 4726              	.LBE1234:
 4727              		.loc 2 92 0
 4728 07d0 3380     		strh	r3, [r6, #0]	@ movhi
 4729              	.LBB1280:
 4730              	.LBB1274:
 4731              	.LBB1268:
 4732              	.LBB1262:
 4733              		.loc 3 81 0
 4734 07d2 B979     		ldrb	r1, [r7, #6]	@ zero_extendqisi2
 4735              	.LBB1238:
 4736              	.LBB1239:
 4737              	.LBB1240:
 4738              	.LBB1241:
 4739              		.loc 4 33 0
 4740 07d4 81F07800 		eor	r0, r1, #120
 4741              		.loc 4 34 0
 4742 07d8 80EA0013 		eor	r3, r0, r0, lsl #4
 4743 07dc DEB2     		uxtb	r6, r3
 4744              	.LVL222:
 4745              		.loc 4 35 0
 4746 07de 3209     		lsrs	r2, r6, #4
 4747 07e0 82F0F600 		eor	r0, r2, #246
 4748 07e4 40EA0623 		orr	r3, r0, r6, lsl #8
 4749 07e8 83EAC606 		eor	r6, r3, r6, lsl #3
 4750              		.loc 4 33 0
 4751 07ec 86F00102 		eor	r2, r6, #1
 4752              		.loc 4 34 0
 4753 07f0 82EA0210 		eor	r0, r2, r2, lsl #4
 4754 07f4 C3B2     		uxtb	r3, r0
 4755              		.loc 4 35 0
 4756 07f6 360A     		lsrs	r6, r6, #8
 4757 07f8 86EA1312 		eor	r2, r6, r3, lsr #4
 4758 07fc 42EA0320 		orr	r0, r2, r3, lsl #8
 4759 0800 80EAC306 		eor	r6, r0, r3, lsl #3
 4760              		.loc 4 33 0
 4761 0804 86F00103 		eor	r3, r6, #1
 4762              		.loc 4 34 0
 4763 0808 83EA0312 		eor	r2, r3, r3, lsl #4
 4764 080c D0B2     		uxtb	r0, r2
 4765              		.loc 4 35 0
 4766 080e 360A     		lsrs	r6, r6, #8
 4767 0810 86EA1013 		eor	r3, r6, r0, lsr #4
 4768 0814 43EA0022 		orr	r2, r3, r0, lsl #8
 4769 0818 82EAC006 		eor	r6, r2, r0, lsl #3
 4770              		.loc 4 33 0
 4771 081c 86F01800 		eor	r0, r6, #24
 4772              		.loc 4 34 0
 4773 0820 80EA0013 		eor	r3, r0, r0, lsl #4
 4774 0824 D8B2     		uxtb	r0, r3
 4775              		.loc 4 35 0
 4776 0826 320A     		lsrs	r2, r6, #8
 4777 0828 82EA1016 		eor	r6, r2, r0, lsr #4
 4778 082c 46EA0023 		orr	r3, r6, r0, lsl #8
ARM GAS  C:\Users\Mohamad\AppData\Local\Temp\ccDsqi1j.s 			page 85


 4779              	.LBE1241:
 4780              	.LBE1240:
 4781              	.LBE1239:
 4782              	.LBE1238:
 4783              		.loc 3 83 0
 4784 0830 2A46     		mov	r2, r5
 4785              	.LBB1245:
 4786              	.LBB1244:
 4787              	.LBB1243:
 4788              	.LBB1242:
 4789              		.loc 4 35 0
 4790 0832 83EAC003 		eor	r3, r3, r0, lsl #3
 4791              	.LBE1242:
 4792              	.LBE1243:
 4793              	.LBE1244:
 4794              	.LBE1245:
 4795              		.loc 3 78 0
 4796 0836 0120     		movs	r0, #1
 4797              		.loc 3 82 0
 4798 0838 0E18     		adds	r6, r1, r0
 4799              	.LBE1262:
 4800              	.LBE1268:
 4801              	.LBE1274:
 4802              	.LBE1280:
 4803              		.loc 2 95 0
 4804 083a 4FF0180A 		mov	sl, #24
 4805              	.LBB1281:
 4806              	.LBB1275:
 4807              	.LBB1269:
 4808              	.LBB1263:
 4809              		.loc 3 76 0
 4810 083e 4FF0FE09 		mov	r9, #254
 4811              		.loc 3 77 0
 4812 0842 4FF01E0C 		mov	ip, #30
 4813              		.loc 3 83 0
 4814 0846 22F8083B 		strh	r3, [r2], #8	@ movhi
 4815              	.LVL223:
 4816              		.loc 3 82 0
 4817 084a BE71     		strb	r6, [r7, #6]
 4818              	.LBE1263:
 4819              	.LBE1269:
 4820              	.LBE1275:
 4821              	.LBE1281:
 4822              		.loc 2 95 0
 4823 084c 85F807A0 		strb	sl, [r5, #7]
 4824              	.LVL224:
 4825              	.LBB1282:
 4826              	.LBB1276:
 4827              	.LBB1270:
 4828              	.LBB1264:
 4829              		.loc 3 76 0
 4830 0850 85F80290 		strb	r9, [r5, #2]
 4831              		.loc 3 77 0
 4832 0854 85F803C0 		strb	ip, [r5, #3]
 4833              		.loc 3 78 0
 4834 0858 6871     		strb	r0, [r5, #5]
 4835              		.loc 3 79 0
ARM GAS  C:\Users\Mohamad\AppData\Local\Temp\ccDsqi1j.s 			page 86


 4836 085a A871     		strb	r0, [r5, #6]
 4837              	.LVL225:
 4838              		.loc 3 81 0
 4839 085c 2971     		strb	r1, [r5, #4]
 4840              	.LVL226:
 4841 085e 05F12607 		add	r7, r5, #38
 4842              	.LVL227:
 4843              	.L60:
 4844              	.LBB1246:
 4845              	.LBB1247:
 4846              		.loc 4 82 0
 4847 0862 1146     		mov	r1, r2
 4848              	.LBB1248:
 4849              	.LBB1249:
 4850              		.loc 4 35 0
 4851 0864 180A     		lsrs	r0, r3, #8
 4852              	.LBE1249:
 4853              	.LBE1248:
 4854              		.loc 4 82 0
 4855 0866 11F801EB 		ldrb	lr, [r1], #1	@ zero_extendqisi2
 4856              	.LVL228:
 4857              	.LBB1253:
 4858              	.LBB1250:
 4859              		.loc 4 35 0
 4860 086a 2C4E     		ldr	r6, .L93+16
 4861              		.loc 4 33 0
 4862 086c 8EEA0303 		eor	r3, lr, r3
 4863              	.LVL229:
 4864              		.loc 4 34 0
 4865 0870 83EA0313 		eor	r3, r3, r3, lsl #4
 4866              	.LVL230:
 4867 0874 DBB2     		uxtb	r3, r3
 4868              	.LVL231:
 4869              		.loc 4 35 0
 4870 0876 80EA1310 		eor	r0, r0, r3, lsr #4
 4871 087a 40EA0320 		orr	r0, r0, r3, lsl #8
 4872 087e 80EAC303 		eor	r3, r0, r3, lsl #3
 4873              	.LVL232:
 4874 0882 2B80     		strh	r3, [r5, #0]	@ movhi
 4875              	.LBE1250:
 4876              	.LBE1253:
 4877              		.loc 4 82 0
 4878 0884 5278     		ldrb	r2, [r2, #1]	@ zero_extendqisi2
 4879              	.LVL233:
 4880              	.LBB1254:
 4881              	.LBB1251:
 4882              		.loc 4 33 0
 4883 0886 5A40     		eors	r2, r2, r3
 4884              		.loc 4 34 0
 4885 0888 82EA0210 		eor	r0, r2, r2, lsl #4
 4886 088c C2B2     		uxtb	r2, r0
 4887              		.loc 4 35 0
 4888 088e 1B0A     		lsrs	r3, r3, #8
 4889 0890 83EA1210 		eor	r0, r3, r2, lsr #4
 4890 0894 40EA0223 		orr	r3, r0, r2, lsl #8
 4891 0898 83EAC203 		eor	r3, r3, r2, lsl #3
 4892              	.LBE1251:
ARM GAS  C:\Users\Mohamad\AppData\Local\Temp\ccDsqi1j.s 			page 87


 4893              	.LBE1254:
 4894              		.loc 4 82 0
 4895 089c 4A1C     		adds	r2, r1, #1
 4896              	.LVL234:
 4897              		.loc 4 81 0
 4898 089e BA42     		cmp	r2, r7
 4899              	.LBB1255:
 4900              	.LBB1252:
 4901              		.loc 4 35 0
 4902 08a0 2B80     		strh	r3, [r5, #0]	@ movhi
 4903              	.LBE1252:
 4904              	.LBE1255:
 4905              		.loc 4 81 0
 4906 08a2 DED1     		bne	.L60
 4907              	.LVL235:
 4908              		.loc 4 33 0
 4909 08a4 83F01805 		eor	r5, r3, #24
 4910              	.LVL236:
 4911              	.LBE1247:
 4912              	.LBE1246:
 4913              	.LBB1256:
 4914              	.LBB1257:
 4915              		.loc 4 34 0
 4916 08a8 85EA0517 		eor	r7, r5, r5, lsl #4
 4917 08ac F9B2     		uxtb	r1, r7
 4918              	.LVL237:
 4919              		.loc 4 35 0
 4920 08ae 4FEA1328 		lsr	r8, r3, #8
 4921 08b2 88EA1110 		eor	r0, r8, r1, lsr #4
 4922 08b6 80EA0123 		eor	r3, r0, r1, lsl #8
 4923 08ba 83EAC102 		eor	r2, r3, r1, lsl #3
 4924              	.LVL238:
 4925 08be 1FFA82F8 		uxth	r8, r2
 4926              	.LBE1257:
 4927              	.LBE1256:
 4928              	.LBE1264:
 4929              	.LBE1270:
 4930              	.LBE1276:
 4931              	.LBE1282:
 4932              	.LBE1286:
 4933              	.LBE1290:
 4934              	.LBB1291:
 4935              	.LBB1292:
 4936              		.loc 3 176 0
 4937 08c2 96F803A0 		ldrb	sl, [r6, #3]	@ zero_extendqisi2
 4938              		.loc 1 252 0
 4939 08c6 174D     		ldr	r5, .L93+24
 4940              	.LBE1292:
 4941              	.LBE1291:
 4942              	.LBB1298:
 4943              	.LBB1287:
 4944              	.LBB1283:
 4945              	.LBB1277:
 4946              	.LBB1271:
 4947              	.LBB1265:
 4948              		.loc 3 88 0
 4949 08c8 86F82680 		strb	r8, [r6, #38]
ARM GAS  C:\Users\Mohamad\AppData\Local\Temp\ccDsqi1j.s 			page 88


 4950              	.LBB1260:
 4951              	.LBB1258:
 4952              		.loc 4 35 0
 4953 08cc 1FFA88F3 		uxth	r3, r8
 4954              	.LBE1258:
 4955              	.LBE1260:
 4956              		.loc 3 89 0
 4957 08d0 4FEA1329 		lsr	r9, r3, #8
 4958              	.LBE1265:
 4959              	.LBE1271:
 4960              	.LBE1277:
 4961              	.LBE1283:
 4962              	.LBE1287:
 4963              	.LBE1298:
 4964              	.LBB1299:
 4965              	.LBB1293:
 4966              		.loc 3 176 0
 4967 08d4 0AF10607 		add	r7, sl, #6
 4968              	.LVL239:
 4969 08d8 B11C     		adds	r1, r6, #2
 4970              	.LVL240:
 4971 08da 3A46     		mov	r2, r7
 4972              	.LBE1293:
 4973              	.LBE1299:
 4974              	.LBB1300:
 4975              	.LBB1288:
 4976              	.LBB1284:
 4977              	.LBB1278:
 4978              	.LBB1272:
 4979              	.LBB1266:
 4980              	.LBB1261:
 4981              	.LBB1259:
 4982              		.loc 4 35 0
 4983 08dc 3380     		strh	r3, [r6, #0]	@ movhi
 4984              	.LBE1259:
 4985              	.LBE1261:
 4986              	.LBE1266:
 4987              	.LBE1272:
 4988              	.LBE1278:
 4989              	.LBE1284:
 4990              	.LBE1288:
 4991              	.LBE1300:
 4992              	.LBB1301:
 4993              	.LBB1294:
 4994              		.loc 3 176 0
 4995 08de 2846     		mov	r0, r5
 4996              	.LBE1294:
 4997              	.LBE1301:
 4998              	.LBB1302:
 4999              	.LBB1289:
 5000              	.LBB1285:
 5001              	.LBB1279:
 5002              	.LBB1273:
 5003              	.LBB1267:
 5004              		.loc 3 89 0
 5005 08e0 86F82790 		strb	r9, [r6, #39]
 5006              	.LVL241:
ARM GAS  C:\Users\Mohamad\AppData\Local\Temp\ccDsqi1j.s 			page 89


 5007              	.LBE1267:
 5008              	.LBE1273:
 5009              	.LBE1279:
 5010              	.LBE1285:
 5011              	.LBE1289:
 5012              	.LBE1302:
 5013              	.LBB1303:
 5014              	.LBB1295:
 5015              		.loc 3 176 0
 5016 08e4 FFF7FEFF 		bl	memcpy
 5017              	.LVL242:
 5018              		.loc 3 178 0
 5019 08e8 EB19     		adds	r3, r5, r7
 5020              	.LVL243:
 5021              	.LBE1295:
 5022              	.LBE1303:
 5023              		.loc 1 260 0
 5024 08ea 0F48     		ldr	r0, .L93+28
 5025              	.LBB1304:
 5026              	.LBB1296:
 5027              		.loc 3 180 0
 5028 08ec 05F80780 		strb	r8, [r5, r7]
 5029              	.LBE1296:
 5030              	.LBE1304:
 5031              		.loc 1 260 0
 5032 08f0 0AF10801 		add	r1, sl, #8
 5033 08f4 2A46     		mov	r2, r5
 5034              	.LBB1305:
 5035              	.LBB1297:
 5036              		.loc 3 181 0
 5037 08f6 83F80190 		strb	r9, [r3, #1]
 5038              	.LBE1297:
 5039              	.LBE1305:
 5040              		.loc 1 260 0
 5041 08fa FFF7FEFF 		bl	uartStartSendI
 5042              	.LVL244:
 5043              	.LBE1231:
 5044              	.LBE1230:
 5045              		.loc 1 228 0
 5046 08fe 0B4A     		ldr	r2, .L93+32
 5047              		.loc 1 227 0
 5048 0900 0021     		movs	r1, #0
 5049              		.loc 1 228 0
 5050 0902 0120     		movs	r0, #1
 5051              		.loc 1 227 0
 5052 0904 2170     		strb	r1, [r4, #0]
 5053              		.loc 1 228 0
 5054 0906 1070     		strb	r0, [r2, #0]
 5055 0908 FFF78FBB 		b	.L53
 5056              	.L94:
 5057              		.align	2
 5058              	.L93:
 5059 090c 00000000 		.word	Home_Altitude
 5060 0910 00000000 		.word	CurrentAlt
 5061 0914 00000000 		.word	latitude
 5062 0918 00000000 		.word	longitude
 5063 091c 00000000 		.word	.LANCHOR2
ARM GAS  C:\Users\Mohamad\AppData\Local\Temp\ccDsqi1j.s 			page 90


 5064 0920 00000000 		.word	.LANCHOR9
 5065 0924 00000000 		.word	.LANCHOR10
 5066 0928 00000000 		.word	UARTD3
 5067 092c 00000000 		.word	.LANCHOR13
 5068              		.cfi_endproc
 5069              	.LFE1537:
 5070              		.size	check_ready_to_send_params, .-check_ready_to_send_params
 5071              		.section	.text.Send_mavlink_rawImu,"ax",%progbits
 5072              		.align	2
 5073              		.p2align 4,,15
 5074              		.global	Send_mavlink_rawImu
 5075              		.thumb
 5076              		.thumb_func
 5077              		.type	Send_mavlink_rawImu, %function
 5078              	Send_mavlink_rawImu:
 5079              	.LFB1538:
 5080              		.loc 1 242 0
 5081              		.cfi_startproc
 5082              		@ args = 0, pretend = 0, frame = 104
 5083              		@ frame_needed = 0, uses_anonymous_args = 0
 5084 0000 2DE9F047 		push	{r4, r5, r6, r7, r8, r9, sl, lr}
 5085              	.LCFI5:
 5086              		.cfi_def_cfa_offset 32
 5087              		.cfi_offset 4, -32
 5088              		.cfi_offset 5, -28
 5089              		.cfi_offset 6, -24
 5090              		.cfi_offset 7, -20
 5091              		.cfi_offset 8, -16
 5092              		.cfi_offset 9, -12
 5093              		.cfi_offset 10, -8
 5094              		.cfi_offset 14, -4
 5095 0004 9AB0     		sub	sp, sp, #104
 5096              	.LCFI6:
 5097              		.cfi_def_cfa_offset 136
 5098              		.loc 1 243 0
 5099 0006 6846     		mov	r0, sp
 5100 0008 FFF7FEFF 		bl	ins_get_Accel
 5101              	.LVL245:
 5102 000c 03A8     		add	r0, sp, #12
 5103 000e 009E     		ldr	r6, [sp, #0]	@ float
 5104              	.LBB1330:
 5105              	.LBB1331:
 5106              	.LBB1332:
 5107              	.LBB1333:
 5108              	.LBB1334:
 5109              	.LBB1335:
 5110              		.loc 3 81 0
 5111 0010 DFF89081 		ldr	r8, .L99+12
 5112              	.LBE1335:
 5113              	.LBE1334:
 5114              	.LBE1333:
 5115              	.LBE1332:
 5116              	.LBE1331:
 5117              	.LBE1330:
 5118              		.loc 1 243 0
 5119 0014 FFF7FEFF 		bl	ins_get_Accel
 5120              	.LVL246:
ARM GAS  C:\Users\Mohamad\AppData\Local\Temp\ccDsqi1j.s 			page 91


 5121 0018 06A8     		add	r0, sp, #24
 5122 001a 049C     		ldr	r4, [sp, #16]	@ float
 5123 001c FFF7FEFF 		bl	ins_get_Accel
 5124              	.LVL247:
 5125 0020 09A8     		add	r0, sp, #36
 5126 0022 089D     		ldr	r5, [sp, #32]	@ float
 5127 0024 FFF7FEFF 		bl	ins_get_gyro
 5128              	.LVL248:
 5129 0028 0CA8     		add	r0, sp, #48
 5130 002a DDF82490 		ldr	r9, [sp, #36]	@ float
 5131 002e FFF7FEFF 		bl	ins_get_gyro
 5132              	.LVL249:
 5133 0032 0FA8     		add	r0, sp, #60
 5134 0034 0D9F     		ldr	r7, [sp, #52]	@ float
 5135 0036 FFF7FEFF 		bl	ins_get_gyro
 5136              	.LVL250:
 5137              	.LBB1467:
 5138              	.LBB1462:
 5139              	.LBB1446:
 5140              	.LBB1430:
 5141              	.LBB1414:
 5142              	.LBB1398:
 5143              		.loc 3 81 0
 5144 003a 98F806E0 		ldrb	lr, [r8, #6]	@ zero_extendqisi2
 5145              	.LBE1398:
 5146              	.LBE1414:
 5147              	.LBE1430:
 5148              	.LBE1446:
 5149              		.loc 7 74 0
 5150 003e 1396     		str	r6, [sp, #76]	@ float
 5151              	.LBB1447:
 5152              	.LBB1431:
 5153              	.LBB1415:
 5154              	.LBB1399:
 5155              	.LBB1336:
 5156              	.LBB1337:
 5157              	.LBB1338:
 5158              	.LBB1339:
 5159              		.loc 4 33 0
 5160 0040 8EF08503 		eor	r3, lr, #133
 5161              		.loc 4 34 0
 5162 0044 83EA0310 		eor	r0, r3, r3, lsl #4
 5163 0048 C1B2     		uxtb	r1, r0
 5164              		.loc 4 35 0
 5165 004a 0A09     		lsrs	r2, r1, #4
 5166 004c 82F02E06 		eor	r6, r2, #46
 5167              	.LBE1339:
 5168              	.LBE1338:
 5169              	.LBE1337:
 5170              	.LBE1336:
 5171              	.LBE1399:
 5172              	.LBE1415:
 5173              	.LBE1431:
 5174              	.LBE1447:
 5175              		.loc 7 75 0
 5176 0050 1494     		str	r4, [sp, #80]	@ float
 5177              	.LBB1448:
ARM GAS  C:\Users\Mohamad\AppData\Local\Temp\ccDsqi1j.s 			page 92


 5178              	.LBB1432:
 5179              	.LBB1416:
 5180              	.LBB1400:
 5181              	.LBB1370:
 5182              	.LBB1360:
 5183              	.LBB1350:
 5184              	.LBB1340:
 5185              		.loc 4 35 0
 5186 0052 46EA0124 		orr	r4, r6, r1, lsl #8
 5187 0056 84EAC100 		eor	r0, r4, r1, lsl #3
 5188              		.loc 4 33 0
 5189 005a 80F00103 		eor	r3, r0, #1
 5190              		.loc 4 34 0
 5191 005e 83EA0311 		eor	r1, r3, r3, lsl #4
 5192 0062 CAB2     		uxtb	r2, r1
 5193              		.loc 4 35 0
 5194 0064 060A     		lsrs	r6, r0, #8
 5195 0066 86EA1214 		eor	r4, r6, r2, lsr #4
 5196 006a 44EA0220 		orr	r0, r4, r2, lsl #8
 5197 006e 80EAC206 		eor	r6, r0, r2, lsl #3
 5198              	.LBE1340:
 5199              	.LBE1350:
 5200              	.LBE1360:
 5201              	.LBE1370:
 5202              	.LBE1400:
 5203              	.LBE1416:
 5204              	.LBE1432:
 5205              	.LBE1448:
 5206              		.loc 7 73 0
 5207 0072 0023     		movs	r3, #0
 5208              	.LBB1449:
 5209              	.LBB1433:
 5210              	.LBB1417:
 5211              	.LBB1401:
 5212              	.LBB1371:
 5213              	.LBB1361:
 5214              	.LBB1351:
 5215              	.LBB1341:
 5216              		.loc 4 33 0
 5217 0074 86F00101 		eor	r1, r6, #1
 5218              	.LBE1341:
 5219              	.LBE1351:
 5220              	.LBE1361:
 5221              	.LBE1371:
 5222              	.LBE1401:
 5223              	.LBE1417:
 5224              	.LBE1433:
 5225              	.LBE1449:
 5226              		.loc 7 76 0
 5227 0078 1595     		str	r5, [sp, #84]	@ float
 5228              		.loc 7 73 0
 5229 007a 1293     		str	r3, [sp, #72]
 5230              		.loc 7 82 0
 5231 007c 12AD     		add	r5, sp, #72
 5232              	.LBB1450:
 5233              	.LBB1434:
 5234              	.LBB1418:
ARM GAS  C:\Users\Mohamad\AppData\Local\Temp\ccDsqi1j.s 			page 93


 5235              	.LBB1402:
 5236              	.LBB1372:
 5237              	.LBB1362:
 5238              	.LBB1352:
 5239              	.LBB1342:
 5240              		.loc 4 34 0
 5241 007e 81EA0114 		eor	r4, r1, r1, lsl #4
 5242              	.LBE1342:
 5243              	.LBE1352:
 5244              	.LBE1362:
 5245              	.LBE1372:
 5246              	.LBE1402:
 5247              	.LBE1418:
 5248              	.LBE1434:
 5249              	.LBE1450:
 5250              		.loc 7 82 0
 5251 0082 0FCD     		ldmia	r5!, {r0, r1, r2, r3}
 5252              	.LBB1451:
 5253              	.LBB1435:
 5254              	.LBB1419:
 5255              	.LBB1403:
 5256              	.LBB1373:
 5257              	.LBB1363:
 5258              	.LBB1353:
 5259              	.LBB1343:
 5260              		.loc 4 34 0
 5261 0084 E4B2     		uxtb	r4, r4
 5262              		.loc 4 35 0
 5263 0086 360A     		lsrs	r6, r6, #8
 5264 0088 86EA141A 		eor	sl, r6, r4, lsr #4
 5265              	.LBE1343:
 5266              	.LBE1353:
 5267              	.LBE1363:
 5268              	.LBE1373:
 5269              	.LBE1403:
 5270              	.LBE1419:
 5271              	.LBE1435:
 5272              	.LBE1451:
 5273              	.LBE1462:
 5274              	.LBE1467:
 5275              		.loc 1 243 0
 5276 008c DDF844C0 		ldr	ip, [sp, #68]	@ float
 5277              	.LVL251:
 5278              	.LBB1468:
 5279              	.LBB1463:
 5280              		.loc 7 82 0
 5281 0090 414E     		ldr	r6, .L99
 5282              		.loc 7 77 0
 5283 0092 CDF85890 		str	r9, [sp, #88]	@ float
 5284              		.loc 7 78 0
 5285 0096 1797     		str	r7, [sp, #92]	@ float
 5286              	.LBB1452:
 5287              	.LBB1436:
 5288              	.LBB1420:
 5289              	.LBB1404:
 5290              	.LBB1374:
 5291              	.LBB1364:
ARM GAS  C:\Users\Mohamad\AppData\Local\Temp\ccDsqi1j.s 			page 94


 5292              	.LBB1354:
 5293              	.LBB1344:
 5294              		.loc 4 35 0
 5295 0098 4AEA0429 		orr	r9, sl, r4, lsl #8
 5296              	.LVL252:
 5297              	.LBE1344:
 5298              	.LBE1354:
 5299              	.LBE1364:
 5300              	.LBE1374:
 5301              	.LBE1404:
 5302              	.LBE1420:
 5303              	.LBE1436:
 5304              	.LBE1452:
 5305              		.loc 7 80 0
 5306 009c 0027     		movs	r7, #0
 5307              	.LVL253:
 5308              	.LBB1453:
 5309              	.LBB1437:
 5310              	.LBB1421:
 5311              	.LBB1405:
 5312              	.LBB1375:
 5313              	.LBB1365:
 5314              	.LBB1355:
 5315              	.LBB1345:
 5316              		.loc 4 35 0
 5317 009e 89EAC404 		eor	r4, r9, r4, lsl #3
 5318              	.LBE1345:
 5319              	.LBE1355:
 5320              	.LBE1365:
 5321              	.LBE1375:
 5322              	.LBE1405:
 5323              	.LBE1421:
 5324              	.LBE1437:
 5325              	.LBE1453:
 5326              		.loc 7 79 0
 5327 00a2 CDF860C0 		str	ip, [sp, #96]	@ float
 5328              		.loc 7 80 0
 5329 00a6 1997     		str	r7, [sp, #100]	@ float
 5330              		.loc 7 82 0
 5331 00a8 06F10807 		add	r7, r6, #8
 5332              	.LBB1454:
 5333              	.LBB1438:
 5334              	.LBB1422:
 5335              	.LBB1406:
 5336              	.LBB1376:
 5337              	.LBB1366:
 5338              	.LBB1356:
 5339              	.LBB1346:
 5340              		.loc 4 33 0
 5341 00ac 84F01F0A 		eor	sl, r4, #31
 5342              	.LBE1346:
 5343              	.LBE1356:
 5344              	.LBE1366:
 5345              	.LBE1376:
 5346              	.LBE1406:
 5347              	.LBE1422:
 5348              	.LBE1438:
ARM GAS  C:\Users\Mohamad\AppData\Local\Temp\ccDsqi1j.s 			page 95


 5349              	.LBE1454:
 5350              		.loc 7 82 0
 5351 00b0 0FC7     		stmia	r7!, {r0, r1, r2, r3}
 5352 00b2 95E80F00 		ldmia	r5, {r0, r1, r2, r3}
 5353              	.LBB1455:
 5354              	.LBB1439:
 5355              	.LBB1423:
 5356              	.LBB1407:
 5357              	.LBB1377:
 5358              	.LBB1367:
 5359              	.LBB1357:
 5360              	.LBB1347:
 5361              		.loc 4 34 0
 5362 00b6 8AEA0A1C 		eor	ip, sl, sl, lsl #4
 5363              	.LVL254:
 5364 00ba 5FFA8CFC 		uxtb	ip, ip
 5365              		.loc 4 35 0
 5366 00be 250A     		lsrs	r5, r4, #8
 5367 00c0 85EA1C14 		eor	r4, r5, ip, lsr #4
 5368              	.LBE1347:
 5369              	.LBE1357:
 5370              	.LBE1367:
 5371              	.LBE1377:
 5372              		.loc 3 78 0
 5373 00c4 4FF00109 		mov	r9, #1
 5374              	.LBB1378:
 5375              	.LBB1368:
 5376              	.LBB1358:
 5377              	.LBB1348:
 5378              		.loc 4 35 0
 5379 00c8 44EA0C24 		orr	r4, r4, ip, lsl #8
 5380              	.LBE1348:
 5381              	.LBE1358:
 5382              	.LBE1368:
 5383              	.LBE1378:
 5384              		.loc 3 83 0
 5385 00cc 3546     		mov	r5, r6
 5386              	.LBE1407:
 5387              	.LBE1423:
 5388              	.LBE1439:
 5389              	.LBE1455:
 5390              		.loc 7 82 0
 5391 00ce 87E80F00 		stmia	r7, {r0, r1, r2, r3}
 5392              	.LBB1456:
 5393              	.LBB1440:
 5394              	.LBB1424:
 5395              	.LBB1408:
 5396              		.loc 3 82 0
 5397 00d2 0EEB090A 		add	sl, lr, r9
 5398              		.loc 3 76 0
 5399 00d6 FE20     		movs	r0, #254
 5400              	.LBB1379:
 5401              	.LBB1369:
 5402              	.LBB1359:
 5403              	.LBB1349:
 5404              		.loc 4 35 0
 5405 00d8 84EACC04 		eor	r4, r4, ip, lsl #3
ARM GAS  C:\Users\Mohamad\AppData\Local\Temp\ccDsqi1j.s 			page 96


 5406              	.LBE1349:
 5407              	.LBE1359:
 5408              	.LBE1369:
 5409              	.LBE1379:
 5410              	.LBE1408:
 5411              	.LBE1424:
 5412              	.LBE1440:
 5413              	.LBE1456:
 5414              		.loc 7 85 0
 5415 00dc 1F22     		movs	r2, #31
 5416              	.LBB1457:
 5417              	.LBB1441:
 5418              	.LBB1425:
 5419              	.LBB1409:
 5420              		.loc 3 77 0
 5421 00de 2021     		movs	r1, #32
 5422              		.loc 3 76 0
 5423 00e0 B070     		strb	r0, [r6, #2]
 5424              	.LBE1409:
 5425              	.LBE1425:
 5426              	.LBE1441:
 5427              	.LBE1457:
 5428              		.loc 7 85 0
 5429 00e2 F271     		strb	r2, [r6, #7]
 5430              	.LVL255:
 5431              	.LBB1458:
 5432              	.LBB1442:
 5433              	.LBB1426:
 5434              	.LBB1410:
 5435              		.loc 3 77 0
 5436 00e4 F170     		strb	r1, [r6, #3]
 5437              		.loc 3 78 0
 5438 00e6 86F80590 		strb	r9, [r6, #5]
 5439              		.loc 3 79 0
 5440 00ea 86F80690 		strb	r9, [r6, #6]
 5441              	.LVL256:
 5442              		.loc 3 81 0
 5443 00ee 86F804E0 		strb	lr, [r6, #4]
 5444              	.LVL257:
 5445              		.loc 3 82 0
 5446 00f2 88F806A0 		strb	sl, [r8, #6]
 5447              	.LVL258:
 5448              		.loc 3 83 0
 5449 00f6 25F8084B 		strh	r4, [r5], #8	@ movhi
 5450              	.LVL259:
 5451 00fa 06F12800 		add	r0, r6, #40
 5452              	.LVL260:
 5453              	.L96:
 5454              	.LBB1380:
 5455              	.LBB1381:
 5456              		.loc 4 82 0
 5457 00fe 2B46     		mov	r3, r5
 5458              	.LBB1382:
 5459              	.LBB1383:
 5460              		.loc 4 35 0
 5461 0100 210A     		lsrs	r1, r4, #8
 5462              	.LBE1383:
ARM GAS  C:\Users\Mohamad\AppData\Local\Temp\ccDsqi1j.s 			page 97


 5463              	.LBE1382:
 5464              		.loc 4 82 0
 5465 0102 13F8012B 		ldrb	r2, [r3], #1	@ zero_extendqisi2
 5466              	.LVL261:
 5467              	.LBB1388:
 5468              	.LBB1384:
 5469              		.loc 4 35 0
 5470 0106 244F     		ldr	r7, .L99
 5471              		.loc 4 33 0
 5472 0108 5440     		eors	r4, r4, r2
 5473              	.LVL262:
 5474              		.loc 4 34 0
 5475 010a 84EA0412 		eor	r2, r4, r4, lsl #4
 5476 010e D4B2     		uxtb	r4, r2
 5477              	.LVL263:
 5478              		.loc 4 35 0
 5479 0110 81EA1411 		eor	r1, r1, r4, lsr #4
 5480 0114 41EA0422 		orr	r2, r1, r4, lsl #8
 5481              	.LVL264:
 5482 0118 82EAC404 		eor	r4, r2, r4, lsl #3
 5483              	.LVL265:
 5484 011c 3480     		strh	r4, [r6, #0]	@ movhi
 5485              	.LBE1384:
 5486              	.LBE1388:
 5487              		.loc 4 82 0
 5488 011e 6D78     		ldrb	r5, [r5, #1]	@ zero_extendqisi2
 5489              	.LVL266:
 5490              	.LBB1389:
 5491              	.LBB1385:
 5492              		.loc 4 33 0
 5493 0120 6540     		eors	r5, r5, r4
 5494              		.loc 4 34 0
 5495 0122 85EA0511 		eor	r1, r5, r5, lsl #4
 5496 0126 CAB2     		uxtb	r2, r1
 5497              		.loc 4 35 0
 5498 0128 240A     		lsrs	r4, r4, #8
 5499 012a 84EA1215 		eor	r5, r4, r2, lsr #4
 5500 012e 45EA0221 		orr	r1, r5, r2, lsl #8
 5501              	.LBE1385:
 5502              	.LBE1389:
 5503              		.loc 4 82 0
 5504 0132 5D1C     		adds	r5, r3, #1
 5505              	.LVL267:
 5506              	.LBB1390:
 5507              	.LBB1386:
 5508              		.loc 4 35 0
 5509 0134 81EAC204 		eor	r4, r1, r2, lsl #3
 5510              	.LBE1386:
 5511              	.LBE1390:
 5512              		.loc 4 81 0
 5513 0138 8542     		cmp	r5, r0
 5514              	.LBB1391:
 5515              	.LBB1387:
 5516              		.loc 4 35 0
 5517 013a 3480     		strh	r4, [r6, #0]	@ movhi
 5518              	.LBE1387:
 5519              	.LBE1391:
ARM GAS  C:\Users\Mohamad\AppData\Local\Temp\ccDsqi1j.s 			page 98


 5520              		.loc 4 81 0
 5521 013c DFD1     		bne	.L96
 5522              	.LVL268:
 5523              		.loc 4 33 0
 5524 013e 84F0F606 		eor	r6, r4, #246
 5525              	.LVL269:
 5526              	.LBE1381:
 5527              	.LBE1380:
 5528              	.LBB1392:
 5529              	.LBB1393:
 5530              		.loc 4 34 0
 5531 0142 86EA0610 		eor	r0, r6, r6, lsl #4
 5532 0146 C3B2     		uxtb	r3, r0
 5533              	.LVL270:
 5534              		.loc 4 35 0
 5535 0148 220A     		lsrs	r2, r4, #8
 5536 014a 82EA1311 		eor	r1, r2, r3, lsr #4
 5537 014e 81EA0324 		eor	r4, r1, r3, lsl #8
 5538 0152 84EAC306 		eor	r6, r4, r3, lsl #3
 5539              	.LBE1393:
 5540              	.LBE1392:
 5541              	.LBE1410:
 5542              	.LBE1426:
 5543              	.LBE1442:
 5544              	.LBE1458:
 5545              	.LBE1463:
 5546              	.LBE1468:
 5547              	.LBB1469:
 5548              	.LBB1470:
 5549              		.loc 3 176 0
 5550 0156 97F80390 		ldrb	r9, [r7, #3]	@ zero_extendqisi2
 5551              		.loc 1 252 0
 5552 015a 104D     		ldr	r5, .L99+4
 5553              	.LVL271:
 5554              	.LBE1470:
 5555              	.LBE1469:
 5556              	.LBB1476:
 5557              	.LBB1464:
 5558              	.LBB1459:
 5559              	.LBB1443:
 5560              	.LBB1427:
 5561              	.LBB1411:
 5562              	.LBB1396:
 5563              	.LBB1394:
 5564              		.loc 4 35 0
 5565 015c B6B2     		uxth	r6, r6
 5566 015e B3B2     		uxth	r3, r6
 5567              	.LBE1394:
 5568              	.LBE1396:
 5569              		.loc 3 89 0
 5570 0160 4FEA1328 		lsr	r8, r3, #8
 5571              	.LBE1411:
 5572              	.LBE1427:
 5573              	.LBE1443:
 5574              	.LBE1459:
 5575              	.LBE1464:
 5576              	.LBE1476:
ARM GAS  C:\Users\Mohamad\AppData\Local\Temp\ccDsqi1j.s 			page 99


 5577              	.LBB1477:
 5578              	.LBB1471:
 5579              		.loc 3 176 0
 5580 0164 09F10604 		add	r4, r9, #6
 5581 0168 B91C     		adds	r1, r7, #2
 5582 016a 2246     		mov	r2, r4
 5583              	.LBE1471:
 5584              	.LBE1477:
 5585              	.LBB1478:
 5586              	.LBB1465:
 5587              	.LBB1460:
 5588              	.LBB1444:
 5589              	.LBB1428:
 5590              	.LBB1412:
 5591              	.LBB1397:
 5592              	.LBB1395:
 5593              		.loc 4 35 0
 5594 016c 3B80     		strh	r3, [r7, #0]	@ movhi
 5595              	.LBE1395:
 5596              	.LBE1397:
 5597              	.LBE1412:
 5598              	.LBE1428:
 5599              	.LBE1444:
 5600              	.LBE1460:
 5601              	.LBE1465:
 5602              	.LBE1478:
 5603              	.LBB1479:
 5604              	.LBB1472:
 5605              		.loc 3 176 0
 5606 016e 2846     		mov	r0, r5
 5607              	.LVL272:
 5608              	.LBE1472:
 5609              	.LBE1479:
 5610              	.LBB1480:
 5611              	.LBB1466:
 5612              	.LBB1461:
 5613              	.LBB1445:
 5614              	.LBB1429:
 5615              	.LBB1413:
 5616              		.loc 3 88 0
 5617 0170 87F82860 		strb	r6, [r7, #40]
 5618              		.loc 3 89 0
 5619 0174 87F82980 		strb	r8, [r7, #41]
 5620              	.LVL273:
 5621              	.LBE1413:
 5622              	.LBE1429:
 5623              	.LBE1445:
 5624              	.LBE1461:
 5625              	.LBE1466:
 5626              	.LBE1480:
 5627              	.LBB1481:
 5628              	.LBB1473:
 5629              		.loc 3 176 0
 5630 0178 FFF7FEFF 		bl	memcpy
 5631              	.LVL274:
 5632              		.loc 3 178 0
 5633 017c 2B19     		adds	r3, r5, r4
ARM GAS  C:\Users\Mohamad\AppData\Local\Temp\ccDsqi1j.s 			page 100


 5634              	.LVL275:
 5635              	.LBE1473:
 5636              	.LBE1481:
 5637              		.loc 1 245 0
 5638 017e 0848     		ldr	r0, .L99+8
 5639              	.LBB1482:
 5640              	.LBB1474:
 5641              		.loc 3 180 0
 5642 0180 2E55     		strb	r6, [r5, r4]
 5643              	.LBE1474:
 5644              	.LBE1482:
 5645              		.loc 1 245 0
 5646 0182 09F10801 		add	r1, r9, #8
 5647 0186 2A46     		mov	r2, r5
 5648              	.LBB1483:
 5649              	.LBB1475:
 5650              		.loc 3 181 0
 5651 0188 83F80180 		strb	r8, [r3, #1]
 5652              	.LBE1475:
 5653              	.LBE1483:
 5654              		.loc 1 246 0
 5655 018c 1AB0     		add	sp, sp, #104
 5656 018e BDE8F047 		pop	{r4, r5, r6, r7, r8, r9, sl, lr}
 5657              		.loc 1 245 0
 5658 0192 FFF7FEBF 		b	uartStartSendI
 5659              	.LVL276:
 5660              	.L100:
 5661 0196 00BF     		.align	2
 5662              	.L99:
 5663 0198 00000000 		.word	.LANCHOR2
 5664 019c 00000000 		.word	.LANCHOR10
 5665 01a0 00000000 		.word	UARTD3
 5666 01a4 00000000 		.word	.LANCHOR9
 5667              		.cfi_endproc
 5668              	.LFE1538:
 5669              		.size	Send_mavlink_rawImu, .-Send_mavlink_rawImu
 5670 01a8 AFF30080 		.section	.text.Send_mavlink_Attitude,"ax",%progbits
 5670      AFF30080 
 5671              		.align	2
 5672              		.p2align 4,,15
 5673              		.global	Send_mavlink_Attitude
 5674              		.thumb
 5675              		.thumb_func
 5676              		.type	Send_mavlink_Attitude, %function
 5677              	Send_mavlink_Attitude:
 5678              	.LFB1539:
 5679              		.loc 1 249 0
 5680              		.cfi_startproc
 5681              		@ args = 0, pretend = 0, frame = 64
 5682              		@ frame_needed = 0, uses_anonymous_args = 0
 5683 0000 2DE9F04F 		push	{r4, r5, r6, r7, r8, r9, sl, fp, lr}
 5684              	.LCFI7:
 5685              		.cfi_def_cfa_offset 36
 5686              		.cfi_offset 4, -36
 5687              		.cfi_offset 5, -32
 5688              		.cfi_offset 6, -28
 5689              		.cfi_offset 7, -24
ARM GAS  C:\Users\Mohamad\AppData\Local\Temp\ccDsqi1j.s 			page 101


 5690              		.cfi_offset 8, -20
 5691              		.cfi_offset 9, -16
 5692              		.cfi_offset 10, -12
 5693              		.cfi_offset 11, -8
 5694              		.cfi_offset 14, -4
 5695              		.loc 1 251 0
 5696 0004 724B     		ldr	r3, .L105+8
 5697 0006 7349     		ldr	r1, .L105+12
 5698 0008 1868     		ldr	r0, [r3, #0]	@ float
 5699 000a CE68     		ldr	r6, [r1, #12]
 5700              	.LBB1508:
 5701              	.LBB1509:
 5702              	.LBB1510:
 5703              	.LBB1511:
 5704              	.LBB1512:
 5705              	.LBB1513:
 5706              		.loc 3 81 0
 5707 000c DFF8DC81 		ldr	r8, .L105+36
 5708              	.LBE1513:
 5709              	.LBE1512:
 5710              	.LBE1511:
 5711              	.LBE1510:
 5712              	.LBE1509:
 5713              	.LBE1508:
 5714              		.loc 1 249 0
 5715 0010 91B0     		sub	sp, sp, #68
 5716              	.LCFI8:
 5717              		.cfi_def_cfa_offset 104
 5718              		.loc 1 251 0
 5719 0012 FFF7FEFF 		bl	__aeabi_f2d
 5720              	.LVL277:
 5721 0016 6CA3     		adr	r3, .L105
 5722 0018 D3E90023 		ldrd	r2, [r3]
 5723 001c FFF7FEFF 		bl	__aeabi_dmul
 5724              	.LVL278:
 5725 0020 FFF7FEFF 		bl	__aeabi_d2f
 5726              	.LVL279:
 5727 0024 8346     		mov	fp, r0
 5728 0026 6C48     		ldr	r0, .L105+16
 5729 0028 0068     		ldr	r0, [r0, #0]	@ float
 5730 002a FFF7FEFF 		bl	__aeabi_f2d
 5731              	.LVL280:
 5732 002e 66A3     		adr	r3, .L105
 5733 0030 D3E90023 		ldrd	r2, [r3]
 5734 0034 FFF7FEFF 		bl	__aeabi_dmul
 5735              	.LVL281:
 5736 0038 FFF7FEFF 		bl	__aeabi_d2f
 5737              	.LVL282:
 5738 003c 674A     		ldr	r2, .L105+20
 5739 003e 0446     		mov	r4, r0
 5740 0040 1068     		ldr	r0, [r2, #0]	@ float
 5741 0042 FFF7FEFF 		bl	__aeabi_f2d
 5742              	.LVL283:
 5743 0046 60A3     		adr	r3, .L105
 5744 0048 D3E90023 		ldrd	r2, [r3]
 5745 004c FFF7FEFF 		bl	__aeabi_dmul
 5746              	.LVL284:
ARM GAS  C:\Users\Mohamad\AppData\Local\Temp\ccDsqi1j.s 			page 102


 5747 0050 FFF7FEFF 		bl	__aeabi_d2f
 5748              	.LVL285:
 5749 0054 0546     		mov	r5, r0
 5750 0056 6846     		mov	r0, sp
 5751 0058 FFF7FEFF 		bl	ins_get_Gyro_drift
 5752              	.LVL286:
 5753 005c 03A8     		add	r0, sp, #12
 5754 005e DDF800A0 		ldr	sl, [sp, #0]	@ float
 5755 0062 FFF7FEFF 		bl	ins_get_Gyro_drift
 5756              	.LVL287:
 5757 0066 06A8     		add	r0, sp, #24
 5758 0068 DDF81090 		ldr	r9, [sp, #16]	@ float
 5759 006c FFF7FEFF 		bl	ins_get_Gyro_drift
 5760              	.LVL288:
 5761              	.LBB1625:
 5762              	.LBB1620:
 5763              	.LBB1606:
 5764              	.LBB1592:
 5765              	.LBB1578:
 5766              	.LBB1564:
 5767              		.loc 3 81 0
 5768 0070 98F80670 		ldrb	r7, [r8, #6]	@ zero_extendqisi2
 5769              	.LBE1564:
 5770              	.LBE1578:
 5771              	.LBE1592:
 5772              	.LBE1606:
 5773              		.loc 6 69 0
 5774 0074 0996     		str	r6, [sp, #36]
 5775              	.LBB1607:
 5776              	.LBB1593:
 5777              	.LBB1579:
 5778              	.LBB1565:
 5779              	.LBB1514:
 5780              	.LBB1515:
 5781              	.LBB1516:
 5782              	.LBB1517:
 5783              		.loc 4 33 0
 5784 0076 87F06A03 		eor	r3, r7, #106
 5785              		.loc 4 34 0
 5786 007a 83EA0311 		eor	r1, r3, r3, lsl #4
 5787 007e CEB2     		uxtb	r6, r1
 5788              		.loc 4 35 0
 5789 0080 3009     		lsrs	r0, r6, #4
 5790 0082 80F0D502 		eor	r2, r0, #213
 5791 0086 42EA0623 		orr	r3, r2, r6, lsl #8
 5792 008a 83EAC601 		eor	r1, r3, r6, lsl #3
 5793              		.loc 4 33 0
 5794 008e 81F00106 		eor	r6, r1, #1
 5795              		.loc 4 34 0
 5796 0092 86EA0610 		eor	r0, r6, r6, lsl #4
 5797 0096 C2B2     		uxtb	r2, r0
 5798              		.loc 4 35 0
 5799 0098 0B0A     		lsrs	r3, r1, #8
 5800 009a 83EA1211 		eor	r1, r3, r2, lsr #4
 5801 009e 41EA0226 		orr	r6, r1, r2, lsl #8
 5802 00a2 86EAC206 		eor	r6, r6, r2, lsl #3
 5803              	.LBE1517:
ARM GAS  C:\Users\Mohamad\AppData\Local\Temp\ccDsqi1j.s 			page 103


 5804              	.LBE1516:
 5805              	.LBE1515:
 5806              	.LBE1514:
 5807              	.LBE1565:
 5808              	.LBE1579:
 5809              	.LBE1593:
 5810              	.LBE1607:
 5811              		.loc 6 71 0
 5812 00a6 0B94     		str	r4, [sp, #44]	@ float
 5813              		.loc 6 72 0
 5814 00a8 0C95     		str	r5, [sp, #48]	@ float
 5815              		.loc 6 70 0
 5816 00aa CDF828B0 		str	fp, [sp, #40]	@ float
 5817              		.loc 6 77 0
 5818 00ae 09AC     		add	r4, sp, #36
 5819 00b0 0FCC     		ldmia	r4!, {r0, r1, r2, r3}
 5820              	.LBB1608:
 5821              	.LBB1594:
 5822              	.LBB1580:
 5823              	.LBB1566:
 5824              	.LBB1539:
 5825              	.LBB1532:
 5826              	.LBB1525:
 5827              	.LBB1518:
 5828              		.loc 4 33 0
 5829 00b2 86F0010E 		eor	lr, r6, #1
 5830              		.loc 4 34 0
 5831 00b6 8EEA0E1E 		eor	lr, lr, lr, lsl #4
 5832              	.LBE1518:
 5833              	.LBE1525:
 5834              	.LBE1532:
 5835              	.LBE1539:
 5836              	.LBE1566:
 5837              	.LBE1580:
 5838              	.LBE1594:
 5839              	.LBE1608:
 5840              		.loc 6 77 0
 5841 00ba 494D     		ldr	r5, .L105+24
 5842              		.loc 6 73 0
 5843 00bc CDF834A0 		str	sl, [sp, #52]	@ float
 5844              	.LBB1609:
 5845              	.LBB1595:
 5846              	.LBB1581:
 5847              	.LBB1567:
 5848              	.LBB1540:
 5849              	.LBB1533:
 5850              	.LBB1526:
 5851              	.LBB1519:
 5852              		.loc 4 34 0
 5853 00c0 5FFA8EFE 		uxtb	lr, lr
 5854              		.loc 4 35 0
 5855 00c4 4FEA162A 		lsr	sl, r6, #8
 5856              	.LBE1519:
 5857              	.LBE1526:
 5858              	.LBE1533:
 5859              	.LBE1540:
 5860              	.LBE1567:
ARM GAS  C:\Users\Mohamad\AppData\Local\Temp\ccDsqi1j.s 			page 104


 5861              	.LBE1581:
 5862              	.LBE1595:
 5863              	.LBE1609:
 5864              	.LBE1620:
 5865              	.LBE1625:
 5866              		.loc 1 251 0
 5867 00c8 DDF820C0 		ldr	ip, [sp, #32]	@ float
 5868              	.LVL289:
 5869              	.LBB1626:
 5870              	.LBB1621:
 5871              		.loc 6 74 0
 5872 00cc CDF83890 		str	r9, [sp, #56]	@ float
 5873              	.LBB1610:
 5874              	.LBB1596:
 5875              	.LBB1582:
 5876              	.LBB1568:
 5877              	.LBB1541:
 5878              	.LBB1534:
 5879              	.LBB1527:
 5880              	.LBB1520:
 5881              		.loc 4 35 0
 5882 00d0 8AEA1E1A 		eor	sl, sl, lr, lsr #4
 5883              	.LBE1520:
 5884              	.LBE1527:
 5885              	.LBE1534:
 5886              	.LBE1541:
 5887              	.LBE1568:
 5888              	.LBE1582:
 5889              	.LBE1596:
 5890              	.LBE1610:
 5891              		.loc 6 77 0
 5892 00d4 05F10806 		add	r6, r5, #8
 5893              	.LBB1611:
 5894              	.LBB1597:
 5895              	.LBB1583:
 5896              	.LBB1569:
 5897              	.LBB1542:
 5898              	.LBB1535:
 5899              	.LBB1528:
 5900              	.LBB1521:
 5901              		.loc 4 35 0
 5902 00d8 4AEA0E2A 		orr	sl, sl, lr, lsl #8
 5903              	.LBE1521:
 5904              	.LBE1528:
 5905              	.LBE1535:
 5906              	.LBE1542:
 5907              	.LBE1569:
 5908              	.LBE1583:
 5909              	.LBE1597:
 5910              	.LBE1611:
 5911              		.loc 6 77 0
 5912 00dc 0FC6     		stmia	r6!, {r0, r1, r2, r3}
 5913              		.loc 6 75 0
 5914 00de CDF83CC0 		str	ip, [sp, #60]	@ float
 5915              	.LBB1612:
 5916              	.LBB1598:
 5917              	.LBB1584:
ARM GAS  C:\Users\Mohamad\AppData\Local\Temp\ccDsqi1j.s 			page 105


 5918              	.LBB1570:
 5919              	.LBB1543:
 5920              	.LBB1536:
 5921              	.LBB1529:
 5922              	.LBB1522:
 5923              		.loc 4 35 0
 5924 00e2 8AEACE03 		eor	r3, sl, lr, lsl #3
 5925              	.LBE1522:
 5926              	.LBE1529:
 5927              	.LBE1536:
 5928              	.LBE1543:
 5929              	.LBE1570:
 5930              	.LBE1584:
 5931              	.LBE1598:
 5932              	.LBE1612:
 5933              		.loc 6 77 0
 5934 00e6 94E80700 		ldmia	r4, {r0, r1, r2}
 5935              	.LVL290:
 5936              	.LBB1613:
 5937              	.LBB1599:
 5938              	.LBB1585:
 5939              	.LBB1571:
 5940              	.LBB1544:
 5941              	.LBB1537:
 5942              	.LBB1530:
 5943              	.LBB1523:
 5944              		.loc 4 33 0
 5945 00ea 83F01E04 		eor	r4, r3, #30
 5946              	.LVL291:
 5947              		.loc 4 34 0
 5948 00ee 84EA0419 		eor	r9, r4, r4, lsl #4
 5949              	.LVL292:
 5950 00f2 5FFA89FC 		uxtb	ip, r9
 5951              	.LVL293:
 5952              		.loc 4 35 0
 5953 00f6 4FEA1323 		lsr	r3, r3, #8
 5954 00fa 83EA1C14 		eor	r4, r3, ip, lsr #4
 5955 00fe 44EA0C23 		orr	r3, r4, ip, lsl #8
 5956              	.LBE1523:
 5957              	.LBE1530:
 5958              	.LBE1537:
 5959              	.LBE1544:
 5960              		.loc 3 83 0
 5961 0102 2C46     		mov	r4, r5
 5962              	.LBE1571:
 5963              	.LBE1585:
 5964              	.LBE1599:
 5965              	.LBE1613:
 5966              		.loc 6 77 0
 5967 0104 86E80700 		stmia	r6, {r0, r1, r2}
 5968              	.LBB1614:
 5969              	.LBB1600:
 5970              	.LBB1586:
 5971              	.LBB1572:
 5972              	.LBB1545:
 5973              	.LBB1538:
 5974              	.LBB1531:
ARM GAS  C:\Users\Mohamad\AppData\Local\Temp\ccDsqi1j.s 			page 106


 5975              	.LBB1524:
 5976              		.loc 4 35 0
 5977 0108 83EACC03 		eor	r3, r3, ip, lsl #3
 5978              	.LBE1524:
 5979              	.LBE1531:
 5980              	.LBE1538:
 5981              	.LBE1545:
 5982              		.loc 3 78 0
 5983 010c 0122     		movs	r2, #1
 5984              	.LBE1572:
 5985              	.LBE1586:
 5986              	.LBE1600:
 5987              	.LBE1614:
 5988              		.loc 6 80 0
 5989 010e 1E20     		movs	r0, #30
 5990              	.LBB1615:
 5991              	.LBB1601:
 5992              	.LBB1587:
 5993              	.LBB1573:
 5994              		.loc 3 82 0
 5995 0110 B918     		adds	r1, r7, r2
 5996              	.LBE1573:
 5997              	.LBE1587:
 5998              	.LBE1601:
 5999              	.LBE1615:
 6000              		.loc 6 80 0
 6001 0112 E871     		strb	r0, [r5, #7]
 6002              	.LVL294:
 6003              	.LBB1616:
 6004              	.LBB1602:
 6005              	.LBB1588:
 6006              	.LBB1574:
 6007              		.loc 3 76 0
 6008 0114 FE26     		movs	r6, #254
 6009              		.loc 3 77 0
 6010 0116 1C20     		movs	r0, #28
 6011              		.loc 3 83 0
 6012 0118 24F8083B 		strh	r3, [r4], #8	@ movhi
 6013              		.loc 3 81 0
 6014 011c 2F71     		strb	r7, [r5, #4]
 6015              		.loc 3 76 0
 6016 011e AE70     		strb	r6, [r5, #2]
 6017              		.loc 3 77 0
 6018 0120 E870     		strb	r0, [r5, #3]
 6019              		.loc 3 78 0
 6020 0122 6A71     		strb	r2, [r5, #5]
 6021              		.loc 3 79 0
 6022 0124 AA71     		strb	r2, [r5, #6]
 6023              	.LVL295:
 6024              		.loc 3 82 0
 6025 0126 88F80610 		strb	r1, [r8, #6]
 6026              	.LVL296:
 6027 012a 05F12407 		add	r7, r5, #36
 6028              	.LVL297:
 6029              	.L102:
 6030              	.LBB1546:
 6031              	.LBB1547:
ARM GAS  C:\Users\Mohamad\AppData\Local\Temp\ccDsqi1j.s 			page 107


 6032              		.loc 4 82 0
 6033 012e 2246     		mov	r2, r4
 6034              	.LBB1548:
 6035              	.LBB1549:
 6036              		.loc 4 35 0
 6037 0130 180A     		lsrs	r0, r3, #8
 6038              	.LBE1549:
 6039              	.LBE1548:
 6040              		.loc 4 82 0
 6041 0132 12F8011B 		ldrb	r1, [r2], #1	@ zero_extendqisi2
 6042              	.LVL298:
 6043              	.LBB1554:
 6044              	.LBB1550:
 6045              		.loc 4 35 0
 6046 0136 2A4E     		ldr	r6, .L105+24
 6047              		.loc 4 33 0
 6048 0138 4B40     		eors	r3, r3, r1
 6049              	.LVL299:
 6050              		.loc 4 34 0
 6051 013a 83EA0311 		eor	r1, r3, r3, lsl #4
 6052 013e CBB2     		uxtb	r3, r1
 6053              	.LVL300:
 6054              		.loc 4 35 0
 6055 0140 80EA1310 		eor	r0, r0, r3, lsr #4
 6056 0144 40EA0321 		orr	r1, r0, r3, lsl #8
 6057              	.LVL301:
 6058 0148 81EAC303 		eor	r3, r1, r3, lsl #3
 6059              	.LVL302:
 6060 014c 2B80     		strh	r3, [r5, #0]	@ movhi
 6061              	.LBE1550:
 6062              	.LBE1554:
 6063              		.loc 4 82 0
 6064 014e 6478     		ldrb	r4, [r4, #1]	@ zero_extendqisi2
 6065              	.LVL303:
 6066              	.LBB1555:
 6067              	.LBB1551:
 6068              		.loc 4 33 0
 6069 0150 5C40     		eors	r4, r4, r3
 6070              		.loc 4 34 0
 6071 0152 84EA0410 		eor	r0, r4, r4, lsl #4
 6072 0156 C1B2     		uxtb	r1, r0
 6073              		.loc 4 35 0
 6074 0158 1B0A     		lsrs	r3, r3, #8
 6075 015a 83EA1114 		eor	r4, r3, r1, lsr #4
 6076 015e 44EA0120 		orr	r0, r4, r1, lsl #8
 6077              	.LBE1551:
 6078              	.LBE1555:
 6079              		.loc 4 82 0
 6080 0162 541C     		adds	r4, r2, #1
 6081              	.LVL304:
 6082              	.LBB1556:
 6083              	.LBB1552:
 6084              		.loc 4 35 0
 6085 0164 80EAC103 		eor	r3, r0, r1, lsl #3
 6086              	.LBE1552:
 6087              	.LBE1556:
 6088              		.loc 4 81 0
ARM GAS  C:\Users\Mohamad\AppData\Local\Temp\ccDsqi1j.s 			page 108


 6089 0168 BC42     		cmp	r4, r7
 6090              	.LBB1557:
 6091              	.LBB1553:
 6092              		.loc 4 35 0
 6093 016a 2B80     		strh	r3, [r5, #0]	@ movhi
 6094              	.LBE1553:
 6095              	.LBE1557:
 6096              		.loc 4 81 0
 6097 016c DFD1     		bne	.L102
 6098              	.LVL305:
 6099              		.loc 4 33 0
 6100 016e 83F02705 		eor	r5, r3, #39
 6101              	.LVL306:
 6102              	.LBE1547:
 6103              	.LBE1546:
 6104              	.LBB1558:
 6105              	.LBB1559:
 6106              		.loc 4 34 0
 6107 0172 85EA0517 		eor	r7, r5, r5, lsl #4
 6108 0176 FAB2     		uxtb	r2, r7
 6109              	.LVL307:
 6110              		.loc 4 35 0
 6111 0178 190A     		lsrs	r1, r3, #8
 6112 017a 81EA1210 		eor	r0, r1, r2, lsr #4
 6113 017e 80EA0223 		eor	r3, r0, r2, lsl #8
 6114 0182 83EAC205 		eor	r5, r3, r2, lsl #3
 6115 0186 AFB2     		uxth	r7, r5
 6116              	.LVL308:
 6117              	.LBE1559:
 6118              	.LBE1558:
 6119              	.LBE1574:
 6120              	.LBE1588:
 6121              	.LBE1602:
 6122              	.LBE1616:
 6123              	.LBE1621:
 6124              	.LBE1626:
 6125              	.LBB1627:
 6126              	.LBB1628:
 6127              		.loc 3 176 0
 6128 0188 96F80390 		ldrb	r9, [r6, #3]	@ zero_extendqisi2
 6129              		.loc 1 252 0
 6130 018c 154C     		ldr	r4, .L105+28
 6131              	.LVL309:
 6132              	.LBE1628:
 6133              	.LBE1627:
 6134              	.LBB1634:
 6135              	.LBB1622:
 6136              	.LBB1617:
 6137              	.LBB1603:
 6138              	.LBB1589:
 6139              	.LBB1575:
 6140              		.loc 3 88 0
 6141 018e 86F82470 		strb	r7, [r6, #36]
 6142              	.LBB1562:
 6143              	.LBB1560:
 6144              		.loc 4 35 0
 6145 0192 BBB2     		uxth	r3, r7
ARM GAS  C:\Users\Mohamad\AppData\Local\Temp\ccDsqi1j.s 			page 109


 6146              	.LBE1560:
 6147              	.LBE1562:
 6148              		.loc 3 89 0
 6149 0194 4FEA1328 		lsr	r8, r3, #8
 6150              	.LBE1575:
 6151              	.LBE1589:
 6152              	.LBE1603:
 6153              	.LBE1617:
 6154              	.LBE1622:
 6155              	.LBE1634:
 6156              	.LBB1635:
 6157              	.LBB1629:
 6158              		.loc 3 176 0
 6159 0198 09F10605 		add	r5, r9, #6
 6160 019c B11C     		adds	r1, r6, #2
 6161 019e 2A46     		mov	r2, r5
 6162              	.LVL310:
 6163              	.LBE1629:
 6164              	.LBE1635:
 6165              	.LBB1636:
 6166              	.LBB1623:
 6167              	.LBB1618:
 6168              	.LBB1604:
 6169              	.LBB1590:
 6170              	.LBB1576:
 6171              	.LBB1563:
 6172              	.LBB1561:
 6173              		.loc 4 35 0
 6174 01a0 3380     		strh	r3, [r6, #0]	@ movhi
 6175              	.LBE1561:
 6176              	.LBE1563:
 6177              	.LBE1576:
 6178              	.LBE1590:
 6179              	.LBE1604:
 6180              	.LBE1618:
 6181              	.LBE1623:
 6182              	.LBE1636:
 6183              	.LBB1637:
 6184              	.LBB1630:
 6185              		.loc 3 176 0
 6186 01a2 2046     		mov	r0, r4
 6187              	.LBE1630:
 6188              	.LBE1637:
 6189              	.LBB1638:
 6190              	.LBB1624:
 6191              	.LBB1619:
 6192              	.LBB1605:
 6193              	.LBB1591:
 6194              	.LBB1577:
 6195              		.loc 3 89 0
 6196 01a4 86F82580 		strb	r8, [r6, #37]
 6197              	.LVL311:
 6198              	.LBE1577:
 6199              	.LBE1591:
 6200              	.LBE1605:
 6201              	.LBE1619:
 6202              	.LBE1624:
ARM GAS  C:\Users\Mohamad\AppData\Local\Temp\ccDsqi1j.s 			page 110


 6203              	.LBE1638:
 6204              	.LBB1639:
 6205              	.LBB1631:
 6206              		.loc 3 176 0
 6207 01a8 FFF7FEFF 		bl	memcpy
 6208              	.LVL312:
 6209              		.loc 3 178 0
 6210 01ac 6319     		adds	r3, r4, r5
 6211              	.LVL313:
 6212              	.LBE1631:
 6213              	.LBE1639:
 6214              		.loc 1 253 0
 6215 01ae 0E48     		ldr	r0, .L105+32
 6216              	.LBB1640:
 6217              	.LBB1632:
 6218              		.loc 3 180 0
 6219 01b0 6755     		strb	r7, [r4, r5]
 6220              	.LBE1632:
 6221              	.LBE1640:
 6222              		.loc 1 253 0
 6223 01b2 09F10801 		add	r1, r9, #8
 6224 01b6 2246     		mov	r2, r4
 6225              	.LBB1641:
 6226              	.LBB1633:
 6227              		.loc 3 181 0
 6228 01b8 83F80180 		strb	r8, [r3, #1]
 6229              	.LBE1633:
 6230              	.LBE1641:
 6231              		.loc 1 254 0
 6232 01bc 11B0     		add	sp, sp, #68
 6233 01be BDE8F04F 		pop	{r4, r5, r6, r7, r8, r9, sl, fp, lr}
 6234              		.loc 1 253 0
 6235 01c2 FFF7FEBF 		b	uartStartSend
 6236              	.LVL314:
 6237              	.L106:
 6238 01c6 00BF     		.align	3
 6239              	.L105:
 6240 01c8 E79AD561 		.word	1641388775
 6241 01cc 94A94C40 		.word	1078765972
 6242 01d0 00000000 		.word	roll
 6243 01d4 00000000 		.word	vtlist
 6244 01d8 00000000 		.word	pitch
 6245 01dc 00000000 		.word	yaw
 6246 01e0 00000000 		.word	.LANCHOR2
 6247 01e4 00000000 		.word	.LANCHOR10
 6248 01e8 00000000 		.word	UARTD3
 6249 01ec 00000000 		.word	.LANCHOR9
 6250              		.cfi_endproc
 6251              	.LFE1539:
 6252              		.size	Send_mavlink_Attitude, .-Send_mavlink_Attitude
 6253              		.section	.text.Send_mavlink_GPS,"ax",%progbits
 6254              		.align	2
 6255              		.p2align 4,,15
 6256              		.global	Send_mavlink_GPS
 6257              		.thumb
 6258              		.thumb_func
 6259              		.type	Send_mavlink_GPS, %function
ARM GAS  C:\Users\Mohamad\AppData\Local\Temp\ccDsqi1j.s 			page 111


 6260              	Send_mavlink_GPS:
 6261              	.LFB1540:
 6262              		.loc 1 257 0
 6263              		.cfi_startproc
 6264              		@ args = 0, pretend = 0, frame = 32
 6265              		@ frame_needed = 0, uses_anonymous_args = 0
 6266 0000 2DE9F043 		push	{r4, r5, r6, r7, r8, r9, lr}
 6267              	.LCFI9:
 6268              		.cfi_def_cfa_offset 28
 6269              		.cfi_offset 4, -28
 6270              		.cfi_offset 5, -24
 6271              		.cfi_offset 6, -20
 6272              		.cfi_offset 7, -16
 6273              		.cfi_offset 8, -12
 6274              		.cfi_offset 9, -8
 6275              		.cfi_offset 14, -4
 6276 0004 89B0     		sub	sp, sp, #36
 6277              	.LCFI10:
 6278              		.cfi_def_cfa_offset 64
 6279              		.loc 1 258 0
 6280 0006 FFF7FEFF 		bl	chCoreStatus
 6281              	.LVL315:
 6282 000a 5E4B     		ldr	r3, .L111
 6283 000c 5E4A     		ldr	r2, .L111+4
 6284 000e 1968     		ldr	r1, [r3, #0]	@ float
 6285 0010 1668     		ldr	r6, [r2, #0]
 6286 0012 5E4C     		ldr	r4, .L111+8
 6287 0014 0746     		mov	r7, r0
 6288 0016 5E48     		ldr	r0, .L111+12
 6289 0018 2468     		ldr	r4, [r4, #0]
 6290 001a 0068     		ldr	r0, [r0, #0]	@ float
 6291 001c FFF7FEFF 		bl	__aeabi_fsub
 6292              	.LVL316:
 6293 0020 0021     		movs	r1, #0
 6294 0022 C4F27A41 		movt	r1, 17530
 6295 0026 FFF7FEFF 		bl	__aeabi_fmul
 6296              	.LVL317:
 6297 002a FFF7FEFF 		bl	__aeabi_f2iz
 6298              	.LVL318:
 6299 002e 0025     		movs	r5, #0
 6300 0030 0097     		str	r7, [sp, #0]
 6301 0032 0195     		str	r5, [sp, #4]
 6302              	.LBB1666:
 6303              	.LBB1667:
 6304              		.loc 2 82 0
 6305 0034 0296     		str	r6, [sp, #8]
 6306              		.loc 2 83 0
 6307 0036 0394     		str	r4, [sp, #12]
 6308              		.loc 2 92 0
 6309 0038 6E46     		mov	r6, sp
 6310              	.LVL319:
 6311              		.loc 2 84 0
 6312 003a 0490     		str	r0, [sp, #16]
 6313              		.loc 2 92 0
 6314 003c 0FCE     		ldmia	r6!, {r0, r1, r2, r3}
 6315              	.LVL320:
 6316 003e 554C     		ldr	r4, .L111+16
ARM GAS  C:\Users\Mohamad\AppData\Local\Temp\ccDsqi1j.s 			page 112


 6317              	.LVL321:
 6318              		.loc 2 85 0
 6319 0040 ADF81450 		strh	r5, [sp, #20]	@ movhi
 6320              		.loc 2 86 0
 6321 0044 ADF81650 		strh	r5, [sp, #22]	@ movhi
 6322              		.loc 2 87 0
 6323 0048 ADF81850 		strh	r5, [sp, #24]	@ movhi
 6324              		.loc 2 88 0
 6325 004c ADF81A50 		strh	r5, [sp, #26]	@ movhi
 6326              		.loc 2 89 0
 6327 0050 8DF81C50 		strb	r5, [sp, #28]
 6328              		.loc 2 90 0
 6329 0054 8DF81D50 		strb	r5, [sp, #29]
 6330              		.loc 2 92 0
 6331 0058 04F10805 		add	r5, r4, #8
 6332 005c 0FC5     		stmia	r5!, {r0, r1, r2, r3}
 6333 005e 96E80F00 		ldmia	r6, {r0, r1, r2, r3}
 6334 0062 07C5     		stmia	r5!, {r0, r1, r2}
 6335              	.LBB1668:
 6336              	.LBB1669:
 6337              	.LBB1670:
 6338              	.LBB1671:
 6339              		.loc 3 81 0
 6340 0064 4C4E     		ldr	r6, .L111+20
 6341              	.LBE1671:
 6342              	.LBE1670:
 6343              	.LBE1669:
 6344              	.LBE1668:
 6345              		.loc 2 92 0
 6346 0066 2B80     		strh	r3, [r5, #0]	@ movhi
 6347              	.LBB1716:
 6348              	.LBB1710:
 6349              	.LBB1704:
 6350              	.LBB1698:
 6351              		.loc 3 81 0
 6352 0068 B179     		ldrb	r1, [r6, #6]	@ zero_extendqisi2
 6353              	.LBB1672:
 6354              	.LBB1673:
 6355              	.LBB1674:
 6356              	.LBB1675:
 6357              		.loc 4 33 0
 6358 006a 81F07803 		eor	r3, r1, #120
 6359              		.loc 4 34 0
 6360 006e 83EA0310 		eor	r0, r3, r3, lsl #4
 6361 0072 C7B2     		uxtb	r7, r0
 6362              	.LVL322:
 6363              		.loc 4 35 0
 6364 0074 3A09     		lsrs	r2, r7, #4
 6365 0076 82F0F605 		eor	r5, r2, #246
 6366 007a 45EA0723 		orr	r3, r5, r7, lsl #8
 6367 007e 83EAC700 		eor	r0, r3, r7, lsl #3
 6368              		.loc 4 33 0
 6369 0082 80F00107 		eor	r7, r0, #1
 6370              		.loc 4 34 0
 6371 0086 87EA0712 		eor	r2, r7, r7, lsl #4
 6372 008a D5B2     		uxtb	r5, r2
 6373              		.loc 4 35 0
ARM GAS  C:\Users\Mohamad\AppData\Local\Temp\ccDsqi1j.s 			page 113


 6374 008c 030A     		lsrs	r3, r0, #8
 6375 008e 83EA1510 		eor	r0, r3, r5, lsr #4
 6376 0092 40EA0527 		orr	r7, r0, r5, lsl #8
 6377 0096 87EAC502 		eor	r2, r7, r5, lsl #3
 6378              		.loc 4 33 0
 6379 009a 82F00105 		eor	r5, r2, #1
 6380              		.loc 4 34 0
 6381 009e 85EA0513 		eor	r3, r5, r5, lsl #4
 6382 00a2 D8B2     		uxtb	r0, r3
 6383              		.loc 4 35 0
 6384 00a4 170A     		lsrs	r7, r2, #8
 6385 00a6 87EA1012 		eor	r2, r7, r0, lsr #4
 6386 00aa 42EA0025 		orr	r5, r2, r0, lsl #8
 6387 00ae 85EAC003 		eor	r3, r5, r0, lsl #3
 6388              		.loc 4 33 0
 6389 00b2 83F01800 		eor	r0, r3, #24
 6390              		.loc 4 34 0
 6391 00b6 80EA0017 		eor	r7, r0, r0, lsl #4
 6392 00ba FDB2     		uxtb	r5, r7
 6393              		.loc 4 35 0
 6394 00bc 1A0A     		lsrs	r2, r3, #8
 6395 00be 82EA1513 		eor	r3, r2, r5, lsr #4
 6396 00c2 43EA0520 		orr	r0, r3, r5, lsl #8
 6397              	.LBE1675:
 6398              	.LBE1674:
 6399              	.LBE1673:
 6400              	.LBE1672:
 6401              	.LBE1698:
 6402              	.LBE1704:
 6403              	.LBE1710:
 6404              	.LBE1716:
 6405              		.loc 2 95 0
 6406 00c6 1827     		movs	r7, #24
 6407              	.LBB1717:
 6408              	.LBB1711:
 6409              	.LBB1705:
 6410              	.LBB1699:
 6411              		.loc 3 83 0
 6412 00c8 2246     		mov	r2, r4
 6413              	.LBB1679:
 6414              	.LBB1678:
 6415              	.LBB1677:
 6416              	.LBB1676:
 6417              		.loc 4 35 0
 6418 00ca 80EAC503 		eor	r3, r0, r5, lsl #3
 6419              	.LBE1676:
 6420              	.LBE1677:
 6421              	.LBE1678:
 6422              	.LBE1679:
 6423              	.LBE1699:
 6424              	.LBE1705:
 6425              	.LBE1711:
 6426              	.LBE1717:
 6427              		.loc 2 95 0
 6428 00ce E771     		strb	r7, [r4, #7]
 6429              	.LVL323:
 6430              	.LBB1718:
ARM GAS  C:\Users\Mohamad\AppData\Local\Temp\ccDsqi1j.s 			page 114


 6431              	.LBB1712:
 6432              	.LBB1706:
 6433              	.LBB1700:
 6434              		.loc 3 78 0
 6435 00d0 0120     		movs	r0, #1
 6436              		.loc 3 76 0
 6437 00d2 FE27     		movs	r7, #254
 6438              		.loc 3 82 0
 6439 00d4 0D18     		adds	r5, r1, r0
 6440              		.loc 3 76 0
 6441 00d6 A770     		strb	r7, [r4, #2]
 6442              		.loc 3 83 0
 6443 00d8 22F8083B 		strh	r3, [r2], #8	@ movhi
 6444              		.loc 3 77 0
 6445 00dc 1E27     		movs	r7, #30
 6446              		.loc 3 82 0
 6447 00de B571     		strb	r5, [r6, #6]
 6448              		.loc 3 77 0
 6449 00e0 E770     		strb	r7, [r4, #3]
 6450              		.loc 3 78 0
 6451 00e2 6071     		strb	r0, [r4, #5]
 6452              		.loc 3 79 0
 6453 00e4 A071     		strb	r0, [r4, #6]
 6454              	.LVL324:
 6455              		.loc 3 81 0
 6456 00e6 2171     		strb	r1, [r4, #4]
 6457              	.LVL325:
 6458 00e8 04F12606 		add	r6, r4, #38
 6459              	.LVL326:
 6460              	.L108:
 6461              	.LBB1680:
 6462              	.LBB1681:
 6463              		.loc 4 82 0
 6464 00ec 1146     		mov	r1, r2
 6465              	.LBB1682:
 6466              	.LBB1683:
 6467              		.loc 4 35 0
 6468 00ee 180A     		lsrs	r0, r3, #8
 6469              	.LBE1683:
 6470              	.LBE1682:
 6471              		.loc 4 82 0
 6472 00f0 11F8017B 		ldrb	r7, [r1], #1	@ zero_extendqisi2
 6473              	.LVL327:
 6474              	.LBB1688:
 6475              	.LBB1684:
 6476              		.loc 4 35 0
 6477 00f4 274D     		ldr	r5, .L111+16
 6478              		.loc 4 33 0
 6479 00f6 7B40     		eors	r3, r3, r7
 6480              	.LVL328:
 6481              		.loc 4 34 0
 6482 00f8 83EA0317 		eor	r7, r3, r3, lsl #4
 6483 00fc FBB2     		uxtb	r3, r7
 6484              	.LVL329:
 6485              		.loc 4 35 0
 6486 00fe 80EA1310 		eor	r0, r0, r3, lsr #4
 6487 0102 40EA0327 		orr	r7, r0, r3, lsl #8
ARM GAS  C:\Users\Mohamad\AppData\Local\Temp\ccDsqi1j.s 			page 115


 6488              	.LVL330:
 6489 0106 87EAC303 		eor	r3, r7, r3, lsl #3
 6490              	.LVL331:
 6491 010a 2380     		strh	r3, [r4, #0]	@ movhi
 6492              	.LBE1684:
 6493              	.LBE1688:
 6494              		.loc 4 82 0
 6495 010c 5278     		ldrb	r2, [r2, #1]	@ zero_extendqisi2
 6496              	.LVL332:
 6497              	.LBB1689:
 6498              	.LBB1685:
 6499              		.loc 4 33 0
 6500 010e 5A40     		eors	r2, r2, r3
 6501              		.loc 4 34 0
 6502 0110 82EA0210 		eor	r0, r2, r2, lsl #4
 6503 0114 C7B2     		uxtb	r7, r0
 6504              		.loc 4 35 0
 6505 0116 1B0A     		lsrs	r3, r3, #8
 6506 0118 83EA1712 		eor	r2, r3, r7, lsr #4
 6507 011c 42EA0720 		orr	r0, r2, r7, lsl #8
 6508              	.LBE1685:
 6509              	.LBE1689:
 6510              		.loc 4 82 0
 6511 0120 4A1C     		adds	r2, r1, #1
 6512              	.LVL333:
 6513              	.LBB1690:
 6514              	.LBB1686:
 6515              		.loc 4 35 0
 6516 0122 80EAC703 		eor	r3, r0, r7, lsl #3
 6517              	.LBE1686:
 6518              	.LBE1690:
 6519              		.loc 4 81 0
 6520 0126 B242     		cmp	r2, r6
 6521              	.LBB1691:
 6522              	.LBB1687:
 6523              		.loc 4 35 0
 6524 0128 2380     		strh	r3, [r4, #0]	@ movhi
 6525              	.LBE1687:
 6526              	.LBE1691:
 6527              		.loc 4 81 0
 6528 012a DFD1     		bne	.L108
 6529              	.LVL334:
 6530              		.loc 4 33 0
 6531 012c 83F01804 		eor	r4, r3, #24
 6532              	.LVL335:
 6533              	.LBE1681:
 6534              	.LBE1680:
 6535              	.LBB1692:
 6536              	.LBB1693:
 6537              		.loc 4 34 0
 6538 0130 84EA0416 		eor	r6, r4, r4, lsl #4
 6539 0134 F1B2     		uxtb	r1, r6
 6540              	.LVL336:
 6541              		.loc 4 35 0
 6542 0136 1F0A     		lsrs	r7, r3, #8
 6543 0138 87EA1110 		eor	r0, r7, r1, lsr #4
 6544 013c 80EA0123 		eor	r3, r0, r1, lsl #8
ARM GAS  C:\Users\Mohamad\AppData\Local\Temp\ccDsqi1j.s 			page 116


 6545 0140 83EAC102 		eor	r2, r3, r1, lsl #3
 6546              	.LVL337:
 6547 0144 97B2     		uxth	r7, r2
 6548              	.LBE1693:
 6549              	.LBE1692:
 6550              	.LBE1700:
 6551              	.LBE1706:
 6552              	.LBE1712:
 6553              	.LBE1718:
 6554              	.LBE1667:
 6555              	.LBE1666:
 6556              	.LBB1725:
 6557              	.LBB1726:
 6558              		.loc 3 176 0
 6559 0146 95F80390 		ldrb	r9, [r5, #3]	@ zero_extendqisi2
 6560              		.loc 1 252 0
 6561 014a 144C     		ldr	r4, .L111+24
 6562              	.LBE1726:
 6563              	.LBE1725:
 6564              	.LBB1732:
 6565              	.LBB1722:
 6566              	.LBB1719:
 6567              	.LBB1713:
 6568              	.LBB1707:
 6569              	.LBB1701:
 6570              		.loc 3 88 0
 6571 014c 85F82670 		strb	r7, [r5, #38]
 6572              	.LBB1696:
 6573              	.LBB1694:
 6574              		.loc 4 35 0
 6575 0150 BBB2     		uxth	r3, r7
 6576              	.LBE1694:
 6577              	.LBE1696:
 6578              		.loc 3 89 0
 6579 0152 4FEA1328 		lsr	r8, r3, #8
 6580              	.LBE1701:
 6581              	.LBE1707:
 6582              	.LBE1713:
 6583              	.LBE1719:
 6584              	.LBE1722:
 6585              	.LBE1732:
 6586              	.LBB1733:
 6587              	.LBB1727:
 6588              		.loc 3 176 0
 6589 0156 09F10606 		add	r6, r9, #6
 6590              	.LVL338:
 6591 015a A91C     		adds	r1, r5, #2
 6592              	.LVL339:
 6593 015c 3246     		mov	r2, r6
 6594              	.LBE1727:
 6595              	.LBE1733:
 6596              	.LBB1734:
 6597              	.LBB1723:
 6598              	.LBB1720:
 6599              	.LBB1714:
 6600              	.LBB1708:
 6601              	.LBB1702:
ARM GAS  C:\Users\Mohamad\AppData\Local\Temp\ccDsqi1j.s 			page 117


 6602              	.LBB1697:
 6603              	.LBB1695:
 6604              		.loc 4 35 0
 6605 015e 2B80     		strh	r3, [r5, #0]	@ movhi
 6606              	.LBE1695:
 6607              	.LBE1697:
 6608              	.LBE1702:
 6609              	.LBE1708:
 6610              	.LBE1714:
 6611              	.LBE1720:
 6612              	.LBE1723:
 6613              	.LBE1734:
 6614              	.LBB1735:
 6615              	.LBB1728:
 6616              		.loc 3 176 0
 6617 0160 2046     		mov	r0, r4
 6618              	.LBE1728:
 6619              	.LBE1735:
 6620              	.LBB1736:
 6621              	.LBB1724:
 6622              	.LBB1721:
 6623              	.LBB1715:
 6624              	.LBB1709:
 6625              	.LBB1703:
 6626              		.loc 3 89 0
 6627 0162 85F82780 		strb	r8, [r5, #39]
 6628              	.LVL340:
 6629              	.LBE1703:
 6630              	.LBE1709:
 6631              	.LBE1715:
 6632              	.LBE1721:
 6633              	.LBE1724:
 6634              	.LBE1736:
 6635              	.LBB1737:
 6636              	.LBB1729:
 6637              		.loc 3 176 0
 6638 0166 FFF7FEFF 		bl	memcpy
 6639              	.LVL341:
 6640              		.loc 3 178 0
 6641 016a A319     		adds	r3, r4, r6
 6642              	.LVL342:
 6643              	.LBE1729:
 6644              	.LBE1737:
 6645              		.loc 1 260 0
 6646 016c 0C48     		ldr	r0, .L111+28
 6647              	.LBB1738:
 6648              	.LBB1730:
 6649              		.loc 3 180 0
 6650 016e A755     		strb	r7, [r4, r6]
 6651              	.LBE1730:
 6652              	.LBE1738:
 6653              		.loc 1 260 0
 6654 0170 09F10801 		add	r1, r9, #8
 6655 0174 2246     		mov	r2, r4
 6656              	.LBB1739:
 6657              	.LBB1731:
 6658              		.loc 3 181 0
ARM GAS  C:\Users\Mohamad\AppData\Local\Temp\ccDsqi1j.s 			page 118


 6659 0176 83F80180 		strb	r8, [r3, #1]
 6660              	.LBE1731:
 6661              	.LBE1739:
 6662              		.loc 1 261 0
 6663 017a 09B0     		add	sp, sp, #36
 6664 017c BDE8F043 		pop	{r4, r5, r6, r7, r8, r9, lr}
 6665              		.loc 1 260 0
 6666 0180 FFF7FEBF 		b	uartStartSendI
 6667              	.LVL343:
 6668              	.L112:
 6669              		.align	2
 6670              	.L111:
 6671 0184 00000000 		.word	Home_Altitude
 6672 0188 00000000 		.word	latitude
 6673 018c 00000000 		.word	longitude
 6674 0190 00000000 		.word	CurrentAlt
 6675 0194 00000000 		.word	.LANCHOR2
 6676 0198 00000000 		.word	.LANCHOR9
 6677 019c 00000000 		.word	.LANCHOR10
 6678 01a0 00000000 		.word	UARTD3
 6679              		.cfi_endproc
 6680              	.LFE1540:
 6681              		.size	Send_mavlink_GPS, .-Send_mavlink_GPS
 6682 01a4 AFF30080 		.section	.text.Send_mavlink_rawPressure,"ax",%progbits
 6682      AFF30080 
 6682      AFF30080 
 6683              		.align	2
 6684              		.p2align 4,,15
 6685              		.global	Send_mavlink_rawPressure
 6686              		.thumb
 6687              		.thumb_func
 6688              		.type	Send_mavlink_rawPressure, %function
 6689              	Send_mavlink_rawPressure:
 6690              	.LFB1541:
 6691              		.loc 1 264 0
 6692              		.cfi_startproc
 6693              		@ args = 0, pretend = 0, frame = 48
 6694              		@ frame_needed = 0, uses_anonymous_args = 0
 6695              	.LVL344:
 6696 0000 2DE9F04F 		push	{r4, r5, r6, r7, r8, r9, sl, fp, lr}
 6697              	.LCFI11:
 6698              		.cfi_def_cfa_offset 36
 6699              		.cfi_offset 4, -36
 6700              		.cfi_offset 5, -32
 6701              		.cfi_offset 6, -28
 6702              		.cfi_offset 7, -24
 6703              		.cfi_offset 8, -20
 6704              		.cfi_offset 9, -16
 6705              		.cfi_offset 10, -12
 6706              		.cfi_offset 11, -8
 6707              		.cfi_offset 14, -4
 6708              	.LBB1764:
 6709              	.LBB1765:
 6710              	.LBB1766:
 6711              	.LBB1767:
 6712              	.LBB1768:
 6713              	.LBB1769:
ARM GAS  C:\Users\Mohamad\AppData\Local\Temp\ccDsqi1j.s 			page 119


 6714              		.loc 3 81 0
 6715 0004 40F20005 		movw	r5, #:lower16:.LANCHOR9
 6716 0008 C0F20005 		movt	r5, #:upper16:.LANCHOR9
 6717              	.LBE1769:
 6718              	.LBE1768:
 6719              	.LBE1767:
 6720              	.LBE1766:
 6721              	.LBE1765:
 6722              	.LBE1764:
 6723              		.loc 1 264 0
 6724 000c 8DB0     		sub	sp, sp, #52
 6725              	.LCFI12:
 6726              		.cfi_def_cfa_offset 88
 6727              	.LBB1858:
 6728              	.LBB1854:
 6729              	.LBB1844:
 6730              	.LBB1834:
 6731              	.LBB1824:
 6732              	.LBB1814:
 6733              		.loc 3 81 0
 6734 000e AE79     		ldrb	r6, [r5, #6]	@ zero_extendqisi2
 6735              	.LBB1770:
 6736              	.LBB1771:
 6737              	.LBB1772:
 6738              	.LBB1773:
 6739              		.loc 4 33 0
 6740 0010 86F00603 		eor	r3, r6, #6
 6741              		.loc 4 34 0
 6742 0014 83EA0310 		eor	r0, r3, r3, lsl #4
 6743 0018 C1B2     		uxtb	r1, r0
 6744              		.loc 4 35 0
 6745 001a 0A09     		lsrs	r2, r1, #4
 6746 001c 82F01F04 		eor	r4, r2, #31
 6747 0020 44EA0127 		orr	r7, r4, r1, lsl #8
 6748 0024 87EAC103 		eor	r3, r7, r1, lsl #3
 6749              		.loc 4 33 0
 6750 0028 83F00100 		eor	r0, r3, #1
 6751              		.loc 4 34 0
 6752 002c 80EA0011 		eor	r1, r0, r0, lsl #4
 6753 0030 CFB2     		uxtb	r7, r1
 6754              		.loc 4 35 0
 6755 0032 1C0A     		lsrs	r4, r3, #8
 6756              	.LBE1773:
 6757              	.LBE1772:
 6758              	.LBE1771:
 6759              	.LBE1770:
 6760              	.LBE1814:
 6761              	.LBE1824:
 6762              	.LBE1834:
 6763              	.LBE1844:
 6764              		.loc 5 61 0
 6765 0034 0022     		movs	r2, #0
 6766 0036 0023     		movs	r3, #0
 6767 0038 CDE90823 		strd	r2, [sp, #32]
 6768              	.LBB1845:
 6769              	.LBB1835:
 6770              	.LBB1825:
ARM GAS  C:\Users\Mohamad\AppData\Local\Temp\ccDsqi1j.s 			page 120


 6771              	.LBB1815:
 6772              	.LBB1792:
 6773              	.LBB1786:
 6774              	.LBB1780:
 6775              	.LBB1774:
 6776              		.loc 4 35 0
 6777 003c 84EA1713 		eor	r3, r4, r7, lsr #4
 6778              	.LBE1774:
 6779              	.LBE1780:
 6780              	.LBE1786:
 6781              	.LBE1792:
 6782              	.LBE1815:
 6783              	.LBE1825:
 6784              	.LBE1835:
 6785              	.LBE1845:
 6786              		.loc 5 62 0
 6787 0040 0020     		movs	r0, #0
 6788              		.loc 5 63 0
 6789 0042 0C22     		movs	r2, #12
 6790              	.LBB1846:
 6791              	.LBB1836:
 6792              	.LBB1826:
 6793              	.LBB1816:
 6794              	.LBB1793:
 6795              	.LBB1787:
 6796              	.LBB1781:
 6797              	.LBB1775:
 6798              		.loc 4 35 0
 6799 0044 43EA0721 		orr	r1, r3, r7, lsl #8
 6800 0048 81EAC704 		eor	r4, r1, r7, lsl #3
 6801              	.LBE1775:
 6802              	.LBE1781:
 6803              	.LBE1787:
 6804              	.LBE1793:
 6805              	.LBE1816:
 6806              	.LBE1826:
 6807              	.LBE1836:
 6808              	.LBE1846:
 6809              		.loc 5 62 0
 6810 004c ADF82800 		strh	r0, [sp, #40]	@ movhi
 6811              		.loc 5 63 0
 6812 0050 ADF82A20 		strh	r2, [sp, #42]	@ movhi
 6813              		.loc 5 64 0
 6814 0054 ADF82C00 		strh	r0, [sp, #44]	@ movhi
 6815              		.loc 5 65 0
 6816 0058 ADF82E20 		strh	r2, [sp, #46]	@ movhi
 6817              		.loc 5 67 0
 6818 005c 0CAF     		add	r7, sp, #48
 6819 005e 17E90F00 		ldmdb	r7, {r0, r1, r2, r3}
 6820              	.LBB1847:
 6821              	.LBB1837:
 6822              	.LBB1827:
 6823              	.LBB1817:
 6824              	.LBB1794:
 6825              	.LBB1788:
 6826              	.LBB1782:
 6827              	.LBB1776:
ARM GAS  C:\Users\Mohamad\AppData\Local\Temp\ccDsqi1j.s 			page 121


 6828              		.loc 4 33 0
 6829 0062 84F0010E 		eor	lr, r4, #1
 6830              		.loc 4 34 0
 6831 0066 8EEA0E17 		eor	r7, lr, lr, lsl #4
 6832 006a 5FFA87F8 		uxtb	r8, r7
 6833              		.loc 4 35 0
 6834 006e 4FEA142B 		lsr	fp, r4, #8
 6835              	.LBE1776:
 6836              	.LBE1782:
 6837              	.LBE1788:
 6838              	.LBE1794:
 6839              	.LBE1817:
 6840              	.LBE1827:
 6841              	.LBE1837:
 6842              	.LBE1847:
 6843              		.loc 5 67 0
 6844 0072 40F20004 		movw	r4, #:lower16:.LANCHOR2
 6845 0076 C0F20004 		movt	r4, #:upper16:.LANCHOR2
 6846              	.LBB1848:
 6847              	.LBB1838:
 6848              	.LBB1828:
 6849              	.LBB1818:
 6850              	.LBB1795:
 6851              	.LBB1789:
 6852              	.LBB1783:
 6853              	.LBB1777:
 6854              		.loc 4 35 0
 6855 007a 8BEA1819 		eor	r9, fp, r8, lsr #4
 6856 007e 49EA082A 		orr	sl, r9, r8, lsl #8
 6857              	.LBE1777:
 6858              	.LBE1783:
 6859              	.LBE1789:
 6860              	.LBE1795:
 6861              	.LBE1818:
 6862              	.LBE1828:
 6863              	.LBE1838:
 6864              	.LBE1848:
 6865              		.loc 5 67 0
 6866 0082 04F10807 		add	r7, r4, #8
 6867 0086 87E80F00 		stmia	r7, {r0, r1, r2, r3}
 6868              	.LBB1849:
 6869              	.LBB1839:
 6870              	.LBB1829:
 6871              	.LBB1819:
 6872              	.LBB1796:
 6873              	.LBB1790:
 6874              	.LBB1784:
 6875              	.LBB1778:
 6876              		.loc 4 35 0
 6877 008a 8AEAC800 		eor	r0, sl, r8, lsl #3
 6878              		.loc 4 33 0
 6879 008e 80F01C03 		eor	r3, r0, #28
 6880              		.loc 4 34 0
 6881 0092 83EA0312 		eor	r2, r3, r3, lsl #4
 6882 0096 D3B2     		uxtb	r3, r2
 6883              		.loc 4 35 0
 6884 0098 4FEA1021 		lsr	r1, r0, #8
ARM GAS  C:\Users\Mohamad\AppData\Local\Temp\ccDsqi1j.s 			page 122


 6885 009c 81EA131B 		eor	fp, r1, r3, lsr #4
 6886              	.LBE1778:
 6887              	.LBE1784:
 6888              	.LBE1790:
 6889              	.LBE1796:
 6890              	.LBB1797:
 6891              	.LBB1798:
 6892              	.LBB1799:
 6893              	.LBB1800:
 6894              		.loc 4 33 0
 6895 00a0 94F808A0 		ldrb	sl, [r4, #8]	@ zero_extendqisi2
 6896 00a4 94F80990 		ldrb	r9, [r4, #9]	@ zero_extendqisi2
 6897 00a8 94F80A80 		ldrb	r8, [r4, #10]	@ zero_extendqisi2
 6898 00ac 94F80BC0 		ldrb	ip, [r4, #11]	@ zero_extendqisi2
 6899 00b0 94F80CE0 		ldrb	lr, [r4, #12]	@ zero_extendqisi2
 6900 00b4 677B     		ldrb	r7, [r4, #13]	@ zero_extendqisi2
 6901 00b6 A07B     		ldrb	r0, [r4, #14]	@ zero_extendqisi2
 6902 00b8 E27B     		ldrb	r2, [r4, #15]	@ zero_extendqisi2
 6903 00ba 217C     		ldrb	r1, [r4, #16]	@ zero_extendqisi2
 6904 00bc 0190     		str	r0, [sp, #4]
 6905              	.LBE1800:
 6906              	.LBE1799:
 6907              	.LBE1798:
 6908              	.LBE1797:
 6909              	.LBB1807:
 6910              	.LBB1791:
 6911              	.LBB1785:
 6912              	.LBB1779:
 6913              		.loc 4 35 0
 6914 00be 4BEA032B 		orr	fp, fp, r3, lsl #8
 6915 00c2 8BEAC303 		eor	r3, fp, r3, lsl #3
 6916              	.LBE1779:
 6917              	.LBE1785:
 6918              	.LBE1791:
 6919              	.LBE1807:
 6920              	.LBB1808:
 6921              	.LBB1805:
 6922              	.LBB1803:
 6923              	.LBB1801:
 6924              		.loc 4 33 0
 6925 00c6 83EA0A0A 		eor	sl, r3, sl
 6926              		.loc 4 34 0
 6927 00ca 8AEA0A1A 		eor	sl, sl, sl, lsl #4
 6928 00ce 5FFA8AFA 		uxtb	sl, sl
 6929              		.loc 4 35 0
 6930 00d2 1B0A     		lsrs	r3, r3, #8
 6931 00d4 83EA1A13 		eor	r3, r3, sl, lsr #4
 6932 00d8 43EA0A23 		orr	r3, r3, sl, lsl #8
 6933 00dc 83EACA0A 		eor	sl, r3, sl, lsl #3
 6934              		.loc 4 33 0
 6935 00e0 8AEA0909 		eor	r9, sl, r9
 6936              		.loc 4 34 0
 6937 00e4 89EA0913 		eor	r3, r9, r9, lsl #4
 6938 00e8 5FFA83F9 		uxtb	r9, r3
 6939              		.loc 4 35 0
 6940 00ec 4FEA1A2A 		lsr	sl, sl, #8
 6941 00f0 8AEA1913 		eor	r3, sl, r9, lsr #4
ARM GAS  C:\Users\Mohamad\AppData\Local\Temp\ccDsqi1j.s 			page 123


 6942 00f4 43EA092A 		orr	sl, r3, r9, lsl #8
 6943 00f8 8AEAC909 		eor	r9, sl, r9, lsl #3
 6944              		.loc 4 33 0
 6945 00fc 89EA0808 		eor	r8, r9, r8
 6946              		.loc 4 34 0
 6947 0100 88EA0813 		eor	r3, r8, r8, lsl #4
 6948 0104 5FFA83F8 		uxtb	r8, r3
 6949              		.loc 4 35 0
 6950 0108 4FEA1929 		lsr	r9, r9, #8
 6951 010c 89EA1813 		eor	r3, r9, r8, lsr #4
 6952 0110 43EA0829 		orr	r9, r3, r8, lsl #8
 6953 0114 89EAC808 		eor	r8, r9, r8, lsl #3
 6954              		.loc 4 33 0
 6955 0118 88EA0C0C 		eor	ip, r8, ip
 6956              		.loc 4 34 0
 6957 011c 8CEA0C13 		eor	r3, ip, ip, lsl #4
 6958 0120 5FFA83F9 		uxtb	r9, r3
 6959              		.loc 4 35 0
 6960 0124 4FEA1828 		lsr	r8, r8, #8
 6961 0128 88EA1913 		eor	r3, r8, r9, lsr #4
 6962 012c 43EA092C 		orr	ip, r3, r9, lsl #8
 6963 0130 8CEAC903 		eor	r3, ip, r9, lsl #3
 6964              		.loc 4 33 0
 6965 0134 83EA0E0E 		eor	lr, r3, lr
 6966              		.loc 4 34 0
 6967 0138 8EEA0E19 		eor	r9, lr, lr, lsl #4
 6968 013c 5FFA89F8 		uxtb	r8, r9
 6969              		.loc 4 35 0
 6970 0140 4FEA132C 		lsr	ip, r3, #8
 6971 0144 8CEA1813 		eor	r3, ip, r8, lsr #4
 6972 0148 43EA082E 		orr	lr, r3, r8, lsl #8
 6973 014c 8EEAC803 		eor	r3, lr, r8, lsl #3
 6974              		.loc 4 33 0
 6975 0150 5F40     		eors	r7, r7, r3
 6976              		.loc 4 34 0
 6977 0152 87EA0717 		eor	r7, r7, r7, lsl #4
 6978              		.loc 4 33 0
 6979 0156 607C     		ldrb	r0, [r4, #17]	@ zero_extendqisi2
 6980 0158 0292     		str	r2, [sp, #8]
 6981 015a 0391     		str	r1, [sp, #12]
 6982 015c A27C     		ldrb	r2, [r4, #18]	@ zero_extendqisi2
 6983 015e 217D     		ldrb	r1, [r4, #20]	@ zero_extendqisi2
 6984 0160 0490     		str	r0, [sp, #16]
 6985              		.loc 4 34 0
 6986 0162 FFB2     		uxtb	r7, r7
 6987              		.loc 4 35 0
 6988 0164 4FEA1329 		lsr	r9, r3, #8
 6989 0168 89EA1718 		eor	r8, r9, r7, lsr #4
 6990              		.loc 4 33 0
 6991 016c 0592     		str	r2, [sp, #20]
 6992 016e E07C     		ldrb	r0, [r4, #19]	@ zero_extendqisi2
 6993 0170 0691     		str	r1, [sp, #24]
 6994              		.loc 4 35 0
 6995 0172 48EA072C 		orr	ip, r8, r7, lsl #8
 6996              		.loc 4 33 0
 6997 0176 DDF804E0 		ldr	lr, [sp, #4]
 6998 017a DDF80890 		ldr	r9, [sp, #8]
ARM GAS  C:\Users\Mohamad\AppData\Local\Temp\ccDsqi1j.s 			page 124


 6999 017e DDF80C80 		ldr	r8, [sp, #12]
 7000 0182 627D     		ldrb	r2, [r4, #21]	@ zero_extendqisi2
 7001 0184 A17D     		ldrb	r1, [r4, #22]	@ zero_extendqisi2
 7002 0186 0792     		str	r2, [sp, #28]
 7003              		.loc 4 35 0
 7004 0188 8CEAC707 		eor	r7, ip, r7, lsl #3
 7005              		.loc 4 33 0
 7006 018c 87EA0E03 		eor	r3, r7, lr
 7007              		.loc 4 34 0
 7008 0190 83EA0313 		eor	r3, r3, r3, lsl #4
 7009 0194 DBB2     		uxtb	r3, r3
 7010              		.loc 4 35 0
 7011 0196 3F0A     		lsrs	r7, r7, #8
 7012 0198 87EA1317 		eor	r7, r7, r3, lsr #4
 7013 019c 47EA0327 		orr	r7, r7, r3, lsl #8
 7014 01a0 87EAC307 		eor	r7, r7, r3, lsl #3
 7015              		.loc 4 33 0
 7016 01a4 87EA0903 		eor	r3, r7, r9
 7017              		.loc 4 34 0
 7018 01a8 83EA0313 		eor	r3, r3, r3, lsl #4
 7019 01ac DBB2     		uxtb	r3, r3
 7020              		.loc 4 35 0
 7021 01ae 3F0A     		lsrs	r7, r7, #8
 7022 01b0 87EA1317 		eor	r7, r7, r3, lsr #4
 7023 01b4 47EA0327 		orr	r7, r7, r3, lsl #8
 7024 01b8 87EAC307 		eor	r7, r7, r3, lsl #3
 7025              		.loc 4 33 0
 7026 01bc 87EA0803 		eor	r3, r7, r8
 7027              		.loc 4 34 0
 7028 01c0 83EA0313 		eor	r3, r3, r3, lsl #4
 7029 01c4 DBB2     		uxtb	r3, r3
 7030              		.loc 4 35 0
 7031 01c6 3F0A     		lsrs	r7, r7, #8
 7032 01c8 87EA1317 		eor	r7, r7, r3, lsr #4
 7033              		.loc 4 33 0
 7034 01cc DDF810C0 		ldr	ip, [sp, #16]
 7035 01d0 DDF814E0 		ldr	lr, [sp, #20]
 7036 01d4 DDF81C90 		ldr	r9, [sp, #28]
 7037 01d8 E27D     		ldrb	r2, [r4, #23]	@ zero_extendqisi2
 7038              	.LBE1801:
 7039              	.LBE1803:
 7040              	.LBE1805:
 7041              	.LBE1808:
 7042              		.loc 3 81 0
 7043 01da 2671     		strb	r6, [r4, #4]
 7044              	.LBB1809:
 7045              	.LBB1806:
 7046              	.LBB1804:
 7047              	.LBB1802:
 7048              		.loc 4 35 0
 7049 01dc 47EA0327 		orr	r7, r7, r3, lsl #8
 7050 01e0 87EAC307 		eor	r7, r7, r3, lsl #3
 7051              		.loc 4 33 0
 7052 01e4 87EA0C03 		eor	r3, r7, ip
 7053              		.loc 4 34 0
 7054 01e8 83EA0313 		eor	r3, r3, r3, lsl #4
 7055 01ec DBB2     		uxtb	r3, r3
ARM GAS  C:\Users\Mohamad\AppData\Local\Temp\ccDsqi1j.s 			page 125


 7056              		.loc 4 35 0
 7057 01ee 3F0A     		lsrs	r7, r7, #8
 7058 01f0 87EA1317 		eor	r7, r7, r3, lsr #4
 7059 01f4 47EA0327 		orr	r7, r7, r3, lsl #8
 7060 01f8 87EAC307 		eor	r7, r7, r3, lsl #3
 7061              		.loc 4 33 0
 7062 01fc 87EA0E03 		eor	r3, r7, lr
 7063              		.loc 4 34 0
 7064 0200 83EA0313 		eor	r3, r3, r3, lsl #4
 7065 0204 DBB2     		uxtb	r3, r3
 7066              		.loc 4 35 0
 7067 0206 3F0A     		lsrs	r7, r7, #8
 7068 0208 87EA1317 		eor	r7, r7, r3, lsr #4
 7069 020c 47EA0327 		orr	r7, r7, r3, lsl #8
 7070 0210 87EAC303 		eor	r3, r7, r3, lsl #3
 7071              		.loc 4 33 0
 7072 0214 5840     		eors	r0, r0, r3
 7073              		.loc 4 34 0
 7074 0216 80EA0017 		eor	r7, r0, r0, lsl #4
 7075 021a F8B2     		uxtb	r0, r7
 7076              		.loc 4 35 0
 7077 021c 1B0A     		lsrs	r3, r3, #8
 7078 021e 83EA1017 		eor	r7, r3, r0, lsr #4
 7079 0222 47EA0023 		orr	r3, r7, r0, lsl #8
 7080              		.loc 4 33 0
 7081 0226 069F     		ldr	r7, [sp, #24]
 7082              		.loc 4 35 0
 7083 0228 83EAC000 		eor	r0, r3, r0, lsl #3
 7084              		.loc 4 33 0
 7085 022c 80EA0703 		eor	r3, r0, r7
 7086              		.loc 4 34 0
 7087 0230 83EA0317 		eor	r7, r3, r3, lsl #4
 7088 0234 FBB2     		uxtb	r3, r7
 7089              		.loc 4 35 0
 7090 0236 000A     		lsrs	r0, r0, #8
 7091 0238 80EA1317 		eor	r7, r0, r3, lsr #4
 7092 023c 47EA0320 		orr	r0, r7, r3, lsl #8
 7093 0240 80EAC307 		eor	r7, r0, r3, lsl #3
 7094              		.loc 4 33 0
 7095 0244 87EA0903 		eor	r3, r7, r9
 7096              		.loc 4 34 0
 7097 0248 83EA0310 		eor	r0, r3, r3, lsl #4
 7098 024c C3B2     		uxtb	r3, r0
 7099              		.loc 4 35 0
 7100 024e 3F0A     		lsrs	r7, r7, #8
 7101 0250 87EA1310 		eor	r0, r7, r3, lsr #4
 7102 0254 40EA0327 		orr	r7, r0, r3, lsl #8
 7103 0258 87EAC303 		eor	r3, r7, r3, lsl #3
 7104              		.loc 4 33 0
 7105 025c 5940     		eors	r1, r1, r3
 7106              		.loc 4 34 0
 7107 025e 81EA0110 		eor	r0, r1, r1, lsl #4
 7108 0262 C7B2     		uxtb	r7, r0
 7109              		.loc 4 35 0
 7110 0264 1B0A     		lsrs	r3, r3, #8
 7111 0266 83EA1711 		eor	r1, r3, r7, lsr #4
 7112 026a 41EA0720 		orr	r0, r1, r7, lsl #8
ARM GAS  C:\Users\Mohamad\AppData\Local\Temp\ccDsqi1j.s 			page 126


 7113 026e 80EAC707 		eor	r7, r0, r7, lsl #3
 7114              		.loc 4 33 0
 7115 0272 7A40     		eors	r2, r2, r7
 7116              		.loc 4 34 0
 7117 0274 82EA0213 		eor	r3, r2, r2, lsl #4
 7118 0278 D8B2     		uxtb	r0, r3
 7119              		.loc 4 35 0
 7120 027a 390A     		lsrs	r1, r7, #8
 7121 027c 81EA1017 		eor	r7, r1, r0, lsr #4
 7122 0280 47EA0022 		orr	r2, r7, r0, lsl #8
 7123 0284 82EAC000 		eor	r0, r2, r0, lsl #3
 7124              		.loc 4 33 0
 7125 0288 80F04303 		eor	r3, r0, #67
 7126              	.LBE1802:
 7127              	.LBE1804:
 7128              	.LBE1806:
 7129              	.LBE1809:
 7130              	.LBB1810:
 7131              	.LBB1811:
 7132              		.loc 4 34 0
 7133 028c 83EA0311 		eor	r1, r3, r3, lsl #4
 7134 0290 CFB2     		uxtb	r7, r1
 7135              		.loc 4 35 0
 7136 0292 020A     		lsrs	r2, r0, #8
 7137 0294 82EA1718 		eor	r8, r2, r7, lsr #4
 7138 0298 48EA0720 		orr	r0, r8, r7, lsl #8
 7139 029c 80EAC708 		eor	r8, r0, r7, lsl #3
 7140 02a0 1FFA88F3 		uxth	r3, r8
 7141              	.LBE1811:
 7142              	.LBE1810:
 7143              	.LBE1819:
 7144              	.LBE1829:
 7145              	.LBE1839:
 7146              	.LBE1849:
 7147              		.loc 5 70 0
 7148 02a4 4FF01C0C 		mov	ip, #28
 7149              	.LBE1854:
 7150              	.LBE1858:
 7151              	.LBB1859:
 7152              	.LBB1860:
 7153              		.loc 1 252 0
 7154 02a8 40F20007 		movw	r7, #:lower16:.LANCHOR10
 7155 02ac C0F20007 		movt	r7, #:upper16:.LANCHOR10
 7156              	.LBE1860:
 7157              	.LBE1859:
 7158              	.LBB1865:
 7159              	.LBB1855:
 7160              	.LBB1850:
 7161              	.LBB1840:
 7162              	.LBB1830:
 7163              	.LBB1820:
 7164              		.loc 3 78 0
 7165 02b0 4FF0010E 		mov	lr, #1
 7166              		.loc 3 89 0
 7167 02b4 4FEA1329 		lsr	r9, r3, #8
 7168              	.LBE1820:
 7169              	.LBE1830:
ARM GAS  C:\Users\Mohamad\AppData\Local\Temp\ccDsqi1j.s 			page 127


 7170              	.LBE1840:
 7171              	.LBE1850:
 7172              		.loc 5 70 0
 7173 02b8 84F807C0 		strb	ip, [r4, #7]
 7174              	.LVL345:
 7175              	.LBB1851:
 7176              	.LBB1841:
 7177              	.LBB1831:
 7178              	.LBB1821:
 7179              		.loc 3 76 0
 7180 02bc 4FF0FE0C 		mov	ip, #254
 7181              		.loc 3 82 0
 7182 02c0 7644     		add	r6, r6, lr
 7183              	.LBE1821:
 7184              	.LBE1831:
 7185              	.LBE1841:
 7186              	.LBE1851:
 7187              	.LBE1855:
 7188              	.LBE1865:
 7189              	.LBB1866:
 7190              	.LBB1861:
 7191              		.loc 3 176 0
 7192 02c2 A11C     		adds	r1, r4, #2
 7193 02c4 1622     		movs	r2, #22
 7194              	.LBE1861:
 7195              	.LBE1866:
 7196              	.LBB1867:
 7197              	.LBB1856:
 7198              	.LBB1852:
 7199              	.LBB1842:
 7200              	.LBB1832:
 7201              	.LBB1822:
 7202              		.loc 3 76 0
 7203 02c6 84F802C0 		strb	ip, [r4, #2]
 7204              	.LBE1822:
 7205              	.LBE1832:
 7206              	.LBE1842:
 7207              	.LBE1852:
 7208              	.LBE1856:
 7209              	.LBE1867:
 7210              	.LBB1868:
 7211              	.LBB1862:
 7212              		.loc 3 176 0
 7213 02ca 3846     		mov	r0, r7
 7214              	.LBE1862:
 7215              	.LBE1868:
 7216              	.LBB1869:
 7217              	.LBB1857:
 7218              	.LBB1853:
 7219              	.LBB1843:
 7220              	.LBB1833:
 7221              	.LBB1823:
 7222              		.loc 3 77 0
 7223 02cc 4FF0100C 		mov	ip, #16
 7224              	.LBB1813:
 7225              	.LBB1812:
 7226              		.loc 4 35 0
ARM GAS  C:\Users\Mohamad\AppData\Local\Temp\ccDsqi1j.s 			page 128


 7227 02d0 2380     		strh	r3, [r4, #0]	@ movhi
 7228              	.LBE1812:
 7229              	.LBE1813:
 7230              		.loc 3 88 0
 7231 02d2 84F81880 		strb	r8, [r4, #24]
 7232              		.loc 3 89 0
 7233 02d6 84F81990 		strb	r9, [r4, #25]
 7234              		.loc 3 77 0
 7235 02da 84F803C0 		strb	ip, [r4, #3]
 7236              		.loc 3 78 0
 7237 02de 84F805E0 		strb	lr, [r4, #5]
 7238              		.loc 3 79 0
 7239 02e2 84F806E0 		strb	lr, [r4, #6]
 7240              	.LVL346:
 7241              		.loc 3 82 0
 7242 02e6 AE71     		strb	r6, [r5, #6]
 7243              	.LVL347:
 7244              	.LBE1823:
 7245              	.LBE1833:
 7246              	.LBE1843:
 7247              	.LBE1853:
 7248              	.LBE1857:
 7249              	.LBE1869:
 7250              	.LBB1870:
 7251              	.LBB1863:
 7252              		.loc 3 176 0
 7253 02e8 FFF7FEFF 		bl	memcpy
 7254              	.LVL348:
 7255              	.LBE1863:
 7256              	.LBE1870:
 7257              		.loc 1 268 0
 7258 02ec 40F20000 		movw	r0, #:lower16:UARTD3
 7259 02f0 C0F20000 		movt	r0, #:upper16:UARTD3
 7260 02f4 1821     		movs	r1, #24
 7261 02f6 3A46     		mov	r2, r7
 7262              	.LBB1871:
 7263              	.LBB1864:
 7264              		.loc 3 180 0
 7265 02f8 87F81680 		strb	r8, [r7, #22]
 7266              		.loc 3 181 0
 7267 02fc 87F81790 		strb	r9, [r7, #23]
 7268              	.LBE1864:
 7269              	.LBE1871:
 7270              		.loc 1 269 0
 7271 0300 0DB0     		add	sp, sp, #52
 7272 0302 BDE8F04F 		pop	{r4, r5, r6, r7, r8, r9, sl, fp, lr}
 7273              		.loc 1 268 0
 7274 0306 FFF7FEBF 		b	uartStartSendI
 7275              	.LVL349:
 7276              		.cfi_endproc
 7277              	.LFE1541:
 7278              		.size	Send_mavlink_rawPressure, .-Send_mavlink_rawPressure
 7279              		.global	buff
 7280              		.global	msg
 7281              		.global	timeNow
 7282              		.global	AccelData
 7283              		.global	GyroData
ARM GAS  C:\Users\Mohamad\AppData\Local\Temp\ccDsqi1j.s 			page 129


 7284              		.global	reading
 7285              		.global	myMPU
 7286              		.global	startMessageCounet
 7287              		.global	RawImu_send_enable
 7288              		.global	RawPress_send_enable
 7289              		.global	GPS_send_enabled
 7290              		.global	attitude_send_enabled
 7291              		.global	RdyToSend
 7292              		.global	txbuf
 7293              		.global	rxbuf
 7294              		.global	wholeLoopTime
 7295              		.global	eachLoopTime
 7296              		.global	lastLoopTime
 7297              		.global	uint32ToByte
 7298              		.global	uint16ToByte
 7299              		.global	int16ToByte
 7300              		.global	intToByte
 7301              		.global	floatToByte
 7302 030a 00BFAFF3 		.section	.bss.msg,"aw",%nobits
 7302      0080
 7303              		.align	2
 7304              		.set	.LANCHOR2,. + 0
 7305              		.type	msg, %object
 7306              		.size	msg, 272
 7307              	msg:
 7308 0000 00000000 		.space	272
 7308      00000000 
 7308      00000000 
 7308      00000000 
 7308      00000000 
 7309              		.section	.bss.reading,"aw",%nobits
 7310              		.type	reading, %object
 7311              		.size	reading, 1
 7312              	reading:
 7313 0000 00       		.space	1
 7314              		.section	.bss.lastLoopTime,"aw",%nobits
 7315              		.align	2
 7316              		.type	lastLoopTime, %object
 7317              		.size	lastLoopTime, 4
 7318              	lastLoopTime:
 7319 0000 00000000 		.space	4
 7320              		.section	.rodata.i2cfg2,"a",%progbits
 7321              		.align	2
 7322              		.set	.LANCHOR3,. + 0
 7323              		.type	i2cfg2, %object
 7324              		.size	i2cfg2, 12
 7325              	i2cfg2:
 7326 0000 01       		.byte	1
 7327 0001 000000   		.space	3
 7328 0004 801A0600 		.word	400000
 7329 0008 02       		.byte	2
 7330 0009 000000   		.space	3
 7331              		.section	.data.uart_cfg_1,"aw",%progbits
 7332              		.align	2
 7333              		.set	.LANCHOR4,. + 0
 7334              		.type	uart_cfg_1, %object
 7335              		.size	uart_cfg_1, 32
ARM GAS  C:\Users\Mohamad\AppData\Local\Temp\ccDsqi1j.s 			page 130


 7336              	uart_cfg_1:
 7337 0000 00000000 		.word	0
 7338 0004 00000000 		.word	uart3_txend2
 7339 0008 00000000 		.word	0
 7340 000c 00000000 		.word	rxchar
 7341 0010 00000000 		.word	0
 7342 0014 00C20100 		.word	115200
 7343 0018 0000     		.short	0
 7344 001a 0040     		.short	16384
 7345 001c 0000     		.short	0
 7346 001e 0000     		.space	2
 7347              		.section	.bss.m_mavlink_status.8046,"aw",%nobits
 7348              		.align	2
 7349              		.set	.LANCHOR9,. + 0
 7350              		.type	m_mavlink_status.8046, %object
 7351              		.size	m_mavlink_status.8046, 48
 7352              	m_mavlink_status.8046:
 7353 0000 00000000 		.space	48
 7353      00000000 
 7353      00000000 
 7353      00000000 
 7353      00000000 
 7354              		.section	.bss.uint16ToByte,"aw",%nobits
 7355              		.align	2
 7356              		.type	uint16ToByte, %object
 7357              		.size	uint16ToByte, 2
 7358              	uint16ToByte:
 7359 0000 0000     		.space	2
 7360 0002 0000     		.section	.bss.RawPress_send_enable,"aw",%nobits
 7361              		.set	.LANCHOR13,. + 0
 7362              		.type	RawPress_send_enable, %object
 7363              		.size	RawPress_send_enable, 1
 7364              	RawPress_send_enable:
 7365 0000 00       		.space	1
 7366              		.section	.data.RdyToSend,"aw",%progbits
 7367              		.set	.LANCHOR0,. + 0
 7368              		.type	RdyToSend, %object
 7369              		.size	RdyToSend, 1
 7370              	RdyToSend:
 7371 0000 01       		.byte	1
 7372              		.section	.bss.floatToByte,"aw",%nobits
 7373              		.align	2
 7374              		.type	floatToByte, %object
 7375              		.size	floatToByte, 4
 7376              	floatToByte:
 7377 0000 00000000 		.space	4
 7378              		.section	.bss.timeNow,"aw",%nobits
 7379              		.align	2
 7380              		.set	.LANCHOR6,. + 0
 7381              		.type	timeNow, %object
 7382              		.size	timeNow, 4
 7383              	timeNow:
 7384 0000 00000000 		.space	4
 7385              		.section	.bss.txbuf,"aw",%nobits
 7386              		.align	2
 7387              		.type	txbuf, %object
 7388              		.size	txbuf, 6
ARM GAS  C:\Users\Mohamad\AppData\Local\Temp\ccDsqi1j.s 			page 131


 7389              	txbuf:
 7390 0000 00000000 		.space	6
 7390      0000
 7391 0006 0000     		.section	.bss.buff,"aw",%nobits
 7392              		.align	2
 7393              		.set	.LANCHOR10,. + 0
 7394              		.type	buff, %object
 7395              		.size	buff, 263
 7396              	buff:
 7397 0000 00000000 		.space	263
 7397      00000000 
 7397      00000000 
 7397      00000000 
 7397      00000000 
 7398 0107 00       		.section	.bss.wholeLoopTime,"aw",%nobits
 7399              		.align	2
 7400              		.type	wholeLoopTime, %object
 7401              		.size	wholeLoopTime, 4
 7402              	wholeLoopTime:
 7403 0000 00000000 		.space	4
 7404              		.section	.data.startMessageCounet,"aw",%progbits
 7405              		.set	.LANCHOR7,. + 0
 7406              		.type	startMessageCounet, %object
 7407              		.size	startMessageCounet, 1
 7408              	startMessageCounet:
 7409 0000 01       		.byte	1
 7410              		.section	.bss.uint32ToByte,"aw",%nobits
 7411              		.align	2
 7412              		.type	uint32ToByte, %object
 7413              		.size	uint32ToByte, 4
 7414              	uint32ToByte:
 7415 0000 00000000 		.space	4
 7416              		.section	.bss.GyroData,"aw",%nobits
 7417              		.align	2
 7418              		.type	GyroData, %object
 7419              		.size	GyroData, 6
 7420              	GyroData:
 7421 0000 00000000 		.space	6
 7421      0000
 7422 0006 0000     		.section	.data.attitude_send_enabled,"aw",%progbits
 7423              		.set	.LANCHOR8,. + 0
 7424              		.type	attitude_send_enabled, %object
 7425              		.size	attitude_send_enabled, 1
 7426              	attitude_send_enabled:
 7427 0000 01       		.byte	1
 7428              		.section	.bss.Thread_Unit,"aw",%nobits
 7429              		.align	3
 7430              		.set	.LANCHOR5,. + 0
 7431              		.type	Thread_Unit, %object
 7432              		.size	Thread_Unit, 336
 7433              	Thread_Unit:
 7434 0000 00000000 		.space	336
 7434      00000000 
 7434      00000000 
 7434      00000000 
 7434      00000000 
 7435              		.section	.bss.RawImu_send_enable,"aw",%nobits
ARM GAS  C:\Users\Mohamad\AppData\Local\Temp\ccDsqi1j.s 			page 132


 7436              		.set	.LANCHOR11,. + 0
 7437              		.type	RawImu_send_enable, %object
 7438              		.size	RawImu_send_enable, 1
 7439              	RawImu_send_enable:
 7440 0000 00       		.space	1
 7441              		.section	.bss.int16ToByte,"aw",%nobits
 7442              		.align	2
 7443              		.type	int16ToByte, %object
 7444              		.size	int16ToByte, 2
 7445              	int16ToByte:
 7446 0000 0000     		.space	2
 7447 0002 0000     		.section	.bss.intToByte,"aw",%nobits
 7448              		.align	2
 7449              		.type	intToByte, %object
 7450              		.size	intToByte, 4
 7451              	intToByte:
 7452 0000 00000000 		.space	4
 7453              		.section	.bss.AccelData,"aw",%nobits
 7454              		.align	2
 7455              		.type	AccelData, %object
 7456              		.size	AccelData, 6
 7457              	AccelData:
 7458 0000 00000000 		.space	6
 7458      0000
 7459 0006 0000     		.section	.bss.GPS_send_enabled,"aw",%nobits
 7460              		.set	.LANCHOR12,. + 0
 7461              		.type	GPS_send_enabled, %object
 7462              		.size	GPS_send_enabled, 1
 7463              	GPS_send_enabled:
 7464 0000 00       		.space	1
 7465              		.section	.bss.myMPU,"aw",%nobits
 7466              		.align	2
 7467              		.set	.LANCHOR1,. + 0
 7468              		.type	myMPU, %object
 7469              		.size	myMPU, 12
 7470              	myMPU:
 7471 0000 00000000 		.space	12
 7471      00000000 
 7471      00000000 
 7472              		.section	.bss.eachLoopTime,"aw",%nobits
 7473              		.align	2
 7474              		.type	eachLoopTime, %object
 7475              		.size	eachLoopTime, 4
 7476              	eachLoopTime:
 7477 0000 00000000 		.space	4
 7478              		.section	.bss.rxbuf,"aw",%nobits
 7479              		.align	2
 7480              		.type	rxbuf, %object
 7481              		.size	rxbuf, 6
 7482              	rxbuf:
 7483 0000 00000000 		.space	6
 7483      0000
 7484 0006 0000     		.text
 7485              	.Letext0:
 7486              		.file 8 "c:\\chibistudio\\tools\\gnu tools arm embedded\\4.7 2014q2\\bin\\../lib/gcc/arm-none-eabi
 7487              		.file 9 "c:\\chibistudio\\tools\\gnu tools arm embedded\\4.7 2014q2\\bin\\../lib/gcc/arm-none-eabi
 7488              		.file 10 "../../chibios/os/ports/GCC/ARMCMx/chtypes.h"
ARM GAS  C:\Users\Mohamad\AppData\Local\Temp\ccDsqi1j.s 			page 133


 7489              		.file 11 "../../chibios/os/kernel/include/chlists.h"
 7490              		.file 12 "../../chibios/os/kernel/include/chthreads.h"
 7491              		.file 13 "../../chibios/os/ports/GCC/ARMCMx/chcore_v7m.h"
 7492              		.file 14 "../../chibios/os/kernel/include/chvt.h"
 7493              		.file 15 "../../chibios/os/kernel/include/chmtx.h"
 7494              		.file 16 "../../chibios/os/hal/platforms/STM32F4xx/stm32f4xx.h"
 7495              		.file 17 "../../chibios/os/hal/platforms/STM32F4xx/stm32_dma.h"
 7496              		.file 18 "../../chibios/os/hal/platforms/STM32/GPIOv2/pal_lld.h"
 7497              		.file 19 "../../chibios/os/hal/include/i2c.h"
 7498              		.file 20 "../../chibios/os/hal/platforms/STM32/I2Cv1/i2c_lld.h"
 7499              		.file 21 "../../chibios/os/hal/include/uart.h"
 7500              		.file 22 "../../chibios/os/hal/platforms/STM32/USARTv1/uart_lld.h"
 7501              		.file 23 "DP_Math.h"
 7502              		.file 24 "MAVLink/common/../mavlink_types.h"
 7503              		.file 25 "../../chibios/os/ports/common/ARMCMx/CMSIS/include/core_cm4.h"
 7504              		.file 26 "DCM.h"
 7505              		.file 27 "ms5611.h"
 7506              		.file 28 "DOWRAN_GPS/GPS_ublox.h"
 7507              		.file 29 "MPU6050.h"
 7508              		.file 30 "../../chibios/os/kernel/include/chmemcore.h"
 7509              		.file 31 "../../chibios/os/hal/include/hal.h"
 7510              		.file 32 "../../chibios/os/kernel/include/chsys.h"
 7511              		.file 33 "hmc5883.h"
 7512              		.section	.debug_info,"",%progbits
 7513              	.Ldebug_info0:
 7514 0000 153E0000 		.4byte	0x3e15
 7515 0004 0200     		.2byte	0x2
 7516 0006 00000000 		.4byte	.Ldebug_abbrev0
 7517 000a 04       		.byte	0x4
 7518 000b 01       		.uleb128 0x1
 7519 000c E6010000 		.4byte	.LASF322
 7520 0010 01       		.byte	0x1
 7521 0011 36000000 		.4byte	.LASF323
 7522 0015 17070000 		.4byte	.LASF324
 7523 0019 B0350000 		.4byte	.Ldebug_ranges0+0x35b0
 7524 001d 00000000 		.4byte	0
 7525 0021 00000000 		.4byte	0
 7526 0025 00000000 		.4byte	.Ldebug_line0
 7527 0029 02       		.uleb128 0x2
 7528 002a 08       		.byte	0x8
 7529 002b 07       		.byte	0x7
 7530 002c BF030000 		.4byte	.LASF0
 7531 0030 02       		.uleb128 0x2
 7532 0031 04       		.byte	0x4
 7533 0032 07       		.byte	0x7
 7534 0033 DB0C0000 		.4byte	.LASF1
 7535 0037 03       		.uleb128 0x3
 7536 0038 04       		.byte	0x4
 7537 0039 05       		.byte	0x5
 7538 003a 696E7400 		.ascii	"int\000"
 7539 003e 04       		.uleb128 0x4
 7540 003f C6040000 		.4byte	.LASF3
 7541 0043 08       		.byte	0x8
 7542 0044 D5       		.byte	0xd5
 7543 0045 30000000 		.4byte	0x30
 7544 0049 02       		.uleb128 0x2
 7545 004a 01       		.byte	0x1
ARM GAS  C:\Users\Mohamad\AppData\Local\Temp\ccDsqi1j.s 			page 134


 7546 004b 06       		.byte	0x6
 7547 004c 210E0000 		.4byte	.LASF2
 7548 0050 04       		.uleb128 0x4
 7549 0051 0F070000 		.4byte	.LASF4
 7550 0055 09       		.byte	0x9
 7551 0056 2A       		.byte	0x2a
 7552 0057 5B000000 		.4byte	0x5b
 7553 005b 02       		.uleb128 0x2
 7554 005c 01       		.byte	0x1
 7555 005d 08       		.byte	0x8
 7556 005e 030D0000 		.4byte	.LASF5
 7557 0062 04       		.uleb128 0x4
 7558 0063 B70A0000 		.4byte	.LASF6
 7559 0067 09       		.byte	0x9
 7560 0068 35       		.byte	0x35
 7561 0069 6D000000 		.4byte	0x6d
 7562 006d 02       		.uleb128 0x2
 7563 006e 02       		.byte	0x2
 7564 006f 05       		.byte	0x5
 7565 0070 B7010000 		.4byte	.LASF7
 7566 0074 04       		.uleb128 0x4
 7567 0075 80090000 		.4byte	.LASF8
 7568 0079 09       		.byte	0x9
 7569 007a 36       		.byte	0x36
 7570 007b 7F000000 		.4byte	0x7f
 7571 007f 02       		.uleb128 0x2
 7572 0080 02       		.byte	0x2
 7573 0081 07       		.byte	0x7
 7574 0082 440E0000 		.4byte	.LASF9
 7575 0086 04       		.uleb128 0x4
 7576 0087 A10C0000 		.4byte	.LASF10
 7577 008b 09       		.byte	0x9
 7578 008c 4F       		.byte	0x4f
 7579 008d 91000000 		.4byte	0x91
 7580 0091 02       		.uleb128 0x2
 7581 0092 04       		.byte	0x4
 7582 0093 05       		.byte	0x5
 7583 0094 560A0000 		.4byte	.LASF11
 7584 0098 04       		.uleb128 0x4
 7585 0099 070F0000 		.4byte	.LASF12
 7586 009d 09       		.byte	0x9
 7587 009e 50       		.byte	0x50
 7588 009f A3000000 		.4byte	0xa3
 7589 00a3 02       		.uleb128 0x2
 7590 00a4 04       		.byte	0x4
 7591 00a5 07       		.byte	0x7
 7592 00a6 590C0000 		.4byte	.LASF13
 7593 00aa 02       		.uleb128 0x2
 7594 00ab 08       		.byte	0x8
 7595 00ac 05       		.byte	0x5
 7596 00ad C4070000 		.4byte	.LASF14
 7597 00b1 04       		.uleb128 0x4
 7598 00b2 190B0000 		.4byte	.LASF15
 7599 00b6 09       		.byte	0x9
 7600 00b7 78       		.byte	0x78
 7601 00b8 29000000 		.4byte	0x29
 7602 00bc 04       		.uleb128 0x4
ARM GAS  C:\Users\Mohamad\AppData\Local\Temp\ccDsqi1j.s 			page 135


 7603 00bd 07050000 		.4byte	.LASF16
 7604 00c1 0A       		.byte	0xa
 7605 00c2 2B       		.byte	0x2b
 7606 00c3 C7000000 		.4byte	0xc7
 7607 00c7 02       		.uleb128 0x2
 7608 00c8 01       		.byte	0x1
 7609 00c9 02       		.byte	0x2
 7610 00ca 45050000 		.4byte	.LASF17
 7611 00ce 04       		.uleb128 0x4
 7612 00cf 4E090000 		.4byte	.LASF18
 7613 00d3 0A       		.byte	0xa
 7614 00d4 2C       		.byte	0x2c
 7615 00d5 50000000 		.4byte	0x50
 7616 00d9 04       		.uleb128 0x4
 7617 00da 97060000 		.4byte	.LASF19
 7618 00de 0A       		.byte	0xa
 7619 00df 2D       		.byte	0x2d
 7620 00e0 50000000 		.4byte	0x50
 7621 00e4 04       		.uleb128 0x4
 7622 00e5 BD090000 		.4byte	.LASF20
 7623 00e9 0A       		.byte	0xa
 7624 00ea 2E       		.byte	0x2e
 7625 00eb 50000000 		.4byte	0x50
 7626 00ef 04       		.uleb128 0x4
 7627 00f0 A9080000 		.4byte	.LASF21
 7628 00f4 0A       		.byte	0xa
 7629 00f5 2F       		.byte	0x2f
 7630 00f6 50000000 		.4byte	0x50
 7631 00fa 04       		.uleb128 0x4
 7632 00fb 8D030000 		.4byte	.LASF22
 7633 00ff 0A       		.byte	0xa
 7634 0100 30       		.byte	0x30
 7635 0101 98000000 		.4byte	0x98
 7636 0105 04       		.uleb128 0x4
 7637 0106 15080000 		.4byte	.LASF23
 7638 010a 0A       		.byte	0xa
 7639 010b 31       		.byte	0x31
 7640 010c 86000000 		.4byte	0x86
 7641 0110 04       		.uleb128 0x4
 7642 0111 34030000 		.4byte	.LASF24
 7643 0115 0A       		.byte	0xa
 7644 0116 33       		.byte	0x33
 7645 0117 98000000 		.4byte	0x98
 7646 011b 04       		.uleb128 0x4
 7647 011c 17060000 		.4byte	.LASF25
 7648 0120 0A       		.byte	0xa
 7649 0121 35       		.byte	0x35
 7650 0122 98000000 		.4byte	0x98
 7651 0126 04       		.uleb128 0x4
 7652 0127 90060000 		.4byte	.LASF26
 7653 012b 0B       		.byte	0xb
 7654 012c 2A       		.byte	0x2a
 7655 012d 31010000 		.4byte	0x131
 7656 0131 05       		.uleb128 0x5
 7657 0132 90060000 		.4byte	.LASF26
 7658 0136 48       		.byte	0x48
 7659 0137 0C       		.byte	0xc
ARM GAS  C:\Users\Mohamad\AppData\Local\Temp\ccDsqi1j.s 			page 136


 7660 0138 5E       		.byte	0x5e
 7661 0139 56020000 		.4byte	0x256
 7662 013d 06       		.uleb128 0x6
 7663 013e 0C0B0000 		.4byte	.LASF27
 7664 0142 0C       		.byte	0xc
 7665 0143 5F       		.byte	0x5f
 7666 0144 7B020000 		.4byte	0x27b
 7667 0148 02       		.byte	0x2
 7668 0149 23       		.byte	0x23
 7669 014a 00       		.uleb128 0
 7670 014b 06       		.uleb128 0x6
 7671 014c 210C0000 		.4byte	.LASF28
 7672 0150 0C       		.byte	0xc
 7673 0151 61       		.byte	0x61
 7674 0152 7B020000 		.4byte	0x27b
 7675 0156 02       		.byte	0x2
 7676 0157 23       		.byte	0x23
 7677 0158 04       		.uleb128 0x4
 7678 0159 06       		.uleb128 0x6
 7679 015a 7C000000 		.4byte	.LASF29
 7680 015e 0C       		.byte	0xc
 7681 015f 63       		.byte	0x63
 7682 0160 FA000000 		.4byte	0xfa
 7683 0164 02       		.byte	0x2
 7684 0165 23       		.byte	0x23
 7685 0166 08       		.uleb128 0x8
 7686 0167 06       		.uleb128 0x6
 7687 0168 220B0000 		.4byte	.LASF30
 7688 016c 0C       		.byte	0xc
 7689 016d 64       		.byte	0x64
 7690 016e 54030000 		.4byte	0x354
 7691 0172 02       		.byte	0x2
 7692 0173 23       		.byte	0x23
 7693 0174 0C       		.uleb128 0xc
 7694 0175 06       		.uleb128 0x6
 7695 0176 7F040000 		.4byte	.LASF31
 7696 017a 0C       		.byte	0xc
 7697 017b 66       		.byte	0x66
 7698 017c 7B020000 		.4byte	0x27b
 7699 0180 02       		.byte	0x2
 7700 0181 23       		.byte	0x23
 7701 0182 10       		.uleb128 0x10
 7702 0183 06       		.uleb128 0x6
 7703 0184 3C0E0000 		.4byte	.LASF32
 7704 0188 0C       		.byte	0xc
 7705 0189 67       		.byte	0x67
 7706 018a 7B020000 		.4byte	0x27b
 7707 018e 02       		.byte	0x2
 7708 018f 23       		.byte	0x23
 7709 0190 14       		.uleb128 0x14
 7710 0191 06       		.uleb128 0x6
 7711 0192 3E060000 		.4byte	.LASF33
 7712 0196 0C       		.byte	0xc
 7713 0197 6E       		.byte	0x6e
 7714 0198 D2040000 		.4byte	0x4d2
 7715 019c 02       		.byte	0x2
 7716 019d 23       		.byte	0x23
ARM GAS  C:\Users\Mohamad\AppData\Local\Temp\ccDsqi1j.s 			page 137


 7717 019e 18       		.uleb128 0x18
 7718 019f 06       		.uleb128 0x6
 7719 01a0 67070000 		.4byte	.LASF34
 7720 01a4 0C       		.byte	0xc
 7721 01a5 79       		.byte	0x79
 7722 01a6 D9000000 		.4byte	0xd9
 7723 01aa 02       		.byte	0x2
 7724 01ab 23       		.byte	0x23
 7725 01ac 1C       		.uleb128 0x1c
 7726 01ad 06       		.uleb128 0x6
 7727 01ae 48080000 		.4byte	.LASF35
 7728 01b2 0C       		.byte	0xc
 7729 01b3 7D       		.byte	0x7d
 7730 01b4 CE000000 		.4byte	0xce
 7731 01b8 02       		.byte	0x2
 7732 01b9 23       		.byte	0x23
 7733 01ba 1D       		.uleb128 0x1d
 7734 01bb 06       		.uleb128 0x6
 7735 01bc 2E0D0000 		.4byte	.LASF36
 7736 01c0 0C       		.byte	0xc
 7737 01c1 82       		.byte	0x82
 7738 01c2 E4000000 		.4byte	0xe4
 7739 01c6 02       		.byte	0x2
 7740 01c7 23       		.byte	0x23
 7741 01c8 1E       		.uleb128 0x1e
 7742 01c9 06       		.uleb128 0x6
 7743 01ca 870D0000 		.4byte	.LASF37
 7744 01ce 0C       		.byte	0xc
 7745 01cf 88       		.byte	0x88
 7746 01d0 EF000000 		.4byte	0xef
 7747 01d4 02       		.byte	0x2
 7748 01d5 23       		.byte	0x23
 7749 01d6 1F       		.uleb128 0x1f
 7750 01d7 06       		.uleb128 0x6
 7751 01d8 4F000000 		.4byte	.LASF38
 7752 01dc 0C       		.byte	0xc
 7753 01dd 8F       		.byte	0x8f
 7754 01de 45040000 		.4byte	0x445
 7755 01e2 02       		.byte	0x2
 7756 01e3 23       		.byte	0x23
 7757 01e4 20       		.uleb128 0x20
 7758 01e5 07       		.uleb128 0x7
 7759 01e6 705F7500 		.ascii	"p_u\000"
 7760 01ea 0C       		.byte	0xc
 7761 01eb B4       		.byte	0xb4
 7762 01ec 9D040000 		.4byte	0x49d
 7763 01f0 02       		.byte	0x2
 7764 01f1 23       		.byte	0x23
 7765 01f2 24       		.uleb128 0x24
 7766 01f3 06       		.uleb128 0x6
 7767 01f4 64010000 		.4byte	.LASF39
 7768 01f8 0C       		.byte	0xc
 7769 01f9 B9       		.byte	0xb9
 7770 01fa A3020000 		.4byte	0x2a3
 7771 01fe 02       		.byte	0x2
 7772 01ff 23       		.byte	0x23
 7773 0200 28       		.uleb128 0x28
ARM GAS  C:\Users\Mohamad\AppData\Local\Temp\ccDsqi1j.s 			page 138


 7774 0201 06       		.uleb128 0x6
 7775 0202 860E0000 		.4byte	.LASF40
 7776 0206 0C       		.byte	0xc
 7777 0207 BF       		.byte	0xbf
 7778 0208 81020000 		.4byte	0x281
 7779 020c 02       		.byte	0x2
 7780 020d 23       		.byte	0x23
 7781 020e 2C       		.uleb128 0x2c
 7782 020f 06       		.uleb128 0x6
 7783 0210 39090000 		.4byte	.LASF41
 7784 0214 0C       		.byte	0xc
 7785 0215 C3       		.byte	0xc3
 7786 0216 05010000 		.4byte	0x105
 7787 021a 02       		.byte	0x2
 7788 021b 23       		.byte	0x23
 7789 021c 34       		.uleb128 0x34
 7790 021d 06       		.uleb128 0x6
 7791 021e 3E0A0000 		.4byte	.LASF42
 7792 0222 0C       		.byte	0xc
 7793 0223 C9       		.byte	0xc9
 7794 0224 10010000 		.4byte	0x110
 7795 0228 02       		.byte	0x2
 7796 0229 23       		.byte	0x23
 7797 022a 38       		.uleb128 0x38
 7798 022b 06       		.uleb128 0x6
 7799 022c 5D070000 		.4byte	.LASF43
 7800 0230 0C       		.byte	0xc
 7801 0231 D0       		.byte	0xd0
 7802 0232 E4040000 		.4byte	0x4e4
 7803 0236 02       		.byte	0x2
 7804 0237 23       		.byte	0x23
 7805 0238 3C       		.uleb128 0x3c
 7806 0239 06       		.uleb128 0x6
 7807 023a 56090000 		.4byte	.LASF44
 7808 023e 0C       		.byte	0xc
 7809 023f D4       		.byte	0xd4
 7810 0240 FA000000 		.4byte	0xfa
 7811 0244 02       		.byte	0x2
 7812 0245 23       		.byte	0x23
 7813 0246 40       		.uleb128 0x40
 7814 0247 06       		.uleb128 0x6
 7815 0248 55070000 		.4byte	.LASF45
 7816 024c 0C       		.byte	0xc
 7817 024d DA       		.byte	0xda
 7818 024e B9020000 		.4byte	0x2b9
 7819 0252 02       		.byte	0x2
 7820 0253 23       		.byte	0x23
 7821 0254 44       		.uleb128 0x44
 7822 0255 00       		.byte	0
 7823 0256 08       		.uleb128 0x8
 7824 0257 08       		.byte	0x8
 7825 0258 0B       		.byte	0xb
 7826 0259 61       		.byte	0x61
 7827 025a 7B020000 		.4byte	0x27b
 7828 025e 06       		.uleb128 0x6
 7829 025f 0C0B0000 		.4byte	.LASF27
 7830 0263 0B       		.byte	0xb
ARM GAS  C:\Users\Mohamad\AppData\Local\Temp\ccDsqi1j.s 			page 139


 7831 0264 62       		.byte	0x62
 7832 0265 7B020000 		.4byte	0x27b
 7833 0269 02       		.byte	0x2
 7834 026a 23       		.byte	0x23
 7835 026b 00       		.uleb128 0
 7836 026c 06       		.uleb128 0x6
 7837 026d 210C0000 		.4byte	.LASF28
 7838 0271 0B       		.byte	0xb
 7839 0272 64       		.byte	0x64
 7840 0273 7B020000 		.4byte	0x27b
 7841 0277 02       		.byte	0x2
 7842 0278 23       		.byte	0x23
 7843 0279 04       		.uleb128 0x4
 7844 027a 00       		.byte	0
 7845 027b 09       		.uleb128 0x9
 7846 027c 04       		.byte	0x4
 7847 027d 26010000 		.4byte	0x126
 7848 0281 04       		.uleb128 0x4
 7849 0282 63060000 		.4byte	.LASF46
 7850 0286 0B       		.byte	0xb
 7851 0287 66       		.byte	0x66
 7852 0288 56020000 		.4byte	0x256
 7853 028c 08       		.uleb128 0x8
 7854 028d 04       		.byte	0x4
 7855 028e 0B       		.byte	0xb
 7856 028f 6B       		.byte	0x6b
 7857 0290 A3020000 		.4byte	0x2a3
 7858 0294 06       		.uleb128 0x6
 7859 0295 0C0B0000 		.4byte	.LASF27
 7860 0299 0B       		.byte	0xb
 7861 029a 6D       		.byte	0x6d
 7862 029b 7B020000 		.4byte	0x27b
 7863 029f 02       		.byte	0x2
 7864 02a0 23       		.byte	0x23
 7865 02a1 00       		.uleb128 0
 7866 02a2 00       		.byte	0
 7867 02a3 04       		.uleb128 0x4
 7868 02a4 1A000000 		.4byte	.LASF47
 7869 02a8 0B       		.byte	0xb
 7870 02a9 70       		.byte	0x70
 7871 02aa 8C020000 		.4byte	0x28c
 7872 02ae 04       		.uleb128 0x4
 7873 02af 73000000 		.4byte	.LASF48
 7874 02b3 0D       		.byte	0xd
 7875 02b4 E5       		.byte	0xe5
 7876 02b5 B9020000 		.4byte	0x2b9
 7877 02b9 0A       		.uleb128 0xa
 7878 02ba 04       		.byte	0x4
 7879 02bb 04       		.uleb128 0x4
 7880 02bc 570E0000 		.4byte	.LASF49
 7881 02c0 0D       		.byte	0xd
 7882 02c1 EB       		.byte	0xeb
 7883 02c2 B1000000 		.4byte	0xb1
 7884 02c6 0B       		.uleb128 0xb
 7885 02c7 89090000 		.4byte	.LASF50
 7886 02cb 24       		.byte	0x24
 7887 02cc 0D       		.byte	0xd
ARM GAS  C:\Users\Mohamad\AppData\Local\Temp\ccDsqi1j.s 			page 140


 7888 02cd 0C01     		.2byte	0x10c
 7889 02cf 54030000 		.4byte	0x354
 7890 02d3 0C       		.uleb128 0xc
 7891 02d4 723400   		.ascii	"r4\000"
 7892 02d7 0D       		.byte	0xd
 7893 02d8 1F01     		.2byte	0x11f
 7894 02da AE020000 		.4byte	0x2ae
 7895 02de 02       		.byte	0x2
 7896 02df 23       		.byte	0x23
 7897 02e0 00       		.uleb128 0
 7898 02e1 0C       		.uleb128 0xc
 7899 02e2 723500   		.ascii	"r5\000"
 7900 02e5 0D       		.byte	0xd
 7901 02e6 2001     		.2byte	0x120
 7902 02e8 AE020000 		.4byte	0x2ae
 7903 02ec 02       		.byte	0x2
 7904 02ed 23       		.byte	0x23
 7905 02ee 04       		.uleb128 0x4
 7906 02ef 0C       		.uleb128 0xc
 7907 02f0 723600   		.ascii	"r6\000"
 7908 02f3 0D       		.byte	0xd
 7909 02f4 2101     		.2byte	0x121
 7910 02f6 AE020000 		.4byte	0x2ae
 7911 02fa 02       		.byte	0x2
 7912 02fb 23       		.byte	0x23
 7913 02fc 08       		.uleb128 0x8
 7914 02fd 0C       		.uleb128 0xc
 7915 02fe 723700   		.ascii	"r7\000"
 7916 0301 0D       		.byte	0xd
 7917 0302 2201     		.2byte	0x122
 7918 0304 AE020000 		.4byte	0x2ae
 7919 0308 02       		.byte	0x2
 7920 0309 23       		.byte	0x23
 7921 030a 0C       		.uleb128 0xc
 7922 030b 0C       		.uleb128 0xc
 7923 030c 723800   		.ascii	"r8\000"
 7924 030f 0D       		.byte	0xd
 7925 0310 2301     		.2byte	0x123
 7926 0312 AE020000 		.4byte	0x2ae
 7927 0316 02       		.byte	0x2
 7928 0317 23       		.byte	0x23
 7929 0318 10       		.uleb128 0x10
 7930 0319 0C       		.uleb128 0xc
 7931 031a 723900   		.ascii	"r9\000"
 7932 031d 0D       		.byte	0xd
 7933 031e 2401     		.2byte	0x124
 7934 0320 AE020000 		.4byte	0x2ae
 7935 0324 02       		.byte	0x2
 7936 0325 23       		.byte	0x23
 7937 0326 14       		.uleb128 0x14
 7938 0327 0C       		.uleb128 0xc
 7939 0328 72313000 		.ascii	"r10\000"
 7940 032c 0D       		.byte	0xd
 7941 032d 2501     		.2byte	0x125
 7942 032f AE020000 		.4byte	0x2ae
 7943 0333 02       		.byte	0x2
 7944 0334 23       		.byte	0x23
ARM GAS  C:\Users\Mohamad\AppData\Local\Temp\ccDsqi1j.s 			page 141


 7945 0335 18       		.uleb128 0x18
 7946 0336 0C       		.uleb128 0xc
 7947 0337 72313100 		.ascii	"r11\000"
 7948 033b 0D       		.byte	0xd
 7949 033c 2601     		.2byte	0x126
 7950 033e AE020000 		.4byte	0x2ae
 7951 0342 02       		.byte	0x2
 7952 0343 23       		.byte	0x23
 7953 0344 1C       		.uleb128 0x1c
 7954 0345 0C       		.uleb128 0xc
 7955 0346 6C7200   		.ascii	"lr\000"
 7956 0349 0D       		.byte	0xd
 7957 034a 2701     		.2byte	0x127
 7958 034c AE020000 		.4byte	0x2ae
 7959 0350 02       		.byte	0x2
 7960 0351 23       		.byte	0x23
 7961 0352 20       		.uleb128 0x20
 7962 0353 00       		.byte	0
 7963 0354 0B       		.uleb128 0xb
 7964 0355 22080000 		.4byte	.LASF51
 7965 0359 04       		.byte	0x4
 7966 035a 0D       		.byte	0xd
 7967 035b 3101     		.2byte	0x131
 7968 035d 71030000 		.4byte	0x371
 7969 0361 0C       		.uleb128 0xc
 7970 0362 72313300 		.ascii	"r13\000"
 7971 0366 0D       		.byte	0xd
 7972 0367 3201     		.2byte	0x132
 7973 0369 71030000 		.4byte	0x371
 7974 036d 02       		.byte	0x2
 7975 036e 23       		.byte	0x23
 7976 036f 00       		.uleb128 0
 7977 0370 00       		.byte	0
 7978 0371 09       		.uleb128 0x9
 7979 0372 04       		.byte	0x4
 7980 0373 C6020000 		.4byte	0x2c6
 7981 0377 0D       		.uleb128 0xd
 7982 0378 98000000 		.4byte	0x98
 7983 037c 02       		.uleb128 0x2
 7984 037d 04       		.byte	0x4
 7985 037e 07       		.byte	0x7
 7986 037f 280C0000 		.4byte	.LASF52
 7987 0383 04       		.uleb128 0x4
 7988 0384 26000000 		.4byte	.LASF53
 7989 0388 0E       		.byte	0xe
 7990 0389 58       		.byte	0x58
 7991 038a 8E030000 		.4byte	0x38e
 7992 038e 09       		.uleb128 0x9
 7993 038f 04       		.byte	0x4
 7994 0390 94030000 		.4byte	0x394
 7995 0394 0E       		.uleb128 0xe
 7996 0395 01       		.byte	0x1
 7997 0396 A0030000 		.4byte	0x3a0
 7998 039a 0F       		.uleb128 0xf
 7999 039b B9020000 		.4byte	0x2b9
 8000 039f 00       		.byte	0
 8001 03a0 04       		.uleb128 0x4
ARM GAS  C:\Users\Mohamad\AppData\Local\Temp\ccDsqi1j.s 			page 142


 8002 03a1 9A0E0000 		.4byte	.LASF54
 8003 03a5 0E       		.byte	0xe
 8004 03a6 5D       		.byte	0x5d
 8005 03a7 AB030000 		.4byte	0x3ab
 8006 03ab 05       		.uleb128 0x5
 8007 03ac 9A0E0000 		.4byte	.LASF54
 8008 03b0 14       		.byte	0x14
 8009 03b1 0E       		.byte	0xe
 8010 03b2 64       		.byte	0x64
 8011 03b3 FE030000 		.4byte	0x3fe
 8012 03b7 06       		.uleb128 0x6
 8013 03b8 D70D0000 		.4byte	.LASF55
 8014 03bc 0E       		.byte	0xe
 8015 03bd 65       		.byte	0x65
 8016 03be FE030000 		.4byte	0x3fe
 8017 03c2 02       		.byte	0x2
 8018 03c3 23       		.byte	0x23
 8019 03c4 00       		.uleb128 0
 8020 03c5 06       		.uleb128 0x6
 8021 03c6 C20E0000 		.4byte	.LASF56
 8022 03ca 0E       		.byte	0xe
 8023 03cb 67       		.byte	0x67
 8024 03cc FE030000 		.4byte	0x3fe
 8025 03d0 02       		.byte	0x2
 8026 03d1 23       		.byte	0x23
 8027 03d2 04       		.uleb128 0x4
 8028 03d3 06       		.uleb128 0x6
 8029 03d4 E8020000 		.4byte	.LASF57
 8030 03d8 0E       		.byte	0xe
 8031 03d9 69       		.byte	0x69
 8032 03da 1B010000 		.4byte	0x11b
 8033 03de 02       		.byte	0x2
 8034 03df 23       		.byte	0x23
 8035 03e0 08       		.uleb128 0x8
 8036 03e1 06       		.uleb128 0x6
 8037 03e2 A70E0000 		.4byte	.LASF58
 8038 03e6 0E       		.byte	0xe
 8039 03e7 6A       		.byte	0x6a
 8040 03e8 83030000 		.4byte	0x383
 8041 03ec 02       		.byte	0x2
 8042 03ed 23       		.byte	0x23
 8043 03ee 0C       		.uleb128 0xc
 8044 03ef 06       		.uleb128 0x6
 8045 03f0 45030000 		.4byte	.LASF59
 8046 03f4 0E       		.byte	0xe
 8047 03f5 6C       		.byte	0x6c
 8048 03f6 B9020000 		.4byte	0x2b9
 8049 03fa 02       		.byte	0x2
 8050 03fb 23       		.byte	0x23
 8051 03fc 10       		.uleb128 0x10
 8052 03fd 00       		.byte	0
 8053 03fe 09       		.uleb128 0x9
 8054 03ff 04       		.byte	0x4
 8055 0400 A0030000 		.4byte	0x3a0
 8056 0404 08       		.uleb128 0x8
 8057 0405 10       		.byte	0x10
 8058 0406 0E       		.byte	0xe
ARM GAS  C:\Users\Mohamad\AppData\Local\Temp\ccDsqi1j.s 			page 143


 8059 0407 76       		.byte	0x76
 8060 0408 45040000 		.4byte	0x445
 8061 040c 06       		.uleb128 0x6
 8062 040d D70D0000 		.4byte	.LASF55
 8063 0411 0E       		.byte	0xe
 8064 0412 77       		.byte	0x77
 8065 0413 FE030000 		.4byte	0x3fe
 8066 0417 02       		.byte	0x2
 8067 0418 23       		.byte	0x23
 8068 0419 00       		.uleb128 0
 8069 041a 06       		.uleb128 0x6
 8070 041b C20E0000 		.4byte	.LASF56
 8071 041f 0E       		.byte	0xe
 8072 0420 79       		.byte	0x79
 8073 0421 FE030000 		.4byte	0x3fe
 8074 0425 02       		.byte	0x2
 8075 0426 23       		.byte	0x23
 8076 0427 04       		.uleb128 0x4
 8077 0428 06       		.uleb128 0x6
 8078 0429 E8020000 		.4byte	.LASF57
 8079 042d 0E       		.byte	0xe
 8080 042e 7B       		.byte	0x7b
 8081 042f 1B010000 		.4byte	0x11b
 8082 0433 02       		.byte	0x2
 8083 0434 23       		.byte	0x23
 8084 0435 08       		.uleb128 0x8
 8085 0436 06       		.uleb128 0x6
 8086 0437 F3000000 		.4byte	.LASF60
 8087 043b 0E       		.byte	0xe
 8088 043c 7C       		.byte	0x7c
 8089 043d 45040000 		.4byte	0x445
 8090 0441 02       		.byte	0x2
 8091 0442 23       		.byte	0x23
 8092 0443 0C       		.uleb128 0xc
 8093 0444 00       		.byte	0
 8094 0445 0D       		.uleb128 0xd
 8095 0446 1B010000 		.4byte	0x11b
 8096 044a 04       		.uleb128 0x4
 8097 044b AC060000 		.4byte	.LASF61
 8098 044f 0E       		.byte	0xe
 8099 0450 7D       		.byte	0x7d
 8100 0451 04040000 		.4byte	0x404
 8101 0455 05       		.uleb128 0x5
 8102 0456 E8050000 		.4byte	.LASF62
 8103 045a 10       		.byte	0x10
 8104 045b 0F       		.byte	0xf
 8105 045c 2C       		.byte	0x2c
 8106 045d 8C040000 		.4byte	0x48c
 8107 0461 06       		.uleb128 0x6
 8108 0462 4E0A0000 		.4byte	.LASF63
 8109 0466 0F       		.byte	0xf
 8110 0467 2D       		.byte	0x2d
 8111 0468 81020000 		.4byte	0x281
 8112 046c 02       		.byte	0x2
 8113 046d 23       		.byte	0x23
 8114 046e 00       		.uleb128 0
 8115 046f 06       		.uleb128 0x6
ARM GAS  C:\Users\Mohamad\AppData\Local\Temp\ccDsqi1j.s 			page 144


 8116 0470 99050000 		.4byte	.LASF64
 8117 0474 0F       		.byte	0xf
 8118 0475 2F       		.byte	0x2f
 8119 0476 7B020000 		.4byte	0x27b
 8120 047a 02       		.byte	0x2
 8121 047b 23       		.byte	0x23
 8122 047c 08       		.uleb128 0x8
 8123 047d 06       		.uleb128 0x6
 8124 047e 000E0000 		.4byte	.LASF65
 8125 0482 0F       		.byte	0xf
 8126 0483 31       		.byte	0x31
 8127 0484 8C040000 		.4byte	0x48c
 8128 0488 02       		.byte	0x2
 8129 0489 23       		.byte	0x23
 8130 048a 0C       		.uleb128 0xc
 8131 048b 00       		.byte	0
 8132 048c 09       		.uleb128 0x9
 8133 048d 04       		.byte	0x4
 8134 048e 55040000 		.4byte	0x455
 8135 0492 04       		.uleb128 0x4
 8136 0493 E8050000 		.4byte	.LASF62
 8137 0497 0F       		.byte	0xf
 8138 0498 33       		.byte	0x33
 8139 0499 55040000 		.4byte	0x455
 8140 049d 10       		.uleb128 0x10
 8141 049e 04       		.byte	0x4
 8142 049f 0C       		.byte	0xc
 8143 04a0 96       		.byte	0x96
 8144 04a1 D2040000 		.4byte	0x4d2
 8145 04a5 11       		.uleb128 0x11
 8146 04a6 CD040000 		.4byte	.LASF66
 8147 04aa 0C       		.byte	0xc
 8148 04ab 9D       		.byte	0x9d
 8149 04ac 05010000 		.4byte	0x105
 8150 04b0 11       		.uleb128 0x11
 8151 04b1 290F0000 		.4byte	.LASF67
 8152 04b5 0C       		.byte	0xc
 8153 04b6 A4       		.byte	0xa4
 8154 04b7 05010000 		.4byte	0x105
 8155 04bb 11       		.uleb128 0x11
 8156 04bc A1010000 		.4byte	.LASF68
 8157 04c0 0C       		.byte	0xc
 8158 04c1 AB       		.byte	0xab
 8159 04c2 B9020000 		.4byte	0x2b9
 8160 04c6 11       		.uleb128 0x11
 8161 04c7 DF010000 		.4byte	.LASF69
 8162 04cb 0C       		.byte	0xc
 8163 04cc B2       		.byte	0xb2
 8164 04cd 10010000 		.4byte	0x110
 8165 04d1 00       		.byte	0
 8166 04d2 09       		.uleb128 0x9
 8167 04d3 04       		.byte	0x4
 8168 04d4 D8040000 		.4byte	0x4d8
 8169 04d8 12       		.uleb128 0x12
 8170 04d9 DD040000 		.4byte	0x4dd
 8171 04dd 02       		.uleb128 0x2
 8172 04de 01       		.byte	0x1
ARM GAS  C:\Users\Mohamad\AppData\Local\Temp\ccDsqi1j.s 			page 145


 8173 04df 08       		.byte	0x8
 8174 04e0 7A060000 		.4byte	.LASF70
 8175 04e4 09       		.uleb128 0x9
 8176 04e5 04       		.byte	0x4
 8177 04e6 92040000 		.4byte	0x492
 8178 04ea 04       		.uleb128 0x4
 8179 04eb B7030000 		.4byte	.LASF71
 8180 04ef 0C       		.byte	0xc
 8181 04f0 E5       		.byte	0xe5
 8182 04f1 F5040000 		.4byte	0x4f5
 8183 04f5 09       		.uleb128 0x9
 8184 04f6 04       		.byte	0x4
 8185 04f7 FB040000 		.4byte	0x4fb
 8186 04fb 13       		.uleb128 0x13
 8187 04fc 01       		.byte	0x1
 8188 04fd 05010000 		.4byte	0x105
 8189 0501 0B050000 		.4byte	0x50b
 8190 0505 0F       		.uleb128 0xf
 8191 0506 B9020000 		.4byte	0x2b9
 8192 050a 00       		.byte	0
 8193 050b 09       		.uleb128 0x9
 8194 050c 04       		.byte	0x4
 8195 050d 50000000 		.4byte	0x50
 8196 0511 09       		.uleb128 0x9
 8197 0512 04       		.byte	0x4
 8198 0513 17050000 		.4byte	0x517
 8199 0517 12       		.uleb128 0x12
 8200 0518 50000000 		.4byte	0x50
 8201 051c 14       		.uleb128 0x14
 8202 051d 50000000 		.4byte	0x50
 8203 0521 2C050000 		.4byte	0x52c
 8204 0525 15       		.uleb128 0x15
 8205 0526 7C030000 		.4byte	0x37c
 8206 052a 0B       		.byte	0xb
 8207 052b 00       		.byte	0
 8208 052c 0D       		.uleb128 0xd
 8209 052d 74000000 		.4byte	0x74
 8210 0531 0D       		.uleb128 0xd
 8211 0532 86000000 		.4byte	0x86
 8212 0536 16       		.uleb128 0x16
 8213 0537 18       		.byte	0x18
 8214 0538 10       		.byte	0x10
 8215 0539 B102     		.2byte	0x2b1
 8216 053b 99050000 		.4byte	0x599
 8217 053f 0C       		.uleb128 0xc
 8218 0540 435200   		.ascii	"CR\000"
 8219 0543 10       		.byte	0x10
 8220 0544 B302     		.2byte	0x2b3
 8221 0546 77030000 		.4byte	0x377
 8222 054a 02       		.byte	0x2
 8223 054b 23       		.byte	0x23
 8224 054c 00       		.uleb128 0
 8225 054d 17       		.uleb128 0x17
 8226 054e DA010000 		.4byte	.LASF72
 8227 0552 10       		.byte	0x10
 8228 0553 B402     		.2byte	0x2b4
 8229 0555 77030000 		.4byte	0x377
ARM GAS  C:\Users\Mohamad\AppData\Local\Temp\ccDsqi1j.s 			page 146


 8230 0559 02       		.byte	0x2
 8231 055a 23       		.byte	0x23
 8232 055b 04       		.uleb128 0x4
 8233 055c 0C       		.uleb128 0xc
 8234 055d 50415200 		.ascii	"PAR\000"
 8235 0561 10       		.byte	0x10
 8236 0562 B502     		.2byte	0x2b5
 8237 0564 77030000 		.4byte	0x377
 8238 0568 02       		.byte	0x2
 8239 0569 23       		.byte	0x23
 8240 056a 08       		.uleb128 0x8
 8241 056b 17       		.uleb128 0x17
 8242 056c E3050000 		.4byte	.LASF73
 8243 0570 10       		.byte	0x10
 8244 0571 B602     		.2byte	0x2b6
 8245 0573 77030000 		.4byte	0x377
 8246 0577 02       		.byte	0x2
 8247 0578 23       		.byte	0x23
 8248 0579 0C       		.uleb128 0xc
 8249 057a 17       		.uleb128 0x17
 8250 057b FF0B0000 		.4byte	.LASF74
 8251 057f 10       		.byte	0x10
 8252 0580 B702     		.2byte	0x2b7
 8253 0582 77030000 		.4byte	0x377
 8254 0586 02       		.byte	0x2
 8255 0587 23       		.byte	0x23
 8256 0588 10       		.uleb128 0x10
 8257 0589 0C       		.uleb128 0xc
 8258 058a 46435200 		.ascii	"FCR\000"
 8259 058e 10       		.byte	0x10
 8260 058f B802     		.2byte	0x2b8
 8261 0591 77030000 		.4byte	0x377
 8262 0595 02       		.byte	0x2
 8263 0596 23       		.byte	0x23
 8264 0597 14       		.uleb128 0x14
 8265 0598 00       		.byte	0
 8266 0599 18       		.uleb128 0x18
 8267 059a 8A080000 		.4byte	.LASF75
 8268 059e 10       		.byte	0x10
 8269 059f B902     		.2byte	0x2b9
 8270 05a1 36050000 		.4byte	0x536
 8271 05a5 16       		.uleb128 0x16
 8272 05a6 28       		.byte	0x28
 8273 05a7 10       		.byte	0x10
 8274 05a8 F603     		.2byte	0x3f6
 8275 05aa DA060000 		.4byte	0x6da
 8276 05ae 0C       		.uleb128 0xc
 8277 05af 43523100 		.ascii	"CR1\000"
 8278 05b3 10       		.byte	0x10
 8279 05b4 F803     		.2byte	0x3f8
 8280 05b6 2C050000 		.4byte	0x52c
 8281 05ba 02       		.byte	0x2
 8282 05bb 23       		.byte	0x23
 8283 05bc 00       		.uleb128 0
 8284 05bd 17       		.uleb128 0x17
 8285 05be CA0E0000 		.4byte	.LASF76
 8286 05c2 10       		.byte	0x10
ARM GAS  C:\Users\Mohamad\AppData\Local\Temp\ccDsqi1j.s 			page 147


 8287 05c3 F903     		.2byte	0x3f9
 8288 05c5 74000000 		.4byte	0x74
 8289 05c9 02       		.byte	0x2
 8290 05ca 23       		.byte	0x23
 8291 05cb 02       		.uleb128 0x2
 8292 05cc 0C       		.uleb128 0xc
 8293 05cd 43523200 		.ascii	"CR2\000"
 8294 05d1 10       		.byte	0x10
 8295 05d2 FA03     		.2byte	0x3fa
 8296 05d4 2C050000 		.4byte	0x52c
 8297 05d8 02       		.byte	0x2
 8298 05d9 23       		.byte	0x23
 8299 05da 04       		.uleb128 0x4
 8300 05db 17       		.uleb128 0x17
 8301 05dc D40E0000 		.4byte	.LASF77
 8302 05e0 10       		.byte	0x10
 8303 05e1 FB03     		.2byte	0x3fb
 8304 05e3 74000000 		.4byte	0x74
 8305 05e7 02       		.byte	0x2
 8306 05e8 23       		.byte	0x23
 8307 05e9 06       		.uleb128 0x6
 8308 05ea 17       		.uleb128 0x17
 8309 05eb 490A0000 		.4byte	.LASF78
 8310 05ef 10       		.byte	0x10
 8311 05f0 FC03     		.2byte	0x3fc
 8312 05f2 2C050000 		.4byte	0x52c
 8313 05f6 02       		.byte	0x2
 8314 05f7 23       		.byte	0x23
 8315 05f8 08       		.uleb128 0x8
 8316 05f9 17       		.uleb128 0x17
 8317 05fa EE090000 		.4byte	.LASF79
 8318 05fe 10       		.byte	0x10
 8319 05ff FD03     		.2byte	0x3fd
 8320 0601 74000000 		.4byte	0x74
 8321 0605 02       		.byte	0x2
 8322 0606 23       		.byte	0x23
 8323 0607 0A       		.uleb128 0xa
 8324 0608 17       		.uleb128 0x17
 8325 0609 A1050000 		.4byte	.LASF80
 8326 060d 10       		.byte	0x10
 8327 060e FE03     		.2byte	0x3fe
 8328 0610 2C050000 		.4byte	0x52c
 8329 0614 02       		.byte	0x2
 8330 0615 23       		.byte	0x23
 8331 0616 0C       		.uleb128 0xc
 8332 0617 17       		.uleb128 0x17
 8333 0618 F8090000 		.4byte	.LASF81
 8334 061c 10       		.byte	0x10
 8335 061d FF03     		.2byte	0x3ff
 8336 061f 74000000 		.4byte	0x74
 8337 0623 02       		.byte	0x2
 8338 0624 23       		.byte	0x23
 8339 0625 0E       		.uleb128 0xe
 8340 0626 0C       		.uleb128 0xc
 8341 0627 445200   		.ascii	"DR\000"
 8342 062a 10       		.byte	0x10
 8343 062b 0004     		.2byte	0x400
ARM GAS  C:\Users\Mohamad\AppData\Local\Temp\ccDsqi1j.s 			page 148


 8344 062d 2C050000 		.4byte	0x52c
 8345 0631 02       		.byte	0x2
 8346 0632 23       		.byte	0x23
 8347 0633 10       		.uleb128 0x10
 8348 0634 17       		.uleb128 0x17
 8349 0635 020A0000 		.4byte	.LASF82
 8350 0639 10       		.byte	0x10
 8351 063a 0104     		.2byte	0x401
 8352 063c 74000000 		.4byte	0x74
 8353 0640 02       		.byte	0x2
 8354 0641 23       		.byte	0x23
 8355 0642 12       		.uleb128 0x12
 8356 0643 0C       		.uleb128 0xc
 8357 0644 53523100 		.ascii	"SR1\000"
 8358 0648 10       		.byte	0x10
 8359 0649 0204     		.2byte	0x402
 8360 064b 2C050000 		.4byte	0x52c
 8361 064f 02       		.byte	0x2
 8362 0650 23       		.byte	0x23
 8363 0651 14       		.uleb128 0x14
 8364 0652 17       		.uleb128 0x17
 8365 0653 0C0A0000 		.4byte	.LASF83
 8366 0657 10       		.byte	0x10
 8367 0658 0304     		.2byte	0x403
 8368 065a 74000000 		.4byte	0x74
 8369 065e 02       		.byte	0x2
 8370 065f 23       		.byte	0x23
 8371 0660 16       		.uleb128 0x16
 8372 0661 0C       		.uleb128 0xc
 8373 0662 53523200 		.ascii	"SR2\000"
 8374 0666 10       		.byte	0x10
 8375 0667 0404     		.2byte	0x404
 8376 0669 2C050000 		.4byte	0x52c
 8377 066d 02       		.byte	0x2
 8378 066e 23       		.byte	0x23
 8379 066f 18       		.uleb128 0x18
 8380 0670 17       		.uleb128 0x17
 8381 0671 160A0000 		.4byte	.LASF84
 8382 0675 10       		.byte	0x10
 8383 0676 0504     		.2byte	0x405
 8384 0678 74000000 		.4byte	0x74
 8385 067c 02       		.byte	0x2
 8386 067d 23       		.byte	0x23
 8387 067e 1A       		.uleb128 0x1a
 8388 067f 0C       		.uleb128 0xc
 8389 0680 43435200 		.ascii	"CCR\000"
 8390 0684 10       		.byte	0x10
 8391 0685 0604     		.2byte	0x406
 8392 0687 2C050000 		.4byte	0x52c
 8393 068b 02       		.byte	0x2
 8394 068c 23       		.byte	0x23
 8395 068d 1C       		.uleb128 0x1c
 8396 068e 17       		.uleb128 0x17
 8397 068f 200A0000 		.4byte	.LASF85
 8398 0693 10       		.byte	0x10
 8399 0694 0704     		.2byte	0x407
 8400 0696 74000000 		.4byte	0x74
ARM GAS  C:\Users\Mohamad\AppData\Local\Temp\ccDsqi1j.s 			page 149


 8401 069a 02       		.byte	0x2
 8402 069b 23       		.byte	0x23
 8403 069c 1E       		.uleb128 0x1e
 8404 069d 17       		.uleb128 0x17
 8405 069e 3B070000 		.4byte	.LASF86
 8406 06a2 10       		.byte	0x10
 8407 06a3 0804     		.2byte	0x408
 8408 06a5 2C050000 		.4byte	0x52c
 8409 06a9 02       		.byte	0x2
 8410 06aa 23       		.byte	0x23
 8411 06ab 20       		.uleb128 0x20
 8412 06ac 17       		.uleb128 0x17
 8413 06ad 2A0A0000 		.4byte	.LASF87
 8414 06b1 10       		.byte	0x10
 8415 06b2 0904     		.2byte	0x409
 8416 06b4 74000000 		.4byte	0x74
 8417 06b8 02       		.byte	0x2
 8418 06b9 23       		.byte	0x23
 8419 06ba 22       		.uleb128 0x22
 8420 06bb 17       		.uleb128 0x17
 8421 06bc B3080000 		.4byte	.LASF88
 8422 06c0 10       		.byte	0x10
 8423 06c1 0A04     		.2byte	0x40a
 8424 06c3 2C050000 		.4byte	0x52c
 8425 06c7 02       		.byte	0x2
 8426 06c8 23       		.byte	0x23
 8427 06c9 24       		.uleb128 0x24
 8428 06ca 17       		.uleb128 0x17
 8429 06cb 340A0000 		.4byte	.LASF89
 8430 06cf 10       		.byte	0x10
 8431 06d0 0B04     		.2byte	0x40b
 8432 06d2 74000000 		.4byte	0x74
 8433 06d6 02       		.byte	0x2
 8434 06d7 23       		.byte	0x23
 8435 06d8 26       		.uleb128 0x26
 8436 06d9 00       		.byte	0
 8437 06da 18       		.uleb128 0x18
 8438 06db 5D0D0000 		.4byte	.LASF90
 8439 06df 10       		.byte	0x10
 8440 06e0 0C04     		.2byte	0x40c
 8441 06e2 A5050000 		.4byte	0x5a5
 8442 06e6 16       		.uleb128 0x16
 8443 06e7 1C       		.byte	0x1c
 8444 06e8 10       		.byte	0x10
 8445 06e9 2905     		.2byte	0x529
 8446 06eb C0070000 		.4byte	0x7c0
 8447 06ef 0C       		.uleb128 0xc
 8448 06f0 535200   		.ascii	"SR\000"
 8449 06f3 10       		.byte	0x10
 8450 06f4 2B05     		.2byte	0x52b
 8451 06f6 2C050000 		.4byte	0x52c
 8452 06fa 02       		.byte	0x2
 8453 06fb 23       		.byte	0x23
 8454 06fc 00       		.uleb128 0
 8455 06fd 17       		.uleb128 0x17
 8456 06fe CA0E0000 		.4byte	.LASF76
 8457 0702 10       		.byte	0x10
ARM GAS  C:\Users\Mohamad\AppData\Local\Temp\ccDsqi1j.s 			page 150


 8458 0703 2C05     		.2byte	0x52c
 8459 0705 74000000 		.4byte	0x74
 8460 0709 02       		.byte	0x2
 8461 070a 23       		.byte	0x23
 8462 070b 02       		.uleb128 0x2
 8463 070c 0C       		.uleb128 0xc
 8464 070d 445200   		.ascii	"DR\000"
 8465 0710 10       		.byte	0x10
 8466 0711 2D05     		.2byte	0x52d
 8467 0713 2C050000 		.4byte	0x52c
 8468 0717 02       		.byte	0x2
 8469 0718 23       		.byte	0x23
 8470 0719 04       		.uleb128 0x4
 8471 071a 17       		.uleb128 0x17
 8472 071b D40E0000 		.4byte	.LASF77
 8473 071f 10       		.byte	0x10
 8474 0720 2E05     		.2byte	0x52e
 8475 0722 74000000 		.4byte	0x74
 8476 0726 02       		.byte	0x2
 8477 0727 23       		.byte	0x23
 8478 0728 06       		.uleb128 0x6
 8479 0729 0C       		.uleb128 0xc
 8480 072a 42525200 		.ascii	"BRR\000"
 8481 072e 10       		.byte	0x10
 8482 072f 2F05     		.2byte	0x52f
 8483 0731 2C050000 		.4byte	0x52c
 8484 0735 02       		.byte	0x2
 8485 0736 23       		.byte	0x23
 8486 0737 08       		.uleb128 0x8
 8487 0738 17       		.uleb128 0x17
 8488 0739 EE090000 		.4byte	.LASF79
 8489 073d 10       		.byte	0x10
 8490 073e 3005     		.2byte	0x530
 8491 0740 74000000 		.4byte	0x74
 8492 0744 02       		.byte	0x2
 8493 0745 23       		.byte	0x23
 8494 0746 0A       		.uleb128 0xa
 8495 0747 0C       		.uleb128 0xc
 8496 0748 43523100 		.ascii	"CR1\000"
 8497 074c 10       		.byte	0x10
 8498 074d 3105     		.2byte	0x531
 8499 074f 2C050000 		.4byte	0x52c
 8500 0753 02       		.byte	0x2
 8501 0754 23       		.byte	0x23
 8502 0755 0C       		.uleb128 0xc
 8503 0756 17       		.uleb128 0x17
 8504 0757 F8090000 		.4byte	.LASF81
 8505 075b 10       		.byte	0x10
 8506 075c 3205     		.2byte	0x532
 8507 075e 74000000 		.4byte	0x74
 8508 0762 02       		.byte	0x2
 8509 0763 23       		.byte	0x23
 8510 0764 0E       		.uleb128 0xe
 8511 0765 0C       		.uleb128 0xc
 8512 0766 43523200 		.ascii	"CR2\000"
 8513 076a 10       		.byte	0x10
 8514 076b 3305     		.2byte	0x533
ARM GAS  C:\Users\Mohamad\AppData\Local\Temp\ccDsqi1j.s 			page 151


 8515 076d 2C050000 		.4byte	0x52c
 8516 0771 02       		.byte	0x2
 8517 0772 23       		.byte	0x23
 8518 0773 10       		.uleb128 0x10
 8519 0774 17       		.uleb128 0x17
 8520 0775 020A0000 		.4byte	.LASF82
 8521 0779 10       		.byte	0x10
 8522 077a 3405     		.2byte	0x534
 8523 077c 74000000 		.4byte	0x74
 8524 0780 02       		.byte	0x2
 8525 0781 23       		.byte	0x23
 8526 0782 12       		.uleb128 0x12
 8527 0783 0C       		.uleb128 0xc
 8528 0784 43523300 		.ascii	"CR3\000"
 8529 0788 10       		.byte	0x10
 8530 0789 3505     		.2byte	0x535
 8531 078b 2C050000 		.4byte	0x52c
 8532 078f 02       		.byte	0x2
 8533 0790 23       		.byte	0x23
 8534 0791 14       		.uleb128 0x14
 8535 0792 17       		.uleb128 0x17
 8536 0793 0C0A0000 		.4byte	.LASF83
 8537 0797 10       		.byte	0x10
 8538 0798 3605     		.2byte	0x536
 8539 079a 74000000 		.4byte	0x74
 8540 079e 02       		.byte	0x2
 8541 079f 23       		.byte	0x23
 8542 07a0 16       		.uleb128 0x16
 8543 07a1 17       		.uleb128 0x17
 8544 07a2 2F030000 		.4byte	.LASF91
 8545 07a6 10       		.byte	0x10
 8546 07a7 3705     		.2byte	0x537
 8547 07a9 2C050000 		.4byte	0x52c
 8548 07ad 02       		.byte	0x2
 8549 07ae 23       		.byte	0x23
 8550 07af 18       		.uleb128 0x18
 8551 07b0 17       		.uleb128 0x17
 8552 07b1 160A0000 		.4byte	.LASF84
 8553 07b5 10       		.byte	0x10
 8554 07b6 3805     		.2byte	0x538
 8555 07b8 74000000 		.4byte	0x74
 8556 07bc 02       		.byte	0x2
 8557 07bd 23       		.byte	0x23
 8558 07be 1A       		.uleb128 0x1a
 8559 07bf 00       		.byte	0
 8560 07c0 18       		.uleb128 0x18
 8561 07c1 C8050000 		.4byte	.LASF92
 8562 07c5 10       		.byte	0x10
 8563 07c6 3905     		.2byte	0x539
 8564 07c8 E6060000 		.4byte	0x6e6
 8565 07cc 08       		.uleb128 0x8
 8566 07cd 0C       		.byte	0xc
 8567 07ce 11       		.byte	0x11
 8568 07cf DA       		.byte	0xda
 8569 07d0 1B080000 		.4byte	0x81b
 8570 07d4 06       		.uleb128 0x6
 8571 07d5 700F0000 		.4byte	.LASF93
ARM GAS  C:\Users\Mohamad\AppData\Local\Temp\ccDsqi1j.s 			page 152


 8572 07d9 11       		.byte	0x11
 8573 07da DB       		.byte	0xdb
 8574 07db 1B080000 		.4byte	0x81b
 8575 07df 02       		.byte	0x2
 8576 07e0 23       		.byte	0x23
 8577 07e1 00       		.uleb128 0
 8578 07e2 06       		.uleb128 0x6
 8579 07e3 40030000 		.4byte	.LASF94
 8580 07e7 11       		.byte	0x11
 8581 07e8 DC       		.byte	0xdc
 8582 07e9 21080000 		.4byte	0x821
 8583 07ed 02       		.byte	0x2
 8584 07ee 23       		.byte	0x23
 8585 07ef 04       		.uleb128 0x4
 8586 07f0 06       		.uleb128 0x6
 8587 07f1 89060000 		.4byte	.LASF95
 8588 07f5 11       		.byte	0x11
 8589 07f6 DD       		.byte	0xdd
 8590 07f7 50000000 		.4byte	0x50
 8591 07fb 02       		.byte	0x2
 8592 07fc 23       		.byte	0x23
 8593 07fd 08       		.uleb128 0x8
 8594 07fe 06       		.uleb128 0x6
 8595 07ff 320F0000 		.4byte	.LASF96
 8596 0803 11       		.byte	0x11
 8597 0804 DF       		.byte	0xdf
 8598 0805 50000000 		.4byte	0x50
 8599 0809 02       		.byte	0x2
 8600 080a 23       		.byte	0x23
 8601 080b 09       		.uleb128 0x9
 8602 080c 06       		.uleb128 0x6
 8603 080d E5030000 		.4byte	.LASF97
 8604 0811 11       		.byte	0x11
 8605 0812 E0       		.byte	0xe0
 8606 0813 50000000 		.4byte	0x50
 8607 0817 02       		.byte	0x2
 8608 0818 23       		.byte	0x23
 8609 0819 0A       		.uleb128 0xa
 8610 081a 00       		.byte	0
 8611 081b 09       		.uleb128 0x9
 8612 081c 04       		.byte	0x4
 8613 081d 99050000 		.4byte	0x599
 8614 0821 09       		.uleb128 0x9
 8615 0822 04       		.byte	0x4
 8616 0823 77030000 		.4byte	0x377
 8617 0827 04       		.uleb128 0x4
 8618 0828 C9060000 		.4byte	.LASF98
 8619 082c 11       		.byte	0x11
 8620 082d E1       		.byte	0xe1
 8621 082e CC070000 		.4byte	0x7cc
 8622 0832 08       		.uleb128 0x8
 8623 0833 04       		.byte	0x4
 8624 0834 12       		.byte	0x12
 8625 0835 96       		.byte	0x96
 8626 0836 57080000 		.4byte	0x857
 8627 083a 07       		.uleb128 0x7
 8628 083b 73657400 		.ascii	"set\000"
ARM GAS  C:\Users\Mohamad\AppData\Local\Temp\ccDsqi1j.s 			page 153


 8629 083f 12       		.byte	0x12
 8630 0840 97       		.byte	0x97
 8631 0841 74000000 		.4byte	0x74
 8632 0845 02       		.byte	0x2
 8633 0846 23       		.byte	0x23
 8634 0847 00       		.uleb128 0
 8635 0848 06       		.uleb128 0x6
 8636 0849 87040000 		.4byte	.LASF99
 8637 084d 12       		.byte	0x12
 8638 084e 98       		.byte	0x98
 8639 084f 74000000 		.4byte	0x74
 8640 0853 02       		.byte	0x2
 8641 0854 23       		.byte	0x23
 8642 0855 02       		.uleb128 0x2
 8643 0856 00       		.byte	0
 8644 0857 10       		.uleb128 0x10
 8645 0858 04       		.byte	0x4
 8646 0859 12       		.byte	0x12
 8647 085a 94       		.byte	0x94
 8648 085b 72080000 		.4byte	0x872
 8649 085f 19       		.uleb128 0x19
 8650 0860 5700     		.ascii	"W\000"
 8651 0862 12       		.byte	0x12
 8652 0863 95       		.byte	0x95
 8653 0864 98000000 		.4byte	0x98
 8654 0868 19       		.uleb128 0x19
 8655 0869 4800     		.ascii	"H\000"
 8656 086b 12       		.byte	0x12
 8657 086c 99       		.byte	0x99
 8658 086d 32080000 		.4byte	0x832
 8659 0871 00       		.byte	0
 8660 0872 08       		.uleb128 0x8
 8661 0873 28       		.byte	0x28
 8662 0874 12       		.byte	0x12
 8663 0875 8C       		.byte	0x8c
 8664 0876 07090000 		.4byte	0x907
 8665 087a 06       		.uleb128 0x6
 8666 087b 39040000 		.4byte	.LASF100
 8667 087f 12       		.byte	0x12
 8668 0880 8E       		.byte	0x8e
 8669 0881 77030000 		.4byte	0x377
 8670 0885 02       		.byte	0x2
 8671 0886 23       		.byte	0x23
 8672 0887 00       		.uleb128 0
 8673 0888 06       		.uleb128 0x6
 8674 0889 D90A0000 		.4byte	.LASF101
 8675 088d 12       		.byte	0x12
 8676 088e 8F       		.byte	0x8f
 8677 088f 77030000 		.4byte	0x377
 8678 0893 02       		.byte	0x2
 8679 0894 23       		.byte	0x23
 8680 0895 04       		.uleb128 0x4
 8681 0896 06       		.uleb128 0x6
 8682 0897 6C090000 		.4byte	.LASF102
 8683 089b 12       		.byte	0x12
 8684 089c 90       		.byte	0x90
 8685 089d 77030000 		.4byte	0x377
ARM GAS  C:\Users\Mohamad\AppData\Local\Temp\ccDsqi1j.s 			page 154


 8686 08a1 02       		.byte	0x2
 8687 08a2 23       		.byte	0x23
 8688 08a3 08       		.uleb128 0x8
 8689 08a4 06       		.uleb128 0x6
 8690 08a5 73050000 		.4byte	.LASF103
 8691 08a9 12       		.byte	0x12
 8692 08aa 91       		.byte	0x91
 8693 08ab 77030000 		.4byte	0x377
 8694 08af 02       		.byte	0x2
 8695 08b0 23       		.byte	0x23
 8696 08b1 0C       		.uleb128 0xc
 8697 08b2 07       		.uleb128 0x7
 8698 08b3 49445200 		.ascii	"IDR\000"
 8699 08b7 12       		.byte	0x12
 8700 08b8 92       		.byte	0x92
 8701 08b9 77030000 		.4byte	0x377
 8702 08bd 02       		.byte	0x2
 8703 08be 23       		.byte	0x23
 8704 08bf 10       		.uleb128 0x10
 8705 08c0 07       		.uleb128 0x7
 8706 08c1 4F445200 		.ascii	"ODR\000"
 8707 08c5 12       		.byte	0x12
 8708 08c6 93       		.byte	0x93
 8709 08c7 77030000 		.4byte	0x377
 8710 08cb 02       		.byte	0x2
 8711 08cc 23       		.byte	0x23
 8712 08cd 14       		.uleb128 0x14
 8713 08ce 06       		.uleb128 0x6
 8714 08cf 56000000 		.4byte	.LASF104
 8715 08d3 12       		.byte	0x12
 8716 08d4 9A       		.byte	0x9a
 8717 08d5 07090000 		.4byte	0x907
 8718 08d9 02       		.byte	0x2
 8719 08da 23       		.byte	0x23
 8720 08db 18       		.uleb128 0x18
 8721 08dc 06       		.uleb128 0x6
 8722 08dd 650F0000 		.4byte	.LASF105
 8723 08e1 12       		.byte	0x12
 8724 08e2 9B       		.byte	0x9b
 8725 08e3 77030000 		.4byte	0x377
 8726 08e7 02       		.byte	0x2
 8727 08e8 23       		.byte	0x23
 8728 08e9 1C       		.uleb128 0x1c
 8729 08ea 06       		.uleb128 0x6
 8730 08eb 7A040000 		.4byte	.LASF106
 8731 08ef 12       		.byte	0x12
 8732 08f0 9C       		.byte	0x9c
 8733 08f1 77030000 		.4byte	0x377
 8734 08f5 02       		.byte	0x2
 8735 08f6 23       		.byte	0x23
 8736 08f7 20       		.uleb128 0x20
 8737 08f8 06       		.uleb128 0x6
 8738 08f9 5D040000 		.4byte	.LASF107
 8739 08fd 12       		.byte	0x12
 8740 08fe 9D       		.byte	0x9d
 8741 08ff 77030000 		.4byte	0x377
 8742 0903 02       		.byte	0x2
ARM GAS  C:\Users\Mohamad\AppData\Local\Temp\ccDsqi1j.s 			page 155


 8743 0904 23       		.byte	0x23
 8744 0905 24       		.uleb128 0x24
 8745 0906 00       		.byte	0
 8746 0907 0D       		.uleb128 0xd
 8747 0908 57080000 		.4byte	0x857
 8748 090c 04       		.uleb128 0x4
 8749 090d DB0B0000 		.4byte	.LASF108
 8750 0911 12       		.byte	0x12
 8751 0912 9E       		.byte	0x9e
 8752 0913 72080000 		.4byte	0x872
 8753 0917 04       		.uleb128 0x4
 8754 0918 50080000 		.4byte	.LASF109
 8755 091c 12       		.byte	0x12
 8756 091d F0       		.byte	0xf0
 8757 091e 98000000 		.4byte	0x98
 8758 0922 1A       		.uleb128 0x1a
 8759 0923 01       		.byte	0x1
 8760 0924 13       		.byte	0x13
 8761 0925 5A       		.byte	0x5a
 8762 0926 4F090000 		.4byte	0x94f
 8763 092a 1B       		.uleb128 0x1b
 8764 092b F4070000 		.4byte	.LASF110
 8765 092f 00       		.sleb128 0
 8766 0930 1B       		.uleb128 0x1b
 8767 0931 E80C0000 		.4byte	.LASF111
 8768 0935 01       		.sleb128 1
 8769 0936 1B       		.uleb128 0x1b
 8770 0937 9E090000 		.4byte	.LASF112
 8771 093b 02       		.sleb128 2
 8772 093c 1B       		.uleb128 0x1b
 8773 093d 21030000 		.4byte	.LASF113
 8774 0941 03       		.sleb128 3
 8775 0942 1B       		.uleb128 0x1b
 8776 0943 FE000000 		.4byte	.LASF114
 8777 0947 04       		.sleb128 4
 8778 0948 1B       		.uleb128 0x1b
 8779 0949 2F020000 		.4byte	.LASF115
 8780 094d 05       		.sleb128 5
 8781 094e 00       		.byte	0
 8782 094f 04       		.uleb128 0x4
 8783 0950 07040000 		.4byte	.LASF116
 8784 0954 13       		.byte	0x13
 8785 0955 61       		.byte	0x61
 8786 0956 22090000 		.4byte	0x922
 8787 095a 18       		.uleb128 0x18
 8788 095b 6D0A0000 		.4byte	.LASF117
 8789 095f 14       		.byte	0x14
 8790 0960 3501     		.2byte	0x135
 8791 0962 74000000 		.4byte	0x74
 8792 0966 18       		.uleb128 0x18
 8793 0967 A4040000 		.4byte	.LASF118
 8794 096b 14       		.byte	0x14
 8795 096c 3A01     		.2byte	0x13a
 8796 096e 98000000 		.4byte	0x98
 8797 0972 1C       		.uleb128 0x1c
 8798 0973 01       		.byte	0x1
 8799 0974 14       		.byte	0x14
ARM GAS  C:\Users\Mohamad\AppData\Local\Temp\ccDsqi1j.s 			page 156


 8800 0975 3F01     		.2byte	0x13f
 8801 0977 8E090000 		.4byte	0x98e
 8802 097b 1B       		.uleb128 0x1b
 8803 097c 16030000 		.4byte	.LASF119
 8804 0980 01       		.sleb128 1
 8805 0981 1B       		.uleb128 0x1b
 8806 0982 BB0C0000 		.4byte	.LASF120
 8807 0986 02       		.sleb128 2
 8808 0987 1B       		.uleb128 0x1b
 8809 0988 DB070000 		.4byte	.LASF121
 8810 098c 03       		.sleb128 3
 8811 098d 00       		.byte	0
 8812 098e 18       		.uleb128 0x18
 8813 098f 910D0000 		.4byte	.LASF122
 8814 0993 14       		.byte	0x14
 8815 0994 4301     		.2byte	0x143
 8816 0996 72090000 		.4byte	0x972
 8817 099a 1C       		.uleb128 0x1c
 8818 099b 01       		.byte	0x1
 8819 099c 14       		.byte	0x14
 8820 099d 4801     		.2byte	0x148
 8821 099f B6090000 		.4byte	0x9b6
 8822 09a3 1B       		.uleb128 0x1b
 8823 09a4 6E010000 		.4byte	.LASF123
 8824 09a8 01       		.sleb128 1
 8825 09a9 1B       		.uleb128 0x1b
 8826 09aa F9080000 		.4byte	.LASF124
 8827 09ae 02       		.sleb128 2
 8828 09af 1B       		.uleb128 0x1b
 8829 09b0 F5060000 		.4byte	.LASF125
 8830 09b4 03       		.sleb128 3
 8831 09b5 00       		.byte	0
 8832 09b6 18       		.uleb128 0x18
 8833 09b7 95040000 		.4byte	.LASF126
 8834 09bb 14       		.byte	0x14
 8835 09bc 4C01     		.2byte	0x14c
 8836 09be 9A090000 		.4byte	0x99a
 8837 09c2 16       		.uleb128 0x16
 8838 09c3 0C       		.byte	0xc
 8839 09c4 14       		.byte	0x14
 8840 09c5 5101     		.2byte	0x151
 8841 09c7 F9090000 		.4byte	0x9f9
 8842 09cb 17       		.uleb128 0x17
 8843 09cc 96090000 		.4byte	.LASF127
 8844 09d0 14       		.byte	0x14
 8845 09d1 5201     		.2byte	0x152
 8846 09d3 8E090000 		.4byte	0x98e
 8847 09d7 02       		.byte	0x2
 8848 09d8 23       		.byte	0x23
 8849 09d9 00       		.uleb128 0
 8850 09da 17       		.uleb128 0x17
 8851 09db 9D080000 		.4byte	.LASF128
 8852 09df 14       		.byte	0x14
 8853 09e0 5301     		.2byte	0x153
 8854 09e2 98000000 		.4byte	0x98
 8855 09e6 02       		.byte	0x2
 8856 09e7 23       		.byte	0x23
ARM GAS  C:\Users\Mohamad\AppData\Local\Temp\ccDsqi1j.s 			page 157


 8857 09e8 04       		.uleb128 0x4
 8858 09e9 17       		.uleb128 0x17
 8859 09ea 7F020000 		.4byte	.LASF129
 8860 09ee 14       		.byte	0x14
 8861 09ef 5601     		.2byte	0x156
 8862 09f1 B6090000 		.4byte	0x9b6
 8863 09f5 02       		.byte	0x2
 8864 09f6 23       		.byte	0x23
 8865 09f7 08       		.uleb128 0x8
 8866 09f8 00       		.byte	0
 8867 09f9 18       		.uleb128 0x18
 8868 09fa 2F040000 		.4byte	.LASF130
 8869 09fe 14       		.byte	0x14
 8870 09ff 5801     		.2byte	0x158
 8871 0a01 C2090000 		.4byte	0x9c2
 8872 0a05 18       		.uleb128 0x18
 8873 0a06 2B010000 		.4byte	.LASF131
 8874 0a0a 14       		.byte	0x14
 8875 0a0b 5D01     		.2byte	0x15d
 8876 0a0d 110A0000 		.4byte	0xa11
 8877 0a11 0B       		.uleb128 0xb
 8878 0a12 2B010000 		.4byte	.LASF131
 8879 0a16 38       		.byte	0x38
 8880 0a17 14       		.byte	0x14
 8881 0a18 6201     		.2byte	0x162
 8882 0a1a C40A0000 		.4byte	0xac4
 8883 0a1e 17       		.uleb128 0x17
 8884 0a1f C40D0000 		.4byte	.LASF132
 8885 0a23 14       		.byte	0x14
 8886 0a24 6601     		.2byte	0x166
 8887 0a26 4F090000 		.4byte	0x94f
 8888 0a2a 02       		.byte	0x2
 8889 0a2b 23       		.byte	0x23
 8890 0a2c 00       		.uleb128 0
 8891 0a2d 17       		.uleb128 0x17
 8892 0a2e A8090000 		.4byte	.LASF133
 8893 0a32 14       		.byte	0x14
 8894 0a33 6A01     		.2byte	0x16a
 8895 0a35 C40A0000 		.4byte	0xac4
 8896 0a39 02       		.byte	0x2
 8897 0a3a 23       		.byte	0x23
 8898 0a3b 04       		.uleb128 0x4
 8899 0a3c 17       		.uleb128 0x17
 8900 0a3d 00040000 		.4byte	.LASF134
 8901 0a41 14       		.byte	0x14
 8902 0a42 6E01     		.2byte	0x16e
 8903 0a44 66090000 		.4byte	0x966
 8904 0a48 02       		.byte	0x2
 8905 0a49 23       		.byte	0x23
 8906 0a4a 08       		.uleb128 0x8
 8907 0a4b 17       		.uleb128 0x17
 8908 0a4c 7E030000 		.4byte	.LASF135
 8909 0a50 14       		.byte	0x14
 8910 0a51 7401     		.2byte	0x174
 8911 0a53 92040000 		.4byte	0x492
 8912 0a57 02       		.byte	0x2
 8913 0a58 23       		.byte	0x23
ARM GAS  C:\Users\Mohamad\AppData\Local\Temp\ccDsqi1j.s 			page 158


 8914 0a59 0C       		.uleb128 0xc
 8915 0a5a 17       		.uleb128 0x17
 8916 0a5b CF0C0000 		.4byte	.LASF136
 8917 0a5f 14       		.byte	0x14
 8918 0a60 8001     		.2byte	0x180
 8919 0a62 7B020000 		.4byte	0x27b
 8920 0a66 02       		.byte	0x2
 8921 0a67 23       		.byte	0x23
 8922 0a68 1C       		.uleb128 0x1c
 8923 0a69 17       		.uleb128 0x17
 8924 0a6a B20D0000 		.4byte	.LASF137
 8925 0a6e 14       		.byte	0x14
 8926 0a6f 8401     		.2byte	0x184
 8927 0a71 5A090000 		.4byte	0x95a
 8928 0a75 02       		.byte	0x2
 8929 0a76 23       		.byte	0x23
 8930 0a77 20       		.uleb128 0x20
 8931 0a78 17       		.uleb128 0x17
 8932 0a79 480D0000 		.4byte	.LASF138
 8933 0a7d 14       		.byte	0x14
 8934 0a7e 8801     		.2byte	0x188
 8935 0a80 98000000 		.4byte	0x98
 8936 0a84 02       		.byte	0x2
 8937 0a85 23       		.byte	0x23
 8938 0a86 24       		.uleb128 0x24
 8939 0a87 17       		.uleb128 0x17
 8940 0a88 7F060000 		.4byte	.LASF139
 8941 0a8c 14       		.byte	0x14
 8942 0a8d 8C01     		.2byte	0x18c
 8943 0a8f 98000000 		.4byte	0x98
 8944 0a93 02       		.byte	0x2
 8945 0a94 23       		.byte	0x23
 8946 0a95 28       		.uleb128 0x28
 8947 0a96 17       		.uleb128 0x17
 8948 0a97 D2000000 		.4byte	.LASF140
 8949 0a9b 14       		.byte	0x14
 8950 0a9c 9001     		.2byte	0x190
 8951 0a9e CF0A0000 		.4byte	0xacf
 8952 0aa2 02       		.byte	0x2
 8953 0aa3 23       		.byte	0x23
 8954 0aa4 2C       		.uleb128 0x2c
 8955 0aa5 17       		.uleb128 0x17
 8956 0aa6 E2020000 		.4byte	.LASF141
 8957 0aaa 14       		.byte	0x14
 8958 0aab 9401     		.2byte	0x194
 8959 0aad CF0A0000 		.4byte	0xacf
 8960 0ab1 02       		.byte	0x2
 8961 0ab2 23       		.byte	0x23
 8962 0ab3 30       		.uleb128 0x30
 8963 0ab4 0C       		.uleb128 0xc
 8964 0ab5 69326300 		.ascii	"i2c\000"
 8965 0ab9 14       		.byte	0x14
 8966 0aba 9801     		.2byte	0x198
 8967 0abc DA0A0000 		.4byte	0xada
 8968 0ac0 02       		.byte	0x2
 8969 0ac1 23       		.byte	0x23
 8970 0ac2 34       		.uleb128 0x34
ARM GAS  C:\Users\Mohamad\AppData\Local\Temp\ccDsqi1j.s 			page 159


 8971 0ac3 00       		.byte	0
 8972 0ac4 09       		.uleb128 0x9
 8973 0ac5 04       		.byte	0x4
 8974 0ac6 CA0A0000 		.4byte	0xaca
 8975 0aca 12       		.uleb128 0x12
 8976 0acb F9090000 		.4byte	0x9f9
 8977 0acf 09       		.uleb128 0x9
 8978 0ad0 04       		.byte	0x4
 8979 0ad1 D50A0000 		.4byte	0xad5
 8980 0ad5 12       		.uleb128 0x12
 8981 0ad6 27080000 		.4byte	0x827
 8982 0ada 09       		.uleb128 0x9
 8983 0adb 04       		.byte	0x4
 8984 0adc DA060000 		.4byte	0x6da
 8985 0ae0 1A       		.uleb128 0x1a
 8986 0ae1 01       		.byte	0x1
 8987 0ae2 15       		.byte	0x15
 8988 0ae3 48       		.byte	0x48
 8989 0ae4 FB0A0000 		.4byte	0xafb
 8990 0ae8 1B       		.uleb128 0x1b
 8991 0ae9 110D0000 		.4byte	.LASF142
 8992 0aed 00       		.sleb128 0
 8993 0aee 1B       		.uleb128 0x1b
 8994 0aef DE0E0000 		.4byte	.LASF143
 8995 0af3 01       		.sleb128 1
 8996 0af4 1B       		.uleb128 0x1b
 8997 0af5 920B0000 		.4byte	.LASF144
 8998 0af9 02       		.sleb128 2
 8999 0afa 00       		.byte	0
 9000 0afb 04       		.uleb128 0x4
 9001 0afc B4040000 		.4byte	.LASF145
 9002 0b00 15       		.byte	0x15
 9003 0b01 4C       		.byte	0x4c
 9004 0b02 E00A0000 		.4byte	0xae0
 9005 0b06 1A       		.uleb128 0x1a
 9006 0b07 01       		.byte	0x1
 9007 0b08 15       		.byte	0x15
 9008 0b09 51       		.byte	0x51
 9009 0b0a 210B0000 		.4byte	0xb21
 9010 0b0e 1B       		.uleb128 0x1b
 9011 0b0f 00000000 		.4byte	.LASF146
 9012 0b13 00       		.sleb128 0
 9013 0b14 1B       		.uleb128 0x1b
 9014 0b15 2D0E0000 		.4byte	.LASF147
 9015 0b19 01       		.sleb128 1
 9016 0b1a 1B       		.uleb128 0x1b
 9017 0b1b 6E080000 		.4byte	.LASF148
 9018 0b1f 02       		.sleb128 2
 9019 0b20 00       		.byte	0
 9020 0b21 04       		.uleb128 0x4
 9021 0b22 AF090000 		.4byte	.LASF149
 9022 0b26 15       		.byte	0x15
 9023 0b27 55       		.byte	0x55
 9024 0b28 060B0000 		.4byte	0xb06
 9025 0b2c 1A       		.uleb128 0x1a
 9026 0b2d 01       		.byte	0x1
 9027 0b2e 15       		.byte	0x15
ARM GAS  C:\Users\Mohamad\AppData\Local\Temp\ccDsqi1j.s 			page 160


 9028 0b2f 5A       		.byte	0x5a
 9029 0b30 470B0000 		.4byte	0xb47
 9030 0b34 1B       		.uleb128 0x1b
 9031 0b35 CA0D0000 		.4byte	.LASF150
 9032 0b39 00       		.sleb128 0
 9033 0b3a 1B       		.uleb128 0x1b
 9034 0b3b 36050000 		.4byte	.LASF151
 9035 0b3f 01       		.sleb128 1
 9036 0b40 1B       		.uleb128 0x1b
 9037 0b41 5D080000 		.4byte	.LASF152
 9038 0b45 02       		.sleb128 2
 9039 0b46 00       		.byte	0
 9040 0b47 04       		.uleb128 0x4
 9041 0b48 4E010000 		.4byte	.LASF153
 9042 0b4c 15       		.byte	0x15
 9043 0b4d 5E       		.byte	0x5e
 9044 0b4e 2C0B0000 		.4byte	0xb2c
 9045 0b52 18       		.uleb128 0x18
 9046 0b53 2A080000 		.4byte	.LASF154
 9047 0b57 16       		.byte	0x16
 9048 0b58 FE01     		.2byte	0x1fe
 9049 0b5a 98000000 		.4byte	0x98
 9050 0b5e 18       		.uleb128 0x18
 9051 0b5f 0B030000 		.4byte	.LASF155
 9052 0b63 16       		.byte	0x16
 9053 0b64 0302     		.2byte	0x203
 9054 0b66 6A0B0000 		.4byte	0xb6a
 9055 0b6a 0B       		.uleb128 0xb
 9056 0b6b 0B030000 		.4byte	.LASF155
 9057 0b6f 1C       		.byte	0x1c
 9058 0b70 16       		.byte	0x16
 9059 0b71 4B02     		.2byte	0x24b
 9060 0b73 FF0B0000 		.4byte	0xbff
 9061 0b77 17       		.uleb128 0x17
 9062 0b78 C40D0000 		.4byte	.LASF132
 9063 0b7c 16       		.byte	0x16
 9064 0b7d 4F02     		.2byte	0x24f
 9065 0b7f FB0A0000 		.4byte	0xafb
 9066 0b83 02       		.byte	0x2
 9067 0b84 23       		.byte	0x23
 9068 0b85 00       		.uleb128 0
 9069 0b86 17       		.uleb128 0x17
 9070 0b87 F10C0000 		.4byte	.LASF156
 9071 0b8b 16       		.byte	0x16
 9072 0b8c 5302     		.2byte	0x253
 9073 0b8e 210B0000 		.4byte	0xb21
 9074 0b92 02       		.byte	0x2
 9075 0b93 23       		.byte	0x23
 9076 0b94 01       		.uleb128 0x1
 9077 0b95 17       		.uleb128 0x17
 9078 0b96 83010000 		.4byte	.LASF157
 9079 0b9a 16       		.byte	0x16
 9080 0b9b 5702     		.2byte	0x257
 9081 0b9d 470B0000 		.4byte	0xb47
 9082 0ba1 02       		.byte	0x2
 9083 0ba2 23       		.byte	0x23
 9084 0ba3 02       		.uleb128 0x2
ARM GAS  C:\Users\Mohamad\AppData\Local\Temp\ccDsqi1j.s 			page 161


 9085 0ba4 17       		.uleb128 0x17
 9086 0ba5 A8090000 		.4byte	.LASF133
 9087 0ba9 16       		.byte	0x16
 9088 0baa 5B02     		.2byte	0x25b
 9089 0bac 060D0000 		.4byte	0xd06
 9090 0bb0 02       		.byte	0x2
 9091 0bb1 23       		.byte	0x23
 9092 0bb2 04       		.uleb128 0x4
 9093 0bb3 17       		.uleb128 0x17
 9094 0bb4 95070000 		.4byte	.LASF158
 9095 0bb8 16       		.byte	0x16
 9096 0bb9 6302     		.2byte	0x263
 9097 0bbb 110D0000 		.4byte	0xd11
 9098 0bbf 02       		.byte	0x2
 9099 0bc0 23       		.byte	0x23
 9100 0bc1 08       		.uleb128 0x8
 9101 0bc2 17       		.uleb128 0x17
 9102 0bc3 9C000000 		.4byte	.LASF159
 9103 0bc7 16       		.byte	0x16
 9104 0bc8 6702     		.2byte	0x267
 9105 0bca 98000000 		.4byte	0x98
 9106 0bce 02       		.byte	0x2
 9107 0bcf 23       		.byte	0x23
 9108 0bd0 0C       		.uleb128 0xc
 9109 0bd1 17       		.uleb128 0x17
 9110 0bd2 D2000000 		.4byte	.LASF140
 9111 0bd6 16       		.byte	0x16
 9112 0bd7 6B02     		.2byte	0x26b
 9113 0bd9 CF0A0000 		.4byte	0xacf
 9114 0bdd 02       		.byte	0x2
 9115 0bde 23       		.byte	0x23
 9116 0bdf 10       		.uleb128 0x10
 9117 0be0 17       		.uleb128 0x17
 9118 0be1 E2020000 		.4byte	.LASF141
 9119 0be5 16       		.byte	0x16
 9120 0be6 6F02     		.2byte	0x26f
 9121 0be8 CF0A0000 		.4byte	0xacf
 9122 0bec 02       		.byte	0x2
 9123 0bed 23       		.byte	0x23
 9124 0bee 14       		.uleb128 0x14
 9125 0bef 17       		.uleb128 0x17
 9126 0bf0 6A0F0000 		.4byte	.LASF160
 9127 0bf4 16       		.byte	0x16
 9128 0bf5 7302     		.2byte	0x273
 9129 0bf7 2C050000 		.4byte	0x52c
 9130 0bfb 02       		.byte	0x2
 9131 0bfc 23       		.byte	0x23
 9132 0bfd 18       		.uleb128 0x18
 9133 0bfe 00       		.byte	0
 9134 0bff 18       		.uleb128 0x18
 9135 0c00 100F0000 		.4byte	.LASF161
 9136 0c04 16       		.byte	0x16
 9137 0c05 0A02     		.2byte	0x20a
 9138 0c07 0B0C0000 		.4byte	0xc0b
 9139 0c0b 09       		.uleb128 0x9
 9140 0c0c 04       		.byte	0x4
 9141 0c0d 110C0000 		.4byte	0xc11
ARM GAS  C:\Users\Mohamad\AppData\Local\Temp\ccDsqi1j.s 			page 162


 9142 0c11 0E       		.uleb128 0xe
 9143 0c12 01       		.byte	0x1
 9144 0c13 1D0C0000 		.4byte	0xc1d
 9145 0c17 0F       		.uleb128 0xf
 9146 0c18 1D0C0000 		.4byte	0xc1d
 9147 0c1c 00       		.byte	0
 9148 0c1d 09       		.uleb128 0x9
 9149 0c1e 04       		.byte	0x4
 9150 0c1f 5E0B0000 		.4byte	0xb5e
 9151 0c23 18       		.uleb128 0x18
 9152 0c24 70060000 		.4byte	.LASF162
 9153 0c28 16       		.byte	0x16
 9154 0c29 1202     		.2byte	0x212
 9155 0c2b 2F0C0000 		.4byte	0xc2f
 9156 0c2f 09       		.uleb128 0x9
 9157 0c30 04       		.byte	0x4
 9158 0c31 350C0000 		.4byte	0xc35
 9159 0c35 0E       		.uleb128 0xe
 9160 0c36 01       		.byte	0x1
 9161 0c37 460C0000 		.4byte	0xc46
 9162 0c3b 0F       		.uleb128 0xf
 9163 0c3c 1D0C0000 		.4byte	0xc1d
 9164 0c40 0F       		.uleb128 0xf
 9165 0c41 74000000 		.4byte	0x74
 9166 0c45 00       		.byte	0
 9167 0c46 18       		.uleb128 0x18
 9168 0c47 E00A0000 		.4byte	.LASF163
 9169 0c4b 16       		.byte	0x16
 9170 0c4c 1A02     		.2byte	0x21a
 9171 0c4e 520C0000 		.4byte	0xc52
 9172 0c52 09       		.uleb128 0x9
 9173 0c53 04       		.byte	0x4
 9174 0c54 580C0000 		.4byte	0xc58
 9175 0c58 0E       		.uleb128 0xe
 9176 0c59 01       		.byte	0x1
 9177 0c5a 690C0000 		.4byte	0xc69
 9178 0c5e 0F       		.uleb128 0xf
 9179 0c5f 1D0C0000 		.4byte	0xc1d
 9180 0c63 0F       		.uleb128 0xf
 9181 0c64 520B0000 		.4byte	0xb52
 9182 0c68 00       		.byte	0
 9183 0c69 16       		.uleb128 0x16
 9184 0c6a 20       		.byte	0x20
 9185 0c6b 16       		.byte	0x16
 9186 0c6c 2002     		.2byte	0x220
 9187 0c6e FA0C0000 		.4byte	0xcfa
 9188 0c72 17       		.uleb128 0x17
 9189 0c73 EB060000 		.4byte	.LASF164
 9190 0c77 16       		.byte	0x16
 9191 0c78 2402     		.2byte	0x224
 9192 0c7a FF0B0000 		.4byte	0xbff
 9193 0c7e 02       		.byte	0x2
 9194 0c7f 23       		.byte	0x23
 9195 0c80 00       		.uleb128 0
 9196 0c81 17       		.uleb128 0x17
 9197 0c82 3D000000 		.4byte	.LASF165
 9198 0c86 16       		.byte	0x16
ARM GAS  C:\Users\Mohamad\AppData\Local\Temp\ccDsqi1j.s 			page 163


 9199 0c87 2802     		.2byte	0x228
 9200 0c89 FF0B0000 		.4byte	0xbff
 9201 0c8d 02       		.byte	0x2
 9202 0c8e 23       		.byte	0x23
 9203 0c8f 04       		.uleb128 0x4
 9204 0c90 17       		.uleb128 0x17
 9205 0c91 22010000 		.4byte	.LASF166
 9206 0c95 16       		.byte	0x16
 9207 0c96 2C02     		.2byte	0x22c
 9208 0c98 FF0B0000 		.4byte	0xbff
 9209 0c9c 02       		.byte	0x2
 9210 0c9d 23       		.byte	0x23
 9211 0c9e 08       		.uleb128 0x8
 9212 0c9f 17       		.uleb128 0x17
 9213 0ca0 E4090000 		.4byte	.LASF167
 9214 0ca4 16       		.byte	0x16
 9215 0ca5 3002     		.2byte	0x230
 9216 0ca7 230C0000 		.4byte	0xc23
 9217 0cab 02       		.byte	0x2
 9218 0cac 23       		.byte	0x23
 9219 0cad 0C       		.uleb128 0xc
 9220 0cae 17       		.uleb128 0x17
 9221 0caf 480B0000 		.4byte	.LASF168
 9222 0cb3 16       		.byte	0x16
 9223 0cb4 3402     		.2byte	0x234
 9224 0cb6 460C0000 		.4byte	0xc46
 9225 0cba 02       		.byte	0x2
 9226 0cbb 23       		.byte	0x23
 9227 0cbc 10       		.uleb128 0x10
 9228 0cbd 17       		.uleb128 0x17
 9229 0cbe 8A020000 		.4byte	.LASF169
 9230 0cc2 16       		.byte	0x16
 9231 0cc3 3902     		.2byte	0x239
 9232 0cc5 98000000 		.4byte	0x98
 9233 0cc9 02       		.byte	0x2
 9234 0cca 23       		.byte	0x23
 9235 0ccb 14       		.uleb128 0x14
 9236 0ccc 0C       		.uleb128 0xc
 9237 0ccd 63723100 		.ascii	"cr1\000"
 9238 0cd1 16       		.byte	0x16
 9239 0cd2 3D02     		.2byte	0x23d
 9240 0cd4 74000000 		.4byte	0x74
 9241 0cd8 02       		.byte	0x2
 9242 0cd9 23       		.byte	0x23
 9243 0cda 18       		.uleb128 0x18
 9244 0cdb 0C       		.uleb128 0xc
 9245 0cdc 63723200 		.ascii	"cr2\000"
 9246 0ce0 16       		.byte	0x16
 9247 0ce1 4102     		.2byte	0x241
 9248 0ce3 74000000 		.4byte	0x74
 9249 0ce7 02       		.byte	0x2
 9250 0ce8 23       		.byte	0x23
 9251 0ce9 1A       		.uleb128 0x1a
 9252 0cea 0C       		.uleb128 0xc
 9253 0ceb 63723300 		.ascii	"cr3\000"
 9254 0cef 16       		.byte	0x16
 9255 0cf0 4502     		.2byte	0x245
ARM GAS  C:\Users\Mohamad\AppData\Local\Temp\ccDsqi1j.s 			page 164


 9256 0cf2 74000000 		.4byte	0x74
 9257 0cf6 02       		.byte	0x2
 9258 0cf7 23       		.byte	0x23
 9259 0cf8 1C       		.uleb128 0x1c
 9260 0cf9 00       		.byte	0
 9261 0cfa 18       		.uleb128 0x18
 9262 0cfb 6F070000 		.4byte	.LASF170
 9263 0cff 16       		.byte	0x16
 9264 0d00 4602     		.2byte	0x246
 9265 0d02 690C0000 		.4byte	0xc69
 9266 0d06 09       		.uleb128 0x9
 9267 0d07 04       		.byte	0x4
 9268 0d08 0C0D0000 		.4byte	0xd0c
 9269 0d0c 12       		.uleb128 0x12
 9270 0d0d FA0C0000 		.4byte	0xcfa
 9271 0d11 09       		.uleb128 0x9
 9272 0d12 04       		.byte	0x4
 9273 0d13 C0070000 		.4byte	0x7c0
 9274 0d17 02       		.uleb128 0x2
 9275 0d18 08       		.byte	0x8
 9276 0d19 04       		.byte	0x4
 9277 0d1a BB0E0000 		.4byte	.LASF171
 9278 0d1e 02       		.uleb128 0x2
 9279 0d1f 04       		.byte	0x4
 9280 0d20 04       		.byte	0x4
 9281 0d21 9B0C0000 		.4byte	.LASF172
 9282 0d25 02       		.uleb128 0x2
 9283 0d26 08       		.byte	0x8
 9284 0d27 04       		.byte	0x4
 9285 0d28 74090000 		.4byte	.LASF173
 9286 0d2c 05       		.uleb128 0x5
 9287 0d2d 9D0B0000 		.4byte	.LASF174
 9288 0d31 0C       		.byte	0xc
 9289 0d32 17       		.byte	0x17
 9290 0d33 0C       		.byte	0xc
 9291 0d34 5D0D0000 		.4byte	0xd5d
 9292 0d38 07       		.uleb128 0x7
 9293 0d39 7800     		.ascii	"x\000"
 9294 0d3b 17       		.byte	0x17
 9295 0d3c 0D       		.byte	0xd
 9296 0d3d 5D0D0000 		.4byte	0xd5d
 9297 0d41 02       		.byte	0x2
 9298 0d42 23       		.byte	0x23
 9299 0d43 00       		.uleb128 0
 9300 0d44 07       		.uleb128 0x7
 9301 0d45 7900     		.ascii	"y\000"
 9302 0d47 17       		.byte	0x17
 9303 0d48 0E       		.byte	0xe
 9304 0d49 5D0D0000 		.4byte	0xd5d
 9305 0d4d 02       		.byte	0x2
 9306 0d4e 23       		.byte	0x23
 9307 0d4f 04       		.uleb128 0x4
 9308 0d50 07       		.uleb128 0x7
 9309 0d51 7A00     		.ascii	"z\000"
 9310 0d53 17       		.byte	0x17
 9311 0d54 0F       		.byte	0xf
 9312 0d55 5D0D0000 		.4byte	0xd5d
ARM GAS  C:\Users\Mohamad\AppData\Local\Temp\ccDsqi1j.s 			page 165


 9313 0d59 02       		.byte	0x2
 9314 0d5a 23       		.byte	0x23
 9315 0d5b 08       		.uleb128 0x8
 9316 0d5c 00       		.byte	0
 9317 0d5d 0D       		.uleb128 0xd
 9318 0d5e 1E0D0000 		.4byte	0xd1e
 9319 0d62 04       		.uleb128 0x4
 9320 0d63 AE030000 		.4byte	.LASF175
 9321 0d67 17       		.byte	0x17
 9322 0d68 10       		.byte	0x10
 9323 0d69 2C0D0000 		.4byte	0xd2c
 9324 0d6d 14       		.uleb128 0x14
 9325 0d6e 50000000 		.4byte	0x50
 9326 0d72 7D0D0000 		.4byte	0xd7d
 9327 0d76 15       		.uleb128 0x15
 9328 0d77 7C030000 		.4byte	0x37c
 9329 0d7b 03       		.byte	0x3
 9330 0d7c 00       		.byte	0
 9331 0d7d 1D       		.uleb128 0x1d
 9332 0d7e AE0B0000 		.4byte	.LASF176
 9333 0d82 1001     		.2byte	0x110
 9334 0d84 18       		.byte	0x18
 9335 0d85 70       		.byte	0x70
 9336 0d86 FB0D0000 		.4byte	0xdfb
 9337 0d8a 06       		.uleb128 0x6
 9338 0d8b 84030000 		.4byte	.LASF177
 9339 0d8f 18       		.byte	0x18
 9340 0d90 70       		.byte	0x70
 9341 0d91 74000000 		.4byte	0x74
 9342 0d95 02       		.byte	0x2
 9343 0d96 23       		.byte	0x23
 9344 0d97 00       		.uleb128 0
 9345 0d98 06       		.uleb128 0x6
 9346 0d99 F90B0000 		.4byte	.LASF178
 9347 0d9d 18       		.byte	0x18
 9348 0d9e 70       		.byte	0x70
 9349 0d9f 50000000 		.4byte	0x50
 9350 0da3 02       		.byte	0x2
 9351 0da4 23       		.byte	0x23
 9352 0da5 02       		.uleb128 0x2
 9353 0da6 07       		.uleb128 0x7
 9354 0da7 6C656E00 		.ascii	"len\000"
 9355 0dab 18       		.byte	0x18
 9356 0dac 70       		.byte	0x70
 9357 0dad 50000000 		.4byte	0x50
 9358 0db1 02       		.byte	0x2
 9359 0db2 23       		.byte	0x23
 9360 0db3 03       		.uleb128 0x3
 9361 0db4 07       		.uleb128 0x7
 9362 0db5 73657100 		.ascii	"seq\000"
 9363 0db9 18       		.byte	0x18
 9364 0dba 70       		.byte	0x70
 9365 0dbb 50000000 		.4byte	0x50
 9366 0dbf 02       		.byte	0x2
 9367 0dc0 23       		.byte	0x23
 9368 0dc1 04       		.uleb128 0x4
 9369 0dc2 06       		.uleb128 0x6
ARM GAS  C:\Users\Mohamad\AppData\Local\Temp\ccDsqi1j.s 			page 166


 9370 0dc3 A7020000 		.4byte	.LASF179
 9371 0dc7 18       		.byte	0x18
 9372 0dc8 70       		.byte	0x70
 9373 0dc9 50000000 		.4byte	0x50
 9374 0dcd 02       		.byte	0x2
 9375 0dce 23       		.byte	0x23
 9376 0dcf 05       		.uleb128 0x5
 9377 0dd0 06       		.uleb128 0x6
 9378 0dd1 AD000000 		.4byte	.LASF180
 9379 0dd5 18       		.byte	0x18
 9380 0dd6 70       		.byte	0x70
 9381 0dd7 50000000 		.4byte	0x50
 9382 0ddb 02       		.byte	0x2
 9383 0ddc 23       		.byte	0x23
 9384 0ddd 06       		.uleb128 0x6
 9385 0dde 06       		.uleb128 0x6
 9386 0ddf 3A020000 		.4byte	.LASF181
 9387 0de3 18       		.byte	0x18
 9388 0de4 70       		.byte	0x70
 9389 0de5 50000000 		.4byte	0x50
 9390 0de9 02       		.byte	0x2
 9391 0dea 23       		.byte	0x23
 9392 0deb 07       		.uleb128 0x7
 9393 0dec 06       		.uleb128 0x6
 9394 0ded 3E0B0000 		.4byte	.LASF182
 9395 0df1 18       		.byte	0x18
 9396 0df2 70       		.byte	0x70
 9397 0df3 FB0D0000 		.4byte	0xdfb
 9398 0df7 02       		.byte	0x2
 9399 0df8 23       		.byte	0x23
 9400 0df9 08       		.uleb128 0x8
 9401 0dfa 00       		.byte	0
 9402 0dfb 14       		.uleb128 0x14
 9403 0dfc B1000000 		.4byte	0xb1
 9404 0e00 0B0E0000 		.4byte	0xe0b
 9405 0e04 15       		.uleb128 0x15
 9406 0e05 7C030000 		.4byte	0x37c
 9407 0e09 20       		.byte	0x20
 9408 0e0a 00       		.byte	0
 9409 0e0b 04       		.uleb128 0x4
 9410 0e0c 36080000 		.4byte	.LASF183
 9411 0e10 18       		.byte	0x18
 9412 0e11 7A       		.byte	0x7a
 9413 0e12 7D0D0000 		.4byte	0xd7d
 9414 0e16 1A       		.uleb128 0x1a
 9415 0e17 01       		.byte	0x1
 9416 0e18 18       		.byte	0x18
 9417 0e19 AB       		.byte	0xab
 9418 0e1a 370E0000 		.4byte	0xe37
 9419 0e1e 1B       		.uleb128 0x1b
 9420 0e1f D6030000 		.4byte	.LASF184
 9421 0e23 00       		.sleb128 0
 9422 0e24 1B       		.uleb128 0x1b
 9423 0e25 EC030000 		.4byte	.LASF185
 9424 0e29 01       		.sleb128 1
 9425 0e2a 1B       		.uleb128 0x1b
 9426 0e2b EE050000 		.4byte	.LASF186
ARM GAS  C:\Users\Mohamad\AppData\Local\Temp\ccDsqi1j.s 			page 167


 9427 0e2f 02       		.sleb128 2
 9428 0e30 1B       		.uleb128 0x1b
 9429 0e31 FD050000 		.4byte	.LASF187
 9430 0e35 03       		.sleb128 3
 9431 0e36 00       		.byte	0
 9432 0e37 1A       		.uleb128 0x1a
 9433 0e38 01       		.byte	0x1
 9434 0e39 18       		.byte	0x18
 9435 0e3a BF       		.byte	0xbf
 9436 0e3b 7C0E0000 		.4byte	0xe7c
 9437 0e3f 1B       		.uleb128 0x1b
 9438 0e40 F0020000 		.4byte	.LASF188
 9439 0e44 00       		.sleb128 0
 9440 0e45 1B       		.uleb128 0x1b
 9441 0e46 C1010000 		.4byte	.LASF189
 9442 0e4a 01       		.sleb128 1
 9443 0e4b 1B       		.uleb128 0x1b
 9444 0e4c B8080000 		.4byte	.LASF190
 9445 0e50 02       		.sleb128 2
 9446 0e51 1B       		.uleb128 0x1b
 9447 0e52 0B090000 		.4byte	.LASF191
 9448 0e56 03       		.sleb128 3
 9449 0e57 1B       		.uleb128 0x1b
 9450 0e58 C5090000 		.4byte	.LASF192
 9451 0e5c 04       		.sleb128 4
 9452 0e5d 1B       		.uleb128 0x1b
 9453 0e5e BA020000 		.4byte	.LASF193
 9454 0e62 05       		.sleb128 5
 9455 0e63 1B       		.uleb128 0x1b
 9456 0e64 3C0F0000 		.4byte	.LASF194
 9457 0e68 06       		.sleb128 6
 9458 0e69 1B       		.uleb128 0x1b
 9459 0e6a B4000000 		.4byte	.LASF195
 9460 0e6e 07       		.sleb128 7
 9461 0e6f 1B       		.uleb128 0x1b
 9462 0e70 79050000 		.4byte	.LASF196
 9463 0e74 08       		.sleb128 8
 9464 0e75 1B       		.uleb128 0x1b
 9465 0e76 12040000 		.4byte	.LASF197
 9466 0e7a 09       		.sleb128 9
 9467 0e7b 00       		.byte	0
 9468 0e7c 04       		.uleb128 0x4
 9469 0e7d FF070000 		.4byte	.LASF198
 9470 0e81 18       		.byte	0x18
 9471 0e82 CA       		.byte	0xca
 9472 0e83 370E0000 		.4byte	0xe37
 9473 0e87 05       		.uleb128 0x5
 9474 0e88 6E0E0000 		.4byte	.LASF199
 9475 0e8c 0C       		.byte	0xc
 9476 0e8d 18       		.byte	0x18
 9477 0e8e CC       		.byte	0xcc
 9478 0e8f 120F0000 		.4byte	0xf12
 9479 0e93 06       		.uleb128 0x6
 9480 0e94 D6050000 		.4byte	.LASF200
 9481 0e98 18       		.byte	0x18
 9482 0e99 CD       		.byte	0xcd
 9483 0e9a 50000000 		.4byte	0x50
ARM GAS  C:\Users\Mohamad\AppData\Local\Temp\ccDsqi1j.s 			page 168


 9484 0e9e 02       		.byte	0x2
 9485 0e9f 23       		.byte	0x23
 9486 0ea0 00       		.uleb128 0
 9487 0ea1 06       		.uleb128 0x6
 9488 0ea2 8A0F0000 		.4byte	.LASF201
 9489 0ea6 18       		.byte	0x18
 9490 0ea7 CE       		.byte	0xce
 9491 0ea8 50000000 		.4byte	0x50
 9492 0eac 02       		.byte	0x2
 9493 0ead 23       		.byte	0x23
 9494 0eae 01       		.uleb128 0x1
 9495 0eaf 06       		.uleb128 0x6
 9496 0eb0 AF0E0000 		.4byte	.LASF202
 9497 0eb4 18       		.byte	0x18
 9498 0eb5 CF       		.byte	0xcf
 9499 0eb6 50000000 		.4byte	0x50
 9500 0eba 02       		.byte	0x2
 9501 0ebb 23       		.byte	0x23
 9502 0ebc 02       		.uleb128 0x2
 9503 0ebd 06       		.uleb128 0x6
 9504 0ebe 310C0000 		.4byte	.LASF203
 9505 0ec2 18       		.byte	0x18
 9506 0ec3 D0       		.byte	0xd0
 9507 0ec4 7C0E0000 		.4byte	0xe7c
 9508 0ec8 02       		.byte	0x2
 9509 0ec9 23       		.byte	0x23
 9510 0eca 03       		.uleb128 0x3
 9511 0ecb 06       		.uleb128 0x6
 9512 0ecc E8000000 		.4byte	.LASF204
 9513 0ed0 18       		.byte	0x18
 9514 0ed1 D1       		.byte	0xd1
 9515 0ed2 50000000 		.4byte	0x50
 9516 0ed6 02       		.byte	0x2
 9517 0ed7 23       		.byte	0x23
 9518 0ed8 04       		.uleb128 0x4
 9519 0ed9 06       		.uleb128 0x6
 9520 0eda 3F090000 		.4byte	.LASF205
 9521 0ede 18       		.byte	0x18
 9522 0edf D2       		.byte	0xd2
 9523 0ee0 50000000 		.4byte	0x50
 9524 0ee4 02       		.byte	0x2
 9525 0ee5 23       		.byte	0x23
 9526 0ee6 05       		.uleb128 0x5
 9527 0ee7 06       		.uleb128 0x6
 9528 0ee8 120C0000 		.4byte	.LASF206
 9529 0eec 18       		.byte	0x18
 9530 0eed D3       		.byte	0xd3
 9531 0eee 50000000 		.4byte	0x50
 9532 0ef2 02       		.byte	0x2
 9533 0ef3 23       		.byte	0x23
 9534 0ef4 06       		.uleb128 0x6
 9535 0ef5 06       		.uleb128 0x6
 9536 0ef6 5B000000 		.4byte	.LASF207
 9537 0efa 18       		.byte	0x18
 9538 0efb D4       		.byte	0xd4
 9539 0efc 74000000 		.4byte	0x74
 9540 0f00 02       		.byte	0x2
ARM GAS  C:\Users\Mohamad\AppData\Local\Temp\ccDsqi1j.s 			page 169


 9541 0f01 23       		.byte	0x23
 9542 0f02 08       		.uleb128 0x8
 9543 0f03 06       		.uleb128 0x6
 9544 0f04 7D0B0000 		.4byte	.LASF208
 9545 0f08 18       		.byte	0x18
 9546 0f09 D5       		.byte	0xd5
 9547 0f0a 74000000 		.4byte	0x74
 9548 0f0e 02       		.byte	0x2
 9549 0f0f 23       		.byte	0x23
 9550 0f10 0A       		.uleb128 0xa
 9551 0f11 00       		.byte	0
 9552 0f12 04       		.uleb128 0x4
 9553 0f13 4A020000 		.4byte	.LASF209
 9554 0f17 18       		.byte	0x18
 9555 0f18 D6       		.byte	0xd6
 9556 0f19 870E0000 		.4byte	0xe87
 9557 0f1d 05       		.uleb128 0x5
 9558 0f1e 62040000 		.4byte	.LASF210
 9559 0f22 20       		.byte	0x20
 9560 0f23 02       		.byte	0x2
 9561 0f24 05       		.byte	0x5
 9562 0f25 B60F0000 		.4byte	0xfb6
 9563 0f29 06       		.uleb128 0x6
 9564 0f2a 40020000 		.4byte	.LASF211
 9565 0f2e 02       		.byte	0x2
 9566 0f2f 07       		.byte	0x7
 9567 0f30 B1000000 		.4byte	0xb1
 9568 0f34 02       		.byte	0x2
 9569 0f35 23       		.byte	0x23
 9570 0f36 00       		.uleb128 0
 9571 0f37 07       		.uleb128 0x7
 9572 0f38 6C617400 		.ascii	"lat\000"
 9573 0f3c 02       		.byte	0x2
 9574 0f3d 08       		.byte	0x8
 9575 0f3e 86000000 		.4byte	0x86
 9576 0f42 02       		.byte	0x2
 9577 0f43 23       		.byte	0x23
 9578 0f44 08       		.uleb128 0x8
 9579 0f45 07       		.uleb128 0x7
 9580 0f46 6C6F6E00 		.ascii	"lon\000"
 9581 0f4a 02       		.byte	0x2
 9582 0f4b 09       		.byte	0x9
 9583 0f4c 86000000 		.4byte	0x86
 9584 0f50 02       		.byte	0x2
 9585 0f51 23       		.byte	0x23
 9586 0f52 0C       		.uleb128 0xc
 9587 0f53 07       		.uleb128 0x7
 9588 0f54 616C7400 		.ascii	"alt\000"
 9589 0f58 02       		.byte	0x2
 9590 0f59 0A       		.byte	0xa
 9591 0f5a 86000000 		.4byte	0x86
 9592 0f5e 02       		.byte	0x2
 9593 0f5f 23       		.byte	0x23
 9594 0f60 10       		.uleb128 0x10
 9595 0f61 07       		.uleb128 0x7
 9596 0f62 65706800 		.ascii	"eph\000"
 9597 0f66 02       		.byte	0x2
ARM GAS  C:\Users\Mohamad\AppData\Local\Temp\ccDsqi1j.s 			page 170


 9598 0f67 0B       		.byte	0xb
 9599 0f68 74000000 		.4byte	0x74
 9600 0f6c 02       		.byte	0x2
 9601 0f6d 23       		.byte	0x23
 9602 0f6e 14       		.uleb128 0x14
 9603 0f6f 07       		.uleb128 0x7
 9604 0f70 65707600 		.ascii	"epv\000"
 9605 0f74 02       		.byte	0x2
 9606 0f75 0C       		.byte	0xc
 9607 0f76 74000000 		.4byte	0x74
 9608 0f7a 02       		.byte	0x2
 9609 0f7b 23       		.byte	0x23
 9610 0f7c 16       		.uleb128 0x16
 9611 0f7d 07       		.uleb128 0x7
 9612 0f7e 76656C00 		.ascii	"vel\000"
 9613 0f82 02       		.byte	0x2
 9614 0f83 0D       		.byte	0xd
 9615 0f84 74000000 		.4byte	0x74
 9616 0f88 02       		.byte	0x2
 9617 0f89 23       		.byte	0x23
 9618 0f8a 18       		.uleb128 0x18
 9619 0f8b 07       		.uleb128 0x7
 9620 0f8c 636F6700 		.ascii	"cog\000"
 9621 0f90 02       		.byte	0x2
 9622 0f91 0E       		.byte	0xe
 9623 0f92 74000000 		.4byte	0x74
 9624 0f96 02       		.byte	0x2
 9625 0f97 23       		.byte	0x23
 9626 0f98 1A       		.uleb128 0x1a
 9627 0f99 06       		.uleb128 0x6
 9628 0f9a 910E0000 		.4byte	.LASF212
 9629 0f9e 02       		.byte	0x2
 9630 0f9f 0F       		.byte	0xf
 9631 0fa0 50000000 		.4byte	0x50
 9632 0fa4 02       		.byte	0x2
 9633 0fa5 23       		.byte	0x23
 9634 0fa6 1C       		.uleb128 0x1c
 9635 0fa7 06       		.uleb128 0x6
 9636 0fa8 350D0000 		.4byte	.LASF213
 9637 0fac 02       		.byte	0x2
 9638 0fad 10       		.byte	0x10
 9639 0fae 50000000 		.4byte	0x50
 9640 0fb2 02       		.byte	0x2
 9641 0fb3 23       		.byte	0x23
 9642 0fb4 1D       		.uleb128 0x1d
 9643 0fb5 00       		.byte	0
 9644 0fb6 04       		.uleb128 0x4
 9645 0fb7 0C010000 		.4byte	.LASF214
 9646 0fbb 02       		.byte	0x2
 9647 0fbc 11       		.byte	0x11
 9648 0fbd 1D0F0000 		.4byte	0xf1d
 9649 0fc1 05       		.uleb128 0x5
 9650 0fc2 35010000 		.4byte	.LASF215
 9651 0fc6 10       		.byte	0x10
 9652 0fc7 05       		.byte	0x5
 9653 0fc8 05       		.byte	0x5
 9654 0fc9 14100000 		.4byte	0x1014
ARM GAS  C:\Users\Mohamad\AppData\Local\Temp\ccDsqi1j.s 			page 171


 9655 0fcd 06       		.uleb128 0x6
 9656 0fce 40020000 		.4byte	.LASF211
 9657 0fd2 05       		.byte	0x5
 9658 0fd3 07       		.byte	0x7
 9659 0fd4 B1000000 		.4byte	0xb1
 9660 0fd8 02       		.byte	0x2
 9661 0fd9 23       		.byte	0x23
 9662 0fda 00       		.uleb128 0
 9663 0fdb 06       		.uleb128 0x6
 9664 0fdc D8020000 		.4byte	.LASF216
 9665 0fe0 05       		.byte	0x5
 9666 0fe1 08       		.byte	0x8
 9667 0fe2 62000000 		.4byte	0x62
 9668 0fe6 02       		.byte	0x2
 9669 0fe7 23       		.byte	0x23
 9670 0fe8 08       		.uleb128 0x8
 9671 0fe9 06       		.uleb128 0x6
 9672 0fea F40A0000 		.4byte	.LASF217
 9673 0fee 05       		.byte	0x5
 9674 0fef 09       		.byte	0x9
 9675 0ff0 62000000 		.4byte	0x62
 9676 0ff4 02       		.byte	0x2
 9677 0ff5 23       		.byte	0x23
 9678 0ff6 0A       		.uleb128 0xa
 9679 0ff7 06       		.uleb128 0x6
 9680 0ff8 000B0000 		.4byte	.LASF218
 9681 0ffc 05       		.byte	0x5
 9682 0ffd 0A       		.byte	0xa
 9683 0ffe 62000000 		.4byte	0x62
 9684 1002 02       		.byte	0x2
 9685 1003 23       		.byte	0x23
 9686 1004 0C       		.uleb128 0xc
 9687 1005 06       		.uleb128 0x6
 9688 1006 90000000 		.4byte	.LASF219
 9689 100a 05       		.byte	0x5
 9690 100b 0B       		.byte	0xb
 9691 100c 62000000 		.4byte	0x62
 9692 1010 02       		.byte	0x2
 9693 1011 23       		.byte	0x23
 9694 1012 0E       		.uleb128 0xe
 9695 1013 00       		.byte	0
 9696 1014 04       		.uleb128 0x4
 9697 1015 67030000 		.4byte	.LASF220
 9698 1019 05       		.byte	0x5
 9699 101a 0C       		.byte	0xc
 9700 101b C10F0000 		.4byte	0xfc1
 9701 101f 05       		.uleb128 0x5
 9702 1020 BF0A0000 		.4byte	.LASF221
 9703 1024 1C       		.byte	0x1c
 9704 1025 06       		.byte	0x6
 9705 1026 05       		.byte	0x5
 9706 1027 8E100000 		.4byte	0x108e
 9707 102b 06       		.uleb128 0x6
 9708 102c 83000000 		.4byte	.LASF222
 9709 1030 06       		.byte	0x6
 9710 1031 07       		.byte	0x7
 9711 1032 98000000 		.4byte	0x98
ARM GAS  C:\Users\Mohamad\AppData\Local\Temp\ccDsqi1j.s 			page 172


 9712 1036 02       		.byte	0x2
 9713 1037 23       		.byte	0x23
 9714 1038 00       		.uleb128 0
 9715 1039 06       		.uleb128 0x6
 9716 103a 0A070000 		.4byte	.LASF223
 9717 103e 06       		.byte	0x6
 9718 103f 08       		.byte	0x8
 9719 1040 1E0D0000 		.4byte	0xd1e
 9720 1044 02       		.byte	0x2
 9721 1045 23       		.byte	0x23
 9722 1046 04       		.uleb128 0x4
 9723 1047 06       		.uleb128 0x6
 9724 1048 7D010000 		.4byte	.LASF224
 9725 104c 06       		.byte	0x6
 9726 104d 09       		.byte	0x9
 9727 104e 1E0D0000 		.4byte	0xd1e
 9728 1052 02       		.byte	0x2
 9729 1053 23       		.byte	0x23
 9730 1054 08       		.uleb128 0x8
 9731 1055 07       		.uleb128 0x7
 9732 1056 79617700 		.ascii	"yaw\000"
 9733 105a 06       		.byte	0x6
 9734 105b 0A       		.byte	0xa
 9735 105c 1E0D0000 		.4byte	0xd1e
 9736 1060 02       		.byte	0x2
 9737 1061 23       		.byte	0x23
 9738 1062 0C       		.uleb128 0xc
 9739 1063 06       		.uleb128 0x6
 9740 1064 5B0F0000 		.4byte	.LASF225
 9741 1068 06       		.byte	0x6
 9742 1069 0B       		.byte	0xb
 9743 106a 1E0D0000 		.4byte	0xd1e
 9744 106e 02       		.byte	0x2
 9745 106f 23       		.byte	0x23
 9746 1070 10       		.uleb128 0x10
 9747 1071 06       		.uleb128 0x6
 9748 1072 7F080000 		.4byte	.LASF226
 9749 1076 06       		.byte	0x6
 9750 1077 0C       		.byte	0xc
 9751 1078 1E0D0000 		.4byte	0xd1e
 9752 107c 02       		.byte	0x2
 9753 107d 23       		.byte	0x23
 9754 107e 14       		.uleb128 0x14
 9755 107f 06       		.uleb128 0x6
 9756 1080 A90D0000 		.4byte	.LASF227
 9757 1084 06       		.byte	0x6
 9758 1085 0D       		.byte	0xd
 9759 1086 1E0D0000 		.4byte	0xd1e
 9760 108a 02       		.byte	0x2
 9761 108b 23       		.byte	0x23
 9762 108c 18       		.uleb128 0x18
 9763 108d 00       		.byte	0
 9764 108e 04       		.uleb128 0x4
 9765 108f 8B0A0000 		.4byte	.LASF228
 9766 1093 06       		.byte	0x6
 9767 1094 0E       		.byte	0xe
 9768 1095 1F100000 		.4byte	0x101f
ARM GAS  C:\Users\Mohamad\AppData\Local\Temp\ccDsqi1j.s 			page 173


 9769 1099 05       		.uleb128 0x5
 9770 109a 9B070000 		.4byte	.LASF229
 9771 109e 20       		.byte	0x20
 9772 109f 07       		.byte	0x7
 9773 10a0 05       		.byte	0x5
 9774 10a1 12110000 		.4byte	0x1112
 9775 10a5 06       		.uleb128 0x6
 9776 10a6 83000000 		.4byte	.LASF222
 9777 10aa 07       		.byte	0x7
 9778 10ab 07       		.byte	0x7
 9779 10ac 98000000 		.4byte	0x98
 9780 10b0 02       		.byte	0x2
 9781 10b1 23       		.byte	0x23
 9782 10b2 00       		.uleb128 0
 9783 10b3 07       		.uleb128 0x7
 9784 10b4 713100   		.ascii	"q1\000"
 9785 10b7 07       		.byte	0x7
 9786 10b8 08       		.byte	0x8
 9787 10b9 1E0D0000 		.4byte	0xd1e
 9788 10bd 02       		.byte	0x2
 9789 10be 23       		.byte	0x23
 9790 10bf 04       		.uleb128 0x4
 9791 10c0 07       		.uleb128 0x7
 9792 10c1 713200   		.ascii	"q2\000"
 9793 10c4 07       		.byte	0x7
 9794 10c5 09       		.byte	0x9
 9795 10c6 1E0D0000 		.4byte	0xd1e
 9796 10ca 02       		.byte	0x2
 9797 10cb 23       		.byte	0x23
 9798 10cc 08       		.uleb128 0x8
 9799 10cd 07       		.uleb128 0x7
 9800 10ce 713300   		.ascii	"q3\000"
 9801 10d1 07       		.byte	0x7
 9802 10d2 0A       		.byte	0xa
 9803 10d3 1E0D0000 		.4byte	0xd1e
 9804 10d7 02       		.byte	0x2
 9805 10d8 23       		.byte	0x23
 9806 10d9 0C       		.uleb128 0xc
 9807 10da 07       		.uleb128 0x7
 9808 10db 713400   		.ascii	"q4\000"
 9809 10de 07       		.byte	0x7
 9810 10df 0B       		.byte	0xb
 9811 10e0 1E0D0000 		.4byte	0xd1e
 9812 10e4 02       		.byte	0x2
 9813 10e5 23       		.byte	0x23
 9814 10e6 10       		.uleb128 0x10
 9815 10e7 06       		.uleb128 0x6
 9816 10e8 5B0F0000 		.4byte	.LASF225
 9817 10ec 07       		.byte	0x7
 9818 10ed 0C       		.byte	0xc
 9819 10ee 1E0D0000 		.4byte	0xd1e
 9820 10f2 02       		.byte	0x2
 9821 10f3 23       		.byte	0x23
 9822 10f4 14       		.uleb128 0x14
 9823 10f5 06       		.uleb128 0x6
 9824 10f6 7F080000 		.4byte	.LASF226
 9825 10fa 07       		.byte	0x7
ARM GAS  C:\Users\Mohamad\AppData\Local\Temp\ccDsqi1j.s 			page 174


 9826 10fb 0D       		.byte	0xd
 9827 10fc 1E0D0000 		.4byte	0xd1e
 9828 1100 02       		.byte	0x2
 9829 1101 23       		.byte	0x23
 9830 1102 18       		.uleb128 0x18
 9831 1103 06       		.uleb128 0x6
 9832 1104 A90D0000 		.4byte	.LASF227
 9833 1108 07       		.byte	0x7
 9834 1109 0E       		.byte	0xe
 9835 110a 1E0D0000 		.4byte	0xd1e
 9836 110e 02       		.byte	0x2
 9837 110f 23       		.byte	0x23
 9838 1110 1C       		.uleb128 0x1c
 9839 1111 00       		.byte	0
 9840 1112 04       		.uleb128 0x4
 9841 1113 55050000 		.4byte	.LASF230
 9842 1117 07       		.byte	0x7
 9843 1118 0F       		.byte	0xf
 9844 1119 99100000 		.4byte	0x1099
 9845 111d 10       		.uleb128 0x10
 9846 111e 04       		.byte	0x4
 9847 111f 01       		.byte	0x1
 9848 1120 22       		.byte	0x22
 9849 1121 3C110000 		.4byte	0x113c
 9850 1125 11       		.uleb128 0x11
 9851 1126 D60C0000 		.4byte	.LASF231
 9852 112a 01       		.byte	0x1
 9853 112b 22       		.byte	0x22
 9854 112c 6D0D0000 		.4byte	0xd6d
 9855 1130 11       		.uleb128 0x11
 9856 1131 230F0000 		.4byte	.LASF232
 9857 1135 01       		.byte	0x1
 9858 1136 22       		.byte	0x22
 9859 1137 1E0D0000 		.4byte	0xd1e
 9860 113b 00       		.byte	0
 9861 113c 10       		.uleb128 0x10
 9862 113d 04       		.byte	0x4
 9863 113e 01       		.byte	0x1
 9864 113f 23       		.byte	0x23
 9865 1140 5B110000 		.4byte	0x115b
 9866 1144 11       		.uleb128 0x11
 9867 1145 D60C0000 		.4byte	.LASF231
 9868 1149 01       		.byte	0x1
 9869 114a 23       		.byte	0x23
 9870 114b 6D0D0000 		.4byte	0xd6d
 9871 114f 11       		.uleb128 0x11
 9872 1150 230F0000 		.4byte	.LASF232
 9873 1154 01       		.byte	0x1
 9874 1155 23       		.byte	0x23
 9875 1156 37000000 		.4byte	0x37
 9876 115a 00       		.byte	0
 9877 115b 10       		.uleb128 0x10
 9878 115c 02       		.byte	0x2
 9879 115d 01       		.byte	0x1
 9880 115e 24       		.byte	0x24
 9881 115f 7A110000 		.4byte	0x117a
 9882 1163 11       		.uleb128 0x11
ARM GAS  C:\Users\Mohamad\AppData\Local\Temp\ccDsqi1j.s 			page 175


 9883 1164 D60C0000 		.4byte	.LASF231
 9884 1168 01       		.byte	0x1
 9885 1169 24       		.byte	0x24
 9886 116a 7A110000 		.4byte	0x117a
 9887 116e 11       		.uleb128 0x11
 9888 116f 230F0000 		.4byte	.LASF232
 9889 1173 01       		.byte	0x1
 9890 1174 24       		.byte	0x24
 9891 1175 62000000 		.4byte	0x62
 9892 1179 00       		.byte	0
 9893 117a 14       		.uleb128 0x14
 9894 117b 50000000 		.4byte	0x50
 9895 117f 8A110000 		.4byte	0x118a
 9896 1183 15       		.uleb128 0x15
 9897 1184 7C030000 		.4byte	0x37c
 9898 1188 01       		.byte	0x1
 9899 1189 00       		.byte	0
 9900 118a 10       		.uleb128 0x10
 9901 118b 02       		.byte	0x2
 9902 118c 01       		.byte	0x1
 9903 118d 25       		.byte	0x25
 9904 118e A9110000 		.4byte	0x11a9
 9905 1192 11       		.uleb128 0x11
 9906 1193 D60C0000 		.4byte	.LASF231
 9907 1197 01       		.byte	0x1
 9908 1198 25       		.byte	0x25
 9909 1199 7A110000 		.4byte	0x117a
 9910 119d 11       		.uleb128 0x11
 9911 119e 230F0000 		.4byte	.LASF232
 9912 11a2 01       		.byte	0x1
 9913 11a3 25       		.byte	0x25
 9914 11a4 74000000 		.4byte	0x74
 9915 11a8 00       		.byte	0
 9916 11a9 10       		.uleb128 0x10
 9917 11aa 04       		.byte	0x4
 9918 11ab 01       		.byte	0x1
 9919 11ac 26       		.byte	0x26
 9920 11ad C8110000 		.4byte	0x11c8
 9921 11b1 11       		.uleb128 0x11
 9922 11b2 D60C0000 		.4byte	.LASF231
 9923 11b6 01       		.byte	0x1
 9924 11b7 26       		.byte	0x26
 9925 11b8 6D0D0000 		.4byte	0xd6d
 9926 11bc 11       		.uleb128 0x11
 9927 11bd 230F0000 		.4byte	.LASF232
 9928 11c1 01       		.byte	0x1
 9929 11c2 26       		.byte	0x26
 9930 11c3 98000000 		.4byte	0x98
 9931 11c7 00       		.byte	0
 9932 11c8 1E       		.uleb128 0x1e
 9933 11c9 DF000000 		.4byte	.LASF233
 9934 11cd 04       		.byte	0x4
 9935 11ce 2D       		.byte	0x2d
 9936 11cf 01       		.byte	0x1
 9937 11d0 03       		.byte	0x3
 9938 11d1 E1110000 		.4byte	0x11e1
 9939 11d5 1F       		.uleb128 0x1f
ARM GAS  C:\Users\Mohamad\AppData\Local\Temp\ccDsqi1j.s 			page 176


 9940 11d6 8C070000 		.4byte	.LASF235
 9941 11da 04       		.byte	0x4
 9942 11db 2D       		.byte	0x2d
 9943 11dc E1110000 		.4byte	0x11e1
 9944 11e0 00       		.byte	0
 9945 11e1 09       		.uleb128 0x9
 9946 11e2 04       		.byte	0x4
 9947 11e3 74000000 		.4byte	0x74
 9948 11e7 1E       		.uleb128 0x1e
 9949 11e8 DC060000 		.4byte	.LASF234
 9950 11ec 04       		.byte	0x4
 9951 11ed 1C       		.byte	0x1c
 9952 11ee 01       		.byte	0x1
 9953 11ef 03       		.byte	0x3
 9954 11f0 16120000 		.4byte	0x1216
 9955 11f4 1F       		.uleb128 0x1f
 9956 11f5 C4060000 		.4byte	.LASF236
 9957 11f9 04       		.byte	0x4
 9958 11fa 1C       		.byte	0x1c
 9959 11fb 50000000 		.4byte	0x50
 9960 11ff 1F       		.uleb128 0x1f
 9961 1200 8C070000 		.4byte	.LASF235
 9962 1204 04       		.byte	0x4
 9963 1205 1C       		.byte	0x1c
 9964 1206 E1110000 		.4byte	0x11e1
 9965 120a 20       		.uleb128 0x20
 9966 120b 746D7000 		.ascii	"tmp\000"
 9967 120f 04       		.byte	0x4
 9968 1210 1F       		.byte	0x1f
 9969 1211 50000000 		.4byte	0x50
 9970 1215 00       		.byte	0
 9971 1216 21       		.uleb128 0x21
 9972 1217 4C030000 		.4byte	.LASF239
 9973 121b 03       		.byte	0x3
 9974 121c 11       		.byte	0x11
 9975 121d 01       		.byte	0x1
 9976 121e 3E120000 		.4byte	0x123e
 9977 1222 03       		.byte	0x3
 9978 1223 3E120000 		.4byte	0x123e
 9979 1227 1F       		.uleb128 0x1f
 9980 1228 FB030000 		.4byte	.LASF237
 9981 122c 03       		.byte	0x3
 9982 122d 11       		.byte	0x11
 9983 122e 50000000 		.4byte	0x50
 9984 1232 22       		.uleb128 0x22
 9985 1233 AF050000 		.4byte	.LASF238
 9986 1237 03       		.byte	0x3
 9987 1238 17       		.byte	0x17
 9988 1239 44120000 		.4byte	0x1244
 9989 123d 00       		.byte	0
 9990 123e 09       		.uleb128 0x9
 9991 123f 04       		.byte	0x4
 9992 1240 120F0000 		.4byte	0xf12
 9993 1244 14       		.uleb128 0x14
 9994 1245 120F0000 		.4byte	0xf12
 9995 1249 54120000 		.4byte	0x1254
 9996 124d 15       		.uleb128 0x15
ARM GAS  C:\Users\Mohamad\AppData\Local\Temp\ccDsqi1j.s 			page 177


 9997 124e 7C030000 		.4byte	0x37c
 9998 1252 03       		.byte	0x3
 9999 1253 00       		.byte	0
 10000 1254 21       		.uleb128 0x21
 10001 1255 71020000 		.4byte	.LASF240
 10002 1259 04       		.byte	0x4
 10003 125a 3A       		.byte	0x3a
 10004 125b 01       		.byte	0x1
 10005 125c 74000000 		.4byte	0x74
 10006 1260 03       		.byte	0x3
 10007 1261 87120000 		.4byte	0x1287
 10008 1265 1F       		.uleb128 0x1f
 10009 1266 AF010000 		.4byte	.LASF241
 10010 126a 04       		.byte	0x4
 10011 126b 3A       		.byte	0x3a
 10012 126c 11050000 		.4byte	0x511
 10013 1270 1F       		.uleb128 0x1f
 10014 1271 840A0000 		.4byte	.LASF242
 10015 1275 04       		.byte	0x4
 10016 1276 3A       		.byte	0x3a
 10017 1277 74000000 		.4byte	0x74
 10018 127b 22       		.uleb128 0x22
 10019 127c 52060000 		.4byte	.LASF243
 10020 1280 04       		.byte	0x4
 10021 1281 3C       		.byte	0x3c
 10022 1282 74000000 		.4byte	0x74
 10023 1286 00       		.byte	0
 10024 1287 21       		.uleb128 0x21
 10025 1288 510B0000 		.4byte	.LASF244
 10026 128c 03       		.byte	0x3
 10027 128d 44       		.byte	0x44
 10028 128e 01       		.byte	0x1
 10029 128f 74000000 		.4byte	0x74
 10030 1293 03       		.byte	0x3
 10031 1294 DB120000 		.4byte	0x12db
 10032 1298 23       		.uleb128 0x23
 10033 1299 6D736700 		.ascii	"msg\000"
 10034 129d 03       		.byte	0x3
 10035 129e 44       		.byte	0x44
 10036 129f DB120000 		.4byte	0x12db
 10037 12a3 1F       		.uleb128 0x1f
 10038 12a4 EA0A0000 		.4byte	.LASF245
 10039 12a8 03       		.byte	0x3
 10040 12a9 44       		.byte	0x44
 10041 12aa 50000000 		.4byte	0x50
 10042 12ae 1F       		.uleb128 0x1f
 10043 12af 0E050000 		.4byte	.LASF246
 10044 12b3 03       		.byte	0x3
 10045 12b4 44       		.byte	0x44
 10046 12b5 50000000 		.4byte	0x50
 10047 12b9 1F       		.uleb128 0x1f
 10048 12ba FB030000 		.4byte	.LASF237
 10049 12be 03       		.byte	0x3
 10050 12bf 45       		.byte	0x45
 10051 12c0 50000000 		.4byte	0x50
 10052 12c4 1F       		.uleb128 0x1f
 10053 12c5 840A0000 		.4byte	.LASF242
ARM GAS  C:\Users\Mohamad\AppData\Local\Temp\ccDsqi1j.s 			page 178


 10054 12c9 03       		.byte	0x3
 10055 12ca 45       		.byte	0x45
 10056 12cb 50000000 		.4byte	0x50
 10057 12cf 1F       		.uleb128 0x1f
 10058 12d0 90020000 		.4byte	.LASF247
 10059 12d4 03       		.byte	0x3
 10060 12d5 45       		.byte	0x45
 10061 12d6 50000000 		.4byte	0x50
 10062 12da 00       		.byte	0
 10063 12db 09       		.uleb128 0x9
 10064 12dc 04       		.byte	0x4
 10065 12dd 0B0E0000 		.4byte	0xe0b
 10066 12e1 21       		.uleb128 0x21
 10067 12e2 95030000 		.4byte	.LASF248
 10068 12e6 03       		.byte	0x3
 10069 12e7 63       		.byte	0x63
 10070 12e8 01       		.byte	0x1
 10071 12e9 74000000 		.4byte	0x74
 10072 12ed 03       		.byte	0x3
 10073 12ee 2A130000 		.4byte	0x132a
 10074 12f2 23       		.uleb128 0x23
 10075 12f3 6D736700 		.ascii	"msg\000"
 10076 12f7 03       		.byte	0x3
 10077 12f8 63       		.byte	0x63
 10078 12f9 DB120000 		.4byte	0x12db
 10079 12fd 1F       		.uleb128 0x1f
 10080 12fe EA0A0000 		.4byte	.LASF245
 10081 1302 03       		.byte	0x3
 10082 1303 63       		.byte	0x63
 10083 1304 50000000 		.4byte	0x50
 10084 1308 1F       		.uleb128 0x1f
 10085 1309 0E050000 		.4byte	.LASF246
 10086 130d 03       		.byte	0x3
 10087 130e 63       		.byte	0x63
 10088 130f 50000000 		.4byte	0x50
 10089 1313 1F       		.uleb128 0x1f
 10090 1314 840A0000 		.4byte	.LASF242
 10091 1318 03       		.byte	0x3
 10092 1319 64       		.byte	0x64
 10093 131a 50000000 		.4byte	0x50
 10094 131e 1F       		.uleb128 0x1f
 10095 131f 90020000 		.4byte	.LASF247
 10096 1323 03       		.byte	0x3
 10097 1324 64       		.byte	0x64
 10098 1325 50000000 		.4byte	0x50
 10099 1329 00       		.byte	0
 10100 132a 21       		.uleb128 0x21
 10101 132b 1B050000 		.4byte	.LASF249
 10102 132f 03       		.byte	0x3
 10103 1330 AE       		.byte	0xae
 10104 1331 01       		.byte	0x1
 10105 1332 74000000 		.4byte	0x74
 10106 1336 03       		.byte	0x3
 10107 1337 5C130000 		.4byte	0x135c
 10108 133b 1F       		.uleb128 0x1f
 10109 133c D8000000 		.4byte	.LASF250
 10110 1340 03       		.byte	0x3
ARM GAS  C:\Users\Mohamad\AppData\Local\Temp\ccDsqi1j.s 			page 179


 10111 1341 AE       		.byte	0xae
 10112 1342 0B050000 		.4byte	0x50b
 10113 1346 23       		.uleb128 0x23
 10114 1347 6D736700 		.ascii	"msg\000"
 10115 134b 03       		.byte	0x3
 10116 134c AE       		.byte	0xae
 10117 134d 5C130000 		.4byte	0x135c
 10118 1351 20       		.uleb128 0x20
 10119 1352 636B00   		.ascii	"ck\000"
 10120 1355 03       		.byte	0x3
 10121 1356 B2       		.byte	0xb2
 10122 1357 0B050000 		.4byte	0x50b
 10123 135b 00       		.byte	0
 10124 135c 09       		.uleb128 0x9
 10125 135d 04       		.byte	0x4
 10126 135e 62130000 		.4byte	0x1362
 10127 1362 12       		.uleb128 0x12
 10128 1363 0B0E0000 		.4byte	0xe0b
 10129 1367 21       		.uleb128 0x21
 10130 1368 7E0C0000 		.4byte	.LASF251
 10131 136c 02       		.byte	0x2
 10132 136d 3E       		.byte	0x3e
 10133 136e 01       		.byte	0x1
 10134 136f 74000000 		.4byte	0x74
 10135 1373 03       		.byte	0x3
 10136 1374 13140000 		.4byte	0x1413
 10137 1378 1F       		.uleb128 0x1f
 10138 1379 EA0A0000 		.4byte	.LASF245
 10139 137d 02       		.byte	0x2
 10140 137e 3E       		.byte	0x3e
 10141 137f 50000000 		.4byte	0x50
 10142 1383 1F       		.uleb128 0x1f
 10143 1384 0E050000 		.4byte	.LASF246
 10144 1388 02       		.byte	0x2
 10145 1389 3E       		.byte	0x3e
 10146 138a 50000000 		.4byte	0x50
 10147 138e 23       		.uleb128 0x23
 10148 138f 6D736700 		.ascii	"msg\000"
 10149 1393 02       		.byte	0x2
 10150 1394 3E       		.byte	0x3e
 10151 1395 DB120000 		.4byte	0x12db
 10152 1399 1F       		.uleb128 0x1f
 10153 139a 40020000 		.4byte	.LASF211
 10154 139e 02       		.byte	0x2
 10155 139f 3F       		.byte	0x3f
 10156 13a0 B1000000 		.4byte	0xb1
 10157 13a4 1F       		.uleb128 0x1f
 10158 13a5 910E0000 		.4byte	.LASF212
 10159 13a9 02       		.byte	0x2
 10160 13aa 3F       		.byte	0x3f
 10161 13ab 50000000 		.4byte	0x50
 10162 13af 23       		.uleb128 0x23
 10163 13b0 6C617400 		.ascii	"lat\000"
 10164 13b4 02       		.byte	0x2
 10165 13b5 3F       		.byte	0x3f
 10166 13b6 86000000 		.4byte	0x86
 10167 13ba 23       		.uleb128 0x23
ARM GAS  C:\Users\Mohamad\AppData\Local\Temp\ccDsqi1j.s 			page 180


 10168 13bb 6C6F6E00 		.ascii	"lon\000"
 10169 13bf 02       		.byte	0x2
 10170 13c0 3F       		.byte	0x3f
 10171 13c1 86000000 		.4byte	0x86
 10172 13c5 23       		.uleb128 0x23
 10173 13c6 616C7400 		.ascii	"alt\000"
 10174 13ca 02       		.byte	0x2
 10175 13cb 3F       		.byte	0x3f
 10176 13cc 86000000 		.4byte	0x86
 10177 13d0 23       		.uleb128 0x23
 10178 13d1 65706800 		.ascii	"eph\000"
 10179 13d5 02       		.byte	0x2
 10180 13d6 3F       		.byte	0x3f
 10181 13d7 74000000 		.4byte	0x74
 10182 13db 23       		.uleb128 0x23
 10183 13dc 65707600 		.ascii	"epv\000"
 10184 13e0 02       		.byte	0x2
 10185 13e1 3F       		.byte	0x3f
 10186 13e2 74000000 		.4byte	0x74
 10187 13e6 23       		.uleb128 0x23
 10188 13e7 76656C00 		.ascii	"vel\000"
 10189 13eb 02       		.byte	0x2
 10190 13ec 3F       		.byte	0x3f
 10191 13ed 74000000 		.4byte	0x74
 10192 13f1 23       		.uleb128 0x23
 10193 13f2 636F6700 		.ascii	"cog\000"
 10194 13f6 02       		.byte	0x2
 10195 13f7 3F       		.byte	0x3f
 10196 13f8 74000000 		.4byte	0x74
 10197 13fc 1F       		.uleb128 0x1f
 10198 13fd 350D0000 		.4byte	.LASF213
 10199 1401 02       		.byte	0x2
 10200 1402 3F       		.byte	0x3f
 10201 1403 50000000 		.4byte	0x50
 10202 1407 22       		.uleb128 0x22
 10203 1408 B40C0000 		.4byte	.LASF252
 10204 140c 02       		.byte	0x2
 10205 140d 50       		.byte	0x50
 10206 140e B60F0000 		.4byte	0xfb6
 10207 1412 00       		.byte	0
 10208 1413 21       		.uleb128 0x21
 10209 1414 3F040000 		.4byte	.LASF253
 10210 1418 05       		.byte	0x5
 10211 1419 2F       		.byte	0x2f
 10212 141a 01       		.byte	0x1
 10213 141b 74000000 		.4byte	0x74
 10214 141f 03       		.byte	0x3
 10215 1420 88140000 		.4byte	0x1488
 10216 1424 1F       		.uleb128 0x1f
 10217 1425 EA0A0000 		.4byte	.LASF245
 10218 1429 05       		.byte	0x5
 10219 142a 2F       		.byte	0x2f
 10220 142b 50000000 		.4byte	0x50
 10221 142f 1F       		.uleb128 0x1f
 10222 1430 0E050000 		.4byte	.LASF246
 10223 1434 05       		.byte	0x5
 10224 1435 2F       		.byte	0x2f
ARM GAS  C:\Users\Mohamad\AppData\Local\Temp\ccDsqi1j.s 			page 181


 10225 1436 50000000 		.4byte	0x50
 10226 143a 23       		.uleb128 0x23
 10227 143b 6D736700 		.ascii	"msg\000"
 10228 143f 05       		.byte	0x5
 10229 1440 2F       		.byte	0x2f
 10230 1441 DB120000 		.4byte	0x12db
 10231 1445 1F       		.uleb128 0x1f
 10232 1446 40020000 		.4byte	.LASF211
 10233 144a 05       		.byte	0x5
 10234 144b 30       		.byte	0x30
 10235 144c B1000000 		.4byte	0xb1
 10236 1450 1F       		.uleb128 0x1f
 10237 1451 D8020000 		.4byte	.LASF216
 10238 1455 05       		.byte	0x5
 10239 1456 30       		.byte	0x30
 10240 1457 62000000 		.4byte	0x62
 10241 145b 1F       		.uleb128 0x1f
 10242 145c F40A0000 		.4byte	.LASF217
 10243 1460 05       		.byte	0x5
 10244 1461 30       		.byte	0x30
 10245 1462 62000000 		.4byte	0x62
 10246 1466 1F       		.uleb128 0x1f
 10247 1467 000B0000 		.4byte	.LASF218
 10248 146b 05       		.byte	0x5
 10249 146c 30       		.byte	0x30
 10250 146d 62000000 		.4byte	0x62
 10251 1471 1F       		.uleb128 0x1f
 10252 1472 90000000 		.4byte	.LASF219
 10253 1476 05       		.byte	0x5
 10254 1477 30       		.byte	0x30
 10255 1478 62000000 		.4byte	0x62
 10256 147c 22       		.uleb128 0x22
 10257 147d B40C0000 		.4byte	.LASF252
 10258 1481 05       		.byte	0x5
 10259 1482 3C       		.byte	0x3c
 10260 1483 14100000 		.4byte	0x1014
 10261 1487 00       		.byte	0
 10262 1488 21       		.uleb128 0x21
 10263 1489 070E0000 		.4byte	.LASF254
 10264 148d 06       		.byte	0x6
 10265 148e 35       		.byte	0x35
 10266 148f 01       		.byte	0x1
 10267 1490 74000000 		.4byte	0x74
 10268 1494 03       		.byte	0x3
 10269 1495 13150000 		.4byte	0x1513
 10270 1499 1F       		.uleb128 0x1f
 10271 149a EA0A0000 		.4byte	.LASF245
 10272 149e 06       		.byte	0x6
 10273 149f 35       		.byte	0x35
 10274 14a0 50000000 		.4byte	0x50
 10275 14a4 1F       		.uleb128 0x1f
 10276 14a5 0E050000 		.4byte	.LASF246
 10277 14a9 06       		.byte	0x6
 10278 14aa 35       		.byte	0x35
 10279 14ab 50000000 		.4byte	0x50
 10280 14af 23       		.uleb128 0x23
 10281 14b0 6D736700 		.ascii	"msg\000"
ARM GAS  C:\Users\Mohamad\AppData\Local\Temp\ccDsqi1j.s 			page 182


 10282 14b4 06       		.byte	0x6
 10283 14b5 35       		.byte	0x35
 10284 14b6 DB120000 		.4byte	0x12db
 10285 14ba 1F       		.uleb128 0x1f
 10286 14bb 83000000 		.4byte	.LASF222
 10287 14bf 06       		.byte	0x6
 10288 14c0 36       		.byte	0x36
 10289 14c1 98000000 		.4byte	0x98
 10290 14c5 1F       		.uleb128 0x1f
 10291 14c6 0A070000 		.4byte	.LASF223
 10292 14ca 06       		.byte	0x6
 10293 14cb 36       		.byte	0x36
 10294 14cc 1E0D0000 		.4byte	0xd1e
 10295 14d0 1F       		.uleb128 0x1f
 10296 14d1 7D010000 		.4byte	.LASF224
 10297 14d5 06       		.byte	0x6
 10298 14d6 36       		.byte	0x36
 10299 14d7 1E0D0000 		.4byte	0xd1e
 10300 14db 23       		.uleb128 0x23
 10301 14dc 79617700 		.ascii	"yaw\000"
 10302 14e0 06       		.byte	0x6
 10303 14e1 36       		.byte	0x36
 10304 14e2 1E0D0000 		.4byte	0xd1e
 10305 14e6 1F       		.uleb128 0x1f
 10306 14e7 5B0F0000 		.4byte	.LASF225
 10307 14eb 06       		.byte	0x6
 10308 14ec 36       		.byte	0x36
 10309 14ed 1E0D0000 		.4byte	0xd1e
 10310 14f1 1F       		.uleb128 0x1f
 10311 14f2 7F080000 		.4byte	.LASF226
 10312 14f6 06       		.byte	0x6
 10313 14f7 36       		.byte	0x36
 10314 14f8 1E0D0000 		.4byte	0xd1e
 10315 14fc 1F       		.uleb128 0x1f
 10316 14fd A90D0000 		.4byte	.LASF227
 10317 1501 06       		.byte	0x6
 10318 1502 36       		.byte	0x36
 10319 1503 1E0D0000 		.4byte	0xd1e
 10320 1507 22       		.uleb128 0x22
 10321 1508 B40C0000 		.4byte	.LASF252
 10322 150c 06       		.byte	0x6
 10323 150d 44       		.byte	0x44
 10324 150e 8E100000 		.4byte	0x108e
 10325 1512 00       		.byte	0
 10326 1513 21       		.uleb128 0x21
 10327 1514 D4080000 		.4byte	.LASF255
 10328 1518 07       		.byte	0x7
 10329 1519 38       		.byte	0x38
 10330 151a 01       		.byte	0x1
 10331 151b 74000000 		.4byte	0x74
 10332 151f 03       		.byte	0x3
 10333 1520 A5150000 		.4byte	0x15a5
 10334 1524 1F       		.uleb128 0x1f
 10335 1525 EA0A0000 		.4byte	.LASF245
 10336 1529 07       		.byte	0x7
 10337 152a 38       		.byte	0x38
 10338 152b 50000000 		.4byte	0x50
ARM GAS  C:\Users\Mohamad\AppData\Local\Temp\ccDsqi1j.s 			page 183


 10339 152f 1F       		.uleb128 0x1f
 10340 1530 0E050000 		.4byte	.LASF246
 10341 1534 07       		.byte	0x7
 10342 1535 38       		.byte	0x38
 10343 1536 50000000 		.4byte	0x50
 10344 153a 23       		.uleb128 0x23
 10345 153b 6D736700 		.ascii	"msg\000"
 10346 153f 07       		.byte	0x7
 10347 1540 38       		.byte	0x38
 10348 1541 DB120000 		.4byte	0x12db
 10349 1545 1F       		.uleb128 0x1f
 10350 1546 83000000 		.4byte	.LASF222
 10351 154a 07       		.byte	0x7
 10352 154b 39       		.byte	0x39
 10353 154c 98000000 		.4byte	0x98
 10354 1550 23       		.uleb128 0x23
 10355 1551 713100   		.ascii	"q1\000"
 10356 1554 07       		.byte	0x7
 10357 1555 39       		.byte	0x39
 10358 1556 1E0D0000 		.4byte	0xd1e
 10359 155a 23       		.uleb128 0x23
 10360 155b 713200   		.ascii	"q2\000"
 10361 155e 07       		.byte	0x7
 10362 155f 39       		.byte	0x39
 10363 1560 1E0D0000 		.4byte	0xd1e
 10364 1564 23       		.uleb128 0x23
 10365 1565 713300   		.ascii	"q3\000"
 10366 1568 07       		.byte	0x7
 10367 1569 39       		.byte	0x39
 10368 156a 1E0D0000 		.4byte	0xd1e
 10369 156e 23       		.uleb128 0x23
 10370 156f 713400   		.ascii	"q4\000"
 10371 1572 07       		.byte	0x7
 10372 1573 39       		.byte	0x39
 10373 1574 1E0D0000 		.4byte	0xd1e
 10374 1578 1F       		.uleb128 0x1f
 10375 1579 5B0F0000 		.4byte	.LASF225
 10376 157d 07       		.byte	0x7
 10377 157e 39       		.byte	0x39
 10378 157f 1E0D0000 		.4byte	0xd1e
 10379 1583 1F       		.uleb128 0x1f
 10380 1584 7F080000 		.4byte	.LASF226
 10381 1588 07       		.byte	0x7
 10382 1589 39       		.byte	0x39
 10383 158a 1E0D0000 		.4byte	0xd1e
 10384 158e 1F       		.uleb128 0x1f
 10385 158f A90D0000 		.4byte	.LASF227
 10386 1593 07       		.byte	0x7
 10387 1594 39       		.byte	0x39
 10388 1595 1E0D0000 		.4byte	0xd1e
 10389 1599 22       		.uleb128 0x22
 10390 159a B40C0000 		.4byte	.LASF252
 10391 159e 07       		.byte	0x7
 10392 159f 48       		.byte	0x48
 10393 15a0 12110000 		.4byte	0x1112
 10394 15a4 00       		.byte	0
 10395 15a5 24       		.uleb128 0x24
ARM GAS  C:\Users\Mohamad\AppData\Local\Temp\ccDsqi1j.s 			page 184


 10396 15a6 ED070000 		.4byte	.LASF257
 10397 15aa 01       		.byte	0x1
 10398 15ab 3A       		.byte	0x3a
 10399 15ac 01       		.byte	0x1
 10400 15ad 00000000 		.4byte	.LFB1532
 10401 15b1 02000000 		.4byte	.LFE1532
 10402 15b5 02       		.byte	0x2
 10403 15b6 7D       		.byte	0x7d
 10404 15b7 00       		.sleb128 0
 10405 15b8 01       		.byte	0x1
 10406 15b9 D6150000 		.4byte	0x15d6
 10407 15bd 25       		.uleb128 0x25
 10408 15be C0040000 		.4byte	.LASF256
 10409 15c2 01       		.byte	0x1
 10410 15c3 3A       		.byte	0x3a
 10411 15c4 1D0C0000 		.4byte	0xc1d
 10412 15c8 01       		.byte	0x1
 10413 15c9 50       		.byte	0x50
 10414 15ca 26       		.uleb128 0x26
 10415 15cb 6300     		.ascii	"c\000"
 10416 15cd 01       		.byte	0x1
 10417 15ce 3A       		.byte	0x3a
 10418 15cf 74000000 		.4byte	0x74
 10419 15d3 01       		.byte	0x1
 10420 15d4 51       		.byte	0x51
 10421 15d5 00       		.byte	0
 10422 15d6 24       		.uleb128 0x24
 10423 15d7 AD020000 		.4byte	.LASF258
 10424 15db 01       		.byte	0x1
 10425 15dc 3F       		.byte	0x3f
 10426 15dd 01       		.byte	0x1
 10427 15de 00000000 		.4byte	.LFB1533
 10428 15e2 1A000000 		.4byte	.LFE1533
 10429 15e6 02       		.byte	0x2
 10430 15e7 7D       		.byte	0x7d
 10431 15e8 00       		.sleb128 0
 10432 15e9 01       		.byte	0x1
 10433 15ea 32160000 		.4byte	0x1632
 10434 15ee 25       		.uleb128 0x25
 10435 15ef C0040000 		.4byte	.LASF256
 10436 15f3 01       		.byte	0x1
 10437 15f4 3F       		.byte	0x3f
 10438 15f5 1D0C0000 		.4byte	0xc1d
 10439 15f9 01       		.byte	0x1
 10440 15fa 50       		.byte	0x50
 10441 15fb 27       		.uleb128 0x27
 10442 15fc 00000000 		.4byte	.LBB32
 10443 1600 06000000 		.4byte	.LBE32
 10444 1604 18160000 		.4byte	0x1618
 10445 1608 28       		.uleb128 0x28
 10446 1609 746D7000 		.ascii	"tmp\000"
 10447 160d 01       		.byte	0x1
 10448 160e 42       		.byte	0x42
 10449 160f 98000000 		.4byte	0x98
 10450 1613 00000000 		.4byte	.LLST0
 10451 1617 00       		.byte	0
 10452 1618 29       		.uleb128 0x29
ARM GAS  C:\Users\Mohamad\AppData\Local\Temp\ccDsqi1j.s 			page 185


 10453 1619 12000000 		.4byte	.LBB33
 10454 161d 1A000000 		.4byte	.LBE33
 10455 1621 28       		.uleb128 0x28
 10456 1622 746D7000 		.ascii	"tmp\000"
 10457 1626 01       		.byte	0x1
 10458 1627 44       		.byte	0x44
 10459 1628 98000000 		.4byte	0x98
 10460 162c 13000000 		.4byte	.LLST1
 10461 1630 00       		.byte	0
 10462 1631 00       		.byte	0
 10463 1632 2A       		.uleb128 0x2a
 10464 1633 F80D0000 		.4byte	.LASF325
 10465 1637 01       		.byte	0x1
 10466 1638 63       		.byte	0x63
 10467 1639 01       		.byte	0x1
 10468 163a 05010000 		.4byte	0x105
 10469 163e 00000000 		.4byte	.LFB1534
 10470 1642 14000000 		.4byte	.LFE1534
 10471 1646 26000000 		.4byte	.LLST2
 10472 164a 01       		.byte	0x1
 10473 164b 85160000 		.4byte	0x1685
 10474 164f 2B       		.uleb128 0x2b
 10475 1650 61726700 		.ascii	"arg\000"
 10476 1654 01       		.byte	0x1
 10477 1655 63       		.byte	0x63
 10478 1656 B9020000 		.4byte	0x2b9
 10479 165a 46000000 		.4byte	.LLST3
 10480 165e 2C       		.uleb128 0x2c
 10481 165f 08000000 		.4byte	.LVL9
 10482 1663 9E3C0000 		.4byte	0x3c9e
 10483 1667 75160000 		.4byte	0x1675
 10484 166b 2D       		.uleb128 0x2d
 10485 166c 01       		.byte	0x1
 10486 166d 50       		.byte	0x50
 10487 166e 05       		.byte	0x5
 10488 166f 03       		.byte	0x3
 10489 1670 00000000 		.4byte	.LANCHOR1
 10490 1674 00       		.byte	0
 10491 1675 2E       		.uleb128 0x2e
 10492 1676 0E000000 		.4byte	.LVL10
 10493 167a B23C0000 		.4byte	0x3cb2
 10494 167e 2D       		.uleb128 0x2d
 10495 167f 01       		.byte	0x1
 10496 1680 50       		.byte	0x50
 10497 1681 01       		.byte	0x1
 10498 1682 31       		.byte	0x31
 10499 1683 00       		.byte	0
 10500 1684 00       		.byte	0
 10501 1685 2F       		.uleb128 0x2f
 10502 1686 01       		.byte	0x1
 10503 1687 9D0D0000 		.4byte	.LASF265
 10504 168b 01       		.byte	0x1
 10505 168c 70       		.byte	0x70
 10506 168d 01       		.byte	0x1
 10507 168e 62000000 		.4byte	0x62
 10508 1692 00000000 		.4byte	.LFB1535
 10509 1696 08000000 		.4byte	.LFE1535
ARM GAS  C:\Users\Mohamad\AppData\Local\Temp\ccDsqi1j.s 			page 186


 10510 169a 02       		.byte	0x2
 10511 169b 7D       		.byte	0x7d
 10512 169c 00       		.sleb128 0
 10513 169d 01       		.byte	0x1
 10514 169e CE160000 		.4byte	0x16ce
 10515 16a2 2B       		.uleb128 0x2b
 10516 16a3 6D736200 		.ascii	"msb\000"
 10517 16a7 01       		.byte	0x1
 10518 16a8 70       		.byte	0x70
 10519 16a9 50000000 		.4byte	0x50
 10520 16ad 67000000 		.4byte	.LLST4
 10521 16b1 26       		.uleb128 0x26
 10522 16b2 6C736200 		.ascii	"lsb\000"
 10523 16b6 01       		.byte	0x1
 10524 16b7 70       		.byte	0x70
 10525 16b8 50000000 		.4byte	0x50
 10526 16bc 01       		.byte	0x1
 10527 16bd 51       		.byte	0x51
 10528 16be 30       		.uleb128 0x30
 10529 16bf D40A0000 		.4byte	.LASF259
 10530 16c3 01       		.byte	0x1
 10531 16c4 72       		.byte	0x72
 10532 16c5 62000000 		.4byte	0x62
 10533 16c9 88000000 		.4byte	.LLST5
 10534 16cd 00       		.byte	0
 10535 16ce 31       		.uleb128 0x31
 10536 16cf 01       		.byte	0x1
 10537 16d0 C00B0000 		.4byte	.LASF312
 10538 16d4 01       		.byte	0x1
 10539 16d5 CC       		.byte	0xcc
 10540 16d6 01       		.byte	0x1
 10541 16d7 03       		.byte	0x3
 10542 16d8 32       		.uleb128 0x32
 10543 16d9 01       		.byte	0x1
 10544 16da 280B0000 		.4byte	.LASF261
 10545 16de 01       		.byte	0x1
 10546 16df F8       		.byte	0xf8
 10547 16e0 01       		.byte	0x1
 10548 16e1 03       		.byte	0x3
 10549 16e2 F2160000 		.4byte	0x16f2
 10550 16e6 20       		.uleb128 0x20
 10551 16e7 6C656E00 		.ascii	"len\000"
 10552 16eb 01       		.byte	0x1
 10553 16ec FC       		.byte	0xfc
 10554 16ed 74000000 		.4byte	0x74
 10555 16f1 00       		.byte	0
 10556 16f2 1E       		.uleb128 0x1e
 10557 16f3 5B020000 		.4byte	.LASF260
 10558 16f7 04       		.byte	0x4
 10559 16f8 4E       		.byte	0x4e
 10560 16f9 01       		.byte	0x1
 10561 16fa 03       		.byte	0x3
 10562 16fb 2A170000 		.4byte	0x172a
 10563 16ff 1F       		.uleb128 0x1f
 10564 1700 8C070000 		.4byte	.LASF235
 10565 1704 04       		.byte	0x4
 10566 1705 4E       		.byte	0x4e
ARM GAS  C:\Users\Mohamad\AppData\Local\Temp\ccDsqi1j.s 			page 187


 10567 1706 E1110000 		.4byte	0x11e1
 10568 170a 1F       		.uleb128 0x1f
 10569 170b AF010000 		.4byte	.LASF241
 10570 170f 04       		.byte	0x4
 10571 1710 4E       		.byte	0x4e
 10572 1711 D2040000 		.4byte	0x4d2
 10573 1715 1F       		.uleb128 0x1f
 10574 1716 840A0000 		.4byte	.LASF242
 10575 171a 04       		.byte	0x4
 10576 171b 4E       		.byte	0x4e
 10577 171c 74000000 		.4byte	0x74
 10578 1720 20       		.uleb128 0x20
 10579 1721 7000     		.ascii	"p\000"
 10580 1723 04       		.byte	0x4
 10581 1724 50       		.byte	0x50
 10582 1725 11050000 		.4byte	0x511
 10583 1729 00       		.byte	0
 10584 172a 32       		.uleb128 0x32
 10585 172b 01       		.byte	0x1
 10586 172c 41070000 		.4byte	.LASF262
 10587 1730 01       		.byte	0x1
 10588 1731 F1       		.byte	0xf1
 10589 1732 01       		.byte	0x1
 10590 1733 03       		.byte	0x3
 10591 1734 44170000 		.4byte	0x1744
 10592 1738 20       		.uleb128 0x20
 10593 1739 6C656E00 		.ascii	"len\000"
 10594 173d 01       		.byte	0x1
 10595 173e F4       		.byte	0xf4
 10596 173f 74000000 		.4byte	0x74
 10597 1743 00       		.byte	0
 10598 1744 33       		.uleb128 0x33
 10599 1745 01       		.byte	0x1
 10600 1746 1D0D0000 		.4byte	.LASF263
 10601 174a 01       		.byte	0x1
 10602 174b 0001     		.2byte	0x100
 10603 174d 01       		.byte	0x1
 10604 174e 03       		.byte	0x3
 10605 174f 60170000 		.4byte	0x1760
 10606 1753 34       		.uleb128 0x34
 10607 1754 6C656E00 		.ascii	"len\000"
 10608 1758 01       		.byte	0x1
 10609 1759 0301     		.2byte	0x103
 10610 175b 74000000 		.4byte	0x74
 10611 175f 00       		.byte	0
 10612 1760 33       		.uleb128 0x33
 10613 1761 01       		.byte	0x1
 10614 1762 9E0A0000 		.4byte	.LASF264
 10615 1766 01       		.byte	0x1
 10616 1767 0701     		.2byte	0x107
 10617 1769 01       		.byte	0x1
 10618 176a 03       		.byte	0x3
 10619 176b 7C170000 		.4byte	0x177c
 10620 176f 34       		.uleb128 0x34
 10621 1770 6C656E00 		.ascii	"len\000"
 10622 1774 01       		.byte	0x1
 10623 1775 0B01     		.2byte	0x10b
ARM GAS  C:\Users\Mohamad\AppData\Local\Temp\ccDsqi1j.s 			page 188


 10624 1777 74000000 		.4byte	0x74
 10625 177b 00       		.byte	0
 10626 177c 35       		.uleb128 0x35
 10627 177d 01       		.byte	0x1
 10628 177e 690E0000 		.4byte	.LASF266
 10629 1782 01       		.byte	0x1
 10630 1783 89       		.byte	0x89
 10631 1784 01       		.byte	0x1
 10632 1785 37000000 		.4byte	0x37
 10633 1789 00000000 		.4byte	.LFB1536
 10634 178d C40A0000 		.4byte	.LFE1536
 10635 1791 C1000000 		.4byte	.LLST6
 10636 1795 01       		.byte	0x1
 10637 1796 F7230000 		.4byte	0x23f7
 10638 179a 36       		.uleb128 0x36
 10639 179b 6900     		.ascii	"i\000"
 10640 179d 01       		.byte	0x1
 10641 179e B0       		.byte	0xb0
 10642 179f 50000000 		.4byte	0x50
 10643 17a3 00       		.byte	0
 10644 17a4 22       		.uleb128 0x22
 10645 17a5 A90C0000 		.4byte	.LASF267
 10646 17a9 01       		.byte	0x1
 10647 17aa B1       		.byte	0xb1
 10648 17ab 98000000 		.4byte	0x98
 10649 17af 30       		.uleb128 0x30
 10650 17b0 7F0E0000 		.4byte	.LASF268
 10651 17b4 01       		.byte	0x1
 10652 17b5 B2       		.byte	0xb2
 10653 17b6 98000000 		.4byte	0x98
 10654 17ba EE000000 		.4byte	.LLST7
 10655 17be 37       		.uleb128 0x37
 10656 17bf B3060000 		.4byte	.LASF269
 10657 17c3 01       		.byte	0x1
 10658 17c4 B4       		.byte	0xb4
 10659 17c5 1E0D0000 		.4byte	0xd1e
 10660 17c9 04       		.byte	0x4
 10661 17ca 00000000 		.4byte	0
 10662 17ce 37       		.uleb128 0x37
 10663 17cf 2F060000 		.4byte	.LASF270
 10664 17d3 01       		.byte	0x1
 10665 17d4 B5       		.byte	0xb5
 10666 17d5 1E0D0000 		.4byte	0xd1e
 10667 17d9 04       		.byte	0x4
 10668 17da 00000000 		.4byte	0
 10669 17de 38       		.uleb128 0x38
 10670 17df CE160000 		.4byte	0x16ce
 10671 17e3 9C000000 		.4byte	.LBB140
 10672 17e7 00000000 		.4byte	.Ldebug_ranges0+0
 10673 17eb 01       		.byte	0x1
 10674 17ec C6       		.byte	0xc6
 10675 17ed 0E230000 		.4byte	0x230e
 10676 17f1 39       		.uleb128 0x39
 10677 17f2 44170000 		.4byte	0x1744
 10678 17f6 FA000000 		.4byte	.LBB142
 10679 17fa B2020000 		.4byte	.LBE142
 10680 17fe 01       		.byte	0x1
ARM GAS  C:\Users\Mohamad\AppData\Local\Temp\ccDsqi1j.s 			page 189


 10681 17ff E2       		.byte	0xe2
 10682 1800 AF1A0000 		.4byte	0x1aaf
 10683 1804 29       		.uleb128 0x29
 10684 1805 FA000000 		.4byte	.LBB143
 10685 1809 B2020000 		.4byte	.LBE143
 10686 180d 3A       		.uleb128 0x3a
 10687 180e 53170000 		.4byte	0x1753
 10688 1812 3B       		.uleb128 0x3b
 10689 1813 67130000 		.4byte	0x1367
 10690 1817 3E010000 		.4byte	.LBB144
 10691 181b 20000000 		.4byte	.Ldebug_ranges0+0x20
 10692 181f 01       		.byte	0x1
 10693 1820 0201     		.2byte	0x102
 10694 1822 3C1A0000 		.4byte	0x1a3c
 10695 1826 3C       		.uleb128 0x3c
 10696 1827 C5130000 		.4byte	0x13c5
 10697 182b 02010000 		.4byte	.LLST8
 10698 182f 3C       		.uleb128 0x3c
 10699 1830 BA130000 		.4byte	0x13ba
 10700 1834 22010000 		.4byte	.LLST9
 10701 1838 3C       		.uleb128 0x3c
 10702 1839 AF130000 		.4byte	0x13af
 10703 183d 42010000 		.4byte	.LLST10
 10704 1841 3C       		.uleb128 0x3c
 10705 1842 99130000 		.4byte	0x1399
 10706 1846 62010000 		.4byte	.LLST11
 10707 184a 3D       		.uleb128 0x3d
 10708 184b 50000000 		.4byte	.Ldebug_ranges0+0x50
 10709 184f 3E       		.uleb128 0x3e
 10710 1850 07140000 		.4byte	0x1407
 10711 1854 03       		.byte	0x3
 10712 1855 91       		.byte	0x91
 10713 1856 987F     		.sleb128 -104
 10714 1858 3C       		.uleb128 0x3c
 10715 1859 FC130000 		.4byte	0x13fc
 10716 185d 8E010000 		.4byte	.LLST12
 10717 1861 3C       		.uleb128 0x3c
 10718 1862 F1130000 		.4byte	0x13f1
 10719 1866 8E010000 		.4byte	.LLST12
 10720 186a 3C       		.uleb128 0x3c
 10721 186b E6130000 		.4byte	0x13e6
 10722 186f 8E010000 		.4byte	.LLST12
 10723 1873 3C       		.uleb128 0x3c
 10724 1874 DB130000 		.4byte	0x13db
 10725 1878 8E010000 		.4byte	.LLST12
 10726 187c 3C       		.uleb128 0x3c
 10727 187d D0130000 		.4byte	0x13d0
 10728 1881 8E010000 		.4byte	.LLST12
 10729 1885 3C       		.uleb128 0x3c
 10730 1886 A4130000 		.4byte	0x13a4
 10731 188a 8E010000 		.4byte	.LLST12
 10732 188e 3C       		.uleb128 0x3c
 10733 188f 8E130000 		.4byte	0x138e
 10734 1893 A2010000 		.4byte	.LLST18
 10735 1897 3C       		.uleb128 0x3c
 10736 1898 83130000 		.4byte	0x1383
 10737 189c BA010000 		.4byte	.LLST19
ARM GAS  C:\Users\Mohamad\AppData\Local\Temp\ccDsqi1j.s 			page 190


 10738 18a0 3C       		.uleb128 0x3c
 10739 18a1 78130000 		.4byte	0x1378
 10740 18a5 BA010000 		.4byte	.LLST19
 10741 18a9 3F       		.uleb128 0x3f
 10742 18aa E1120000 		.4byte	0x12e1
 10743 18ae 70010000 		.4byte	.LBB146
 10744 18b2 80000000 		.4byte	.Ldebug_ranges0+0x80
 10745 18b6 02       		.byte	0x2
 10746 18b7 61       		.byte	0x61
 10747 18b8 3C       		.uleb128 0x3c
 10748 18b9 1E130000 		.4byte	0x131e
 10749 18bd CE010000 		.4byte	.LLST21
 10750 18c1 3C       		.uleb128 0x3c
 10751 18c2 13130000 		.4byte	0x1313
 10752 18c6 E2010000 		.4byte	.LLST22
 10753 18ca 3D       		.uleb128 0x3d
 10754 18cb C0000000 		.4byte	.Ldebug_ranges0+0xc0
 10755 18cf 3C       		.uleb128 0x3c
 10756 18d0 08130000 		.4byte	0x1308
 10757 18d4 F6010000 		.4byte	.LLST23
 10758 18d8 3C       		.uleb128 0x3c
 10759 18d9 FD120000 		.4byte	0x12fd
 10760 18dd F6010000 		.4byte	.LLST23
 10761 18e1 3C       		.uleb128 0x3c
 10762 18e2 F2120000 		.4byte	0x12f2
 10763 18e6 0A020000 		.4byte	.LLST25
 10764 18ea 3F       		.uleb128 0x3f
 10765 18eb 87120000 		.4byte	0x1287
 10766 18ef 70010000 		.4byte	.LBB148
 10767 18f3 00010000 		.4byte	.Ldebug_ranges0+0x100
 10768 18f7 03       		.byte	0x3
 10769 18f8 66       		.byte	0x66
 10770 18f9 3C       		.uleb128 0x3c
 10771 18fa CF120000 		.4byte	0x12cf
 10772 18fe CE010000 		.4byte	.LLST21
 10773 1902 3C       		.uleb128 0x3c
 10774 1903 C4120000 		.4byte	0x12c4
 10775 1907 E2010000 		.4byte	.LLST22
 10776 190b 3D       		.uleb128 0x3d
 10777 190c 40010000 		.4byte	.Ldebug_ranges0+0x140
 10778 1910 3C       		.uleb128 0x3c
 10779 1911 B9120000 		.4byte	0x12b9
 10780 1915 22020000 		.4byte	.LLST28
 10781 1919 3C       		.uleb128 0x3c
 10782 191a AE120000 		.4byte	0x12ae
 10783 191e F6010000 		.4byte	.LLST23
 10784 1922 3C       		.uleb128 0x3c
 10785 1923 A3120000 		.4byte	0x12a3
 10786 1927 F6010000 		.4byte	.LLST23
 10787 192b 3C       		.uleb128 0x3c
 10788 192c 98120000 		.4byte	0x1298
 10789 1930 0A020000 		.4byte	.LLST25
 10790 1934 38       		.uleb128 0x38
 10791 1935 54120000 		.4byte	0x1254
 10792 1939 88010000 		.4byte	.LBB150
 10793 193d 80010000 		.4byte	.Ldebug_ranges0+0x180
 10794 1941 03       		.byte	0x3
ARM GAS  C:\Users\Mohamad\AppData\Local\Temp\ccDsqi1j.s 			page 191


 10795 1942 53       		.byte	0x53
 10796 1943 96190000 		.4byte	0x1996
 10797 1947 3C       		.uleb128 0x3c
 10798 1948 70120000 		.4byte	0x1270
 10799 194c 36020000 		.4byte	.LLST32
 10800 1950 3C       		.uleb128 0x3c
 10801 1951 65120000 		.4byte	0x1265
 10802 1955 4B020000 		.4byte	.LLST33
 10803 1959 3D       		.uleb128 0x3d
 10804 195a A0010000 		.4byte	.Ldebug_ranges0+0x1a0
 10805 195e 40       		.uleb128 0x40
 10806 195f 7B120000 		.4byte	0x127b
 10807 1963 63020000 		.4byte	.LLST34
 10808 1967 3F       		.uleb128 0x3f
 10809 1968 E7110000 		.4byte	0x11e7
 10810 196c 88010000 		.4byte	.LBB152
 10811 1970 C0010000 		.4byte	.Ldebug_ranges0+0x1c0
 10812 1974 04       		.byte	0x4
 10813 1975 3F       		.byte	0x3f
 10814 1976 3C       		.uleb128 0x3c
 10815 1977 FF110000 		.4byte	0x11ff
 10816 197b 76020000 		.4byte	.LLST35
 10817 197f 3C       		.uleb128 0x3c
 10818 1980 F4110000 		.4byte	0x11f4
 10819 1984 BE020000 		.4byte	.LLST36
 10820 1988 3D       		.uleb128 0x3d
 10821 1989 E0010000 		.4byte	.Ldebug_ranges0+0x1e0
 10822 198d 3A       		.uleb128 0x3a
 10823 198e 0A120000 		.4byte	0x120a
 10824 1992 00       		.byte	0
 10825 1993 00       		.byte	0
 10826 1994 00       		.byte	0
 10827 1995 00       		.byte	0
 10828 1996 39       		.uleb128 0x39
 10829 1997 F2160000 		.4byte	0x16f2
 10830 199b 0E020000 		.4byte	.LBB162
 10831 199f 5A020000 		.4byte	.LBE162
 10832 19a3 03       		.byte	0x3
 10833 19a4 54       		.byte	0x54
 10834 19a5 051A0000 		.4byte	0x1a05
 10835 19a9 41       		.uleb128 0x41
 10836 19aa 15170000 		.4byte	0x1715
 10837 19ae 3C       		.uleb128 0x3c
 10838 19af 0A170000 		.4byte	0x170a
 10839 19b3 02030000 		.4byte	.LLST37
 10840 19b7 3C       		.uleb128 0x3c
 10841 19b8 FF160000 		.4byte	0x16ff
 10842 19bc 1A030000 		.4byte	.LLST38
 10843 19c0 29       		.uleb128 0x29
 10844 19c1 0E020000 		.4byte	.LBB163
 10845 19c5 5A020000 		.4byte	.LBE163
 10846 19c9 40       		.uleb128 0x40
 10847 19ca 20170000 		.4byte	0x1720
 10848 19ce 32030000 		.4byte	.LLST39
 10849 19d2 3F       		.uleb128 0x3f
 10850 19d3 E7110000 		.4byte	0x11e7
 10851 19d7 10020000 		.4byte	.LBB164
ARM GAS  C:\Users\Mohamad\AppData\Local\Temp\ccDsqi1j.s 			page 192


 10852 19db 00020000 		.4byte	.Ldebug_ranges0+0x200
 10853 19df 04       		.byte	0x4
 10854 19e0 52       		.byte	0x52
 10855 19e1 3C       		.uleb128 0x3c
 10856 19e2 F4110000 		.4byte	0x11f4
 10857 19e6 5D030000 		.4byte	.LLST40
 10858 19ea 3C       		.uleb128 0x3c
 10859 19eb FF110000 		.4byte	0x11ff
 10860 19ef 89030000 		.4byte	.LLST41
 10861 19f3 3D       		.uleb128 0x3d
 10862 19f4 28020000 		.4byte	.Ldebug_ranges0+0x228
 10863 19f8 40       		.uleb128 0x40
 10864 19f9 0A120000 		.4byte	0x120a
 10865 19fd D1030000 		.4byte	.LLST42
 10866 1a01 00       		.byte	0
 10867 1a02 00       		.byte	0
 10868 1a03 00       		.byte	0
 10869 1a04 00       		.byte	0
 10870 1a05 3F       		.uleb128 0x3f
 10871 1a06 E7110000 		.4byte	0x11e7
 10872 1a0a 5A020000 		.4byte	.LBB172
 10873 1a0e 50020000 		.4byte	.Ldebug_ranges0+0x250
 10874 1a12 03       		.byte	0x3
 10875 1a13 56       		.byte	0x56
 10876 1a14 3C       		.uleb128 0x3c
 10877 1a15 FF110000 		.4byte	0x11ff
 10878 1a19 FA030000 		.4byte	.LLST43
 10879 1a1d 3C       		.uleb128 0x3c
 10880 1a1e F4110000 		.4byte	0x11f4
 10881 1a22 12040000 		.4byte	.LLST44
 10882 1a26 3D       		.uleb128 0x3d
 10883 1a27 70020000 		.4byte	.Ldebug_ranges0+0x270
 10884 1a2b 40       		.uleb128 0x40
 10885 1a2c 0A120000 		.4byte	0x120a
 10886 1a30 4D040000 		.4byte	.LLST45
 10887 1a34 00       		.byte	0
 10888 1a35 00       		.byte	0
 10889 1a36 00       		.byte	0
 10890 1a37 00       		.byte	0
 10891 1a38 00       		.byte	0
 10892 1a39 00       		.byte	0
 10893 1a3a 00       		.byte	0
 10894 1a3b 00       		.byte	0
 10895 1a3c 3B       		.uleb128 0x3b
 10896 1a3d 2A130000 		.4byte	0x132a
 10897 1a41 6E020000 		.4byte	.LBB207
 10898 1a45 90020000 		.4byte	.Ldebug_ranges0+0x290
 10899 1a49 01       		.byte	0x1
 10900 1a4a 0301     		.2byte	0x103
 10901 1a4c 911A0000 		.4byte	0x1a91
 10902 1a50 3D       		.uleb128 0x3d
 10903 1a51 C0020000 		.4byte	.Ldebug_ranges0+0x2c0
 10904 1a55 40       		.uleb128 0x40
 10905 1a56 51130000 		.4byte	0x1351
 10906 1a5a 76040000 		.4byte	.LLST46
 10907 1a5e 3C       		.uleb128 0x3c
 10908 1a5f 46130000 		.4byte	0x1346
ARM GAS  C:\Users\Mohamad\AppData\Local\Temp\ccDsqi1j.s 			page 193


 10909 1a63 89040000 		.4byte	.LLST47
 10910 1a67 3C       		.uleb128 0x3c
 10911 1a68 3B130000 		.4byte	0x133b
 10912 1a6c A1040000 		.4byte	.LLST48
 10913 1a70 2E       		.uleb128 0x2e
 10914 1a71 94020000 		.4byte	.LVL55
 10915 1a75 C73C0000 		.4byte	0x3cc7
 10916 1a79 2D       		.uleb128 0x2d
 10917 1a7a 01       		.byte	0x1
 10918 1a7b 52       		.byte	0x52
 10919 1a7c 02       		.byte	0x2
 10920 1a7d 75       		.byte	0x75
 10921 1a7e 00       		.sleb128 0
 10922 1a7f 2D       		.uleb128 0x2d
 10923 1a80 01       		.byte	0x1
 10924 1a81 51       		.byte	0x51
 10925 1a82 02       		.byte	0x2
 10926 1a83 74       		.byte	0x74
 10927 1a84 02       		.sleb128 2
 10928 1a85 2D       		.uleb128 0x2d
 10929 1a86 01       		.byte	0x1
 10930 1a87 50       		.byte	0x50
 10931 1a88 05       		.byte	0x5
 10932 1a89 03       		.byte	0x3
 10933 1a8a 00000000 		.4byte	.LANCHOR10
 10934 1a8e 00       		.byte	0
 10935 1a8f 00       		.byte	0
 10936 1a90 00       		.byte	0
 10937 1a91 42       		.uleb128 0x42
 10938 1a92 FE000000 		.4byte	.LVL28
 10939 1a96 EF3C0000 		.4byte	0x3cef
 10940 1a9a 2E       		.uleb128 0x2e
 10941 1a9b B2020000 		.4byte	.LVL57
 10942 1a9f FD3C0000 		.4byte	0x3cfd
 10943 1aa3 2D       		.uleb128 0x2d
 10944 1aa4 01       		.byte	0x1
 10945 1aa5 52       		.byte	0x52
 10946 1aa6 05       		.byte	0x5
 10947 1aa7 03       		.byte	0x3
 10948 1aa8 00000000 		.4byte	.LANCHOR10
 10949 1aac 00       		.byte	0
 10950 1aad 00       		.byte	0
 10951 1aae 00       		.byte	0
 10952 1aaf 38       		.uleb128 0x38
 10953 1ab0 60170000 		.4byte	0x1760
 10954 1ab4 16030000 		.4byte	.LBB220
 10955 1ab8 F0020000 		.4byte	.Ldebug_ranges0+0x2f0
 10956 1abc 01       		.byte	0x1
 10957 1abd EA       		.byte	0xea
 10958 1abe 2E1D0000 		.4byte	0x1d2e
 10959 1ac2 3D       		.uleb128 0x3d
 10960 1ac3 20030000 		.4byte	.Ldebug_ranges0+0x320
 10961 1ac7 3A       		.uleb128 0x3a
 10962 1ac8 6F170000 		.4byte	0x176f
 10963 1acc 3B       		.uleb128 0x3b
 10964 1acd 13140000 		.4byte	0x1413
 10965 1ad1 16030000 		.4byte	.LBB222
ARM GAS  C:\Users\Mohamad\AppData\Local\Temp\ccDsqi1j.s 			page 194


 10966 1ad5 50030000 		.4byte	.Ldebug_ranges0+0x350
 10967 1ad9 01       		.byte	0x1
 10968 1ada 0A01     		.2byte	0x10a
 10969 1adc BD1C0000 		.4byte	0x1cbd
 10970 1ae0 3D       		.uleb128 0x3d
 10971 1ae1 90030000 		.4byte	.Ldebug_ranges0+0x390
 10972 1ae5 3E       		.uleb128 0x3e
 10973 1ae6 7C140000 		.4byte	0x147c
 10974 1aea 03       		.byte	0x3
 10975 1aeb 91       		.byte	0x91
 10976 1aec E87E     		.sleb128 -152
 10977 1aee 3C       		.uleb128 0x3c
 10978 1aef 71140000 		.4byte	0x1471
 10979 1af3 B9040000 		.4byte	.LLST49
 10980 1af7 3C       		.uleb128 0x3c
 10981 1af8 66140000 		.4byte	0x1466
 10982 1afc CD040000 		.4byte	.LLST50
 10983 1b00 3C       		.uleb128 0x3c
 10984 1b01 5B140000 		.4byte	0x145b
 10985 1b05 B9040000 		.4byte	.LLST49
 10986 1b09 3C       		.uleb128 0x3c
 10987 1b0a 50140000 		.4byte	0x1450
 10988 1b0e CD040000 		.4byte	.LLST50
 10989 1b12 3C       		.uleb128 0x3c
 10990 1b13 45140000 		.4byte	0x1445
 10991 1b17 E1040000 		.4byte	.LLST53
 10992 1b1b 3C       		.uleb128 0x3c
 10993 1b1c 3A140000 		.4byte	0x143a
 10994 1b20 FD040000 		.4byte	.LLST54
 10995 1b24 3C       		.uleb128 0x3c
 10996 1b25 2F140000 		.4byte	0x142f
 10997 1b29 15050000 		.4byte	.LLST55
 10998 1b2d 3C       		.uleb128 0x3c
 10999 1b2e 24140000 		.4byte	0x1424
 11000 1b32 15050000 		.4byte	.LLST55
 11001 1b36 3F       		.uleb128 0x3f
 11002 1b37 E1120000 		.4byte	0x12e1
 11003 1b3b 16030000 		.4byte	.LBB224
 11004 1b3f D0030000 		.4byte	.Ldebug_ranges0+0x3d0
 11005 1b43 05       		.byte	0x5
 11006 1b44 48       		.byte	0x48
 11007 1b45 3C       		.uleb128 0x3c
 11008 1b46 1E130000 		.4byte	0x131e
 11009 1b4a 29050000 		.4byte	.LLST57
 11010 1b4e 3C       		.uleb128 0x3c
 11011 1b4f 13130000 		.4byte	0x1313
 11012 1b53 3E050000 		.4byte	.LLST58
 11013 1b57 3D       		.uleb128 0x3d
 11014 1b58 40040000 		.4byte	.Ldebug_ranges0+0x440
 11015 1b5c 3C       		.uleb128 0x3c
 11016 1b5d 08130000 		.4byte	0x1308
 11017 1b61 15050000 		.4byte	.LLST55
 11018 1b65 3C       		.uleb128 0x3c
 11019 1b66 FD120000 		.4byte	0x12fd
 11020 1b6a 15050000 		.4byte	.LLST55
 11021 1b6e 3C       		.uleb128 0x3c
 11022 1b6f F2120000 		.4byte	0x12f2
ARM GAS  C:\Users\Mohamad\AppData\Local\Temp\ccDsqi1j.s 			page 195


 11023 1b73 FD040000 		.4byte	.LLST54
 11024 1b77 3F       		.uleb128 0x3f
 11025 1b78 87120000 		.4byte	0x1287
 11026 1b7c 16030000 		.4byte	.LBB226
 11027 1b80 B0040000 		.4byte	.Ldebug_ranges0+0x4b0
 11028 1b84 03       		.byte	0x3
 11029 1b85 66       		.byte	0x66
 11030 1b86 3C       		.uleb128 0x3c
 11031 1b87 CF120000 		.4byte	0x12cf
 11032 1b8b 29050000 		.4byte	.LLST57
 11033 1b8f 3C       		.uleb128 0x3c
 11034 1b90 C4120000 		.4byte	0x12c4
 11035 1b94 3E050000 		.4byte	.LLST58
 11036 1b98 3D       		.uleb128 0x3d
 11037 1b99 20050000 		.4byte	.Ldebug_ranges0+0x520
 11038 1b9d 3C       		.uleb128 0x3c
 11039 1b9e B9120000 		.4byte	0x12b9
 11040 1ba2 CD040000 		.4byte	.LLST50
 11041 1ba6 3C       		.uleb128 0x3c
 11042 1ba7 AE120000 		.4byte	0x12ae
 11043 1bab 15050000 		.4byte	.LLST55
 11044 1baf 3C       		.uleb128 0x3c
 11045 1bb0 A3120000 		.4byte	0x12a3
 11046 1bb4 15050000 		.4byte	.LLST55
 11047 1bb8 3C       		.uleb128 0x3c
 11048 1bb9 98120000 		.4byte	0x1298
 11049 1bbd FD040000 		.4byte	.LLST54
 11050 1bc1 38       		.uleb128 0x38
 11051 1bc2 54120000 		.4byte	0x1254
 11052 1bc6 24030000 		.4byte	.LBB228
 11053 1bca 90050000 		.4byte	.Ldebug_ranges0+0x590
 11054 1bce 03       		.byte	0x3
 11055 1bcf 53       		.byte	0x53
 11056 1bd0 1F1C0000 		.4byte	0x1c1f
 11057 1bd4 3C       		.uleb128 0x3c
 11058 1bd5 70120000 		.4byte	0x1270
 11059 1bd9 52050000 		.4byte	.LLST68
 11060 1bdd 3C       		.uleb128 0x3c
 11061 1bde 65120000 		.4byte	0x1265
 11062 1be2 67050000 		.4byte	.LLST69
 11063 1be6 3D       		.uleb128 0x3d
 11064 1be7 F0050000 		.4byte	.Ldebug_ranges0+0x5f0
 11065 1beb 3A       		.uleb128 0x3a
 11066 1bec 7B120000 		.4byte	0x127b
 11067 1bf0 3F       		.uleb128 0x3f
 11068 1bf1 E7110000 		.4byte	0x11e7
 11069 1bf5 24030000 		.4byte	.LBB230
 11070 1bf9 50060000 		.4byte	.Ldebug_ranges0+0x650
 11071 1bfd 04       		.byte	0x4
 11072 1bfe 3F       		.byte	0x3f
 11073 1bff 3C       		.uleb128 0x3c
 11074 1c00 FF110000 		.4byte	0x11ff
 11075 1c04 76020000 		.4byte	.LLST35
 11076 1c08 3C       		.uleb128 0x3c
 11077 1c09 F4110000 		.4byte	0x11f4
 11078 1c0d BE020000 		.4byte	.LLST36
 11079 1c11 3D       		.uleb128 0x3d
ARM GAS  C:\Users\Mohamad\AppData\Local\Temp\ccDsqi1j.s 			page 196


 11080 1c12 B0060000 		.4byte	.Ldebug_ranges0+0x6b0
 11081 1c16 3A       		.uleb128 0x3a
 11082 1c17 0A120000 		.4byte	0x120a
 11083 1c1b 00       		.byte	0
 11084 1c1c 00       		.byte	0
 11085 1c1d 00       		.byte	0
 11086 1c1e 00       		.byte	0
 11087 1c1f 38       		.uleb128 0x38
 11088 1c20 F2160000 		.4byte	0x16f2
 11089 1c24 A4030000 		.4byte	.LBB268
 11090 1c28 10070000 		.4byte	.Ldebug_ranges0+0x710
 11091 1c2c 03       		.byte	0x3
 11092 1c2d 54       		.byte	0x54
 11093 1c2e 8A1C0000 		.4byte	0x1c8a
 11094 1c32 3C       		.uleb128 0x3c
 11095 1c33 15170000 		.4byte	0x1715
 11096 1c37 52050000 		.4byte	.LLST68
 11097 1c3b 3C       		.uleb128 0x3c
 11098 1c3c 0A170000 		.4byte	0x170a
 11099 1c40 67050000 		.4byte	.LLST69
 11100 1c44 3C       		.uleb128 0x3c
 11101 1c45 FF160000 		.4byte	0x16ff
 11102 1c49 7F050000 		.4byte	.LLST72
 11103 1c4d 3D       		.uleb128 0x3d
 11104 1c4e 50070000 		.4byte	.Ldebug_ranges0+0x750
 11105 1c52 40       		.uleb128 0x40
 11106 1c53 20170000 		.4byte	0x1720
 11107 1c57 97050000 		.4byte	.LLST73
 11108 1c5b 3F       		.uleb128 0x3f
 11109 1c5c E7110000 		.4byte	0x11e7
 11110 1c60 A4030000 		.4byte	.LBB270
 11111 1c64 90070000 		.4byte	.Ldebug_ranges0+0x790
 11112 1c68 04       		.byte	0x4
 11113 1c69 52       		.byte	0x52
 11114 1c6a 3C       		.uleb128 0x3c
 11115 1c6b F4110000 		.4byte	0x11f4
 11116 1c6f AF050000 		.4byte	.LLST74
 11117 1c73 3C       		.uleb128 0x3c
 11118 1c74 FF110000 		.4byte	0x11ff
 11119 1c78 89030000 		.4byte	.LLST41
 11120 1c7c 3D       		.uleb128 0x3d
 11121 1c7d D0070000 		.4byte	.Ldebug_ranges0+0x7d0
 11122 1c81 3A       		.uleb128 0x3a
 11123 1c82 0A120000 		.4byte	0x120a
 11124 1c86 00       		.byte	0
 11125 1c87 00       		.byte	0
 11126 1c88 00       		.byte	0
 11127 1c89 00       		.byte	0
 11128 1c8a 3F       		.uleb128 0x3f
 11129 1c8b E7110000 		.4byte	0x11e7
 11130 1c8f BC050000 		.4byte	.LBB300
 11131 1c93 10080000 		.4byte	.Ldebug_ranges0+0x810
 11132 1c97 03       		.byte	0x3
 11133 1c98 56       		.byte	0x56
 11134 1c99 3C       		.uleb128 0x3c
 11135 1c9a FF110000 		.4byte	0x11ff
 11136 1c9e 7F050000 		.4byte	.LLST72
ARM GAS  C:\Users\Mohamad\AppData\Local\Temp\ccDsqi1j.s 			page 197


 11137 1ca2 3C       		.uleb128 0x3c
 11138 1ca3 F4110000 		.4byte	0x11f4
 11139 1ca7 12040000 		.4byte	.LLST44
 11140 1cab 3D       		.uleb128 0x3d
 11141 1cac 30080000 		.4byte	.Ldebug_ranges0+0x830
 11142 1cb0 3A       		.uleb128 0x3a
 11143 1cb1 0A120000 		.4byte	0x120a
 11144 1cb5 00       		.byte	0
 11145 1cb6 00       		.byte	0
 11146 1cb7 00       		.byte	0
 11147 1cb8 00       		.byte	0
 11148 1cb9 00       		.byte	0
 11149 1cba 00       		.byte	0
 11150 1cbb 00       		.byte	0
 11151 1cbc 00       		.byte	0
 11152 1cbd 3B       		.uleb128 0x3b
 11153 1cbe 2A130000 		.4byte	0x132a
 11154 1cc2 96040000 		.4byte	.LBB361
 11155 1cc6 50080000 		.4byte	.Ldebug_ranges0+0x850
 11156 1cca 01       		.byte	0x1
 11157 1ccb 0B01     		.2byte	0x10b
 11158 1ccd 141D0000 		.4byte	0x1d14
 11159 1cd1 3D       		.uleb128 0x3d
 11160 1cd2 80080000 		.4byte	.Ldebug_ranges0+0x880
 11161 1cd6 40       		.uleb128 0x40
 11162 1cd7 51130000 		.4byte	0x1351
 11163 1cdb C6050000 		.4byte	.LLST76
 11164 1cdf 3C       		.uleb128 0x3c
 11165 1ce0 46130000 		.4byte	0x1346
 11166 1ce4 DE050000 		.4byte	.LLST77
 11167 1ce8 3C       		.uleb128 0x3c
 11168 1ce9 3B130000 		.4byte	0x133b
 11169 1ced F6050000 		.4byte	.LLST78
 11170 1cf1 2E       		.uleb128 0x2e
 11171 1cf2 24060000 		.4byte	.LVL62
 11172 1cf6 C73C0000 		.4byte	0x3cc7
 11173 1cfa 2D       		.uleb128 0x2d
 11174 1cfb 01       		.byte	0x1
 11175 1cfc 52       		.byte	0x52
 11176 1cfd 01       		.byte	0x1
 11177 1cfe 46       		.byte	0x46
 11178 1cff 2D       		.uleb128 0x2d
 11179 1d00 01       		.byte	0x1
 11180 1d01 51       		.byte	0x51
 11181 1d02 05       		.byte	0x5
 11182 1d03 03       		.byte	0x3
 11183 1d04 02000000 		.4byte	.LANCHOR2+2
 11184 1d08 2D       		.uleb128 0x2d
 11185 1d09 01       		.byte	0x1
 11186 1d0a 50       		.byte	0x50
 11187 1d0b 05       		.byte	0x5
 11188 1d0c 03       		.byte	0x3
 11189 1d0d 00000000 		.4byte	.LANCHOR10
 11190 1d11 00       		.byte	0
 11191 1d12 00       		.byte	0
 11192 1d13 00       		.byte	0
 11193 1d14 2E       		.uleb128 0x2e
ARM GAS  C:\Users\Mohamad\AppData\Local\Temp\ccDsqi1j.s 			page 198


 11194 1d15 32060000 		.4byte	.LVL63
 11195 1d19 FD3C0000 		.4byte	0x3cfd
 11196 1d1d 2D       		.uleb128 0x2d
 11197 1d1e 01       		.byte	0x1
 11198 1d1f 52       		.byte	0x52
 11199 1d20 05       		.byte	0x5
 11200 1d21 03       		.byte	0x3
 11201 1d22 00000000 		.4byte	.LANCHOR10
 11202 1d26 2D       		.uleb128 0x2d
 11203 1d27 01       		.byte	0x1
 11204 1d28 51       		.byte	0x51
 11205 1d29 01       		.byte	0x1
 11206 1d2a 48       		.byte	0x48
 11207 1d2b 00       		.byte	0
 11208 1d2c 00       		.byte	0
 11209 1d2d 00       		.byte	0
 11210 1d2e 38       		.uleb128 0x38
 11211 1d2f D8160000 		.4byte	0x16d8
 11212 1d33 6C060000 		.4byte	.LBB384
 11213 1d37 B0080000 		.4byte	.Ldebug_ranges0+0x8b0
 11214 1d3b 01       		.byte	0x1
 11215 1d3c D2       		.byte	0xd2
 11216 1d3d 05200000 		.4byte	0x2005
 11217 1d41 3D       		.uleb128 0x3d
 11218 1d42 D8080000 		.4byte	.Ldebug_ranges0+0x8d8
 11219 1d46 3A       		.uleb128 0x3a
 11220 1d47 E6160000 		.4byte	0x16e6
 11221 1d4b 38       		.uleb128 0x38
 11222 1d4c 88140000 		.4byte	0x1488
 11223 1d50 FA060000 		.4byte	.LBB386
 11224 1d54 00090000 		.4byte	.Ldebug_ranges0+0x900
 11225 1d58 01       		.byte	0x1
 11226 1d59 FB       		.byte	0xfb
 11227 1d5a 5D1F0000 		.4byte	0x1f5d
 11228 1d5e 3C       		.uleb128 0x3c
 11229 1d5f FC140000 		.4byte	0x14fc
 11230 1d63 0E060000 		.4byte	.LLST79
 11231 1d67 3C       		.uleb128 0x3c
 11232 1d68 F1140000 		.4byte	0x14f1
 11233 1d6c 2E060000 		.4byte	.LLST80
 11234 1d70 3C       		.uleb128 0x3c
 11235 1d71 E6140000 		.4byte	0x14e6
 11236 1d75 43060000 		.4byte	.LLST81
 11237 1d79 3C       		.uleb128 0x3c
 11238 1d7a DB140000 		.4byte	0x14db
 11239 1d7e 58060000 		.4byte	.LLST82
 11240 1d82 3C       		.uleb128 0x3c
 11241 1d83 D0140000 		.4byte	0x14d0
 11242 1d87 6D060000 		.4byte	.LLST83
 11243 1d8b 3C       		.uleb128 0x3c
 11244 1d8c C5140000 		.4byte	0x14c5
 11245 1d90 82060000 		.4byte	.LLST84
 11246 1d94 3C       		.uleb128 0x3c
 11247 1d95 BA140000 		.4byte	0x14ba
 11248 1d99 97060000 		.4byte	.LLST85
 11249 1d9d 3D       		.uleb128 0x3d
 11250 1d9e 38090000 		.4byte	.Ldebug_ranges0+0x938
ARM GAS  C:\Users\Mohamad\AppData\Local\Temp\ccDsqi1j.s 			page 199


 11251 1da2 3E       		.uleb128 0x3e
 11252 1da3 07150000 		.4byte	0x1507
 11253 1da7 03       		.byte	0x3
 11254 1da8 91       		.byte	0x91
 11255 1da9 FC7E     		.sleb128 -132
 11256 1dab 3C       		.uleb128 0x3c
 11257 1dac AF140000 		.4byte	0x14af
 11258 1db0 B9060000 		.4byte	.LLST86
 11259 1db4 3C       		.uleb128 0x3c
 11260 1db5 A4140000 		.4byte	0x14a4
 11261 1db9 D1060000 		.4byte	.LLST87
 11262 1dbd 3C       		.uleb128 0x3c
 11263 1dbe 99140000 		.4byte	0x1499
 11264 1dc2 D1060000 		.4byte	.LLST87
 11265 1dc6 3F       		.uleb128 0x3f
 11266 1dc7 E1120000 		.4byte	0x12e1
 11267 1dcb FA060000 		.4byte	.LBB388
 11268 1dcf 70090000 		.4byte	.Ldebug_ranges0+0x970
 11269 1dd3 06       		.byte	0x6
 11270 1dd4 52       		.byte	0x52
 11271 1dd5 3C       		.uleb128 0x3c
 11272 1dd6 1E130000 		.4byte	0x131e
 11273 1dda E5060000 		.4byte	.LLST89
 11274 1dde 3C       		.uleb128 0x3c
 11275 1ddf 13130000 		.4byte	0x1313
 11276 1de3 FA060000 		.4byte	.LLST90
 11277 1de7 3D       		.uleb128 0x3d
 11278 1de8 080A0000 		.4byte	.Ldebug_ranges0+0xa08
 11279 1dec 3C       		.uleb128 0x3c
 11280 1ded 08130000 		.4byte	0x1308
 11281 1df1 0E070000 		.4byte	.LLST91
 11282 1df5 3C       		.uleb128 0x3c
 11283 1df6 FD120000 		.4byte	0x12fd
 11284 1dfa 0E070000 		.4byte	.LLST91
 11285 1dfe 3C       		.uleb128 0x3c
 11286 1dff F2120000 		.4byte	0x12f2
 11287 1e03 22070000 		.4byte	.LLST93
 11288 1e07 3F       		.uleb128 0x3f
 11289 1e08 87120000 		.4byte	0x1287
 11290 1e0c FA060000 		.4byte	.LBB390
 11291 1e10 A00A0000 		.4byte	.Ldebug_ranges0+0xaa0
 11292 1e14 03       		.byte	0x3
 11293 1e15 66       		.byte	0x66
 11294 1e16 3C       		.uleb128 0x3c
 11295 1e17 CF120000 		.4byte	0x12cf
 11296 1e1b E5060000 		.4byte	.LLST89
 11297 1e1f 3C       		.uleb128 0x3c
 11298 1e20 C4120000 		.4byte	0x12c4
 11299 1e24 FA060000 		.4byte	.LLST90
 11300 1e28 3D       		.uleb128 0x3d
 11301 1e29 380B0000 		.4byte	.Ldebug_ranges0+0xb38
 11302 1e2d 3C       		.uleb128 0x3c
 11303 1e2e B9120000 		.4byte	0x12b9
 11304 1e32 3A070000 		.4byte	.LLST96
 11305 1e36 3C       		.uleb128 0x3c
 11306 1e37 AE120000 		.4byte	0x12ae
 11307 1e3b 0E070000 		.4byte	.LLST91
ARM GAS  C:\Users\Mohamad\AppData\Local\Temp\ccDsqi1j.s 			page 200


 11308 1e3f 3C       		.uleb128 0x3c
 11309 1e40 A3120000 		.4byte	0x12a3
 11310 1e44 0E070000 		.4byte	.LLST91
 11311 1e48 3C       		.uleb128 0x3c
 11312 1e49 98120000 		.4byte	0x1298
 11313 1e4d 22070000 		.4byte	.LLST93
 11314 1e51 38       		.uleb128 0x38
 11315 1e52 54120000 		.4byte	0x1254
 11316 1e56 0C070000 		.4byte	.LBB392
 11317 1e5a D00B0000 		.4byte	.Ldebug_ranges0+0xbd0
 11318 1e5e 03       		.byte	0x3
 11319 1e5f 53       		.byte	0x53
 11320 1e60 B31E0000 		.4byte	0x1eb3
 11321 1e64 3C       		.uleb128 0x3c
 11322 1e65 70120000 		.4byte	0x1270
 11323 1e69 4E070000 		.4byte	.LLST100
 11324 1e6d 3C       		.uleb128 0x3c
 11325 1e6e 65120000 		.4byte	0x1265
 11326 1e72 63070000 		.4byte	.LLST101
 11327 1e76 3D       		.uleb128 0x3d
 11328 1e77 300C0000 		.4byte	.Ldebug_ranges0+0xc30
 11329 1e7b 40       		.uleb128 0x40
 11330 1e7c 7B120000 		.4byte	0x127b
 11331 1e80 7B070000 		.4byte	.LLST102
 11332 1e84 3F       		.uleb128 0x3f
 11333 1e85 E7110000 		.4byte	0x11e7
 11334 1e89 0C070000 		.4byte	.LBB394
 11335 1e8d 900C0000 		.4byte	.Ldebug_ranges0+0xc90
 11336 1e91 04       		.byte	0x4
 11337 1e92 3F       		.byte	0x3f
 11338 1e93 3C       		.uleb128 0x3c
 11339 1e94 FF110000 		.4byte	0x11ff
 11340 1e98 76020000 		.4byte	.LLST35
 11341 1e9c 3C       		.uleb128 0x3c
 11342 1e9d F4110000 		.4byte	0x11f4
 11343 1ea1 BE020000 		.4byte	.LLST36
 11344 1ea5 3D       		.uleb128 0x3d
 11345 1ea6 F00C0000 		.4byte	.Ldebug_ranges0+0xcf0
 11346 1eaa 3A       		.uleb128 0x3a
 11347 1eab 0A120000 		.4byte	0x120a
 11348 1eaf 00       		.byte	0
 11349 1eb0 00       		.byte	0
 11350 1eb1 00       		.byte	0
 11351 1eb2 00       		.byte	0
 11352 1eb3 39       		.uleb128 0x39
 11353 1eb4 F2160000 		.4byte	0x16f2
 11354 1eb8 D8070000 		.4byte	.LBB436
 11355 1ebc 24080000 		.4byte	.LBE436
 11356 1ec0 03       		.byte	0x3
 11357 1ec1 54       		.byte	0x54
 11358 1ec2 261F0000 		.4byte	0x1f26
 11359 1ec6 3C       		.uleb128 0x3c
 11360 1ec7 15170000 		.4byte	0x1715
 11361 1ecb 46090000 		.4byte	.LLST103
 11362 1ecf 3C       		.uleb128 0x3c
 11363 1ed0 0A170000 		.4byte	0x170a
 11364 1ed4 5A090000 		.4byte	.LLST104
ARM GAS  C:\Users\Mohamad\AppData\Local\Temp\ccDsqi1j.s 			page 201


 11365 1ed8 3C       		.uleb128 0x3c
 11366 1ed9 FF160000 		.4byte	0x16ff
 11367 1edd 72090000 		.4byte	.LLST105
 11368 1ee1 29       		.uleb128 0x29
 11369 1ee2 D8070000 		.4byte	.LBB437
 11370 1ee6 24080000 		.4byte	.LBE437
 11371 1eea 40       		.uleb128 0x40
 11372 1eeb 20170000 		.4byte	0x1720
 11373 1eef 8A090000 		.4byte	.LLST106
 11374 1ef3 3F       		.uleb128 0x3f
 11375 1ef4 E7110000 		.4byte	0x11e7
 11376 1ef8 DA070000 		.4byte	.LBB438
 11377 1efc 500D0000 		.4byte	.Ldebug_ranges0+0xd50
 11378 1f00 04       		.byte	0x4
 11379 1f01 52       		.byte	0x52
 11380 1f02 3C       		.uleb128 0x3c
 11381 1f03 F4110000 		.4byte	0x11f4
 11382 1f07 C5090000 		.4byte	.LLST107
 11383 1f0b 3C       		.uleb128 0x3c
 11384 1f0c FF110000 		.4byte	0x11ff
 11385 1f10 89030000 		.4byte	.LLST41
 11386 1f14 3D       		.uleb128 0x3d
 11387 1f15 780D0000 		.4byte	.Ldebug_ranges0+0xd78
 11388 1f19 40       		.uleb128 0x40
 11389 1f1a 0A120000 		.4byte	0x120a
 11390 1f1e F1090000 		.4byte	.LLST108
 11391 1f22 00       		.byte	0
 11392 1f23 00       		.byte	0
 11393 1f24 00       		.byte	0
 11394 1f25 00       		.byte	0
 11395 1f26 3F       		.uleb128 0x3f
 11396 1f27 E7110000 		.4byte	0x11e7
 11397 1f2b 24080000 		.4byte	.LBB446
 11398 1f2f A00D0000 		.4byte	.Ldebug_ranges0+0xda0
 11399 1f33 03       		.byte	0x3
 11400 1f34 56       		.byte	0x56
 11401 1f35 3C       		.uleb128 0x3c
 11402 1f36 FF110000 		.4byte	0x11ff
 11403 1f3a 0F0A0000 		.4byte	.LLST109
 11404 1f3e 3C       		.uleb128 0x3c
 11405 1f3f F4110000 		.4byte	0x11f4
 11406 1f43 12040000 		.4byte	.LLST44
 11407 1f47 3D       		.uleb128 0x3d
 11408 1f48 C00D0000 		.4byte	.Ldebug_ranges0+0xdc0
 11409 1f4c 40       		.uleb128 0x40
 11410 1f4d 0A120000 		.4byte	0x120a
 11411 1f51 270A0000 		.4byte	.LLST110
 11412 1f55 00       		.byte	0
 11413 1f56 00       		.byte	0
 11414 1f57 00       		.byte	0
 11415 1f58 00       		.byte	0
 11416 1f59 00       		.byte	0
 11417 1f5a 00       		.byte	0
 11418 1f5b 00       		.byte	0
 11419 1f5c 00       		.byte	0
 11420 1f5d 38       		.uleb128 0x38
 11421 1f5e 2A130000 		.4byte	0x132a
ARM GAS  C:\Users\Mohamad\AppData\Local\Temp\ccDsqi1j.s 			page 202


 11422 1f62 38080000 		.4byte	.LBB527
 11423 1f66 E00D0000 		.4byte	.Ldebug_ranges0+0xde0
 11424 1f6a 01       		.byte	0x1
 11425 1f6b FC       		.byte	0xfc
 11426 1f6c B11F0000 		.4byte	0x1fb1
 11427 1f70 3D       		.uleb128 0x3d
 11428 1f71 100E0000 		.4byte	.Ldebug_ranges0+0xe10
 11429 1f75 40       		.uleb128 0x40
 11430 1f76 51130000 		.4byte	0x1351
 11431 1f7a 500A0000 		.4byte	.LLST111
 11432 1f7e 3C       		.uleb128 0x3c
 11433 1f7f 46130000 		.4byte	0x1346
 11434 1f83 630A0000 		.4byte	.LLST112
 11435 1f87 3C       		.uleb128 0x3c
 11436 1f88 3B130000 		.4byte	0x133b
 11437 1f8c 7B0A0000 		.4byte	.LLST113
 11438 1f90 2E       		.uleb128 0x2e
 11439 1f91 5E080000 		.4byte	.LVL99
 11440 1f95 C73C0000 		.4byte	0x3cc7
 11441 1f99 2D       		.uleb128 0x2d
 11442 1f9a 01       		.byte	0x1
 11443 1f9b 52       		.byte	0x52
 11444 1f9c 02       		.byte	0x2
 11445 1f9d 75       		.byte	0x75
 11446 1f9e 00       		.sleb128 0
 11447 1f9f 2D       		.uleb128 0x2d
 11448 1fa0 01       		.byte	0x1
 11449 1fa1 51       		.byte	0x51
 11450 1fa2 02       		.byte	0x2
 11451 1fa3 74       		.byte	0x74
 11452 1fa4 02       		.sleb128 2
 11453 1fa5 2D       		.uleb128 0x2d
 11454 1fa6 01       		.byte	0x1
 11455 1fa7 50       		.byte	0x50
 11456 1fa8 05       		.byte	0x5
 11457 1fa9 03       		.byte	0x3
 11458 1faa 00000000 		.4byte	.LANCHOR10
 11459 1fae 00       		.byte	0
 11460 1faf 00       		.byte	0
 11461 1fb0 00       		.byte	0
 11462 1fb1 2C       		.uleb128 0x2c
 11463 1fb2 E6060000 		.4byte	.LVL74
 11464 1fb6 1B3D0000 		.4byte	0x3d1b
 11465 1fba C61F0000 		.4byte	0x1fc6
 11466 1fbe 2D       		.uleb128 0x2d
 11467 1fbf 01       		.byte	0x1
 11468 1fc0 50       		.byte	0x50
 11469 1fc1 03       		.byte	0x3
 11470 1fc2 91       		.byte	0x91
 11471 1fc3 947E     		.sleb128 -236
 11472 1fc5 00       		.byte	0
 11473 1fc6 2C       		.uleb128 0x2c
 11474 1fc7 F0060000 		.4byte	.LVL75
 11475 1fcb 1B3D0000 		.4byte	0x3d1b
 11476 1fcf DB1F0000 		.4byte	0x1fdb
 11477 1fd3 2D       		.uleb128 0x2d
 11478 1fd4 01       		.byte	0x1
ARM GAS  C:\Users\Mohamad\AppData\Local\Temp\ccDsqi1j.s 			page 203


 11479 1fd5 50       		.byte	0x50
 11480 1fd6 03       		.byte	0x3
 11481 1fd7 91       		.byte	0x91
 11482 1fd8 887E     		.sleb128 -248
 11483 1fda 00       		.byte	0
 11484 1fdb 2C       		.uleb128 0x2c
 11485 1fdc FA060000 		.4byte	.LVL76
 11486 1fe0 1B3D0000 		.4byte	0x3d1b
 11487 1fe4 F01F0000 		.4byte	0x1ff0
 11488 1fe8 2D       		.uleb128 0x2d
 11489 1fe9 01       		.byte	0x1
 11490 1fea 50       		.byte	0x50
 11491 1feb 03       		.byte	0x3
 11492 1fec 91       		.byte	0x91
 11493 1fed FC7D     		.sleb128 -260
 11494 1fef 00       		.byte	0
 11495 1ff0 2E       		.uleb128 0x2e
 11496 1ff1 80080000 		.4byte	.LVL101
 11497 1ff5 293D0000 		.4byte	0x3d29
 11498 1ff9 2D       		.uleb128 0x2d
 11499 1ffa 01       		.byte	0x1
 11500 1ffb 52       		.byte	0x52
 11501 1ffc 05       		.byte	0x5
 11502 1ffd 03       		.byte	0x3
 11503 1ffe 00000000 		.4byte	.LANCHOR10
 11504 2002 00       		.byte	0
 11505 2003 00       		.byte	0
 11506 2004 00       		.byte	0
 11507 2005 3F       		.uleb128 0x3f
 11508 2006 2A170000 		.4byte	0x172a
 11509 200a D4080000 		.4byte	.LBB546
 11510 200e 400E0000 		.4byte	.Ldebug_ranges0+0xe40
 11511 2012 01       		.byte	0x1
 11512 2013 DA       		.byte	0xda
 11513 2014 3D       		.uleb128 0x3d
 11514 2015 580E0000 		.4byte	.Ldebug_ranges0+0xe58
 11515 2019 3A       		.uleb128 0x3a
 11516 201a 38170000 		.4byte	0x1738
 11517 201e 38       		.uleb128 0x38
 11518 201f 13150000 		.4byte	0x1513
 11519 2023 10090000 		.4byte	.LBB548
 11520 2027 700E0000 		.4byte	.Ldebug_ranges0+0xe70
 11521 202b 01       		.byte	0x1
 11522 202c F3       		.byte	0xf3
 11523 202d 20220000 		.4byte	0x2220
 11524 2031 3C       		.uleb128 0x3c
 11525 2032 83150000 		.4byte	0x1583
 11526 2036 930A0000 		.4byte	.LLST114
 11527 203a 3C       		.uleb128 0x3c
 11528 203b 78150000 		.4byte	0x1578
 11529 203f B20A0000 		.4byte	.LLST115
 11530 2043 41       		.uleb128 0x41
 11531 2044 6E150000 		.4byte	0x156e
 11532 2048 3C       		.uleb128 0x3c
 11533 2049 64150000 		.4byte	0x1564
 11534 204d D20A0000 		.4byte	.LLST116
 11535 2051 3C       		.uleb128 0x3c
ARM GAS  C:\Users\Mohamad\AppData\Local\Temp\ccDsqi1j.s 			page 204


 11536 2052 5A150000 		.4byte	0x155a
 11537 2056 E60A0000 		.4byte	.LLST117
 11538 205a 3C       		.uleb128 0x3c
 11539 205b 50150000 		.4byte	0x1550
 11540 205f FB0A0000 		.4byte	.LLST118
 11541 2063 3D       		.uleb128 0x3d
 11542 2064 A00E0000 		.4byte	.Ldebug_ranges0+0xea0
 11543 2068 3E       		.uleb128 0x3e
 11544 2069 99150000 		.4byte	0x1599
 11545 206d 03       		.byte	0x3
 11546 206e 91       		.byte	0x91
 11547 206f B87F     		.sleb128 -72
 11548 2071 43       		.uleb128 0x43
 11549 2072 8E150000 		.4byte	0x158e
 11550 2076 04       		.byte	0x4
 11551 2077 00000000 		.4byte	0
 11552 207b 44       		.uleb128 0x44
 11553 207c 45150000 		.4byte	0x1545
 11554 2080 00       		.byte	0
 11555 2081 45       		.uleb128 0x45
 11556 2082 3A150000 		.4byte	0x153a
 11557 2086 06       		.byte	0x6
 11558 2087 03       		.byte	0x3
 11559 2088 00000000 		.4byte	msg
 11560 208c 9F       		.byte	0x9f
 11561 208d 44       		.uleb128 0x44
 11562 208e 2F150000 		.4byte	0x152f
 11563 2092 01       		.byte	0x1
 11564 2093 44       		.uleb128 0x44
 11565 2094 24150000 		.4byte	0x1524
 11566 2098 01       		.byte	0x1
 11567 2099 3F       		.uleb128 0x3f
 11568 209a E1120000 		.4byte	0x12e1
 11569 209e 10090000 		.4byte	.LBB550
 11570 20a2 D00E0000 		.4byte	.Ldebug_ranges0+0xed0
 11571 20a6 07       		.byte	0x7
 11572 20a7 57       		.byte	0x57
 11573 20a8 46       		.uleb128 0x46
 11574 20a9 1E130000 		.4byte	0x131e
 11575 20ad 76       		.sleb128 -10
 11576 20ae 44       		.uleb128 0x44
 11577 20af 13130000 		.4byte	0x1313
 11578 20b3 20       		.byte	0x20
 11579 20b4 3D       		.uleb128 0x3d
 11580 20b5 500F0000 		.4byte	.Ldebug_ranges0+0xf50
 11581 20b9 44       		.uleb128 0x44
 11582 20ba 08130000 		.4byte	0x1308
 11583 20be 01       		.byte	0x1
 11584 20bf 44       		.uleb128 0x44
 11585 20c0 FD120000 		.4byte	0x12fd
 11586 20c4 01       		.byte	0x1
 11587 20c5 45       		.uleb128 0x45
 11588 20c6 F2120000 		.4byte	0x12f2
 11589 20ca 06       		.byte	0x6
 11590 20cb 03       		.byte	0x3
 11591 20cc 00000000 		.4byte	msg
 11592 20d0 9F       		.byte	0x9f
ARM GAS  C:\Users\Mohamad\AppData\Local\Temp\ccDsqi1j.s 			page 205


 11593 20d1 3F       		.uleb128 0x3f
 11594 20d2 87120000 		.4byte	0x1287
 11595 20d6 10090000 		.4byte	.LBB552
 11596 20da D00F0000 		.4byte	.Ldebug_ranges0+0xfd0
 11597 20de 03       		.byte	0x3
 11598 20df 66       		.byte	0x66
 11599 20e0 46       		.uleb128 0x46
 11600 20e1 CF120000 		.4byte	0x12cf
 11601 20e5 76       		.sleb128 -10
 11602 20e6 44       		.uleb128 0x44
 11603 20e7 C4120000 		.4byte	0x12c4
 11604 20eb 20       		.byte	0x20
 11605 20ec 3D       		.uleb128 0x3d
 11606 20ed 50100000 		.4byte	.Ldebug_ranges0+0x1050
 11607 20f1 44       		.uleb128 0x44
 11608 20f2 B9120000 		.4byte	0x12b9
 11609 20f6 00       		.byte	0
 11610 20f7 44       		.uleb128 0x44
 11611 20f8 AE120000 		.4byte	0x12ae
 11612 20fc 01       		.byte	0x1
 11613 20fd 44       		.uleb128 0x44
 11614 20fe A3120000 		.4byte	0x12a3
 11615 2102 01       		.byte	0x1
 11616 2103 45       		.uleb128 0x45
 11617 2104 98120000 		.4byte	0x1298
 11618 2108 06       		.byte	0x6
 11619 2109 03       		.byte	0x3
 11620 210a 00000000 		.4byte	msg
 11621 210e 9F       		.byte	0x9f
 11622 210f 38       		.uleb128 0x38
 11623 2110 54120000 		.4byte	0x1254
 11624 2114 20090000 		.4byte	.LBB554
 11625 2118 D0100000 		.4byte	.Ldebug_ranges0+0x10d0
 11626 211c 03       		.byte	0x3
 11627 211d 53       		.byte	0x53
 11628 211e 71210000 		.4byte	0x2171
 11629 2122 46       		.uleb128 0x46
 11630 2123 70120000 		.4byte	0x1270
 11631 2127 7F       		.sleb128 -1
 11632 2128 45       		.uleb128 0x45
 11633 2129 65120000 		.4byte	0x1265
 11634 212d 06       		.byte	0x6
 11635 212e 03       		.byte	0x3
 11636 212f 08000000 		.4byte	msg+8
 11637 2133 9F       		.byte	0x9f
 11638 2134 3D       		.uleb128 0x3d
 11639 2135 30110000 		.4byte	.Ldebug_ranges0+0x1130
 11640 2139 40       		.uleb128 0x40
 11641 213a 7B120000 		.4byte	0x127b
 11642 213e 100B0000 		.4byte	.LLST119
 11643 2142 3F       		.uleb128 0x3f
 11644 2143 E7110000 		.4byte	0x11e7
 11645 2147 20090000 		.4byte	.LBB556
 11646 214b 90110000 		.4byte	.Ldebug_ranges0+0x1190
 11647 214f 04       		.byte	0x4
 11648 2150 3F       		.byte	0x3f
 11649 2151 3C       		.uleb128 0x3c
ARM GAS  C:\Users\Mohamad\AppData\Local\Temp\ccDsqi1j.s 			page 206


 11650 2152 FF110000 		.4byte	0x11ff
 11651 2156 76020000 		.4byte	.LLST35
 11652 215a 3C       		.uleb128 0x3c
 11653 215b F4110000 		.4byte	0x11f4
 11654 215f BE020000 		.4byte	.LLST36
 11655 2163 3D       		.uleb128 0x3d
 11656 2164 F0110000 		.4byte	.Ldebug_ranges0+0x11f0
 11657 2168 3A       		.uleb128 0x3a
 11658 2169 0A120000 		.4byte	0x120a
 11659 216d 00       		.byte	0
 11660 216e 00       		.byte	0
 11661 216f 00       		.byte	0
 11662 2170 00       		.byte	0
 11663 2171 39       		.uleb128 0x39
 11664 2172 F2160000 		.4byte	0x16f2
 11665 2176 EE090000 		.4byte	.LBB598
 11666 217a 3A0A0000 		.4byte	.LBE598
 11667 217e 03       		.byte	0x3
 11668 217f 54       		.byte	0x54
 11669 2180 E6210000 		.4byte	0x21e6
 11670 2184 41       		.uleb128 0x41
 11671 2185 15170000 		.4byte	0x1715
 11672 2189 45       		.uleb128 0x45
 11673 218a 0A170000 		.4byte	0x170a
 11674 218e 06       		.byte	0x6
 11675 218f 03       		.byte	0x3
 11676 2190 08000000 		.4byte	msg+8
 11677 2194 9F       		.byte	0x9f
 11678 2195 45       		.uleb128 0x45
 11679 2196 FF160000 		.4byte	0x16ff
 11680 219a 06       		.byte	0x6
 11681 219b 03       		.byte	0x3
 11682 219c 00000000 		.4byte	msg
 11683 21a0 9F       		.byte	0x9f
 11684 21a1 29       		.uleb128 0x29
 11685 21a2 EE090000 		.4byte	.LBB599
 11686 21a6 3A0A0000 		.4byte	.LBE599
 11687 21aa 40       		.uleb128 0x40
 11688 21ab 20170000 		.4byte	0x1720
 11689 21af 230B0000 		.4byte	.LLST120
 11690 21b3 3F       		.uleb128 0x3f
 11691 21b4 E7110000 		.4byte	0x11e7
 11692 21b8 F0090000 		.4byte	.LBB600
 11693 21bc 50120000 		.4byte	.Ldebug_ranges0+0x1250
 11694 21c0 04       		.byte	0x4
 11695 21c1 52       		.byte	0x52
 11696 21c2 3C       		.uleb128 0x3c
 11697 21c3 F4110000 		.4byte	0x11f4
 11698 21c7 4E0B0000 		.4byte	.LLST121
 11699 21cb 3C       		.uleb128 0x3c
 11700 21cc FF110000 		.4byte	0x11ff
 11701 21d0 89030000 		.4byte	.LLST41
 11702 21d4 3D       		.uleb128 0x3d
 11703 21d5 78120000 		.4byte	.Ldebug_ranges0+0x1278
 11704 21d9 40       		.uleb128 0x40
 11705 21da 0A120000 		.4byte	0x120a
 11706 21de 7A0B0000 		.4byte	.LLST122
ARM GAS  C:\Users\Mohamad\AppData\Local\Temp\ccDsqi1j.s 			page 207


 11707 21e2 00       		.byte	0
 11708 21e3 00       		.byte	0
 11709 21e4 00       		.byte	0
 11710 21e5 00       		.byte	0
 11711 21e6 3F       		.uleb128 0x3f
 11712 21e7 E7110000 		.4byte	0x11e7
 11713 21eb 3A0A0000 		.4byte	.LBB608
 11714 21ef A0120000 		.4byte	.Ldebug_ranges0+0x12a0
 11715 21f3 03       		.byte	0x3
 11716 21f4 56       		.byte	0x56
 11717 21f5 45       		.uleb128 0x45
 11718 21f6 FF110000 		.4byte	0x11ff
 11719 21fa 06       		.byte	0x6
 11720 21fb 03       		.byte	0x3
 11721 21fc 00000000 		.4byte	msg
 11722 2200 9F       		.byte	0x9f
 11723 2201 3C       		.uleb128 0x3c
 11724 2202 F4110000 		.4byte	0x11f4
 11725 2206 12040000 		.4byte	.LLST44
 11726 220a 3D       		.uleb128 0x3d
 11727 220b B8120000 		.4byte	.Ldebug_ranges0+0x12b8
 11728 220f 40       		.uleb128 0x40
 11729 2210 0A120000 		.4byte	0x120a
 11730 2214 980B0000 		.4byte	.LLST123
 11731 2218 00       		.byte	0
 11732 2219 00       		.byte	0
 11733 221a 00       		.byte	0
 11734 221b 00       		.byte	0
 11735 221c 00       		.byte	0
 11736 221d 00       		.byte	0
 11737 221e 00       		.byte	0
 11738 221f 00       		.byte	0
 11739 2220 38       		.uleb128 0x38
 11740 2221 2A130000 		.4byte	0x132a
 11741 2225 520A0000 		.4byte	.LBB674
 11742 2229 D0120000 		.4byte	.Ldebug_ranges0+0x12d0
 11743 222d 01       		.byte	0x1
 11744 222e F4       		.byte	0xf4
 11745 222f 7A220000 		.4byte	0x227a
 11746 2233 3D       		.uleb128 0x3d
 11747 2234 00130000 		.4byte	.Ldebug_ranges0+0x1300
 11748 2238 40       		.uleb128 0x40
 11749 2239 51130000 		.4byte	0x1351
 11750 223d C10B0000 		.4byte	.LLST124
 11751 2241 45       		.uleb128 0x45
 11752 2242 46130000 		.4byte	0x1346
 11753 2246 06       		.byte	0x6
 11754 2247 03       		.byte	0x3
 11755 2248 00000000 		.4byte	msg
 11756 224c 9F       		.byte	0x9f
 11757 224d 45       		.uleb128 0x45
 11758 224e 3B130000 		.4byte	0x133b
 11759 2252 06       		.byte	0x6
 11760 2253 03       		.byte	0x3
 11761 2254 00000000 		.4byte	buff
 11762 2258 9F       		.byte	0x9f
 11763 2259 2E       		.uleb128 0x2e
ARM GAS  C:\Users\Mohamad\AppData\Local\Temp\ccDsqi1j.s 			page 208


 11764 225a 7E0A0000 		.4byte	.LVL131
 11765 225e C73C0000 		.4byte	0x3cc7
 11766 2262 2D       		.uleb128 0x2d
 11767 2263 01       		.byte	0x1
 11768 2264 52       		.byte	0x52
 11769 2265 02       		.byte	0x2
 11770 2266 74       		.byte	0x74
 11771 2267 00       		.sleb128 0
 11772 2268 2D       		.uleb128 0x2d
 11773 2269 01       		.byte	0x1
 11774 226a 51       		.byte	0x51
 11775 226b 02       		.byte	0x2
 11776 226c 79       		.byte	0x79
 11777 226d 02       		.sleb128 2
 11778 226e 2D       		.uleb128 0x2d
 11779 226f 01       		.byte	0x1
 11780 2270 50       		.byte	0x50
 11781 2271 05       		.byte	0x5
 11782 2272 03       		.byte	0x3
 11783 2273 00000000 		.4byte	.LANCHOR10
 11784 2277 00       		.byte	0
 11785 2278 00       		.byte	0
 11786 2279 00       		.byte	0
 11787 227a 2C       		.uleb128 0x2c
 11788 227b E0080000 		.4byte	.LVL103
 11789 227f 473D0000 		.4byte	0x3d47
 11790 2283 8F220000 		.4byte	0x228f
 11791 2287 2D       		.uleb128 0x2d
 11792 2288 01       		.byte	0x1
 11793 2289 50       		.byte	0x50
 11794 228a 03       		.byte	0x3
 11795 228b 91       		.byte	0x91
 11796 228c DC7E     		.sleb128 -164
 11797 228e 00       		.byte	0
 11798 228f 2C       		.uleb128 0x2c
 11799 2290 EA080000 		.4byte	.LVL104
 11800 2294 473D0000 		.4byte	0x3d47
 11801 2298 A4220000 		.4byte	0x22a4
 11802 229c 2D       		.uleb128 0x2d
 11803 229d 01       		.byte	0x1
 11804 229e 50       		.byte	0x50
 11805 229f 03       		.byte	0x3
 11806 22a0 91       		.byte	0x91
 11807 22a1 D07E     		.sleb128 -176
 11808 22a3 00       		.byte	0
 11809 22a4 2C       		.uleb128 0x2c
 11810 22a5 F4080000 		.4byte	.LVL105
 11811 22a9 473D0000 		.4byte	0x3d47
 11812 22ad B9220000 		.4byte	0x22b9
 11813 22b1 2D       		.uleb128 0x2d
 11814 22b2 01       		.byte	0x1
 11815 22b3 50       		.byte	0x50
 11816 22b4 03       		.byte	0x3
 11817 22b5 91       		.byte	0x91
 11818 22b6 C47E     		.sleb128 -188
 11819 22b8 00       		.byte	0
 11820 22b9 2C       		.uleb128 0x2c
ARM GAS  C:\Users\Mohamad\AppData\Local\Temp\ccDsqi1j.s 			page 209


 11821 22ba FC080000 		.4byte	.LVL106
 11822 22be 553D0000 		.4byte	0x3d55
 11823 22c2 CE220000 		.4byte	0x22ce
 11824 22c6 2D       		.uleb128 0x2d
 11825 22c7 01       		.byte	0x1
 11826 22c8 50       		.byte	0x50
 11827 22c9 03       		.byte	0x3
 11828 22ca 91       		.byte	0x91
 11829 22cb B87E     		.sleb128 -200
 11830 22cd 00       		.byte	0
 11831 22ce 2C       		.uleb128 0x2c
 11832 22cf 06090000 		.4byte	.LVL107
 11833 22d3 553D0000 		.4byte	0x3d55
 11834 22d7 E3220000 		.4byte	0x22e3
 11835 22db 2D       		.uleb128 0x2d
 11836 22dc 01       		.byte	0x1
 11837 22dd 50       		.byte	0x50
 11838 22de 03       		.byte	0x3
 11839 22df 91       		.byte	0x91
 11840 22e0 AC7E     		.sleb128 -212
 11841 22e2 00       		.byte	0
 11842 22e3 2C       		.uleb128 0x2c
 11843 22e4 10090000 		.4byte	.LVL108
 11844 22e8 553D0000 		.4byte	0x3d55
 11845 22ec F8220000 		.4byte	0x22f8
 11846 22f0 2D       		.uleb128 0x2d
 11847 22f1 01       		.byte	0x1
 11848 22f2 50       		.byte	0x50
 11849 22f3 03       		.byte	0x3
 11850 22f4 91       		.byte	0x91
 11851 22f5 A07E     		.sleb128 -224
 11852 22f7 00       		.byte	0
 11853 22f8 2E       		.uleb128 0x2e
 11854 22f9 960A0000 		.4byte	.LVL133
 11855 22fd FD3C0000 		.4byte	0x3cfd
 11856 2301 2D       		.uleb128 0x2d
 11857 2302 01       		.byte	0x1
 11858 2303 52       		.byte	0x52
 11859 2304 05       		.byte	0x5
 11860 2305 03       		.byte	0x3
 11861 2306 00000000 		.4byte	.LANCHOR10
 11862 230a 00       		.byte	0
 11863 230b 00       		.byte	0
 11864 230c 00       		.byte	0
 11865 230d 00       		.byte	0
 11866 230e 42       		.uleb128 0x42
 11867 230f 0A000000 		.4byte	.LVL13
 11868 2313 633D0000 		.4byte	0x3d63
 11869 2317 42       		.uleb128 0x42
 11870 2318 0E000000 		.4byte	.LVL14
 11871 231c 6D3D0000 		.4byte	0x3d6d
 11872 2320 2C       		.uleb128 0x2c
 11873 2321 38000000 		.4byte	.LVL15
 11874 2325 773D0000 		.4byte	0x3d77
 11875 2329 37230000 		.4byte	0x2337
 11876 232d 2D       		.uleb128 0x2d
 11877 232e 01       		.byte	0x1
ARM GAS  C:\Users\Mohamad\AppData\Local\Temp\ccDsqi1j.s 			page 210


 11878 232f 51       		.byte	0x51
 11879 2330 05       		.byte	0x5
 11880 2331 03       		.byte	0x3
 11881 2332 00000000 		.4byte	.LANCHOR3
 11882 2336 00       		.byte	0
 11883 2337 2C       		.uleb128 0x2c
 11884 2338 4A000000 		.4byte	.LVL16
 11885 233c 963D0000 		.4byte	0x3d96
 11886 2340 4E230000 		.4byte	0x234e
 11887 2344 2D       		.uleb128 0x2d
 11888 2345 01       		.byte	0x1
 11889 2346 51       		.byte	0x51
 11890 2347 05       		.byte	0x5
 11891 2348 03       		.byte	0x3
 11892 2349 00000000 		.4byte	.LANCHOR4
 11893 234d 00       		.byte	0
 11894 234e 42       		.uleb128 0x42
 11895 234f 4E000000 		.4byte	.LVL17
 11896 2353 AF3D0000 		.4byte	0x3daf
 11897 2357 2C       		.uleb128 0x2c
 11898 2358 54000000 		.4byte	.LVL18
 11899 235c B23C0000 		.4byte	0x3cb2
 11900 2360 6B230000 		.4byte	0x236b
 11901 2364 2D       		.uleb128 0x2d
 11902 2365 01       		.byte	0x1
 11903 2366 50       		.byte	0x50
 11904 2367 02       		.byte	0x2
 11905 2368 08       		.byte	0x8
 11906 2369 64       		.byte	0x64
 11907 236a 00       		.byte	0
 11908 236b 2C       		.uleb128 0x2c
 11909 236c 5A000000 		.4byte	.LVL19
 11910 2370 B93D0000 		.4byte	0x3db9
 11911 2374 7E230000 		.4byte	0x237e
 11912 2378 2D       		.uleb128 0x2d
 11913 2379 01       		.byte	0x1
 11914 237a 50       		.byte	0x50
 11915 237b 01       		.byte	0x1
 11916 237c 31       		.byte	0x31
 11917 237d 00       		.byte	0
 11918 237e 2C       		.uleb128 0x2c
 11919 237f 60000000 		.4byte	.LVL20
 11920 2383 B23C0000 		.4byte	0x3cb2
 11921 2387 91230000 		.4byte	0x2391
 11922 238b 2D       		.uleb128 0x2d
 11923 238c 01       		.byte	0x1
 11924 238d 50       		.byte	0x50
 11925 238e 01       		.byte	0x1
 11926 238f 3A       		.byte	0x3a
 11927 2390 00       		.byte	0
 11928 2391 2C       		.uleb128 0x2c
 11929 2392 66000000 		.4byte	.LVL21
 11930 2396 9E3C0000 		.4byte	0x3c9e
 11931 239a A8230000 		.4byte	0x23a8
 11932 239e 2D       		.uleb128 0x2d
 11933 239f 01       		.byte	0x1
 11934 23a0 50       		.byte	0x50
ARM GAS  C:\Users\Mohamad\AppData\Local\Temp\ccDsqi1j.s 			page 211


 11935 23a1 05       		.byte	0x5
 11936 23a2 03       		.byte	0x3
 11937 23a3 00000000 		.4byte	.LANCHOR1
 11938 23a7 00       		.byte	0
 11939 23a8 42       		.uleb128 0x42
 11940 23a9 6A000000 		.4byte	.LVL22
 11941 23ad CD3D0000 		.4byte	0x3dcd
 11942 23b1 2C       		.uleb128 0x2c
 11943 23b2 7C000000 		.4byte	.LVL23
 11944 23b6 D73D0000 		.4byte	0x3dd7
 11945 23ba E4230000 		.4byte	0x23e4
 11946 23be 2D       		.uleb128 0x2d
 11947 23bf 01       		.byte	0x1
 11948 23c0 53       		.byte	0x53
 11949 23c1 05       		.byte	0x5
 11950 23c2 03       		.byte	0x3
 11951 23c3 00000000 		.4byte	Thread1
 11952 23c7 2D       		.uleb128 0x2d
 11953 23c8 01       		.byte	0x1
 11954 23c9 52       		.byte	0x52
 11955 23ca 02       		.byte	0x2
 11956 23cb 08       		.byte	0x8
 11957 23cc 40       		.byte	0x40
 11958 23cd 2D       		.uleb128 0x2d
 11959 23ce 01       		.byte	0x1
 11960 23cf 51       		.byte	0x51
 11961 23d0 03       		.byte	0x3
 11962 23d1 0A       		.byte	0xa
 11963 23d2 5001     		.2byte	0x150
 11964 23d4 2D       		.uleb128 0x2d
 11965 23d5 01       		.byte	0x1
 11966 23d6 50       		.byte	0x50
 11967 23d7 05       		.byte	0x5
 11968 23d8 03       		.byte	0x3
 11969 23d9 00000000 		.4byte	.LANCHOR5
 11970 23dd 2D       		.uleb128 0x2d
 11971 23de 02       		.byte	0x2
 11972 23df 7D       		.byte	0x7d
 11973 23e0 00       		.sleb128 0
 11974 23e1 01       		.byte	0x1
 11975 23e2 30       		.byte	0x30
 11976 23e3 00       		.byte	0
 11977 23e4 42       		.uleb128 0x42
 11978 23e5 82000000 		.4byte	.LVL24
 11979 23e9 043E0000 		.4byte	0x3e04
 11980 23ed 42       		.uleb128 0x42
 11981 23ee 8C000000 		.4byte	.LVL27
 11982 23f2 0E3E0000 		.4byte	0x3e0e
 11983 23f6 00       		.byte	0
 11984 23f7 47       		.uleb128 0x47
 11985 23f8 CE160000 		.4byte	0x16ce
 11986 23fc 00000000 		.4byte	.LFB1537
 11987 2400 30090000 		.4byte	.LFE1537
 11988 2404 E40B0000 		.4byte	.LLST125
 11989 2408 01       		.byte	0x1
 11990 2409 242F0000 		.4byte	0x2f24
 11991 240d 38       		.uleb128 0x38
ARM GAS  C:\Users\Mohamad\AppData\Local\Temp\ccDsqi1j.s 			page 212


 11992 240e 60170000 		.4byte	0x1760
 11993 2412 48000000 		.4byte	.LBB796
 11994 2416 30130000 		.4byte	.Ldebug_ranges0+0x1330
 11995 241a 01       		.byte	0x1
 11996 241b EA       		.byte	0xea
 11997 241c 83260000 		.4byte	0x2683
 11998 2420 3D       		.uleb128 0x3d
 11999 2421 58130000 		.4byte	.Ldebug_ranges0+0x1358
 12000 2425 3A       		.uleb128 0x3a
 12001 2426 6F170000 		.4byte	0x176f
 12002 242a 3B       		.uleb128 0x3b
 12003 242b 13140000 		.4byte	0x1413
 12004 242f 48000000 		.4byte	.LBB798
 12005 2433 80130000 		.4byte	.Ldebug_ranges0+0x1380
 12006 2437 01       		.byte	0x1
 12007 2438 0A01     		.2byte	0x10a
 12008 243a 1B260000 		.4byte	0x261b
 12009 243e 3D       		.uleb128 0x3d
 12010 243f C0130000 		.4byte	.Ldebug_ranges0+0x13c0
 12011 2443 3E       		.uleb128 0x3e
 12012 2444 7C140000 		.4byte	0x147c
 12013 2448 03       		.byte	0x3
 12014 2449 91       		.byte	0x91
 12015 244a E87E     		.sleb128 -152
 12016 244c 3C       		.uleb128 0x3c
 12017 244d 71140000 		.4byte	0x1471
 12018 2451 110C0000 		.4byte	.LLST126
 12019 2455 3C       		.uleb128 0x3c
 12020 2456 66140000 		.4byte	0x1466
 12021 245a 250C0000 		.4byte	.LLST127
 12022 245e 3C       		.uleb128 0x3c
 12023 245f 5B140000 		.4byte	0x145b
 12024 2463 110C0000 		.4byte	.LLST126
 12025 2467 3C       		.uleb128 0x3c
 12026 2468 50140000 		.4byte	0x1450
 12027 246c 250C0000 		.4byte	.LLST127
 12028 2470 3C       		.uleb128 0x3c
 12029 2471 45140000 		.4byte	0x1445
 12030 2475 390C0000 		.4byte	.LLST130
 12031 2479 3C       		.uleb128 0x3c
 12032 247a 3A140000 		.4byte	0x143a
 12033 247e 550C0000 		.4byte	.LLST131
 12034 2482 3C       		.uleb128 0x3c
 12035 2483 2F140000 		.4byte	0x142f
 12036 2487 6D0C0000 		.4byte	.LLST132
 12037 248b 3C       		.uleb128 0x3c
 12038 248c 24140000 		.4byte	0x1424
 12039 2490 6D0C0000 		.4byte	.LLST132
 12040 2494 3F       		.uleb128 0x3f
 12041 2495 E1120000 		.4byte	0x12e1
 12042 2499 48000000 		.4byte	.LBB800
 12043 249d 00140000 		.4byte	.Ldebug_ranges0+0x1400
 12044 24a1 05       		.byte	0x5
 12045 24a2 48       		.byte	0x48
 12046 24a3 3C       		.uleb128 0x3c
 12047 24a4 1E130000 		.4byte	0x131e
 12048 24a8 810C0000 		.4byte	.LLST134
ARM GAS  C:\Users\Mohamad\AppData\Local\Temp\ccDsqi1j.s 			page 213


 12049 24ac 3C       		.uleb128 0x3c
 12050 24ad 13130000 		.4byte	0x1313
 12051 24b1 960C0000 		.4byte	.LLST135
 12052 24b5 3D       		.uleb128 0x3d
 12053 24b6 60140000 		.4byte	.Ldebug_ranges0+0x1460
 12054 24ba 3C       		.uleb128 0x3c
 12055 24bb 08130000 		.4byte	0x1308
 12056 24bf AA0C0000 		.4byte	.LLST136
 12057 24c3 3C       		.uleb128 0x3c
 12058 24c4 FD120000 		.4byte	0x12fd
 12059 24c8 AA0C0000 		.4byte	.LLST136
 12060 24cc 3C       		.uleb128 0x3c
 12061 24cd F2120000 		.4byte	0x12f2
 12062 24d1 BE0C0000 		.4byte	.LLST138
 12063 24d5 3F       		.uleb128 0x3f
 12064 24d6 87120000 		.4byte	0x1287
 12065 24da 48000000 		.4byte	.LBB802
 12066 24de C0140000 		.4byte	.Ldebug_ranges0+0x14c0
 12067 24e2 03       		.byte	0x3
 12068 24e3 66       		.byte	0x66
 12069 24e4 3C       		.uleb128 0x3c
 12070 24e5 CF120000 		.4byte	0x12cf
 12071 24e9 810C0000 		.4byte	.LLST134
 12072 24ed 3C       		.uleb128 0x3c
 12073 24ee C4120000 		.4byte	0x12c4
 12074 24f2 960C0000 		.4byte	.LLST135
 12075 24f6 3D       		.uleb128 0x3d
 12076 24f7 20150000 		.4byte	.Ldebug_ranges0+0x1520
 12077 24fb 3C       		.uleb128 0x3c
 12078 24fc B9120000 		.4byte	0x12b9
 12079 2500 D60C0000 		.4byte	.LLST141
 12080 2504 3C       		.uleb128 0x3c
 12081 2505 AE120000 		.4byte	0x12ae
 12082 2509 AA0C0000 		.4byte	.LLST136
 12083 250d 3C       		.uleb128 0x3c
 12084 250e A3120000 		.4byte	0x12a3
 12085 2512 AA0C0000 		.4byte	.LLST136
 12086 2516 3C       		.uleb128 0x3c
 12087 2517 98120000 		.4byte	0x1298
 12088 251b BE0C0000 		.4byte	.LLST138
 12089 251f 38       		.uleb128 0x38
 12090 2520 54120000 		.4byte	0x1254
 12091 2524 5E000000 		.4byte	.LBB804
 12092 2528 80150000 		.4byte	.Ldebug_ranges0+0x1580
 12093 252c 03       		.byte	0x3
 12094 252d 53       		.byte	0x53
 12095 252e 7D250000 		.4byte	0x257d
 12096 2532 3C       		.uleb128 0x3c
 12097 2533 70120000 		.4byte	0x1270
 12098 2537 EA0C0000 		.4byte	.LLST145
 12099 253b 3C       		.uleb128 0x3c
 12100 253c 65120000 		.4byte	0x1265
 12101 2540 FF0C0000 		.4byte	.LLST146
 12102 2544 3D       		.uleb128 0x3d
 12103 2545 D0150000 		.4byte	.Ldebug_ranges0+0x15d0
 12104 2549 3A       		.uleb128 0x3a
 12105 254a 7B120000 		.4byte	0x127b
ARM GAS  C:\Users\Mohamad\AppData\Local\Temp\ccDsqi1j.s 			page 214


 12106 254e 3F       		.uleb128 0x3f
 12107 254f E7110000 		.4byte	0x11e7
 12108 2553 5E000000 		.4byte	.LBB806
 12109 2557 20160000 		.4byte	.Ldebug_ranges0+0x1620
 12110 255b 04       		.byte	0x4
 12111 255c 3F       		.byte	0x3f
 12112 255d 3C       		.uleb128 0x3c
 12113 255e FF110000 		.4byte	0x11ff
 12114 2562 170D0000 		.4byte	.LLST147
 12115 2566 3C       		.uleb128 0x3c
 12116 2567 F4110000 		.4byte	0x11f4
 12117 256b 5F0D0000 		.4byte	.LLST148
 12118 256f 3D       		.uleb128 0x3d
 12119 2570 70160000 		.4byte	.Ldebug_ranges0+0x1670
 12120 2574 3A       		.uleb128 0x3a
 12121 2575 0A120000 		.4byte	0x120a
 12122 2579 00       		.byte	0
 12123 257a 00       		.byte	0
 12124 257b 00       		.byte	0
 12125 257c 00       		.byte	0
 12126 257d 38       		.uleb128 0x38
 12127 257e F2160000 		.4byte	0x16f2
 12128 2582 DE000000 		.4byte	.LBB836
 12129 2586 C0160000 		.4byte	.Ldebug_ranges0+0x16c0
 12130 258a 03       		.byte	0x3
 12131 258b 54       		.byte	0x54
 12132 258c E8250000 		.4byte	0x25e8
 12133 2590 3C       		.uleb128 0x3c
 12134 2591 15170000 		.4byte	0x1715
 12135 2595 EA0C0000 		.4byte	.LLST145
 12136 2599 3C       		.uleb128 0x3c
 12137 259a 0A170000 		.4byte	0x170a
 12138 259e FF0C0000 		.4byte	.LLST146
 12139 25a2 3C       		.uleb128 0x3c
 12140 25a3 FF160000 		.4byte	0x16ff
 12141 25a7 A30D0000 		.4byte	.LLST151
 12142 25ab 3D       		.uleb128 0x3d
 12143 25ac F8160000 		.4byte	.Ldebug_ranges0+0x16f8
 12144 25b0 40       		.uleb128 0x40
 12145 25b1 20170000 		.4byte	0x1720
 12146 25b5 BB0D0000 		.4byte	.LLST152
 12147 25b9 3F       		.uleb128 0x3f
 12148 25ba E7110000 		.4byte	0x11e7
 12149 25be DE000000 		.4byte	.LBB838
 12150 25c2 30170000 		.4byte	.Ldebug_ranges0+0x1730
 12151 25c6 04       		.byte	0x4
 12152 25c7 52       		.byte	0x52
 12153 25c8 3C       		.uleb128 0x3c
 12154 25c9 F4110000 		.4byte	0x11f4
 12155 25cd D30D0000 		.4byte	.LLST153
 12156 25d1 3C       		.uleb128 0x3c
 12157 25d2 FF110000 		.4byte	0x11ff
 12158 25d6 EA0D0000 		.4byte	.LLST154
 12159 25da 3D       		.uleb128 0x3d
 12160 25db 68170000 		.4byte	.Ldebug_ranges0+0x1768
 12161 25df 3A       		.uleb128 0x3a
 12162 25e0 0A120000 		.4byte	0x120a
ARM GAS  C:\Users\Mohamad\AppData\Local\Temp\ccDsqi1j.s 			page 215


 12163 25e4 00       		.byte	0
 12164 25e5 00       		.byte	0
 12165 25e6 00       		.byte	0
 12166 25e7 00       		.byte	0
 12167 25e8 3F       		.uleb128 0x3f
 12168 25e9 E7110000 		.4byte	0x11e7
 12169 25ed DC020000 		.4byte	.LBB864
 12170 25f1 A0170000 		.4byte	.Ldebug_ranges0+0x17a0
 12171 25f5 03       		.byte	0x3
 12172 25f6 56       		.byte	0x56
 12173 25f7 3C       		.uleb128 0x3c
 12174 25f8 FF110000 		.4byte	0x11ff
 12175 25fc A30D0000 		.4byte	.LLST151
 12176 2600 3C       		.uleb128 0x3c
 12177 2601 F4110000 		.4byte	0x11f4
 12178 2605 320E0000 		.4byte	.LLST156
 12179 2609 3D       		.uleb128 0x3d
 12180 260a C0170000 		.4byte	.Ldebug_ranges0+0x17c0
 12181 260e 3A       		.uleb128 0x3a
 12182 260f 0A120000 		.4byte	0x120a
 12183 2613 00       		.byte	0
 12184 2614 00       		.byte	0
 12185 2615 00       		.byte	0
 12186 2616 00       		.byte	0
 12187 2617 00       		.byte	0
 12188 2618 00       		.byte	0
 12189 2619 00       		.byte	0
 12190 261a 00       		.byte	0
 12191 261b 3B       		.uleb128 0x3b
 12192 261c 2A130000 		.4byte	0x132a
 12193 2620 56000000 		.4byte	.LBB916
 12194 2624 E0170000 		.4byte	.Ldebug_ranges0+0x17e0
 12195 2628 01       		.byte	0x1
 12196 2629 0B01     		.2byte	0x10b
 12197 262b 6C260000 		.4byte	0x266c
 12198 262f 3D       		.uleb128 0x3d
 12199 2630 18180000 		.4byte	.Ldebug_ranges0+0x1818
 12200 2634 40       		.uleb128 0x40
 12201 2635 51130000 		.4byte	0x1351
 12202 2639 6D0E0000 		.4byte	.LLST157
 12203 263d 3C       		.uleb128 0x3c
 12204 263e 46130000 		.4byte	0x1346
 12205 2642 A30D0000 		.4byte	.LLST151
 12206 2646 3C       		.uleb128 0x3c
 12207 2647 3B130000 		.4byte	0x133b
 12208 264b 820E0000 		.4byte	.LLST159
 12209 264f 2E       		.uleb128 0x2e
 12210 2650 3E030000 		.4byte	.LVL137
 12211 2654 C73C0000 		.4byte	0x3cc7
 12212 2658 2D       		.uleb128 0x2d
 12213 2659 01       		.byte	0x1
 12214 265a 52       		.byte	0x52
 12215 265b 01       		.byte	0x1
 12216 265c 46       		.byte	0x46
 12217 265d 2D       		.uleb128 0x2d
 12218 265e 01       		.byte	0x1
 12219 265f 51       		.byte	0x51
ARM GAS  C:\Users\Mohamad\AppData\Local\Temp\ccDsqi1j.s 			page 216


 12220 2660 02       		.byte	0x2
 12221 2661 74       		.byte	0x74
 12222 2662 02       		.sleb128 2
 12223 2663 2D       		.uleb128 0x2d
 12224 2664 01       		.byte	0x1
 12225 2665 50       		.byte	0x50
 12226 2666 02       		.byte	0x2
 12227 2667 78       		.byte	0x78
 12228 2668 00       		.sleb128 0
 12229 2669 00       		.byte	0
 12230 266a 00       		.byte	0
 12231 266b 00       		.byte	0
 12232 266c 2E       		.uleb128 0x2e
 12233 266d 50030000 		.4byte	.LVL138
 12234 2671 FD3C0000 		.4byte	0x3cfd
 12235 2675 2D       		.uleb128 0x2d
 12236 2676 01       		.byte	0x1
 12237 2677 52       		.byte	0x52
 12238 2678 02       		.byte	0x2
 12239 2679 78       		.byte	0x78
 12240 267a 00       		.sleb128 0
 12241 267b 2D       		.uleb128 0x2d
 12242 267c 01       		.byte	0x1
 12243 267d 51       		.byte	0x51
 12244 267e 01       		.byte	0x1
 12245 267f 48       		.byte	0x48
 12246 2680 00       		.byte	0
 12247 2681 00       		.byte	0
 12248 2682 00       		.byte	0
 12249 2683 38       		.uleb128 0x38
 12250 2684 D8160000 		.4byte	0x16d8
 12251 2688 78030000 		.4byte	.LBB940
 12252 268c 50180000 		.4byte	.Ldebug_ranges0+0x1850
 12253 2690 01       		.byte	0x1
 12254 2691 D2       		.byte	0xd2
 12255 2692 5A290000 		.4byte	0x295a
 12256 2696 3D       		.uleb128 0x3d
 12257 2697 68180000 		.4byte	.Ldebug_ranges0+0x1868
 12258 269b 3A       		.uleb128 0x3a
 12259 269c E6160000 		.4byte	0x16e6
 12260 26a0 38       		.uleb128 0x38
 12261 26a1 88140000 		.4byte	0x1488
 12262 26a5 88030000 		.4byte	.LBB942
 12263 26a9 80180000 		.4byte	.Ldebug_ranges0+0x1880
 12264 26ad 01       		.byte	0x1
 12265 26ae FB       		.byte	0xfb
 12266 26af B2280000 		.4byte	0x28b2
 12267 26b3 3C       		.uleb128 0x3c
 12268 26b4 FC140000 		.4byte	0x14fc
 12269 26b8 9A0E0000 		.4byte	.LLST160
 12270 26bc 3C       		.uleb128 0x3c
 12271 26bd F1140000 		.4byte	0x14f1
 12272 26c1 BA0E0000 		.4byte	.LLST161
 12273 26c5 41       		.uleb128 0x41
 12274 26c6 E6140000 		.4byte	0x14e6
 12275 26ca 3C       		.uleb128 0x3c
 12276 26cb DB140000 		.4byte	0x14db
ARM GAS  C:\Users\Mohamad\AppData\Local\Temp\ccDsqi1j.s 			page 217


 12277 26cf CF0E0000 		.4byte	.LLST162
 12278 26d3 3C       		.uleb128 0x3c
 12279 26d4 D0140000 		.4byte	0x14d0
 12280 26d8 E40E0000 		.4byte	.LLST163
 12281 26dc 3C       		.uleb128 0x3c
 12282 26dd C5140000 		.4byte	0x14c5
 12283 26e1 F90E0000 		.4byte	.LLST164
 12284 26e5 3C       		.uleb128 0x3c
 12285 26e6 BA140000 		.4byte	0x14ba
 12286 26ea 0E0F0000 		.4byte	.LLST165
 12287 26ee 3D       		.uleb128 0x3d
 12288 26ef C0180000 		.4byte	.Ldebug_ranges0+0x18c0
 12289 26f3 3E       		.uleb128 0x3e
 12290 26f4 07150000 		.4byte	0x1507
 12291 26f8 03       		.byte	0x3
 12292 26f9 91       		.byte	0x91
 12293 26fa FC7E     		.sleb128 -132
 12294 26fc 3C       		.uleb128 0x3c
 12295 26fd AF140000 		.4byte	0x14af
 12296 2701 510F0000 		.4byte	.LLST166
 12297 2705 3C       		.uleb128 0x3c
 12298 2706 A4140000 		.4byte	0x14a4
 12299 270a 690F0000 		.4byte	.LLST167
 12300 270e 3C       		.uleb128 0x3c
 12301 270f 99140000 		.4byte	0x1499
 12302 2713 690F0000 		.4byte	.LLST167
 12303 2717 3F       		.uleb128 0x3f
 12304 2718 E1120000 		.4byte	0x12e1
 12305 271c 88030000 		.4byte	.LBB944
 12306 2720 00190000 		.4byte	.Ldebug_ranges0+0x1900
 12307 2724 06       		.byte	0x6
 12308 2725 52       		.byte	0x52
 12309 2726 3C       		.uleb128 0x3c
 12310 2727 1E130000 		.4byte	0x131e
 12311 272b 7D0F0000 		.4byte	.LLST169
 12312 272f 3C       		.uleb128 0x3c
 12313 2730 13130000 		.4byte	0x1313
 12314 2734 920F0000 		.4byte	.LLST170
 12315 2738 3D       		.uleb128 0x3d
 12316 2739 80190000 		.4byte	.Ldebug_ranges0+0x1980
 12317 273d 3C       		.uleb128 0x3c
 12318 273e 08130000 		.4byte	0x1308
 12319 2742 A60F0000 		.4byte	.LLST171
 12320 2746 3C       		.uleb128 0x3c
 12321 2747 FD120000 		.4byte	0x12fd
 12322 274b A60F0000 		.4byte	.LLST171
 12323 274f 3C       		.uleb128 0x3c
 12324 2750 F2120000 		.4byte	0x12f2
 12325 2754 BA0F0000 		.4byte	.LLST173
 12326 2758 3F       		.uleb128 0x3f
 12327 2759 87120000 		.4byte	0x1287
 12328 275d 88030000 		.4byte	.LBB946
 12329 2761 001A0000 		.4byte	.Ldebug_ranges0+0x1a00
 12330 2765 03       		.byte	0x3
 12331 2766 66       		.byte	0x66
 12332 2767 3C       		.uleb128 0x3c
 12333 2768 CF120000 		.4byte	0x12cf
ARM GAS  C:\Users\Mohamad\AppData\Local\Temp\ccDsqi1j.s 			page 218


 12334 276c 7D0F0000 		.4byte	.LLST169
 12335 2770 3C       		.uleb128 0x3c
 12336 2771 C4120000 		.4byte	0x12c4
 12337 2775 920F0000 		.4byte	.LLST170
 12338 2779 3D       		.uleb128 0x3d
 12339 277a 801A0000 		.4byte	.Ldebug_ranges0+0x1a80
 12340 277e 3C       		.uleb128 0x3c
 12341 277f B9120000 		.4byte	0x12b9
 12342 2783 D20F0000 		.4byte	.LLST176
 12343 2787 3C       		.uleb128 0x3c
 12344 2788 AE120000 		.4byte	0x12ae
 12345 278c A60F0000 		.4byte	.LLST171
 12346 2790 3C       		.uleb128 0x3c
 12347 2791 A3120000 		.4byte	0x12a3
 12348 2795 A60F0000 		.4byte	.LLST171
 12349 2799 3C       		.uleb128 0x3c
 12350 279a 98120000 		.4byte	0x1298
 12351 279e BA0F0000 		.4byte	.LLST173
 12352 27a2 38       		.uleb128 0x38
 12353 27a3 54120000 		.4byte	0x1254
 12354 27a7 F0030000 		.4byte	.LBB948
 12355 27ab 001B0000 		.4byte	.Ldebug_ranges0+0x1b00
 12356 27af 03       		.byte	0x3
 12357 27b0 53       		.byte	0x53
 12358 27b1 08280000 		.4byte	0x2808
 12359 27b5 3C       		.uleb128 0x3c
 12360 27b6 70120000 		.4byte	0x1270
 12361 27ba E60F0000 		.4byte	.LLST180
 12362 27be 3C       		.uleb128 0x3c
 12363 27bf 65120000 		.4byte	0x1265
 12364 27c3 FB0F0000 		.4byte	.LLST181
 12365 27c7 3D       		.uleb128 0x3d
 12366 27c8 481B0000 		.4byte	.Ldebug_ranges0+0x1b48
 12367 27cc 40       		.uleb128 0x40
 12368 27cd 7B120000 		.4byte	0x127b
 12369 27d1 13100000 		.4byte	.LLST182
 12370 27d5 3F       		.uleb128 0x3f
 12371 27d6 E7110000 		.4byte	0x11e7
 12372 27da F0030000 		.4byte	.LBB950
 12373 27de 901B0000 		.4byte	.Ldebug_ranges0+0x1b90
 12374 27e2 04       		.byte	0x4
 12375 27e3 3F       		.byte	0x3f
 12376 27e4 3C       		.uleb128 0x3c
 12377 27e5 FF110000 		.4byte	0x11ff
 12378 27e9 170D0000 		.4byte	.LLST147
 12379 27ed 3C       		.uleb128 0x3c
 12380 27ee F4110000 		.4byte	0x11f4
 12381 27f2 5F0D0000 		.4byte	.LLST148
 12382 27f6 3D       		.uleb128 0x3d
 12383 27f7 D81B0000 		.4byte	.Ldebug_ranges0+0x1bd8
 12384 27fb 40       		.uleb128 0x40
 12385 27fc 0A120000 		.4byte	0x120a
 12386 2800 26100000 		.4byte	.LLST183
 12387 2804 00       		.byte	0
 12388 2805 00       		.byte	0
 12389 2806 00       		.byte	0
 12390 2807 00       		.byte	0
ARM GAS  C:\Users\Mohamad\AppData\Local\Temp\ccDsqi1j.s 			page 219


 12391 2808 39       		.uleb128 0x39
 12392 2809 F2160000 		.4byte	0x16f2
 12393 280d B0040000 		.4byte	.LBB980
 12394 2811 F8040000 		.4byte	.LBE980
 12395 2815 03       		.byte	0x3
 12396 2816 54       		.byte	0x54
 12397 2817 7B280000 		.4byte	0x287b
 12398 281b 3C       		.uleb128 0x3c
 12399 281c 15170000 		.4byte	0x1715
 12400 2820 C11C0000 		.4byte	.LLST184
 12401 2824 3C       		.uleb128 0x3c
 12402 2825 0A170000 		.4byte	0x170a
 12403 2829 FB0F0000 		.4byte	.LLST181
 12404 282d 3C       		.uleb128 0x3c
 12405 282e FF160000 		.4byte	0x16ff
 12406 2832 D51C0000 		.4byte	.LLST186
 12407 2836 29       		.uleb128 0x29
 12408 2837 B0040000 		.4byte	.LBB981
 12409 283b F8040000 		.4byte	.LBE981
 12410 283f 40       		.uleb128 0x40
 12411 2840 20170000 		.4byte	0x1720
 12412 2844 ED1C0000 		.4byte	.LLST187
 12413 2848 3F       		.uleb128 0x3f
 12414 2849 E7110000 		.4byte	0x11e7
 12415 284d B2040000 		.4byte	.LBB982
 12416 2851 201C0000 		.4byte	.Ldebug_ranges0+0x1c20
 12417 2855 04       		.byte	0x4
 12418 2856 52       		.byte	0x52
 12419 2857 3C       		.uleb128 0x3c
 12420 2858 F4110000 		.4byte	0x11f4
 12421 285c 101D0000 		.4byte	.LLST188
 12422 2860 3C       		.uleb128 0x3c
 12423 2861 FF110000 		.4byte	0x11ff
 12424 2865 EA0D0000 		.4byte	.LLST154
 12425 2869 3D       		.uleb128 0x3d
 12426 286a 501C0000 		.4byte	.Ldebug_ranges0+0x1c50
 12427 286e 40       		.uleb128 0x40
 12428 286f 0A120000 		.4byte	0x120a
 12429 2873 3C1D0000 		.4byte	.LLST189
 12430 2877 00       		.byte	0
 12431 2878 00       		.byte	0
 12432 2879 00       		.byte	0
 12433 287a 00       		.byte	0
 12434 287b 3F       		.uleb128 0x3f
 12435 287c E7110000 		.4byte	0x11e7
 12436 2880 F8040000 		.4byte	.LBB992
 12437 2884 801C0000 		.4byte	.Ldebug_ranges0+0x1c80
 12438 2888 03       		.byte	0x3
 12439 2889 56       		.byte	0x56
 12440 288a 3C       		.uleb128 0x3c
 12441 288b FF110000 		.4byte	0x11ff
 12442 288f 651D0000 		.4byte	.LLST190
 12443 2893 3C       		.uleb128 0x3c
 12444 2894 F4110000 		.4byte	0x11f4
 12445 2898 320E0000 		.4byte	.LLST156
 12446 289c 3D       		.uleb128 0x3d
 12447 289d A01C0000 		.4byte	.Ldebug_ranges0+0x1ca0
ARM GAS  C:\Users\Mohamad\AppData\Local\Temp\ccDsqi1j.s 			page 220


 12448 28a1 40       		.uleb128 0x40
 12449 28a2 0A120000 		.4byte	0x120a
 12450 28a6 7D1D0000 		.4byte	.LLST191
 12451 28aa 00       		.byte	0
 12452 28ab 00       		.byte	0
 12453 28ac 00       		.byte	0
 12454 28ad 00       		.byte	0
 12455 28ae 00       		.byte	0
 12456 28af 00       		.byte	0
 12457 28b0 00       		.byte	0
 12458 28b1 00       		.byte	0
 12459 28b2 38       		.uleb128 0x38
 12460 28b3 2A130000 		.4byte	0x132a
 12461 28b7 12050000 		.4byte	.LBB1063
 12462 28bb C01C0000 		.4byte	.Ldebug_ranges0+0x1cc0
 12463 28bf 01       		.byte	0x1
 12464 28c0 FC       		.byte	0xfc
 12465 28c1 03290000 		.4byte	0x2903
 12466 28c5 3D       		.uleb128 0x3d
 12467 28c6 F81C0000 		.4byte	.Ldebug_ranges0+0x1cf8
 12468 28ca 40       		.uleb128 0x40
 12469 28cb 51130000 		.4byte	0x1351
 12470 28cf A61D0000 		.4byte	.LLST192
 12471 28d3 3C       		.uleb128 0x3c
 12472 28d4 46130000 		.4byte	0x1346
 12473 28d8 C91D0000 		.4byte	.LLST193
 12474 28dc 3C       		.uleb128 0x3c
 12475 28dd 3B130000 		.4byte	0x133b
 12476 28e1 E11D0000 		.4byte	.LLST194
 12477 28e5 2E       		.uleb128 0x2e
 12478 28e6 38050000 		.4byte	.LVL174
 12479 28ea C73C0000 		.4byte	0x3cc7
 12480 28ee 2D       		.uleb128 0x2d
 12481 28ef 01       		.byte	0x1
 12482 28f0 52       		.byte	0x52
 12483 28f1 02       		.byte	0x2
 12484 28f2 76       		.byte	0x76
 12485 28f3 00       		.sleb128 0
 12486 28f4 2D       		.uleb128 0x2d
 12487 28f5 01       		.byte	0x1
 12488 28f6 51       		.byte	0x51
 12489 28f7 02       		.byte	0x2
 12490 28f8 74       		.byte	0x74
 12491 28f9 02       		.sleb128 2
 12492 28fa 2D       		.uleb128 0x2d
 12493 28fb 01       		.byte	0x1
 12494 28fc 50       		.byte	0x50
 12495 28fd 02       		.byte	0x2
 12496 28fe 75       		.byte	0x75
 12497 28ff 00       		.sleb128 0
 12498 2900 00       		.byte	0
 12499 2901 00       		.byte	0
 12500 2902 00       		.byte	0
 12501 2903 2C       		.uleb128 0x2c
 12502 2904 D6030000 		.4byte	.LVL149
 12503 2908 1B3D0000 		.4byte	0x3d1b
 12504 290c 18290000 		.4byte	0x2918
ARM GAS  C:\Users\Mohamad\AppData\Local\Temp\ccDsqi1j.s 			page 221


 12505 2910 2D       		.uleb128 0x2d
 12506 2911 01       		.byte	0x1
 12507 2912 50       		.byte	0x50
 12508 2913 03       		.byte	0x3
 12509 2914 91       		.byte	0x91
 12510 2915 947E     		.sleb128 -236
 12511 2917 00       		.byte	0
 12512 2918 2C       		.uleb128 0x2c
 12513 2919 E0030000 		.4byte	.LVL150
 12514 291d 1B3D0000 		.4byte	0x3d1b
 12515 2921 2D290000 		.4byte	0x292d
 12516 2925 2D       		.uleb128 0x2d
 12517 2926 01       		.byte	0x1
 12518 2927 50       		.byte	0x50
 12519 2928 03       		.byte	0x3
 12520 2929 91       		.byte	0x91
 12521 292a 887E     		.sleb128 -248
 12522 292c 00       		.byte	0
 12523 292d 2C       		.uleb128 0x2c
 12524 292e EA030000 		.4byte	.LVL151
 12525 2932 1B3D0000 		.4byte	0x3d1b
 12526 2936 42290000 		.4byte	0x2942
 12527 293a 2D       		.uleb128 0x2d
 12528 293b 01       		.byte	0x1
 12529 293c 50       		.byte	0x50
 12530 293d 03       		.byte	0x3
 12531 293e 91       		.byte	0x91
 12532 293f FC7D     		.sleb128 -260
 12533 2941 00       		.byte	0
 12534 2942 2E       		.uleb128 0x2e
 12535 2943 4E050000 		.4byte	.LVL176
 12536 2947 293D0000 		.4byte	0x3d29
 12537 294b 2D       		.uleb128 0x2d
 12538 294c 01       		.byte	0x1
 12539 294d 52       		.byte	0x52
 12540 294e 02       		.byte	0x2
 12541 294f 75       		.byte	0x75
 12542 2950 00       		.sleb128 0
 12543 2951 2D       		.uleb128 0x2d
 12544 2952 01       		.byte	0x1
 12545 2953 51       		.byte	0x51
 12546 2954 02       		.byte	0x2
 12547 2955 7A       		.byte	0x7a
 12548 2956 08       		.sleb128 8
 12549 2957 00       		.byte	0
 12550 2958 00       		.byte	0
 12551 2959 00       		.byte	0
 12552 295a 38       		.uleb128 0x38
 12553 295b 2A170000 		.4byte	0x172a
 12554 295f 9E050000 		.4byte	.LBB1080
 12555 2963 301D0000 		.4byte	.Ldebug_ranges0+0x1d30
 12556 2967 01       		.byte	0x1
 12557 2968 DA       		.byte	0xda
 12558 2969 802C0000 		.4byte	0x2c80
 12559 296d 3D       		.uleb128 0x3d
 12560 296e 481D0000 		.4byte	.Ldebug_ranges0+0x1d48
 12561 2972 3A       		.uleb128 0x3a
ARM GAS  C:\Users\Mohamad\AppData\Local\Temp\ccDsqi1j.s 			page 222


 12562 2973 38170000 		.4byte	0x1738
 12563 2977 38       		.uleb128 0x38
 12564 2978 13150000 		.4byte	0x1513
 12565 297c AC050000 		.4byte	.LBB1082
 12566 2980 601D0000 		.4byte	.Ldebug_ranges0+0x1d60
 12567 2984 01       		.byte	0x1
 12568 2985 F3       		.byte	0xf3
 12569 2986 962B0000 		.4byte	0x2b96
 12570 298a 3C       		.uleb128 0x3c
 12571 298b 83150000 		.4byte	0x1583
 12572 298f F91D0000 		.4byte	.LLST195
 12573 2993 3C       		.uleb128 0x3c
 12574 2994 78150000 		.4byte	0x1578
 12575 2998 181E0000 		.4byte	.LLST196
 12576 299c 3C       		.uleb128 0x3c
 12577 299d 6E150000 		.4byte	0x156e
 12578 29a1 371E0000 		.4byte	.LLST197
 12579 29a5 3C       		.uleb128 0x3c
 12580 29a6 64150000 		.4byte	0x1564
 12581 29aa 561E0000 		.4byte	.LLST198
 12582 29ae 3C       		.uleb128 0x3c
 12583 29af 5A150000 		.4byte	0x155a
 12584 29b3 6A1E0000 		.4byte	.LLST199
 12585 29b7 3C       		.uleb128 0x3c
 12586 29b8 50150000 		.4byte	0x1550
 12587 29bc 7E1E0000 		.4byte	.LLST200
 12588 29c0 3D       		.uleb128 0x3d
 12589 29c1 981D0000 		.4byte	.Ldebug_ranges0+0x1d98
 12590 29c5 3E       		.uleb128 0x3e
 12591 29c6 99150000 		.4byte	0x1599
 12592 29ca 03       		.byte	0x3
 12593 29cb 91       		.byte	0x91
 12594 29cc B87F     		.sleb128 -72
 12595 29ce 3C       		.uleb128 0x3c
 12596 29cf 8E150000 		.4byte	0x158e
 12597 29d3 931E0000 		.4byte	.LLST201
 12598 29d7 3C       		.uleb128 0x3c
 12599 29d8 45150000 		.4byte	0x1545
 12600 29dc AB1E0000 		.4byte	.LLST202
 12601 29e0 3C       		.uleb128 0x3c
 12602 29e1 3A150000 		.4byte	0x153a
 12603 29e5 BF1E0000 		.4byte	.LLST203
 12604 29e9 3C       		.uleb128 0x3c
 12605 29ea 2F150000 		.4byte	0x152f
 12606 29ee D71E0000 		.4byte	.LLST204
 12607 29f2 3C       		.uleb128 0x3c
 12608 29f3 24150000 		.4byte	0x1524
 12609 29f7 D71E0000 		.4byte	.LLST204
 12610 29fb 3F       		.uleb128 0x3f
 12611 29fc E1120000 		.4byte	0x12e1
 12612 2a00 AC050000 		.4byte	.LBB1084
 12613 2a04 D01D0000 		.4byte	.Ldebug_ranges0+0x1dd0
 12614 2a08 07       		.byte	0x7
 12615 2a09 57       		.byte	0x57
 12616 2a0a 3C       		.uleb128 0x3c
 12617 2a0b 1E130000 		.4byte	0x131e
 12618 2a0f EB1E0000 		.4byte	.LLST206
ARM GAS  C:\Users\Mohamad\AppData\Local\Temp\ccDsqi1j.s 			page 223


 12619 2a13 3C       		.uleb128 0x3c
 12620 2a14 13130000 		.4byte	0x1313
 12621 2a18 001F0000 		.4byte	.LLST207
 12622 2a1c 3D       		.uleb128 0x3d
 12623 2a1d 581E0000 		.4byte	.Ldebug_ranges0+0x1e58
 12624 2a21 3C       		.uleb128 0x3c
 12625 2a22 08130000 		.4byte	0x1308
 12626 2a26 151F0000 		.4byte	.LLST208
 12627 2a2a 3C       		.uleb128 0x3c
 12628 2a2b FD120000 		.4byte	0x12fd
 12629 2a2f 151F0000 		.4byte	.LLST208
 12630 2a33 3C       		.uleb128 0x3c
 12631 2a34 F2120000 		.4byte	0x12f2
 12632 2a38 291F0000 		.4byte	.LLST210
 12633 2a3c 3F       		.uleb128 0x3f
 12634 2a3d 87120000 		.4byte	0x1287
 12635 2a41 AC050000 		.4byte	.LBB1086
 12636 2a45 E01E0000 		.4byte	.Ldebug_ranges0+0x1ee0
 12637 2a49 03       		.byte	0x3
 12638 2a4a 66       		.byte	0x66
 12639 2a4b 3C       		.uleb128 0x3c
 12640 2a4c CF120000 		.4byte	0x12cf
 12641 2a50 EB1E0000 		.4byte	.LLST206
 12642 2a54 3C       		.uleb128 0x3c
 12643 2a55 C4120000 		.4byte	0x12c4
 12644 2a59 001F0000 		.4byte	.LLST207
 12645 2a5d 3D       		.uleb128 0x3d
 12646 2a5e 681F0000 		.4byte	.Ldebug_ranges0+0x1f68
 12647 2a62 3C       		.uleb128 0x3c
 12648 2a63 B9120000 		.4byte	0x12b9
 12649 2a67 411F0000 		.4byte	.LLST213
 12650 2a6b 3C       		.uleb128 0x3c
 12651 2a6c AE120000 		.4byte	0x12ae
 12652 2a70 151F0000 		.4byte	.LLST208
 12653 2a74 3C       		.uleb128 0x3c
 12654 2a75 A3120000 		.4byte	0x12a3
 12655 2a79 151F0000 		.4byte	.LLST208
 12656 2a7d 3C       		.uleb128 0x3c
 12657 2a7e 98120000 		.4byte	0x1298
 12658 2a82 291F0000 		.4byte	.LLST210
 12659 2a86 38       		.uleb128 0x38
 12660 2a87 54120000 		.4byte	0x1254
 12661 2a8b E0050000 		.4byte	.LBB1088
 12662 2a8f F01F0000 		.4byte	.Ldebug_ranges0+0x1ff0
 12663 2a93 03       		.byte	0x3
 12664 2a94 53       		.byte	0x53
 12665 2a95 EC2A0000 		.4byte	0x2aec
 12666 2a99 3C       		.uleb128 0x3c
 12667 2a9a 70120000 		.4byte	0x1270
 12668 2a9e 551F0000 		.4byte	.LLST217
 12669 2aa2 3C       		.uleb128 0x3c
 12670 2aa3 65120000 		.4byte	0x1265
 12671 2aa7 6A1F0000 		.4byte	.LLST218
 12672 2aab 3D       		.uleb128 0x3d
 12673 2aac 48200000 		.4byte	.Ldebug_ranges0+0x2048
 12674 2ab0 40       		.uleb128 0x40
 12675 2ab1 7B120000 		.4byte	0x127b
ARM GAS  C:\Users\Mohamad\AppData\Local\Temp\ccDsqi1j.s 			page 224


 12676 2ab5 821F0000 		.4byte	.LLST219
 12677 2ab9 3F       		.uleb128 0x3f
 12678 2aba E7110000 		.4byte	0x11e7
 12679 2abe E0050000 		.4byte	.LBB1090
 12680 2ac2 A0200000 		.4byte	.Ldebug_ranges0+0x20a0
 12681 2ac6 04       		.byte	0x4
 12682 2ac7 3F       		.byte	0x3f
 12683 2ac8 3C       		.uleb128 0x3c
 12684 2ac9 FF110000 		.4byte	0x11ff
 12685 2acd 170D0000 		.4byte	.LLST147
 12686 2ad1 3C       		.uleb128 0x3c
 12687 2ad2 F4110000 		.4byte	0x11f4
 12688 2ad6 5F0D0000 		.4byte	.LLST148
 12689 2ada 3D       		.uleb128 0x3d
 12690 2adb F8200000 		.4byte	.Ldebug_ranges0+0x20f8
 12691 2adf 40       		.uleb128 0x40
 12692 2ae0 0A120000 		.4byte	0x120a
 12693 2ae4 951F0000 		.4byte	.LLST220
 12694 2ae8 00       		.byte	0
 12695 2ae9 00       		.byte	0
 12696 2aea 00       		.byte	0
 12697 2aeb 00       		.byte	0
 12698 2aec 39       		.uleb128 0x39
 12699 2aed F2160000 		.4byte	0x16f2
 12700 2af1 A6060000 		.4byte	.LBB1128
 12701 2af5 EC060000 		.4byte	.LBE1128
 12702 2af9 03       		.byte	0x3
 12703 2afa 54       		.byte	0x54
 12704 2afb 5F2B0000 		.4byte	0x2b5f
 12705 2aff 3C       		.uleb128 0x3c
 12706 2b00 15170000 		.4byte	0x1715
 12707 2b04 A81F0000 		.4byte	.LLST221
 12708 2b08 3C       		.uleb128 0x3c
 12709 2b09 0A170000 		.4byte	0x170a
 12710 2b0d BC1F0000 		.4byte	.LLST222
 12711 2b11 3C       		.uleb128 0x3c
 12712 2b12 FF160000 		.4byte	0x16ff
 12713 2b16 D41F0000 		.4byte	.LLST223
 12714 2b1a 29       		.uleb128 0x29
 12715 2b1b A6060000 		.4byte	.LBB1129
 12716 2b1f EC060000 		.4byte	.LBE1129
 12717 2b23 40       		.uleb128 0x40
 12718 2b24 20170000 		.4byte	0x1720
 12719 2b28 EC1F0000 		.4byte	.LLST224
 12720 2b2c 3F       		.uleb128 0x3f
 12721 2b2d E7110000 		.4byte	0x11e7
 12722 2b31 A8060000 		.4byte	.LBB1130
 12723 2b35 50210000 		.4byte	.Ldebug_ranges0+0x2150
 12724 2b39 04       		.byte	0x4
 12725 2b3a 52       		.byte	0x52
 12726 2b3b 3C       		.uleb128 0x3c
 12727 2b3c F4110000 		.4byte	0x11f4
 12728 2b40 27200000 		.4byte	.LLST225
 12729 2b44 3C       		.uleb128 0x3c
 12730 2b45 FF110000 		.4byte	0x11ff
 12731 2b49 EA0D0000 		.4byte	.LLST154
 12732 2b4d 3D       		.uleb128 0x3d
ARM GAS  C:\Users\Mohamad\AppData\Local\Temp\ccDsqi1j.s 			page 225


 12733 2b4e 80210000 		.4byte	.Ldebug_ranges0+0x2180
 12734 2b52 40       		.uleb128 0x40
 12735 2b53 0A120000 		.4byte	0x120a
 12736 2b57 53200000 		.4byte	.LLST226
 12737 2b5b 00       		.byte	0
 12738 2b5c 00       		.byte	0
 12739 2b5d 00       		.byte	0
 12740 2b5e 00       		.byte	0
 12741 2b5f 3F       		.uleb128 0x3f
 12742 2b60 E7110000 		.4byte	0x11e7
 12743 2b64 EC060000 		.4byte	.LBB1140
 12744 2b68 B0210000 		.4byte	.Ldebug_ranges0+0x21b0
 12745 2b6c 03       		.byte	0x3
 12746 2b6d 56       		.byte	0x56
 12747 2b6e 3C       		.uleb128 0x3c
 12748 2b6f FF110000 		.4byte	0x11ff
 12749 2b73 7C200000 		.4byte	.LLST227
 12750 2b77 3C       		.uleb128 0x3c
 12751 2b78 F4110000 		.4byte	0x11f4
 12752 2b7c 320E0000 		.4byte	.LLST156
 12753 2b80 3D       		.uleb128 0x3d
 12754 2b81 D0210000 		.4byte	.Ldebug_ranges0+0x21d0
 12755 2b85 40       		.uleb128 0x40
 12756 2b86 0A120000 		.4byte	0x120a
 12757 2b8a 94200000 		.4byte	.LLST228
 12758 2b8e 00       		.byte	0
 12759 2b8f 00       		.byte	0
 12760 2b90 00       		.byte	0
 12761 2b91 00       		.byte	0
 12762 2b92 00       		.byte	0
 12763 2b93 00       		.byte	0
 12764 2b94 00       		.byte	0
 12765 2b95 00       		.byte	0
 12766 2b96 38       		.uleb128 0x38
 12767 2b97 2A130000 		.4byte	0x132a
 12768 2b9b 00070000 		.4byte	.LBB1213
 12769 2b9f F0210000 		.4byte	.Ldebug_ranges0+0x21f0
 12770 2ba3 01       		.byte	0x1
 12771 2ba4 F4       		.byte	0xf4
 12772 2ba5 EA2B0000 		.4byte	0x2bea
 12773 2ba9 3D       		.uleb128 0x3d
 12774 2baa 28220000 		.4byte	.Ldebug_ranges0+0x2228
 12775 2bae 40       		.uleb128 0x40
 12776 2baf 51130000 		.4byte	0x1351
 12777 2bb3 B2200000 		.4byte	.LLST229
 12778 2bb7 3C       		.uleb128 0x3c
 12779 2bb8 46130000 		.4byte	0x1346
 12780 2bbc D5200000 		.4byte	.LLST230
 12781 2bc0 3C       		.uleb128 0x3c
 12782 2bc1 3B130000 		.4byte	0x133b
 12783 2bc5 ED200000 		.4byte	.LLST231
 12784 2bc9 2E       		.uleb128 0x2e
 12785 2bca 2A070000 		.4byte	.LVL208
 12786 2bce C73C0000 		.4byte	0x3cc7
 12787 2bd2 2D       		.uleb128 0x2d
 12788 2bd3 01       		.byte	0x1
 12789 2bd4 52       		.byte	0x52
ARM GAS  C:\Users\Mohamad\AppData\Local\Temp\ccDsqi1j.s 			page 226


 12790 2bd5 02       		.byte	0x2
 12791 2bd6 75       		.byte	0x75
 12792 2bd7 00       		.sleb128 0
 12793 2bd8 2D       		.uleb128 0x2d
 12794 2bd9 01       		.byte	0x1
 12795 2bda 51       		.byte	0x51
 12796 2bdb 05       		.byte	0x5
 12797 2bdc 03       		.byte	0x3
 12798 2bdd 02000000 		.4byte	.LANCHOR2+2
 12799 2be1 2D       		.uleb128 0x2d
 12800 2be2 01       		.byte	0x1
 12801 2be3 50       		.byte	0x50
 12802 2be4 02       		.byte	0x2
 12803 2be5 74       		.byte	0x74
 12804 2be6 00       		.sleb128 0
 12805 2be7 00       		.byte	0
 12806 2be8 00       		.byte	0
 12807 2be9 00       		.byte	0
 12808 2bea 2C       		.uleb128 0x2c
 12809 2beb A8050000 		.4byte	.LVL178
 12810 2bef 473D0000 		.4byte	0x3d47
 12811 2bf3 FF2B0000 		.4byte	0x2bff
 12812 2bf7 2D       		.uleb128 0x2d
 12813 2bf8 01       		.byte	0x1
 12814 2bf9 50       		.byte	0x50
 12815 2bfa 03       		.byte	0x3
 12816 2bfb 91       		.byte	0x91
 12817 2bfc DC7E     		.sleb128 -164
 12818 2bfe 00       		.byte	0
 12819 2bff 2C       		.uleb128 0x2c
 12820 2c00 B4050000 		.4byte	.LVL179
 12821 2c04 473D0000 		.4byte	0x3d47
 12822 2c08 142C0000 		.4byte	0x2c14
 12823 2c0c 2D       		.uleb128 0x2d
 12824 2c0d 01       		.byte	0x1
 12825 2c0e 50       		.byte	0x50
 12826 2c0f 03       		.byte	0x3
 12827 2c10 91       		.byte	0x91
 12828 2c11 D07E     		.sleb128 -176
 12829 2c13 00       		.byte	0
 12830 2c14 2C       		.uleb128 0x2c
 12831 2c15 BE050000 		.4byte	.LVL180
 12832 2c19 473D0000 		.4byte	0x3d47
 12833 2c1d 292C0000 		.4byte	0x2c29
 12834 2c21 2D       		.uleb128 0x2d
 12835 2c22 01       		.byte	0x1
 12836 2c23 50       		.byte	0x50
 12837 2c24 03       		.byte	0x3
 12838 2c25 91       		.byte	0x91
 12839 2c26 C47E     		.sleb128 -188
 12840 2c28 00       		.byte	0
 12841 2c29 2C       		.uleb128 0x2c
 12842 2c2a C6050000 		.4byte	.LVL181
 12843 2c2e 553D0000 		.4byte	0x3d55
 12844 2c32 3E2C0000 		.4byte	0x2c3e
 12845 2c36 2D       		.uleb128 0x2d
 12846 2c37 01       		.byte	0x1
ARM GAS  C:\Users\Mohamad\AppData\Local\Temp\ccDsqi1j.s 			page 227


 12847 2c38 50       		.byte	0x50
 12848 2c39 03       		.byte	0x3
 12849 2c3a 91       		.byte	0x91
 12850 2c3b B87E     		.sleb128 -200
 12851 2c3d 00       		.byte	0
 12852 2c3e 2C       		.uleb128 0x2c
 12853 2c3f D0050000 		.4byte	.LVL182
 12854 2c43 553D0000 		.4byte	0x3d55
 12855 2c47 532C0000 		.4byte	0x2c53
 12856 2c4b 2D       		.uleb128 0x2d
 12857 2c4c 01       		.byte	0x1
 12858 2c4d 50       		.byte	0x50
 12859 2c4e 03       		.byte	0x3
 12860 2c4f 91       		.byte	0x91
 12861 2c50 AC7E     		.sleb128 -212
 12862 2c52 00       		.byte	0
 12863 2c53 2C       		.uleb128 0x2c
 12864 2c54 DA050000 		.4byte	.LVL183
 12865 2c58 553D0000 		.4byte	0x3d55
 12866 2c5c 682C0000 		.4byte	0x2c68
 12867 2c60 2D       		.uleb128 0x2d
 12868 2c61 01       		.byte	0x1
 12869 2c62 50       		.byte	0x50
 12870 2c63 03       		.byte	0x3
 12871 2c64 91       		.byte	0x91
 12872 2c65 A07E     		.sleb128 -224
 12873 2c67 00       		.byte	0
 12874 2c68 2E       		.uleb128 0x2e
 12875 2c69 3E070000 		.4byte	.LVL210
 12876 2c6d FD3C0000 		.4byte	0x3cfd
 12877 2c71 2D       		.uleb128 0x2d
 12878 2c72 01       		.byte	0x1
 12879 2c73 52       		.byte	0x52
 12880 2c74 02       		.byte	0x2
 12881 2c75 74       		.byte	0x74
 12882 2c76 00       		.sleb128 0
 12883 2c77 2D       		.uleb128 0x2d
 12884 2c78 01       		.byte	0x1
 12885 2c79 51       		.byte	0x51
 12886 2c7a 02       		.byte	0x2
 12887 2c7b 79       		.byte	0x79
 12888 2c7c 08       		.sleb128 8
 12889 2c7d 00       		.byte	0
 12890 2c7e 00       		.byte	0
 12891 2c7f 00       		.byte	0
 12892 2c80 48       		.uleb128 0x48
 12893 2c81 44170000 		.4byte	0x1744
 12894 2c85 70070000 		.4byte	.LBB1230
 12895 2c89 FE080000 		.4byte	.LBE1230
 12896 2c8d 01       		.byte	0x1
 12897 2c8e E2       		.byte	0xe2
 12898 2c8f 29       		.uleb128 0x29
 12899 2c90 70070000 		.4byte	.LBB1231
 12900 2c94 FE080000 		.4byte	.LBE1231
 12901 2c98 3A       		.uleb128 0x3a
 12902 2c99 53170000 		.4byte	0x1753
 12903 2c9d 3B       		.uleb128 0x3b
ARM GAS  C:\Users\Mohamad\AppData\Local\Temp\ccDsqi1j.s 			page 228


 12904 2c9e 67130000 		.4byte	0x1367
 12905 2ca2 9A070000 		.4byte	.LBB1232
 12906 2ca6 60220000 		.4byte	.Ldebug_ranges0+0x2260
 12907 2caa 01       		.byte	0x1
 12908 2cab 0201     		.2byte	0x102
 12909 2cad AA2E0000 		.4byte	0x2eaa
 12910 2cb1 3C       		.uleb128 0x3c
 12911 2cb2 C5130000 		.4byte	0x13c5
 12912 2cb6 05210000 		.4byte	.LLST232
 12913 2cba 3C       		.uleb128 0x3c
 12914 2cbb BA130000 		.4byte	0x13ba
 12915 2cbf 25210000 		.4byte	.LLST233
 12916 2cc3 3C       		.uleb128 0x3c
 12917 2cc4 AF130000 		.4byte	0x13af
 12918 2cc8 45210000 		.4byte	.LLST234
 12919 2ccc 3C       		.uleb128 0x3c
 12920 2ccd 99130000 		.4byte	0x1399
 12921 2cd1 65210000 		.4byte	.LLST235
 12922 2cd5 3D       		.uleb128 0x3d
 12923 2cd6 90220000 		.4byte	.Ldebug_ranges0+0x2290
 12924 2cda 3E       		.uleb128 0x3e
 12925 2cdb 07140000 		.4byte	0x1407
 12926 2cdf 03       		.byte	0x3
 12927 2ce0 91       		.byte	0x91
 12928 2ce1 987F     		.sleb128 -104
 12929 2ce3 44       		.uleb128 0x44
 12930 2ce4 FC130000 		.4byte	0x13fc
 12931 2ce8 00       		.byte	0
 12932 2ce9 44       		.uleb128 0x44
 12933 2cea F1130000 		.4byte	0x13f1
 12934 2cee 00       		.byte	0
 12935 2cef 44       		.uleb128 0x44
 12936 2cf0 E6130000 		.4byte	0x13e6
 12937 2cf4 00       		.byte	0
 12938 2cf5 44       		.uleb128 0x44
 12939 2cf6 DB130000 		.4byte	0x13db
 12940 2cfa 00       		.byte	0
 12941 2cfb 44       		.uleb128 0x44
 12942 2cfc D0130000 		.4byte	0x13d0
 12943 2d00 00       		.byte	0
 12944 2d01 44       		.uleb128 0x44
 12945 2d02 A4130000 		.4byte	0x13a4
 12946 2d06 00       		.byte	0
 12947 2d07 45       		.uleb128 0x45
 12948 2d08 8E130000 		.4byte	0x138e
 12949 2d0c 06       		.byte	0x6
 12950 2d0d 03       		.byte	0x3
 12951 2d0e 00000000 		.4byte	msg
 12952 2d12 9F       		.byte	0x9f
 12953 2d13 44       		.uleb128 0x44
 12954 2d14 83130000 		.4byte	0x1383
 12955 2d18 01       		.byte	0x1
 12956 2d19 44       		.uleb128 0x44
 12957 2d1a 78130000 		.4byte	0x1378
 12958 2d1e 01       		.byte	0x1
 12959 2d1f 3F       		.uleb128 0x3f
 12960 2d20 E1120000 		.4byte	0x12e1
ARM GAS  C:\Users\Mohamad\AppData\Local\Temp\ccDsqi1j.s 			page 229


 12961 2d24 CE070000 		.4byte	.LBB1234
 12962 2d28 C0220000 		.4byte	.Ldebug_ranges0+0x22c0
 12963 2d2c 02       		.byte	0x2
 12964 2d2d 61       		.byte	0x61
 12965 2d2e 44       		.uleb128 0x44
 12966 2d2f 1E130000 		.4byte	0x131e
 12967 2d33 18       		.byte	0x18
 12968 2d34 44       		.uleb128 0x44
 12969 2d35 13130000 		.4byte	0x1313
 12970 2d39 1E       		.byte	0x1e
 12971 2d3a 3D       		.uleb128 0x3d
 12972 2d3b 00230000 		.4byte	.Ldebug_ranges0+0x2300
 12973 2d3f 44       		.uleb128 0x44
 12974 2d40 08130000 		.4byte	0x1308
 12975 2d44 01       		.byte	0x1
 12976 2d45 44       		.uleb128 0x44
 12977 2d46 FD120000 		.4byte	0x12fd
 12978 2d4a 01       		.byte	0x1
 12979 2d4b 45       		.uleb128 0x45
 12980 2d4c F2120000 		.4byte	0x12f2
 12981 2d50 06       		.byte	0x6
 12982 2d51 03       		.byte	0x3
 12983 2d52 00000000 		.4byte	msg
 12984 2d56 9F       		.byte	0x9f
 12985 2d57 3F       		.uleb128 0x3f
 12986 2d58 87120000 		.4byte	0x1287
 12987 2d5c CE070000 		.4byte	.LBB1236
 12988 2d60 40230000 		.4byte	.Ldebug_ranges0+0x2340
 12989 2d64 03       		.byte	0x3
 12990 2d65 66       		.byte	0x66
 12991 2d66 44       		.uleb128 0x44
 12992 2d67 CF120000 		.4byte	0x12cf
 12993 2d6b 18       		.byte	0x18
 12994 2d6c 44       		.uleb128 0x44
 12995 2d6d C4120000 		.4byte	0x12c4
 12996 2d71 1E       		.byte	0x1e
 12997 2d72 3D       		.uleb128 0x3d
 12998 2d73 80230000 		.4byte	.Ldebug_ranges0+0x2380
 12999 2d77 44       		.uleb128 0x44
 13000 2d78 B9120000 		.4byte	0x12b9
 13001 2d7c 00       		.byte	0
 13002 2d7d 44       		.uleb128 0x44
 13003 2d7e AE120000 		.4byte	0x12ae
 13004 2d82 01       		.byte	0x1
 13005 2d83 44       		.uleb128 0x44
 13006 2d84 A3120000 		.4byte	0x12a3
 13007 2d88 01       		.byte	0x1
 13008 2d89 45       		.uleb128 0x45
 13009 2d8a 98120000 		.4byte	0x1298
 13010 2d8e 06       		.byte	0x6
 13011 2d8f 03       		.byte	0x3
 13012 2d90 00000000 		.4byte	msg
 13013 2d94 9F       		.byte	0x9f
 13014 2d95 38       		.uleb128 0x38
 13015 2d96 54120000 		.4byte	0x1254
 13016 2d9a D4070000 		.4byte	.LBB1238
 13017 2d9e C0230000 		.4byte	.Ldebug_ranges0+0x23c0
ARM GAS  C:\Users\Mohamad\AppData\Local\Temp\ccDsqi1j.s 			page 230


 13018 2da2 03       		.byte	0x3
 13019 2da3 53       		.byte	0x53
 13020 2da4 F72D0000 		.4byte	0x2df7
 13021 2da8 46       		.uleb128 0x46
 13022 2da9 70120000 		.4byte	0x1270
 13023 2dad 7F       		.sleb128 -1
 13024 2dae 45       		.uleb128 0x45
 13025 2daf 65120000 		.4byte	0x1265
 13026 2db3 06       		.byte	0x6
 13027 2db4 03       		.byte	0x3
 13028 2db5 08000000 		.4byte	msg+8
 13029 2db9 9F       		.byte	0x9f
 13030 2dba 3D       		.uleb128 0x3d
 13031 2dbb D8230000 		.4byte	.Ldebug_ranges0+0x23d8
 13032 2dbf 40       		.uleb128 0x40
 13033 2dc0 7B120000 		.4byte	0x127b
 13034 2dc4 0D220000 		.4byte	.LLST236
 13035 2dc8 3F       		.uleb128 0x3f
 13036 2dc9 E7110000 		.4byte	0x11e7
 13037 2dcd D4070000 		.4byte	.LBB1240
 13038 2dd1 F0230000 		.4byte	.Ldebug_ranges0+0x23f0
 13039 2dd5 04       		.byte	0x4
 13040 2dd6 3F       		.byte	0x3f
 13041 2dd7 3C       		.uleb128 0x3c
 13042 2dd8 FF110000 		.4byte	0x11ff
 13043 2ddc 170D0000 		.4byte	.LLST147
 13044 2de0 3C       		.uleb128 0x3c
 13045 2de1 F4110000 		.4byte	0x11f4
 13046 2de5 5F0D0000 		.4byte	.LLST148
 13047 2de9 3D       		.uleb128 0x3d
 13048 2dea 08240000 		.4byte	.Ldebug_ranges0+0x2408
 13049 2dee 3A       		.uleb128 0x3a
 13050 2def 0A120000 		.4byte	0x120a
 13051 2df3 00       		.byte	0
 13052 2df4 00       		.byte	0
 13053 2df5 00       		.byte	0
 13054 2df6 00       		.byte	0
 13055 2df7 39       		.uleb128 0x39
 13056 2df8 F2160000 		.4byte	0x16f2
 13057 2dfc 62080000 		.4byte	.LBB1246
 13058 2e00 A8080000 		.4byte	.LBE1246
 13059 2e04 03       		.byte	0x3
 13060 2e05 54       		.byte	0x54
 13061 2e06 702E0000 		.4byte	0x2e70
 13062 2e0a 3C       		.uleb128 0x3c
 13063 2e0b 15170000 		.4byte	0x1715
 13064 2e0f 20220000 		.4byte	.LLST237
 13065 2e13 45       		.uleb128 0x45
 13066 2e14 0A170000 		.4byte	0x170a
 13067 2e18 06       		.byte	0x6
 13068 2e19 03       		.byte	0x3
 13069 2e1a 08000000 		.4byte	msg+8
 13070 2e1e 9F       		.byte	0x9f
 13071 2e1f 45       		.uleb128 0x45
 13072 2e20 FF160000 		.4byte	0x16ff
 13073 2e24 06       		.byte	0x6
 13074 2e25 03       		.byte	0x3
ARM GAS  C:\Users\Mohamad\AppData\Local\Temp\ccDsqi1j.s 			page 231


 13075 2e26 00000000 		.4byte	msg
 13076 2e2a 9F       		.byte	0x9f
 13077 2e2b 29       		.uleb128 0x29
 13078 2e2c 62080000 		.4byte	.LBB1247
 13079 2e30 A8080000 		.4byte	.LBE1247
 13080 2e34 40       		.uleb128 0x40
 13081 2e35 20170000 		.4byte	0x1720
 13082 2e39 34220000 		.4byte	.LLST238
 13083 2e3d 3F       		.uleb128 0x3f
 13084 2e3e E7110000 		.4byte	0x11e7
 13085 2e42 64080000 		.4byte	.LBB1248
 13086 2e46 20240000 		.4byte	.Ldebug_ranges0+0x2420
 13087 2e4a 04       		.byte	0x4
 13088 2e4b 52       		.byte	0x52
 13089 2e4c 3C       		.uleb128 0x3c
 13090 2e4d F4110000 		.4byte	0x11f4
 13091 2e51 6F220000 		.4byte	.LLST239
 13092 2e55 3C       		.uleb128 0x3c
 13093 2e56 FF110000 		.4byte	0x11ff
 13094 2e5a EA0D0000 		.4byte	.LLST154
 13095 2e5e 3D       		.uleb128 0x3d
 13096 2e5f 48240000 		.4byte	.Ldebug_ranges0+0x2448
 13097 2e63 40       		.uleb128 0x40
 13098 2e64 0A120000 		.4byte	0x120a
 13099 2e68 9A220000 		.4byte	.LLST240
 13100 2e6c 00       		.byte	0
 13101 2e6d 00       		.byte	0
 13102 2e6e 00       		.byte	0
 13103 2e6f 00       		.byte	0
 13104 2e70 3F       		.uleb128 0x3f
 13105 2e71 E7110000 		.4byte	0x11e7
 13106 2e75 A8080000 		.4byte	.LBB1256
 13107 2e79 70240000 		.4byte	.Ldebug_ranges0+0x2470
 13108 2e7d 03       		.byte	0x3
 13109 2e7e 56       		.byte	0x56
 13110 2e7f 45       		.uleb128 0x45
 13111 2e80 FF110000 		.4byte	0x11ff
 13112 2e84 06       		.byte	0x6
 13113 2e85 03       		.byte	0x3
 13114 2e86 00000000 		.4byte	msg
 13115 2e8a 9F       		.byte	0x9f
 13116 2e8b 3C       		.uleb128 0x3c
 13117 2e8c F4110000 		.4byte	0x11f4
 13118 2e90 320E0000 		.4byte	.LLST156
 13119 2e94 3D       		.uleb128 0x3d
 13120 2e95 90240000 		.4byte	.Ldebug_ranges0+0x2490
 13121 2e99 40       		.uleb128 0x40
 13122 2e9a 0A120000 		.4byte	0x120a
 13123 2e9e B8220000 		.4byte	.LLST241
 13124 2ea2 00       		.byte	0
 13125 2ea3 00       		.byte	0
 13126 2ea4 00       		.byte	0
 13127 2ea5 00       		.byte	0
 13128 2ea6 00       		.byte	0
 13129 2ea7 00       		.byte	0
 13130 2ea8 00       		.byte	0
 13131 2ea9 00       		.byte	0
ARM GAS  C:\Users\Mohamad\AppData\Local\Temp\ccDsqi1j.s 			page 232


 13132 2eaa 3B       		.uleb128 0x3b
 13133 2eab 2A130000 		.4byte	0x132a
 13134 2eaf C2080000 		.4byte	.LBB1291
 13135 2eb3 B0240000 		.4byte	.Ldebug_ranges0+0x24b0
 13136 2eb7 01       		.byte	0x1
 13137 2eb8 0301     		.2byte	0x103
 13138 2eba 022F0000 		.4byte	0x2f02
 13139 2ebe 3D       		.uleb128 0x3d
 13140 2ebf E8240000 		.4byte	.Ldebug_ranges0+0x24e8
 13141 2ec3 40       		.uleb128 0x40
 13142 2ec4 51130000 		.4byte	0x1351
 13143 2ec8 E1220000 		.4byte	.LLST242
 13144 2ecc 45       		.uleb128 0x45
 13145 2ecd 46130000 		.4byte	0x1346
 13146 2ed1 06       		.byte	0x6
 13147 2ed2 03       		.byte	0x3
 13148 2ed3 00000000 		.4byte	msg
 13149 2ed7 9F       		.byte	0x9f
 13150 2ed8 45       		.uleb128 0x45
 13151 2ed9 3B130000 		.4byte	0x133b
 13152 2edd 06       		.byte	0x6
 13153 2ede 03       		.byte	0x3
 13154 2edf 00000000 		.4byte	buff
 13155 2ee3 9F       		.byte	0x9f
 13156 2ee4 2E       		.uleb128 0x2e
 13157 2ee5 E8080000 		.4byte	.LVL242
 13158 2ee9 C73C0000 		.4byte	0x3cc7
 13159 2eed 2D       		.uleb128 0x2d
 13160 2eee 01       		.byte	0x1
 13161 2eef 52       		.byte	0x52
 13162 2ef0 02       		.byte	0x2
 13163 2ef1 77       		.byte	0x77
 13164 2ef2 00       		.sleb128 0
 13165 2ef3 2D       		.uleb128 0x2d
 13166 2ef4 01       		.byte	0x1
 13167 2ef5 51       		.byte	0x51
 13168 2ef6 02       		.byte	0x2
 13169 2ef7 76       		.byte	0x76
 13170 2ef8 02       		.sleb128 2
 13171 2ef9 2D       		.uleb128 0x2d
 13172 2efa 01       		.byte	0x1
 13173 2efb 50       		.byte	0x50
 13174 2efc 02       		.byte	0x2
 13175 2efd 75       		.byte	0x75
 13176 2efe 00       		.sleb128 0
 13177 2eff 00       		.byte	0
 13178 2f00 00       		.byte	0
 13179 2f01 00       		.byte	0
 13180 2f02 42       		.uleb128 0x42
 13181 2f03 74070000 		.4byte	.LVL212
 13182 2f07 EF3C0000 		.4byte	0x3cef
 13183 2f0b 2E       		.uleb128 0x2e
 13184 2f0c FE080000 		.4byte	.LVL244
 13185 2f10 FD3C0000 		.4byte	0x3cfd
 13186 2f14 2D       		.uleb128 0x2d
 13187 2f15 01       		.byte	0x1
 13188 2f16 52       		.byte	0x52
ARM GAS  C:\Users\Mohamad\AppData\Local\Temp\ccDsqi1j.s 			page 233


 13189 2f17 02       		.byte	0x2
 13190 2f18 75       		.byte	0x75
 13191 2f19 00       		.sleb128 0
 13192 2f1a 2D       		.uleb128 0x2d
 13193 2f1b 01       		.byte	0x1
 13194 2f1c 51       		.byte	0x51
 13195 2f1d 02       		.byte	0x2
 13196 2f1e 7A       		.byte	0x7a
 13197 2f1f 08       		.sleb128 8
 13198 2f20 00       		.byte	0
 13199 2f21 00       		.byte	0
 13200 2f22 00       		.byte	0
 13201 2f23 00       		.byte	0
 13202 2f24 49       		.uleb128 0x49
 13203 2f25 2A170000 		.4byte	0x172a
 13204 2f29 00000000 		.4byte	.LFB1538
 13205 2f2d A8010000 		.4byte	.LFE1538
 13206 2f31 04230000 		.4byte	.LLST243
 13207 2f35 01       		.byte	0x1
 13208 2f36 3B320000 		.4byte	0x323b
 13209 2f3a 3A       		.uleb128 0x3a
 13210 2f3b 38170000 		.4byte	0x1738
 13211 2f3f 38       		.uleb128 0x38
 13212 2f40 13150000 		.4byte	0x1513
 13213 2f44 10000000 		.4byte	.LBB1330
 13214 2f48 20250000 		.4byte	.Ldebug_ranges0+0x2520
 13215 2f4c 01       		.byte	0x1
 13216 2f4d F3       		.byte	0xf3
 13217 2f4e 4F310000 		.4byte	0x314f
 13218 2f52 3C       		.uleb128 0x3c
 13219 2f53 83150000 		.4byte	0x1583
 13220 2f57 31230000 		.4byte	.LLST244
 13221 2f5b 3C       		.uleb128 0x3c
 13222 2f5c 78150000 		.4byte	0x1578
 13223 2f60 50230000 		.4byte	.LLST245
 13224 2f64 3C       		.uleb128 0x3c
 13225 2f65 6E150000 		.4byte	0x156e
 13226 2f69 6F230000 		.4byte	.LLST246
 13227 2f6d 3C       		.uleb128 0x3c
 13228 2f6e 64150000 		.4byte	0x1564
 13229 2f72 8E230000 		.4byte	.LLST247
 13230 2f76 3C       		.uleb128 0x3c
 13231 2f77 5A150000 		.4byte	0x155a
 13232 2f7b A2230000 		.4byte	.LLST248
 13233 2f7f 3C       		.uleb128 0x3c
 13234 2f80 50150000 		.4byte	0x1550
 13235 2f84 B6230000 		.4byte	.LLST249
 13236 2f88 3D       		.uleb128 0x3d
 13237 2f89 58250000 		.4byte	.Ldebug_ranges0+0x2558
 13238 2f8d 3E       		.uleb128 0x3e
 13239 2f8e 99150000 		.4byte	0x1599
 13240 2f92 02       		.byte	0x2
 13241 2f93 91       		.byte	0x91
 13242 2f94 40       		.sleb128 -64
 13243 2f95 43       		.uleb128 0x43
 13244 2f96 8E150000 		.4byte	0x158e
 13245 2f9a 04       		.byte	0x4
ARM GAS  C:\Users\Mohamad\AppData\Local\Temp\ccDsqi1j.s 			page 234


 13246 2f9b 00000000 		.4byte	0
 13247 2f9f 44       		.uleb128 0x44
 13248 2fa0 45150000 		.4byte	0x1545
 13249 2fa4 00       		.byte	0
 13250 2fa5 45       		.uleb128 0x45
 13251 2fa6 3A150000 		.4byte	0x153a
 13252 2faa 06       		.byte	0x6
 13253 2fab 03       		.byte	0x3
 13254 2fac 00000000 		.4byte	msg
 13255 2fb0 9F       		.byte	0x9f
 13256 2fb1 44       		.uleb128 0x44
 13257 2fb2 2F150000 		.4byte	0x152f
 13258 2fb6 01       		.byte	0x1
 13259 2fb7 44       		.uleb128 0x44
 13260 2fb8 24150000 		.4byte	0x1524
 13261 2fbc 01       		.byte	0x1
 13262 2fbd 3F       		.uleb128 0x3f
 13263 2fbe E1120000 		.4byte	0x12e1
 13264 2fc2 10000000 		.4byte	.LBB1332
 13265 2fc6 90250000 		.4byte	.Ldebug_ranges0+0x2590
 13266 2fca 07       		.byte	0x7
 13267 2fcb 57       		.byte	0x57
 13268 2fcc 46       		.uleb128 0x46
 13269 2fcd 1E130000 		.4byte	0x131e
 13270 2fd1 76       		.sleb128 -10
 13271 2fd2 44       		.uleb128 0x44
 13272 2fd3 13130000 		.4byte	0x1313
 13273 2fd7 20       		.byte	0x20
 13274 2fd8 3D       		.uleb128 0x3d
 13275 2fd9 20260000 		.4byte	.Ldebug_ranges0+0x2620
 13276 2fdd 44       		.uleb128 0x44
 13277 2fde 08130000 		.4byte	0x1308
 13278 2fe2 01       		.byte	0x1
 13279 2fe3 44       		.uleb128 0x44
 13280 2fe4 FD120000 		.4byte	0x12fd
 13281 2fe8 01       		.byte	0x1
 13282 2fe9 45       		.uleb128 0x45
 13283 2fea F2120000 		.4byte	0x12f2
 13284 2fee 06       		.byte	0x6
 13285 2fef 03       		.byte	0x3
 13286 2ff0 00000000 		.4byte	msg
 13287 2ff4 9F       		.byte	0x9f
 13288 2ff5 3F       		.uleb128 0x3f
 13289 2ff6 87120000 		.4byte	0x1287
 13290 2ffa 10000000 		.4byte	.LBB1334
 13291 2ffe B0260000 		.4byte	.Ldebug_ranges0+0x26b0
 13292 3002 03       		.byte	0x3
 13293 3003 66       		.byte	0x66
 13294 3004 46       		.uleb128 0x46
 13295 3005 CF120000 		.4byte	0x12cf
 13296 3009 76       		.sleb128 -10
 13297 300a 44       		.uleb128 0x44
 13298 300b C4120000 		.4byte	0x12c4
 13299 300f 20       		.byte	0x20
 13300 3010 3D       		.uleb128 0x3d
 13301 3011 40270000 		.4byte	.Ldebug_ranges0+0x2740
 13302 3015 44       		.uleb128 0x44
ARM GAS  C:\Users\Mohamad\AppData\Local\Temp\ccDsqi1j.s 			page 235


 13303 3016 B9120000 		.4byte	0x12b9
 13304 301a 00       		.byte	0
 13305 301b 44       		.uleb128 0x44
 13306 301c AE120000 		.4byte	0x12ae
 13307 3020 01       		.byte	0x1
 13308 3021 44       		.uleb128 0x44
 13309 3022 A3120000 		.4byte	0x12a3
 13310 3026 01       		.byte	0x1
 13311 3027 45       		.uleb128 0x45
 13312 3028 98120000 		.4byte	0x1298
 13313 302c 06       		.byte	0x6
 13314 302d 03       		.byte	0x3
 13315 302e 00000000 		.4byte	msg
 13316 3032 9F       		.byte	0x9f
 13317 3033 38       		.uleb128 0x38
 13318 3034 54120000 		.4byte	0x1254
 13319 3038 40000000 		.4byte	.LBB1336
 13320 303c D0270000 		.4byte	.Ldebug_ranges0+0x27d0
 13321 3040 03       		.byte	0x3
 13322 3041 53       		.byte	0x53
 13323 3042 9C300000 		.4byte	0x309c
 13324 3046 46       		.uleb128 0x46
 13325 3047 70120000 		.4byte	0x1270
 13326 304b 7F       		.sleb128 -1
 13327 304c 45       		.uleb128 0x45
 13328 304d 65120000 		.4byte	0x1265
 13329 3051 06       		.byte	0x6
 13330 3052 03       		.byte	0x3
 13331 3053 08000000 		.4byte	msg+8
 13332 3057 9F       		.byte	0x9f
 13333 3058 3D       		.uleb128 0x3d
 13334 3059 30280000 		.4byte	.Ldebug_ranges0+0x2830
 13335 305d 40       		.uleb128 0x40
 13336 305e 7B120000 		.4byte	0x127b
 13337 3062 CA230000 		.4byte	.LLST250
 13338 3066 3F       		.uleb128 0x3f
 13339 3067 E7110000 		.4byte	0x11e7
 13340 306b 40000000 		.4byte	.LBB1338
 13341 306f 90280000 		.4byte	.Ldebug_ranges0+0x2890
 13342 3073 04       		.byte	0x4
 13343 3074 3F       		.byte	0x3f
 13344 3075 45       		.uleb128 0x45
 13345 3076 FF110000 		.4byte	0x11ff
 13346 307a 06       		.byte	0x6
 13347 307b F2       		.byte	0xf2
 13348 307c 5D300000 		.4byte	.Ldebug_info0+12381
 13349 3080 00       		.sleb128 0
 13350 3081 3C       		.uleb128 0x3c
 13351 3082 F4110000 		.4byte	0x11f4
 13352 3086 DD230000 		.4byte	.LLST251
 13353 308a 3D       		.uleb128 0x3d
 13354 308b F0280000 		.4byte	.Ldebug_ranges0+0x28f0
 13355 308f 40       		.uleb128 0x40
 13356 3090 0A120000 		.4byte	0x120a
 13357 3094 F4230000 		.4byte	.LLST252
 13358 3098 00       		.byte	0
 13359 3099 00       		.byte	0
ARM GAS  C:\Users\Mohamad\AppData\Local\Temp\ccDsqi1j.s 			page 236


 13360 309a 00       		.byte	0
 13361 309b 00       		.byte	0
 13362 309c 39       		.uleb128 0x39
 13363 309d F2160000 		.4byte	0x16f2
 13364 30a1 FE000000 		.4byte	.LBB1380
 13365 30a5 42010000 		.4byte	.LBE1380
 13366 30a9 03       		.byte	0x3
 13367 30aa 54       		.byte	0x54
 13368 30ab 18310000 		.4byte	0x3118
 13369 30af 3C       		.uleb128 0x3c
 13370 30b0 15170000 		.4byte	0x1715
 13371 30b4 07240000 		.4byte	.LLST253
 13372 30b8 45       		.uleb128 0x45
 13373 30b9 0A170000 		.4byte	0x170a
 13374 30bd 06       		.byte	0x6
 13375 30be 03       		.byte	0x3
 13376 30bf 08000000 		.4byte	msg+8
 13377 30c3 9F       		.byte	0x9f
 13378 30c4 45       		.uleb128 0x45
 13379 30c5 FF160000 		.4byte	0x16ff
 13380 30c9 06       		.byte	0x6
 13381 30ca 03       		.byte	0x3
 13382 30cb 00000000 		.4byte	msg
 13383 30cf 9F       		.byte	0x9f
 13384 30d0 29       		.uleb128 0x29
 13385 30d1 FE000000 		.4byte	.LBB1381
 13386 30d5 42010000 		.4byte	.LBE1381
 13387 30d9 40       		.uleb128 0x40
 13388 30da 20170000 		.4byte	0x1720
 13389 30de 1B240000 		.4byte	.LLST254
 13390 30e2 3F       		.uleb128 0x3f
 13391 30e3 E7110000 		.4byte	0x11e7
 13392 30e7 00010000 		.4byte	.LBB1382
 13393 30eb 50290000 		.4byte	.Ldebug_ranges0+0x2950
 13394 30ef 04       		.byte	0x4
 13395 30f0 52       		.byte	0x52
 13396 30f1 3C       		.uleb128 0x3c
 13397 30f2 F4110000 		.4byte	0x11f4
 13398 30f6 56240000 		.4byte	.LLST255
 13399 30fa 45       		.uleb128 0x45
 13400 30fb FF110000 		.4byte	0x11ff
 13401 30ff 06       		.byte	0x6
 13402 3100 03       		.byte	0x3
 13403 3101 00000000 		.4byte	msg
 13404 3105 9F       		.byte	0x9f
 13405 3106 3D       		.uleb128 0x3d
 13406 3107 80290000 		.4byte	.Ldebug_ranges0+0x2980
 13407 310b 40       		.uleb128 0x40
 13408 310c 0A120000 		.4byte	0x120a
 13409 3110 82240000 		.4byte	.LLST256
 13410 3114 00       		.byte	0
 13411 3115 00       		.byte	0
 13412 3116 00       		.byte	0
 13413 3117 00       		.byte	0
 13414 3118 3F       		.uleb128 0x3f
 13415 3119 E7110000 		.4byte	0x11e7
 13416 311d 42010000 		.4byte	.LBB1392
ARM GAS  C:\Users\Mohamad\AppData\Local\Temp\ccDsqi1j.s 			page 237


 13417 3121 B0290000 		.4byte	.Ldebug_ranges0+0x29b0
 13418 3125 03       		.byte	0x3
 13419 3126 56       		.byte	0x56
 13420 3127 45       		.uleb128 0x45
 13421 3128 FF110000 		.4byte	0x11ff
 13422 312c 06       		.byte	0x6
 13423 312d 03       		.byte	0x3
 13424 312e 00000000 		.4byte	msg
 13425 3132 9F       		.byte	0x9f
 13426 3133 46       		.uleb128 0x46
 13427 3134 F4110000 		.4byte	0x11f4
 13428 3138 76       		.sleb128 -10
 13429 3139 3D       		.uleb128 0x3d
 13430 313a D0290000 		.4byte	.Ldebug_ranges0+0x29d0
 13431 313e 40       		.uleb128 0x40
 13432 313f 0A120000 		.4byte	0x120a
 13433 3143 AB240000 		.4byte	.LLST257
 13434 3147 00       		.byte	0
 13435 3148 00       		.byte	0
 13436 3149 00       		.byte	0
 13437 314a 00       		.byte	0
 13438 314b 00       		.byte	0
 13439 314c 00       		.byte	0
 13440 314d 00       		.byte	0
 13441 314e 00       		.byte	0
 13442 314f 38       		.uleb128 0x38
 13443 3150 2A130000 		.4byte	0x132a
 13444 3154 56010000 		.4byte	.LBB1469
 13445 3158 F0290000 		.4byte	.Ldebug_ranges0+0x29f0
 13446 315c 01       		.byte	0x1
 13447 315d F4       		.byte	0xf4
 13448 315e A6310000 		.4byte	0x31a6
 13449 3162 3D       		.uleb128 0x3d
 13450 3163 282A0000 		.4byte	.Ldebug_ranges0+0x2a28
 13451 3167 40       		.uleb128 0x40
 13452 3168 51130000 		.4byte	0x1351
 13453 316c C9240000 		.4byte	.LLST258
 13454 3170 45       		.uleb128 0x45
 13455 3171 46130000 		.4byte	0x1346
 13456 3175 06       		.byte	0x6
 13457 3176 03       		.byte	0x3
 13458 3177 00000000 		.4byte	msg
 13459 317b 9F       		.byte	0x9f
 13460 317c 45       		.uleb128 0x45
 13461 317d 3B130000 		.4byte	0x133b
 13462 3181 06       		.byte	0x6
 13463 3182 03       		.byte	0x3
 13464 3183 00000000 		.4byte	buff
 13465 3187 9F       		.byte	0x9f
 13466 3188 2E       		.uleb128 0x2e
 13467 3189 7C010000 		.4byte	.LVL274
 13468 318d C73C0000 		.4byte	0x3cc7
 13469 3191 2D       		.uleb128 0x2d
 13470 3192 01       		.byte	0x1
 13471 3193 52       		.byte	0x52
 13472 3194 02       		.byte	0x2
 13473 3195 74       		.byte	0x74
ARM GAS  C:\Users\Mohamad\AppData\Local\Temp\ccDsqi1j.s 			page 238


 13474 3196 00       		.sleb128 0
 13475 3197 2D       		.uleb128 0x2d
 13476 3198 01       		.byte	0x1
 13477 3199 51       		.byte	0x51
 13478 319a 02       		.byte	0x2
 13479 319b 77       		.byte	0x77
 13480 319c 02       		.sleb128 2
 13481 319d 2D       		.uleb128 0x2d
 13482 319e 01       		.byte	0x1
 13483 319f 50       		.byte	0x50
 13484 31a0 02       		.byte	0x2
 13485 31a1 75       		.byte	0x75
 13486 31a2 00       		.sleb128 0
 13487 31a3 00       		.byte	0
 13488 31a4 00       		.byte	0
 13489 31a5 00       		.byte	0
 13490 31a6 2C       		.uleb128 0x2c
 13491 31a7 0C000000 		.4byte	.LVL245
 13492 31ab 473D0000 		.4byte	0x3d47
 13493 31af BA310000 		.4byte	0x31ba
 13494 31b3 2D       		.uleb128 0x2d
 13495 31b4 01       		.byte	0x1
 13496 31b5 50       		.byte	0x50
 13497 31b6 02       		.byte	0x2
 13498 31b7 7D       		.byte	0x7d
 13499 31b8 00       		.sleb128 0
 13500 31b9 00       		.byte	0
 13501 31ba 2C       		.uleb128 0x2c
 13502 31bb 18000000 		.4byte	.LVL246
 13503 31bf 473D0000 		.4byte	0x3d47
 13504 31c3 CF310000 		.4byte	0x31cf
 13505 31c7 2D       		.uleb128 0x2d
 13506 31c8 01       		.byte	0x1
 13507 31c9 50       		.byte	0x50
 13508 31ca 03       		.byte	0x3
 13509 31cb 91       		.byte	0x91
 13510 31cc 847F     		.sleb128 -124
 13511 31ce 00       		.byte	0
 13512 31cf 2C       		.uleb128 0x2c
 13513 31d0 20000000 		.4byte	.LVL247
 13514 31d4 473D0000 		.4byte	0x3d47
 13515 31d8 E4310000 		.4byte	0x31e4
 13516 31dc 2D       		.uleb128 0x2d
 13517 31dd 01       		.byte	0x1
 13518 31de 50       		.byte	0x50
 13519 31df 03       		.byte	0x3
 13520 31e0 91       		.byte	0x91
 13521 31e1 907F     		.sleb128 -112
 13522 31e3 00       		.byte	0
 13523 31e4 2C       		.uleb128 0x2c
 13524 31e5 28000000 		.4byte	.LVL248
 13525 31e9 553D0000 		.4byte	0x3d55
 13526 31ed F9310000 		.4byte	0x31f9
 13527 31f1 2D       		.uleb128 0x2d
 13528 31f2 01       		.byte	0x1
 13529 31f3 50       		.byte	0x50
 13530 31f4 03       		.byte	0x3
ARM GAS  C:\Users\Mohamad\AppData\Local\Temp\ccDsqi1j.s 			page 239


 13531 31f5 91       		.byte	0x91
 13532 31f6 9C7F     		.sleb128 -100
 13533 31f8 00       		.byte	0
 13534 31f9 2C       		.uleb128 0x2c
 13535 31fa 32000000 		.4byte	.LVL249
 13536 31fe 553D0000 		.4byte	0x3d55
 13537 3202 0E320000 		.4byte	0x320e
 13538 3206 2D       		.uleb128 0x2d
 13539 3207 01       		.byte	0x1
 13540 3208 50       		.byte	0x50
 13541 3209 03       		.byte	0x3
 13542 320a 91       		.byte	0x91
 13543 320b A87F     		.sleb128 -88
 13544 320d 00       		.byte	0
 13545 320e 2C       		.uleb128 0x2c
 13546 320f 3A000000 		.4byte	.LVL250
 13547 3213 553D0000 		.4byte	0x3d55
 13548 3217 23320000 		.4byte	0x3223
 13549 321b 2D       		.uleb128 0x2d
 13550 321c 01       		.byte	0x1
 13551 321d 50       		.byte	0x50
 13552 321e 03       		.byte	0x3
 13553 321f 91       		.byte	0x91
 13554 3220 B47F     		.sleb128 -76
 13555 3222 00       		.byte	0
 13556 3223 4A       		.uleb128 0x4a
 13557 3224 96010000 		.4byte	.LVL276
 13558 3228 01       		.byte	0x1
 13559 3229 FD3C0000 		.4byte	0x3cfd
 13560 322d 2D       		.uleb128 0x2d
 13561 322e 01       		.byte	0x1
 13562 322f 52       		.byte	0x52
 13563 3230 02       		.byte	0x2
 13564 3231 75       		.byte	0x75
 13565 3232 00       		.sleb128 0
 13566 3233 2D       		.uleb128 0x2d
 13567 3234 01       		.byte	0x1
 13568 3235 51       		.byte	0x51
 13569 3236 02       		.byte	0x2
 13570 3237 79       		.byte	0x79
 13571 3238 08       		.sleb128 8
 13572 3239 00       		.byte	0
 13573 323a 00       		.byte	0
 13574 323b 47       		.uleb128 0x47
 13575 323c D8160000 		.4byte	0x16d8
 13576 3240 00000000 		.4byte	.LFB1539
 13577 3244 F0010000 		.4byte	.LFE1539
 13578 3248 EC240000 		.4byte	.LLST259
 13579 324c 01       		.byte	0x1
 13580 324d 07350000 		.4byte	0x3507
 13581 3251 3A       		.uleb128 0x3a
 13582 3252 E6160000 		.4byte	0x16e6
 13583 3256 38       		.uleb128 0x38
 13584 3257 88140000 		.4byte	0x1488
 13585 325b 0C000000 		.4byte	.LBB1508
 13586 325f 602A0000 		.4byte	.Ldebug_ranges0+0x2a60
 13587 3263 01       		.byte	0x1
ARM GAS  C:\Users\Mohamad\AppData\Local\Temp\ccDsqi1j.s 			page 240


 13588 3264 FB       		.byte	0xfb
 13589 3265 5A340000 		.4byte	0x345a
 13590 3269 3C       		.uleb128 0x3c
 13591 326a FC140000 		.4byte	0x14fc
 13592 326e 19250000 		.4byte	.LLST260
 13593 3272 3C       		.uleb128 0x3c
 13594 3273 F1140000 		.4byte	0x14f1
 13595 3277 38250000 		.4byte	.LLST261
 13596 327b 41       		.uleb128 0x41
 13597 327c E6140000 		.4byte	0x14e6
 13598 3280 3C       		.uleb128 0x3c
 13599 3281 DB140000 		.4byte	0x14db
 13600 3285 57250000 		.4byte	.LLST262
 13601 3289 3C       		.uleb128 0x3c
 13602 328a D0140000 		.4byte	0x14d0
 13603 328e 6B250000 		.4byte	.LLST263
 13604 3292 45       		.uleb128 0x45
 13605 3293 C5140000 		.4byte	0x14c5
 13606 3297 01       		.byte	0x1
 13607 3298 5B       		.byte	0x5b
 13608 3299 3C       		.uleb128 0x3c
 13609 329a BA140000 		.4byte	0x14ba
 13610 329e 7F250000 		.4byte	.LLST264
 13611 32a2 3D       		.uleb128 0x3d
 13612 32a3 982A0000 		.4byte	.Ldebug_ranges0+0x2a98
 13613 32a7 3E       		.uleb128 0x3e
 13614 32a8 07150000 		.4byte	0x1507
 13615 32ac 03       		.byte	0x3
 13616 32ad 91       		.byte	0x91
 13617 32ae BC7F     		.sleb128 -68
 13618 32b0 45       		.uleb128 0x45
 13619 32b1 AF140000 		.4byte	0x14af
 13620 32b5 06       		.byte	0x6
 13621 32b6 03       		.byte	0x3
 13622 32b7 00000000 		.4byte	msg
 13623 32bb 9F       		.byte	0x9f
 13624 32bc 44       		.uleb128 0x44
 13625 32bd A4140000 		.4byte	0x14a4
 13626 32c1 01       		.byte	0x1
 13627 32c2 44       		.uleb128 0x44
 13628 32c3 99140000 		.4byte	0x1499
 13629 32c7 01       		.byte	0x1
 13630 32c8 3F       		.uleb128 0x3f
 13631 32c9 E1120000 		.4byte	0x12e1
 13632 32cd 0C000000 		.4byte	.LBB1510
 13633 32d1 D02A0000 		.4byte	.Ldebug_ranges0+0x2ad0
 13634 32d5 06       		.byte	0x6
 13635 32d6 52       		.byte	0x52
 13636 32d7 44       		.uleb128 0x44
 13637 32d8 1E130000 		.4byte	0x131e
 13638 32dc 27       		.byte	0x27
 13639 32dd 44       		.uleb128 0x44
 13640 32de 13130000 		.4byte	0x1313
 13641 32e2 1C       		.byte	0x1c
 13642 32e3 3D       		.uleb128 0x3d
 13643 32e4 502B0000 		.4byte	.Ldebug_ranges0+0x2b50
 13644 32e8 44       		.uleb128 0x44
ARM GAS  C:\Users\Mohamad\AppData\Local\Temp\ccDsqi1j.s 			page 241


 13645 32e9 08130000 		.4byte	0x1308
 13646 32ed 01       		.byte	0x1
 13647 32ee 44       		.uleb128 0x44
 13648 32ef FD120000 		.4byte	0x12fd
 13649 32f3 01       		.byte	0x1
 13650 32f4 45       		.uleb128 0x45
 13651 32f5 F2120000 		.4byte	0x12f2
 13652 32f9 06       		.byte	0x6
 13653 32fa 03       		.byte	0x3
 13654 32fb 00000000 		.4byte	msg
 13655 32ff 9F       		.byte	0x9f
 13656 3300 3F       		.uleb128 0x3f
 13657 3301 87120000 		.4byte	0x1287
 13658 3305 0C000000 		.4byte	.LBB1512
 13659 3309 D02B0000 		.4byte	.Ldebug_ranges0+0x2bd0
 13660 330d 03       		.byte	0x3
 13661 330e 66       		.byte	0x66
 13662 330f 44       		.uleb128 0x44
 13663 3310 CF120000 		.4byte	0x12cf
 13664 3314 27       		.byte	0x27
 13665 3315 44       		.uleb128 0x44
 13666 3316 C4120000 		.4byte	0x12c4
 13667 331a 1C       		.byte	0x1c
 13668 331b 3D       		.uleb128 0x3d
 13669 331c 502C0000 		.4byte	.Ldebug_ranges0+0x2c50
 13670 3320 44       		.uleb128 0x44
 13671 3321 B9120000 		.4byte	0x12b9
 13672 3325 00       		.byte	0
 13673 3326 44       		.uleb128 0x44
 13674 3327 AE120000 		.4byte	0x12ae
 13675 332b 01       		.byte	0x1
 13676 332c 44       		.uleb128 0x44
 13677 332d A3120000 		.4byte	0x12a3
 13678 3331 01       		.byte	0x1
 13679 3332 45       		.uleb128 0x45
 13680 3333 98120000 		.4byte	0x1298
 13681 3337 06       		.byte	0x6
 13682 3338 03       		.byte	0x3
 13683 3339 00000000 		.4byte	msg
 13684 333d 9F       		.byte	0x9f
 13685 333e 38       		.uleb128 0x38
 13686 333f 54120000 		.4byte	0x1254
 13687 3343 76000000 		.4byte	.LBB1514
 13688 3347 D02C0000 		.4byte	.Ldebug_ranges0+0x2cd0
 13689 334b 03       		.byte	0x3
 13690 334c 53       		.byte	0x53
 13691 334d A7330000 		.4byte	0x33a7
 13692 3351 46       		.uleb128 0x46
 13693 3352 70120000 		.4byte	0x1270
 13694 3356 7F       		.sleb128 -1
 13695 3357 45       		.uleb128 0x45
 13696 3358 65120000 		.4byte	0x1265
 13697 335c 06       		.byte	0x6
 13698 335d 03       		.byte	0x3
 13699 335e 08000000 		.4byte	msg+8
 13700 3362 9F       		.byte	0x9f
 13701 3363 3D       		.uleb128 0x3d
ARM GAS  C:\Users\Mohamad\AppData\Local\Temp\ccDsqi1j.s 			page 242


 13702 3364 182D0000 		.4byte	.Ldebug_ranges0+0x2d18
 13703 3368 40       		.uleb128 0x40
 13704 3369 7B120000 		.4byte	0x127b
 13705 336d AB250000 		.4byte	.LLST265
 13706 3371 3F       		.uleb128 0x3f
 13707 3372 E7110000 		.4byte	0x11e7
 13708 3376 76000000 		.4byte	.LBB1516
 13709 337a 602D0000 		.4byte	.Ldebug_ranges0+0x2d60
 13710 337e 04       		.byte	0x4
 13711 337f 3F       		.byte	0x3f
 13712 3380 45       		.uleb128 0x45
 13713 3381 FF110000 		.4byte	0x11ff
 13714 3385 06       		.byte	0x6
 13715 3386 F2       		.byte	0xf2
 13716 3387 68330000 		.4byte	.Ldebug_info0+13160
 13717 338b 00       		.sleb128 0
 13718 338c 3C       		.uleb128 0x3c
 13719 338d F4110000 		.4byte	0x11f4
 13720 3391 E1250000 		.4byte	.LLST266
 13721 3395 3D       		.uleb128 0x3d
 13722 3396 A82D0000 		.4byte	.Ldebug_ranges0+0x2da8
 13723 339a 40       		.uleb128 0x40
 13724 339b 0A120000 		.4byte	0x120a
 13725 339f F8250000 		.4byte	.LLST267
 13726 33a3 00       		.byte	0
 13727 33a4 00       		.byte	0
 13728 33a5 00       		.byte	0
 13729 33a6 00       		.byte	0
 13730 33a7 39       		.uleb128 0x39
 13731 33a8 F2160000 		.4byte	0x16f2
 13732 33ac 2E010000 		.4byte	.LBB1546
 13733 33b0 72010000 		.4byte	.LBE1546
 13734 33b4 03       		.byte	0x3
 13735 33b5 54       		.byte	0x54
 13736 33b6 23340000 		.4byte	0x3423
 13737 33ba 3C       		.uleb128 0x3c
 13738 33bb 15170000 		.4byte	0x1715
 13739 33bf 0B260000 		.4byte	.LLST268
 13740 33c3 45       		.uleb128 0x45
 13741 33c4 0A170000 		.4byte	0x170a
 13742 33c8 06       		.byte	0x6
 13743 33c9 03       		.byte	0x3
 13744 33ca 08000000 		.4byte	msg+8
 13745 33ce 9F       		.byte	0x9f
 13746 33cf 45       		.uleb128 0x45
 13747 33d0 FF160000 		.4byte	0x16ff
 13748 33d4 06       		.byte	0x6
 13749 33d5 03       		.byte	0x3
 13750 33d6 00000000 		.4byte	msg
 13751 33da 9F       		.byte	0x9f
 13752 33db 29       		.uleb128 0x29
 13753 33dc 2E010000 		.4byte	.LBB1547
 13754 33e0 72010000 		.4byte	.LBE1547
 13755 33e4 40       		.uleb128 0x40
 13756 33e5 20170000 		.4byte	0x1720
 13757 33e9 1F260000 		.4byte	.LLST269
 13758 33ed 3F       		.uleb128 0x3f
ARM GAS  C:\Users\Mohamad\AppData\Local\Temp\ccDsqi1j.s 			page 243


 13759 33ee E7110000 		.4byte	0x11e7
 13760 33f2 30010000 		.4byte	.LBB1548
 13761 33f6 F02D0000 		.4byte	.Ldebug_ranges0+0x2df0
 13762 33fa 04       		.byte	0x4
 13763 33fb 52       		.byte	0x52
 13764 33fc 3C       		.uleb128 0x3c
 13765 33fd F4110000 		.4byte	0x11f4
 13766 3401 5A260000 		.4byte	.LLST270
 13767 3405 45       		.uleb128 0x45
 13768 3406 FF110000 		.4byte	0x11ff
 13769 340a 06       		.byte	0x6
 13770 340b 03       		.byte	0x3
 13771 340c 00000000 		.4byte	msg
 13772 3410 9F       		.byte	0x9f
 13773 3411 3D       		.uleb128 0x3d
 13774 3412 202E0000 		.4byte	.Ldebug_ranges0+0x2e20
 13775 3416 40       		.uleb128 0x40
 13776 3417 0A120000 		.4byte	0x120a
 13777 341b 86260000 		.4byte	.LLST271
 13778 341f 00       		.byte	0
 13779 3420 00       		.byte	0
 13780 3421 00       		.byte	0
 13781 3422 00       		.byte	0
 13782 3423 3F       		.uleb128 0x3f
 13783 3424 E7110000 		.4byte	0x11e7
 13784 3428 72010000 		.4byte	.LBB1558
 13785 342c 502E0000 		.4byte	.Ldebug_ranges0+0x2e50
 13786 3430 03       		.byte	0x3
 13787 3431 56       		.byte	0x56
 13788 3432 45       		.uleb128 0x45
 13789 3433 FF110000 		.4byte	0x11ff
 13790 3437 06       		.byte	0x6
 13791 3438 03       		.byte	0x3
 13792 3439 00000000 		.4byte	msg
 13793 343d 9F       		.byte	0x9f
 13794 343e 44       		.uleb128 0x44
 13795 343f F4110000 		.4byte	0x11f4
 13796 3443 27       		.byte	0x27
 13797 3444 3D       		.uleb128 0x3d
 13798 3445 702E0000 		.4byte	.Ldebug_ranges0+0x2e70
 13799 3449 40       		.uleb128 0x40
 13800 344a 0A120000 		.4byte	0x120a
 13801 344e AF260000 		.4byte	.LLST272
 13802 3452 00       		.byte	0
 13803 3453 00       		.byte	0
 13804 3454 00       		.byte	0
 13805 3455 00       		.byte	0
 13806 3456 00       		.byte	0
 13807 3457 00       		.byte	0
 13808 3458 00       		.byte	0
 13809 3459 00       		.byte	0
 13810 345a 38       		.uleb128 0x38
 13811 345b 2A130000 		.4byte	0x132a
 13812 345f 88010000 		.4byte	.LBB1627
 13813 3463 902E0000 		.4byte	.Ldebug_ranges0+0x2e90
 13814 3467 01       		.byte	0x1
 13815 3468 FC       		.byte	0xfc
ARM GAS  C:\Users\Mohamad\AppData\Local\Temp\ccDsqi1j.s 			page 244


 13816 3469 B1340000 		.4byte	0x34b1
 13817 346d 3D       		.uleb128 0x3d
 13818 346e C82E0000 		.4byte	.Ldebug_ranges0+0x2ec8
 13819 3472 40       		.uleb128 0x40
 13820 3473 51130000 		.4byte	0x1351
 13821 3477 D8260000 		.4byte	.LLST273
 13822 347b 45       		.uleb128 0x45
 13823 347c 46130000 		.4byte	0x1346
 13824 3480 06       		.byte	0x6
 13825 3481 03       		.byte	0x3
 13826 3482 00000000 		.4byte	msg
 13827 3486 9F       		.byte	0x9f
 13828 3487 45       		.uleb128 0x45
 13829 3488 3B130000 		.4byte	0x133b
 13830 348c 06       		.byte	0x6
 13831 348d 03       		.byte	0x3
 13832 348e 00000000 		.4byte	buff
 13833 3492 9F       		.byte	0x9f
 13834 3493 2E       		.uleb128 0x2e
 13835 3494 AC010000 		.4byte	.LVL312
 13836 3498 C73C0000 		.4byte	0x3cc7
 13837 349c 2D       		.uleb128 0x2d
 13838 349d 01       		.byte	0x1
 13839 349e 52       		.byte	0x52
 13840 349f 02       		.byte	0x2
 13841 34a0 75       		.byte	0x75
 13842 34a1 00       		.sleb128 0
 13843 34a2 2D       		.uleb128 0x2d
 13844 34a3 01       		.byte	0x1
 13845 34a4 51       		.byte	0x51
 13846 34a5 02       		.byte	0x2
 13847 34a6 76       		.byte	0x76
 13848 34a7 02       		.sleb128 2
 13849 34a8 2D       		.uleb128 0x2d
 13850 34a9 01       		.byte	0x1
 13851 34aa 50       		.byte	0x50
 13852 34ab 02       		.byte	0x2
 13853 34ac 74       		.byte	0x74
 13854 34ad 00       		.sleb128 0
 13855 34ae 00       		.byte	0
 13856 34af 00       		.byte	0
 13857 34b0 00       		.byte	0
 13858 34b1 2C       		.uleb128 0x2c
 13859 34b2 5C000000 		.4byte	.LVL286
 13860 34b6 1B3D0000 		.4byte	0x3d1b
 13861 34ba C5340000 		.4byte	0x34c5
 13862 34be 2D       		.uleb128 0x2d
 13863 34bf 01       		.byte	0x1
 13864 34c0 50       		.byte	0x50
 13865 34c1 02       		.byte	0x2
 13866 34c2 7D       		.byte	0x7d
 13867 34c3 00       		.sleb128 0
 13868 34c4 00       		.byte	0
 13869 34c5 2C       		.uleb128 0x2c
 13870 34c6 66000000 		.4byte	.LVL287
 13871 34ca 1B3D0000 		.4byte	0x3d1b
 13872 34ce DA340000 		.4byte	0x34da
ARM GAS  C:\Users\Mohamad\AppData\Local\Temp\ccDsqi1j.s 			page 245


 13873 34d2 2D       		.uleb128 0x2d
 13874 34d3 01       		.byte	0x1
 13875 34d4 50       		.byte	0x50
 13876 34d5 03       		.byte	0x3
 13877 34d6 91       		.byte	0x91
 13878 34d7 A47F     		.sleb128 -92
 13879 34d9 00       		.byte	0
 13880 34da 2C       		.uleb128 0x2c
 13881 34db 70000000 		.4byte	.LVL288
 13882 34df 1B3D0000 		.4byte	0x3d1b
 13883 34e3 EF340000 		.4byte	0x34ef
 13884 34e7 2D       		.uleb128 0x2d
 13885 34e8 01       		.byte	0x1
 13886 34e9 50       		.byte	0x50
 13887 34ea 03       		.byte	0x3
 13888 34eb 91       		.byte	0x91
 13889 34ec B07F     		.sleb128 -80
 13890 34ee 00       		.byte	0
 13891 34ef 4A       		.uleb128 0x4a
 13892 34f0 C6010000 		.4byte	.LVL314
 13893 34f4 01       		.byte	0x1
 13894 34f5 293D0000 		.4byte	0x3d29
 13895 34f9 2D       		.uleb128 0x2d
 13896 34fa 01       		.byte	0x1
 13897 34fb 52       		.byte	0x52
 13898 34fc 02       		.byte	0x2
 13899 34fd 74       		.byte	0x74
 13900 34fe 00       		.sleb128 0
 13901 34ff 2D       		.uleb128 0x2d
 13902 3500 01       		.byte	0x1
 13903 3501 51       		.byte	0x51
 13904 3502 02       		.byte	0x2
 13905 3503 79       		.byte	0x79
 13906 3504 08       		.sleb128 8
 13907 3505 00       		.byte	0
 13908 3506 00       		.byte	0
 13909 3507 47       		.uleb128 0x47
 13910 3508 44170000 		.4byte	0x1744
 13911 350c 00000000 		.4byte	.LFB1540
 13912 3510 A4010000 		.4byte	.LFE1540
 13913 3514 FB260000 		.4byte	.LLST274
 13914 3518 01       		.byte	0x1
 13915 3519 AA370000 		.4byte	0x37aa
 13916 351d 3A       		.uleb128 0x3a
 13917 351e 53170000 		.4byte	0x1753
 13918 3522 3B       		.uleb128 0x3b
 13919 3523 67130000 		.4byte	0x1367
 13920 3527 34000000 		.4byte	.LBB1666
 13921 352b 002F0000 		.4byte	.Ldebug_ranges0+0x2f00
 13922 352f 01       		.byte	0x1
 13923 3530 0201     		.2byte	0x102
 13924 3532 31370000 		.4byte	0x3731
 13925 3536 3C       		.uleb128 0x3c
 13926 3537 C5130000 		.4byte	0x13c5
 13927 353b 28270000 		.4byte	.LLST275
 13928 353f 3C       		.uleb128 0x3c
 13929 3540 BA130000 		.4byte	0x13ba
ARM GAS  C:\Users\Mohamad\AppData\Local\Temp\ccDsqi1j.s 			page 246


 13930 3544 47270000 		.4byte	.LLST276
 13931 3548 3C       		.uleb128 0x3c
 13932 3549 AF130000 		.4byte	0x13af
 13933 354d 66270000 		.4byte	.LLST277
 13934 3551 3C       		.uleb128 0x3c
 13935 3552 99130000 		.4byte	0x1399
 13936 3556 85270000 		.4byte	.LLST278
 13937 355a 3D       		.uleb128 0x3d
 13938 355b 282F0000 		.4byte	.Ldebug_ranges0+0x2f28
 13939 355f 3E       		.uleb128 0x3e
 13940 3560 07140000 		.4byte	0x1407
 13941 3564 02       		.byte	0x2
 13942 3565 91       		.byte	0x91
 13943 3566 40       		.sleb128 -64
 13944 3567 44       		.uleb128 0x44
 13945 3568 FC130000 		.4byte	0x13fc
 13946 356c 00       		.byte	0
 13947 356d 44       		.uleb128 0x44
 13948 356e F1130000 		.4byte	0x13f1
 13949 3572 00       		.byte	0
 13950 3573 44       		.uleb128 0x44
 13951 3574 E6130000 		.4byte	0x13e6
 13952 3578 00       		.byte	0
 13953 3579 44       		.uleb128 0x44
 13954 357a DB130000 		.4byte	0x13db
 13955 357e 00       		.byte	0
 13956 357f 44       		.uleb128 0x44
 13957 3580 D0130000 		.4byte	0x13d0
 13958 3584 00       		.byte	0
 13959 3585 44       		.uleb128 0x44
 13960 3586 A4130000 		.4byte	0x13a4
 13961 358a 00       		.byte	0
 13962 358b 45       		.uleb128 0x45
 13963 358c 8E130000 		.4byte	0x138e
 13964 3590 06       		.byte	0x6
 13965 3591 03       		.byte	0x3
 13966 3592 00000000 		.4byte	msg
 13967 3596 9F       		.byte	0x9f
 13968 3597 44       		.uleb128 0x44
 13969 3598 83130000 		.4byte	0x1383
 13970 359c 01       		.byte	0x1
 13971 359d 44       		.uleb128 0x44
 13972 359e 78130000 		.4byte	0x1378
 13973 35a2 01       		.byte	0x1
 13974 35a3 3F       		.uleb128 0x3f
 13975 35a4 E1120000 		.4byte	0x12e1
 13976 35a8 64000000 		.4byte	.LBB1668
 13977 35ac 502F0000 		.4byte	.Ldebug_ranges0+0x2f50
 13978 35b0 02       		.byte	0x2
 13979 35b1 61       		.byte	0x61
 13980 35b2 44       		.uleb128 0x44
 13981 35b3 1E130000 		.4byte	0x131e
 13982 35b7 18       		.byte	0x18
 13983 35b8 44       		.uleb128 0x44
 13984 35b9 13130000 		.4byte	0x1313
 13985 35bd 1E       		.byte	0x1e
 13986 35be 3D       		.uleb128 0x3d
ARM GAS  C:\Users\Mohamad\AppData\Local\Temp\ccDsqi1j.s 			page 247


 13987 35bf 902F0000 		.4byte	.Ldebug_ranges0+0x2f90
 13988 35c3 44       		.uleb128 0x44
 13989 35c4 08130000 		.4byte	0x1308
 13990 35c8 01       		.byte	0x1
 13991 35c9 44       		.uleb128 0x44
 13992 35ca FD120000 		.4byte	0x12fd
 13993 35ce 01       		.byte	0x1
 13994 35cf 45       		.uleb128 0x45
 13995 35d0 F2120000 		.4byte	0x12f2
 13996 35d4 06       		.byte	0x6
 13997 35d5 03       		.byte	0x3
 13998 35d6 00000000 		.4byte	msg
 13999 35da 9F       		.byte	0x9f
 14000 35db 3F       		.uleb128 0x3f
 14001 35dc 87120000 		.4byte	0x1287
 14002 35e0 64000000 		.4byte	.LBB1670
 14003 35e4 D02F0000 		.4byte	.Ldebug_ranges0+0x2fd0
 14004 35e8 03       		.byte	0x3
 14005 35e9 66       		.byte	0x66
 14006 35ea 44       		.uleb128 0x44
 14007 35eb CF120000 		.4byte	0x12cf
 14008 35ef 18       		.byte	0x18
 14009 35f0 44       		.uleb128 0x44
 14010 35f1 C4120000 		.4byte	0x12c4
 14011 35f5 1E       		.byte	0x1e
 14012 35f6 3D       		.uleb128 0x3d
 14013 35f7 10300000 		.4byte	.Ldebug_ranges0+0x3010
 14014 35fb 44       		.uleb128 0x44
 14015 35fc B9120000 		.4byte	0x12b9
 14016 3600 00       		.byte	0
 14017 3601 44       		.uleb128 0x44
 14018 3602 AE120000 		.4byte	0x12ae
 14019 3606 01       		.byte	0x1
 14020 3607 44       		.uleb128 0x44
 14021 3608 A3120000 		.4byte	0x12a3
 14022 360c 01       		.byte	0x1
 14023 360d 45       		.uleb128 0x45
 14024 360e 98120000 		.4byte	0x1298
 14025 3612 06       		.byte	0x6
 14026 3613 03       		.byte	0x3
 14027 3614 00000000 		.4byte	msg
 14028 3618 9F       		.byte	0x9f
 14029 3619 38       		.uleb128 0x38
 14030 361a 54120000 		.4byte	0x1254
 14031 361e 6A000000 		.4byte	.LBB1672
 14032 3622 50300000 		.4byte	.Ldebug_ranges0+0x3050
 14033 3626 03       		.byte	0x3
 14034 3627 53       		.byte	0x53
 14035 3628 7E360000 		.4byte	0x367e
 14036 362c 46       		.uleb128 0x46
 14037 362d 70120000 		.4byte	0x1270
 14038 3631 7F       		.sleb128 -1
 14039 3632 45       		.uleb128 0x45
 14040 3633 65120000 		.4byte	0x1265
 14041 3637 06       		.byte	0x6
 14042 3638 03       		.byte	0x3
 14043 3639 08000000 		.4byte	msg+8
ARM GAS  C:\Users\Mohamad\AppData\Local\Temp\ccDsqi1j.s 			page 248


 14044 363d 9F       		.byte	0x9f
 14045 363e 3D       		.uleb128 0x3d
 14046 363f 68300000 		.4byte	.Ldebug_ranges0+0x3068
 14047 3643 40       		.uleb128 0x40
 14048 3644 7B120000 		.4byte	0x127b
 14049 3648 B0270000 		.4byte	.LLST279
 14050 364c 3F       		.uleb128 0x3f
 14051 364d E7110000 		.4byte	0x11e7
 14052 3651 6A000000 		.4byte	.LBB1674
 14053 3655 80300000 		.4byte	.Ldebug_ranges0+0x3080
 14054 3659 04       		.byte	0x4
 14055 365a 3F       		.byte	0x3f
 14056 365b 45       		.uleb128 0x45
 14057 365c FF110000 		.4byte	0x11ff
 14058 3660 06       		.byte	0x6
 14059 3661 F2       		.byte	0xf2
 14060 3662 43360000 		.4byte	.Ldebug_info0+13891
 14061 3666 00       		.sleb128 0
 14062 3667 3C       		.uleb128 0x3c
 14063 3668 F4110000 		.4byte	0x11f4
 14064 366c C3270000 		.4byte	.LLST280
 14065 3670 3D       		.uleb128 0x3d
 14066 3671 98300000 		.4byte	.Ldebug_ranges0+0x3098
 14067 3675 3A       		.uleb128 0x3a
 14068 3676 0A120000 		.4byte	0x120a
 14069 367a 00       		.byte	0
 14070 367b 00       		.byte	0
 14071 367c 00       		.byte	0
 14072 367d 00       		.byte	0
 14073 367e 39       		.uleb128 0x39
 14074 367f F2160000 		.4byte	0x16f2
 14075 3683 EC000000 		.4byte	.LBB1680
 14076 3687 30010000 		.4byte	.LBE1680
 14077 368b 03       		.byte	0x3
 14078 368c 54       		.byte	0x54
 14079 368d FA360000 		.4byte	0x36fa
 14080 3691 3C       		.uleb128 0x3c
 14081 3692 15170000 		.4byte	0x1715
 14082 3696 DA270000 		.4byte	.LLST281
 14083 369a 45       		.uleb128 0x45
 14084 369b 0A170000 		.4byte	0x170a
 14085 369f 06       		.byte	0x6
 14086 36a0 03       		.byte	0x3
 14087 36a1 08000000 		.4byte	msg+8
 14088 36a5 9F       		.byte	0x9f
 14089 36a6 45       		.uleb128 0x45
 14090 36a7 FF160000 		.4byte	0x16ff
 14091 36ab 06       		.byte	0x6
 14092 36ac 03       		.byte	0x3
 14093 36ad 00000000 		.4byte	msg
 14094 36b1 9F       		.byte	0x9f
 14095 36b2 29       		.uleb128 0x29
 14096 36b3 EC000000 		.4byte	.LBB1681
 14097 36b7 30010000 		.4byte	.LBE1681
 14098 36bb 40       		.uleb128 0x40
 14099 36bc 20170000 		.4byte	0x1720
 14100 36c0 EE270000 		.4byte	.LLST282
ARM GAS  C:\Users\Mohamad\AppData\Local\Temp\ccDsqi1j.s 			page 249


 14101 36c4 3F       		.uleb128 0x3f
 14102 36c5 E7110000 		.4byte	0x11e7
 14103 36c9 EE000000 		.4byte	.LBB1682
 14104 36cd B0300000 		.4byte	.Ldebug_ranges0+0x30b0
 14105 36d1 04       		.byte	0x4
 14106 36d2 52       		.byte	0x52
 14107 36d3 3C       		.uleb128 0x3c
 14108 36d4 F4110000 		.4byte	0x11f4
 14109 36d8 29280000 		.4byte	.LLST283
 14110 36dc 45       		.uleb128 0x45
 14111 36dd FF110000 		.4byte	0x11ff
 14112 36e1 06       		.byte	0x6
 14113 36e2 03       		.byte	0x3
 14114 36e3 00000000 		.4byte	msg
 14115 36e7 9F       		.byte	0x9f
 14116 36e8 3D       		.uleb128 0x3d
 14117 36e9 E0300000 		.4byte	.Ldebug_ranges0+0x30e0
 14118 36ed 40       		.uleb128 0x40
 14119 36ee 0A120000 		.4byte	0x120a
 14120 36f2 55280000 		.4byte	.LLST284
 14121 36f6 00       		.byte	0
 14122 36f7 00       		.byte	0
 14123 36f8 00       		.byte	0
 14124 36f9 00       		.byte	0
 14125 36fa 3F       		.uleb128 0x3f
 14126 36fb E7110000 		.4byte	0x11e7
 14127 36ff 30010000 		.4byte	.LBB1692
 14128 3703 10310000 		.4byte	.Ldebug_ranges0+0x3110
 14129 3707 03       		.byte	0x3
 14130 3708 56       		.byte	0x56
 14131 3709 45       		.uleb128 0x45
 14132 370a FF110000 		.4byte	0x11ff
 14133 370e 06       		.byte	0x6
 14134 370f 03       		.byte	0x3
 14135 3710 00000000 		.4byte	msg
 14136 3714 9F       		.byte	0x9f
 14137 3715 44       		.uleb128 0x44
 14138 3716 F4110000 		.4byte	0x11f4
 14139 371a 18       		.byte	0x18
 14140 371b 3D       		.uleb128 0x3d
 14141 371c 30310000 		.4byte	.Ldebug_ranges0+0x3130
 14142 3720 40       		.uleb128 0x40
 14143 3721 0A120000 		.4byte	0x120a
 14144 3725 7E280000 		.4byte	.LLST285
 14145 3729 00       		.byte	0
 14146 372a 00       		.byte	0
 14147 372b 00       		.byte	0
 14148 372c 00       		.byte	0
 14149 372d 00       		.byte	0
 14150 372e 00       		.byte	0
 14151 372f 00       		.byte	0
 14152 3730 00       		.byte	0
 14153 3731 3B       		.uleb128 0x3b
 14154 3732 2A130000 		.4byte	0x132a
 14155 3736 46010000 		.4byte	.LBB1725
 14156 373a 50310000 		.4byte	.Ldebug_ranges0+0x3150
 14157 373e 01       		.byte	0x1
ARM GAS  C:\Users\Mohamad\AppData\Local\Temp\ccDsqi1j.s 			page 250


 14158 373f 0301     		.2byte	0x103
 14159 3741 89370000 		.4byte	0x3789
 14160 3745 3D       		.uleb128 0x3d
 14161 3746 88310000 		.4byte	.Ldebug_ranges0+0x3188
 14162 374a 40       		.uleb128 0x40
 14163 374b 51130000 		.4byte	0x1351
 14164 374f A7280000 		.4byte	.LLST286
 14165 3753 45       		.uleb128 0x45
 14166 3754 46130000 		.4byte	0x1346
 14167 3758 06       		.byte	0x6
 14168 3759 03       		.byte	0x3
 14169 375a 00000000 		.4byte	msg
 14170 375e 9F       		.byte	0x9f
 14171 375f 45       		.uleb128 0x45
 14172 3760 3B130000 		.4byte	0x133b
 14173 3764 06       		.byte	0x6
 14174 3765 03       		.byte	0x3
 14175 3766 00000000 		.4byte	buff
 14176 376a 9F       		.byte	0x9f
 14177 376b 2E       		.uleb128 0x2e
 14178 376c 6A010000 		.4byte	.LVL341
 14179 3770 C73C0000 		.4byte	0x3cc7
 14180 3774 2D       		.uleb128 0x2d
 14181 3775 01       		.byte	0x1
 14182 3776 52       		.byte	0x52
 14183 3777 02       		.byte	0x2
 14184 3778 76       		.byte	0x76
 14185 3779 00       		.sleb128 0
 14186 377a 2D       		.uleb128 0x2d
 14187 377b 01       		.byte	0x1
 14188 377c 51       		.byte	0x51
 14189 377d 02       		.byte	0x2
 14190 377e 75       		.byte	0x75
 14191 377f 02       		.sleb128 2
 14192 3780 2D       		.uleb128 0x2d
 14193 3781 01       		.byte	0x1
 14194 3782 50       		.byte	0x50
 14195 3783 02       		.byte	0x2
 14196 3784 74       		.byte	0x74
 14197 3785 00       		.sleb128 0
 14198 3786 00       		.byte	0
 14199 3787 00       		.byte	0
 14200 3788 00       		.byte	0
 14201 3789 42       		.uleb128 0x42
 14202 378a 0A000000 		.4byte	.LVL315
 14203 378e EF3C0000 		.4byte	0x3cef
 14204 3792 4A       		.uleb128 0x4a
 14205 3793 84010000 		.4byte	.LVL343
 14206 3797 01       		.byte	0x1
 14207 3798 FD3C0000 		.4byte	0x3cfd
 14208 379c 2D       		.uleb128 0x2d
 14209 379d 01       		.byte	0x1
 14210 379e 52       		.byte	0x52
 14211 379f 02       		.byte	0x2
 14212 37a0 74       		.byte	0x74
 14213 37a1 00       		.sleb128 0
 14214 37a2 2D       		.uleb128 0x2d
ARM GAS  C:\Users\Mohamad\AppData\Local\Temp\ccDsqi1j.s 			page 251


 14215 37a3 01       		.byte	0x1
 14216 37a4 51       		.byte	0x51
 14217 37a5 02       		.byte	0x2
 14218 37a6 79       		.byte	0x79
 14219 37a7 08       		.sleb128 8
 14220 37a8 00       		.byte	0
 14221 37a9 00       		.byte	0
 14222 37aa 49       		.uleb128 0x49
 14223 37ab 60170000 		.4byte	0x1760
 14224 37af 00000000 		.4byte	.LFB1541
 14225 37b3 0A030000 		.4byte	.LFE1541
 14226 37b7 CA280000 		.4byte	.LLST287
 14227 37bb 01       		.byte	0x1
 14228 37bc 083A0000 		.4byte	0x3a08
 14229 37c0 3A       		.uleb128 0x3a
 14230 37c1 6F170000 		.4byte	0x176f
 14231 37c5 3B       		.uleb128 0x3b
 14232 37c6 13140000 		.4byte	0x1413
 14233 37ca 04000000 		.4byte	.LBB1764
 14234 37ce C0310000 		.4byte	.Ldebug_ranges0+0x31c0
 14235 37d2 01       		.byte	0x1
 14236 37d3 0A01     		.2byte	0x10a
 14237 37d5 9A390000 		.4byte	0x399a
 14238 37d9 3D       		.uleb128 0x3d
 14239 37da F0310000 		.4byte	.Ldebug_ranges0+0x31f0
 14240 37de 3E       		.uleb128 0x3e
 14241 37df 7C140000 		.4byte	0x147c
 14242 37e3 02       		.byte	0x2
 14243 37e4 91       		.byte	0x91
 14244 37e5 48       		.sleb128 -56
 14245 37e6 44       		.uleb128 0x44
 14246 37e7 71140000 		.4byte	0x1471
 14247 37eb 0C       		.byte	0xc
 14248 37ec 44       		.uleb128 0x44
 14249 37ed 66140000 		.4byte	0x1466
 14250 37f1 00       		.byte	0
 14251 37f2 44       		.uleb128 0x44
 14252 37f3 5B140000 		.4byte	0x145b
 14253 37f7 0C       		.byte	0xc
 14254 37f8 44       		.uleb128 0x44
 14255 37f9 50140000 		.4byte	0x1450
 14256 37fd 00       		.byte	0
 14257 37fe 44       		.uleb128 0x44
 14258 37ff 45140000 		.4byte	0x1445
 14259 3803 00       		.byte	0
 14260 3804 45       		.uleb128 0x45
 14261 3805 3A140000 		.4byte	0x143a
 14262 3809 06       		.byte	0x6
 14263 380a 03       		.byte	0x3
 14264 380b 00000000 		.4byte	msg
 14265 380f 9F       		.byte	0x9f
 14266 3810 44       		.uleb128 0x44
 14267 3811 2F140000 		.4byte	0x142f
 14268 3815 01       		.byte	0x1
 14269 3816 44       		.uleb128 0x44
 14270 3817 24140000 		.4byte	0x1424
 14271 381b 01       		.byte	0x1
ARM GAS  C:\Users\Mohamad\AppData\Local\Temp\ccDsqi1j.s 			page 252


 14272 381c 3F       		.uleb128 0x3f
 14273 381d E1120000 		.4byte	0x12e1
 14274 3821 04000000 		.4byte	.LBB1766
 14275 3825 20320000 		.4byte	.Ldebug_ranges0+0x3220
 14276 3829 05       		.byte	0x5
 14277 382a 48       		.byte	0x48
 14278 382b 44       		.uleb128 0x44
 14279 382c 1E130000 		.4byte	0x131e
 14280 3830 43       		.byte	0x43
 14281 3831 44       		.uleb128 0x44
 14282 3832 13130000 		.4byte	0x1313
 14283 3836 10       		.byte	0x10
 14284 3837 3D       		.uleb128 0x3d
 14285 3838 80320000 		.4byte	.Ldebug_ranges0+0x3280
 14286 383c 44       		.uleb128 0x44
 14287 383d 08130000 		.4byte	0x1308
 14288 3841 01       		.byte	0x1
 14289 3842 44       		.uleb128 0x44
 14290 3843 FD120000 		.4byte	0x12fd
 14291 3847 01       		.byte	0x1
 14292 3848 45       		.uleb128 0x45
 14293 3849 F2120000 		.4byte	0x12f2
 14294 384d 06       		.byte	0x6
 14295 384e 03       		.byte	0x3
 14296 384f 00000000 		.4byte	msg
 14297 3853 9F       		.byte	0x9f
 14298 3854 3F       		.uleb128 0x3f
 14299 3855 87120000 		.4byte	0x1287
 14300 3859 04000000 		.4byte	.LBB1768
 14301 385d E0320000 		.4byte	.Ldebug_ranges0+0x32e0
 14302 3861 03       		.byte	0x3
 14303 3862 66       		.byte	0x66
 14304 3863 44       		.uleb128 0x44
 14305 3864 CF120000 		.4byte	0x12cf
 14306 3868 43       		.byte	0x43
 14307 3869 44       		.uleb128 0x44
 14308 386a C4120000 		.4byte	0x12c4
 14309 386e 10       		.byte	0x10
 14310 386f 3D       		.uleb128 0x3d
 14311 3870 40330000 		.4byte	.Ldebug_ranges0+0x3340
 14312 3874 44       		.uleb128 0x44
 14313 3875 B9120000 		.4byte	0x12b9
 14314 3879 00       		.byte	0
 14315 387a 44       		.uleb128 0x44
 14316 387b AE120000 		.4byte	0x12ae
 14317 387f 01       		.byte	0x1
 14318 3880 44       		.uleb128 0x44
 14319 3881 A3120000 		.4byte	0x12a3
 14320 3885 01       		.byte	0x1
 14321 3886 45       		.uleb128 0x45
 14322 3887 98120000 		.4byte	0x1298
 14323 388b 06       		.byte	0x6
 14324 388c 03       		.byte	0x3
 14325 388d 00000000 		.4byte	msg
 14326 3891 9F       		.byte	0x9f
 14327 3892 38       		.uleb128 0x38
 14328 3893 54120000 		.4byte	0x1254
ARM GAS  C:\Users\Mohamad\AppData\Local\Temp\ccDsqi1j.s 			page 253


 14329 3897 10000000 		.4byte	.LBB1770
 14330 389b A0330000 		.4byte	.Ldebug_ranges0+0x33a0
 14331 389f 03       		.byte	0x3
 14332 38a0 53       		.byte	0x53
 14333 38a1 F3380000 		.4byte	0x38f3
 14334 38a5 46       		.uleb128 0x46
 14335 38a6 70120000 		.4byte	0x1270
 14336 38aa 7F       		.sleb128 -1
 14337 38ab 45       		.uleb128 0x45
 14338 38ac 65120000 		.4byte	0x1265
 14339 38b0 06       		.byte	0x6
 14340 38b1 03       		.byte	0x3
 14341 38b2 08000000 		.4byte	msg+8
 14342 38b6 9F       		.byte	0x9f
 14343 38b7 3D       		.uleb128 0x3d
 14344 38b8 E0330000 		.4byte	.Ldebug_ranges0+0x33e0
 14345 38bc 3A       		.uleb128 0x3a
 14346 38bd 7B120000 		.4byte	0x127b
 14347 38c1 3F       		.uleb128 0x3f
 14348 38c2 E7110000 		.4byte	0x11e7
 14349 38c6 10000000 		.4byte	.LBB1772
 14350 38ca 20340000 		.4byte	.Ldebug_ranges0+0x3420
 14351 38ce 04       		.byte	0x4
 14352 38cf 3F       		.byte	0x3f
 14353 38d0 45       		.uleb128 0x45
 14354 38d1 FF110000 		.4byte	0x11ff
 14355 38d5 06       		.byte	0x6
 14356 38d6 F2       		.byte	0xf2
 14357 38d7 BC380000 		.4byte	.Ldebug_info0+14524
 14358 38db 00       		.sleb128 0
 14359 38dc 3C       		.uleb128 0x3c
 14360 38dd F4110000 		.4byte	0x11f4
 14361 38e1 F7280000 		.4byte	.LLST288
 14362 38e5 3D       		.uleb128 0x3d
 14363 38e6 60340000 		.4byte	.Ldebug_ranges0+0x3460
 14364 38ea 3A       		.uleb128 0x3a
 14365 38eb 0A120000 		.4byte	0x120a
 14366 38ef 00       		.byte	0
 14367 38f0 00       		.byte	0
 14368 38f1 00       		.byte	0
 14369 38f2 00       		.byte	0
 14370 38f3 38       		.uleb128 0x38
 14371 38f4 F2160000 		.4byte	0x16f2
 14372 38f8 A0000000 		.4byte	.LBB1797
 14373 38fc A0340000 		.4byte	.Ldebug_ranges0+0x34a0
 14374 3900 03       		.byte	0x3
 14375 3901 54       		.byte	0x54
 14376 3902 67390000 		.4byte	0x3967
 14377 3906 46       		.uleb128 0x46
 14378 3907 15170000 		.4byte	0x1715
 14379 390b 7F       		.sleb128 -1
 14380 390c 45       		.uleb128 0x45
 14381 390d 0A170000 		.4byte	0x170a
 14382 3911 06       		.byte	0x6
 14383 3912 03       		.byte	0x3
 14384 3913 08000000 		.4byte	msg+8
 14385 3917 9F       		.byte	0x9f
ARM GAS  C:\Users\Mohamad\AppData\Local\Temp\ccDsqi1j.s 			page 254


 14386 3918 45       		.uleb128 0x45
 14387 3919 FF160000 		.4byte	0x16ff
 14388 391d 06       		.byte	0x6
 14389 391e 03       		.byte	0x3
 14390 391f 00000000 		.4byte	msg
 14391 3923 9F       		.byte	0x9f
 14392 3924 3D       		.uleb128 0x3d
 14393 3925 C0340000 		.4byte	.Ldebug_ranges0+0x34c0
 14394 3929 3E       		.uleb128 0x3e
 14395 392a 20170000 		.4byte	0x1720
 14396 392e 06       		.byte	0x6
 14397 392f 03       		.byte	0x3
 14398 3930 18000000 		.4byte	msg+24
 14399 3934 9F       		.byte	0x9f
 14400 3935 3F       		.uleb128 0x3f
 14401 3936 E7110000 		.4byte	0x11e7
 14402 393a A0000000 		.4byte	.LBB1799
 14403 393e E0340000 		.4byte	.Ldebug_ranges0+0x34e0
 14404 3942 04       		.byte	0x4
 14405 3943 52       		.byte	0x52
 14406 3944 3C       		.uleb128 0x3c
 14407 3945 F4110000 		.4byte	0x11f4
 14408 3949 0E290000 		.4byte	.LLST289
 14409 394d 45       		.uleb128 0x45
 14410 394e FF110000 		.4byte	0x11ff
 14411 3952 06       		.byte	0x6
 14412 3953 03       		.byte	0x3
 14413 3954 00000000 		.4byte	msg
 14414 3958 9F       		.byte	0x9f
 14415 3959 3D       		.uleb128 0x3d
 14416 395a 00350000 		.4byte	.Ldebug_ranges0+0x3500
 14417 395e 3A       		.uleb128 0x3a
 14418 395f 0A120000 		.4byte	0x120a
 14419 3963 00       		.byte	0
 14420 3964 00       		.byte	0
 14421 3965 00       		.byte	0
 14422 3966 00       		.byte	0
 14423 3967 3F       		.uleb128 0x3f
 14424 3968 E7110000 		.4byte	0x11e7
 14425 396c 8C020000 		.4byte	.LBB1810
 14426 3970 20350000 		.4byte	.Ldebug_ranges0+0x3520
 14427 3974 03       		.byte	0x3
 14428 3975 56       		.byte	0x56
 14429 3976 45       		.uleb128 0x45
 14430 3977 FF110000 		.4byte	0x11ff
 14431 397b 06       		.byte	0x6
 14432 397c 03       		.byte	0x3
 14433 397d 00000000 		.4byte	msg
 14434 3981 9F       		.byte	0x9f
 14435 3982 44       		.uleb128 0x44
 14436 3983 F4110000 		.4byte	0x11f4
 14437 3987 43       		.byte	0x43
 14438 3988 3D       		.uleb128 0x3d
 14439 3989 38350000 		.4byte	.Ldebug_ranges0+0x3538
 14440 398d 3A       		.uleb128 0x3a
 14441 398e 0A120000 		.4byte	0x120a
 14442 3992 00       		.byte	0
ARM GAS  C:\Users\Mohamad\AppData\Local\Temp\ccDsqi1j.s 			page 255


 14443 3993 00       		.byte	0
 14444 3994 00       		.byte	0
 14445 3995 00       		.byte	0
 14446 3996 00       		.byte	0
 14447 3997 00       		.byte	0
 14448 3998 00       		.byte	0
 14449 3999 00       		.byte	0
 14450 399a 3B       		.uleb128 0x3b
 14451 399b 2A130000 		.4byte	0x132a
 14452 399f A8020000 		.4byte	.LBB1859
 14453 39a3 50350000 		.4byte	.Ldebug_ranges0+0x3550
 14454 39a7 01       		.byte	0x1
 14455 39a8 0B01     		.2byte	0x10b
 14456 39aa F1390000 		.4byte	0x39f1
 14457 39ae 3D       		.uleb128 0x3d
 14458 39af 80350000 		.4byte	.Ldebug_ranges0+0x3580
 14459 39b3 3E       		.uleb128 0x3e
 14460 39b4 51130000 		.4byte	0x1351
 14461 39b8 03       		.byte	0x3
 14462 39b9 77       		.byte	0x77
 14463 39ba 16       		.sleb128 22
 14464 39bb 9F       		.byte	0x9f
 14465 39bc 45       		.uleb128 0x45
 14466 39bd 46130000 		.4byte	0x1346
 14467 39c1 06       		.byte	0x6
 14468 39c2 03       		.byte	0x3
 14469 39c3 00000000 		.4byte	msg
 14470 39c7 9F       		.byte	0x9f
 14471 39c8 45       		.uleb128 0x45
 14472 39c9 3B130000 		.4byte	0x133b
 14473 39cd 06       		.byte	0x6
 14474 39ce 03       		.byte	0x3
 14475 39cf 00000000 		.4byte	buff
 14476 39d3 9F       		.byte	0x9f
 14477 39d4 2E       		.uleb128 0x2e
 14478 39d5 EC020000 		.4byte	.LVL348
 14479 39d9 C73C0000 		.4byte	0x3cc7
 14480 39dd 2D       		.uleb128 0x2d
 14481 39de 01       		.byte	0x1
 14482 39df 52       		.byte	0x52
 14483 39e0 01       		.byte	0x1
 14484 39e1 46       		.byte	0x46
 14485 39e2 2D       		.uleb128 0x2d
 14486 39e3 01       		.byte	0x1
 14487 39e4 51       		.byte	0x51
 14488 39e5 02       		.byte	0x2
 14489 39e6 74       		.byte	0x74
 14490 39e7 02       		.sleb128 2
 14491 39e8 2D       		.uleb128 0x2d
 14492 39e9 01       		.byte	0x1
 14493 39ea 50       		.byte	0x50
 14494 39eb 02       		.byte	0x2
 14495 39ec 77       		.byte	0x77
 14496 39ed 00       		.sleb128 0
 14497 39ee 00       		.byte	0
 14498 39ef 00       		.byte	0
 14499 39f0 00       		.byte	0
ARM GAS  C:\Users\Mohamad\AppData\Local\Temp\ccDsqi1j.s 			page 256


 14500 39f1 4A       		.uleb128 0x4a
 14501 39f2 0A030000 		.4byte	.LVL349
 14502 39f6 01       		.byte	0x1
 14503 39f7 FD3C0000 		.4byte	0x3cfd
 14504 39fb 2D       		.uleb128 0x2d
 14505 39fc 01       		.byte	0x1
 14506 39fd 52       		.byte	0x52
 14507 39fe 02       		.byte	0x2
 14508 39ff 77       		.byte	0x77
 14509 3a00 00       		.sleb128 0
 14510 3a01 2D       		.uleb128 0x2d
 14511 3a02 01       		.byte	0x1
 14512 3a03 51       		.byte	0x51
 14513 3a04 01       		.byte	0x1
 14514 3a05 48       		.byte	0x48
 14515 3a06 00       		.byte	0
 14516 3a07 00       		.byte	0
 14517 3a08 4B       		.uleb128 0x4b
 14518 3a09 520D0000 		.4byte	.LASF271
 14519 3a0d 01       		.byte	0x1
 14520 3a0e 47       		.byte	0x47
 14521 3a0f FA0C0000 		.4byte	0xcfa
 14522 3a13 05       		.byte	0x5
 14523 3a14 03       		.byte	0x3
 14524 3a15 00000000 		.4byte	uart_cfg_1
 14525 3a19 4B       		.uleb128 0x4b
 14526 3a1a 2F000000 		.4byte	.LASF272
 14527 3a1e 01       		.byte	0x1
 14528 3a1f 5B       		.byte	0x5b
 14529 3a20 CA0A0000 		.4byte	0xaca
 14530 3a24 05       		.byte	0x5
 14531 3a25 03       		.byte	0x3
 14532 3a26 00000000 		.4byte	i2cfg2
 14533 3a2a 14       		.uleb128 0x14
 14534 3a2b BB020000 		.4byte	0x2bb
 14535 3a2f 3A3A0000 		.4byte	0x3a3a
 14536 3a33 15       		.uleb128 0x15
 14537 3a34 7C030000 		.4byte	0x37c
 14538 3a38 29       		.byte	0x29
 14539 3a39 00       		.byte	0
 14540 3a3a 4B       		.uleb128 0x4b
 14541 3a3b 80070000 		.4byte	.LASF273
 14542 3a3f 01       		.byte	0x1
 14543 3a40 62       		.byte	0x62
 14544 3a41 2A3A0000 		.4byte	0x3a2a
 14545 3a45 05       		.byte	0x5
 14546 3a46 03       		.byte	0x3
 14547 3a47 00000000 		.4byte	Thread_Unit
 14548 3a4b 4C       		.uleb128 0x4c
 14549 3a4c A8010000 		.4byte	.LASF274
 14550 3a50 0E       		.byte	0xe
 14551 3a51 F5       		.byte	0xf5
 14552 3a52 4A040000 		.4byte	0x44a
 14553 3a56 01       		.byte	0x1
 14554 3a57 01       		.byte	0x1
 14555 3a58 4D       		.uleb128 0x4d
 14556 3a59 770A0000 		.4byte	.LASF275
ARM GAS  C:\Users\Mohamad\AppData\Local\Temp\ccDsqi1j.s 			page 257


 14557 3a5d 19       		.byte	0x19
 14558 3a5e 9806     		.2byte	0x698
 14559 3a60 31050000 		.4byte	0x531
 14560 3a64 01       		.byte	0x1
 14561 3a65 01       		.byte	0x1
 14562 3a66 4D       		.uleb128 0x4d
 14563 3a67 7A070000 		.4byte	.LASF276
 14564 3a6b 14       		.byte	0x14
 14565 3a6c B201     		.2byte	0x1b2
 14566 3a6e 050A0000 		.4byte	0xa05
 14567 3a72 01       		.byte	0x1
 14568 3a73 01       		.byte	0x1
 14569 3a74 4D       		.uleb128 0x4d
 14570 3a75 1B080000 		.4byte	.LASF277
 14571 3a79 16       		.byte	0x16
 14572 3a7a 8702     		.2byte	0x287
 14573 3a7c 5E0B0000 		.4byte	0xb5e
 14574 3a80 01       		.byte	0x1
 14575 3a81 01       		.byte	0x1
 14576 3a82 4C       		.uleb128 0x4c
 14577 3a83 0A070000 		.4byte	.LASF223
 14578 3a87 1A       		.byte	0x1a
 14579 3a88 25       		.byte	0x25
 14580 3a89 1E0D0000 		.4byte	0xd1e
 14581 3a8d 01       		.byte	0x1
 14582 3a8e 01       		.byte	0x1
 14583 3a8f 4C       		.uleb128 0x4c
 14584 3a90 7D010000 		.4byte	.LASF224
 14585 3a94 1A       		.byte	0x1a
 14586 3a95 26       		.byte	0x26
 14587 3a96 1E0D0000 		.4byte	0xd1e
 14588 3a9a 01       		.byte	0x1
 14589 3a9b 01       		.byte	0x1
 14590 3a9c 4E       		.uleb128 0x4e
 14591 3a9d 79617700 		.ascii	"yaw\000"
 14592 3aa1 1A       		.byte	0x1a
 14593 3aa2 27       		.byte	0x27
 14594 3aa3 1E0D0000 		.4byte	0xd1e
 14595 3aa7 01       		.byte	0x1
 14596 3aa8 01       		.byte	0x1
 14597 3aa9 4F       		.uleb128 0x4f
 14598 3aaa 9A020000 		.4byte	.LASF278
 14599 3aae 01       		.byte	0x1
 14600 3aaf 2A       		.byte	0x2a
 14601 3ab0 1E0D0000 		.4byte	0xd1e
 14602 3ab4 01       		.byte	0x1
 14603 3ab5 05       		.byte	0x5
 14604 3ab6 03       		.byte	0x3
 14605 3ab7 00000000 		.4byte	eachLoopTime
 14606 3abb 4F       		.uleb128 0x4f
 14607 3abc 5F0A0000 		.4byte	.LASF279
 14608 3ac0 01       		.byte	0x1
 14609 3ac1 2B       		.byte	0x2b
 14610 3ac2 1E0D0000 		.4byte	0xd1e
 14611 3ac6 01       		.byte	0x1
 14612 3ac7 05       		.byte	0x5
 14613 3ac8 03       		.byte	0x3
ARM GAS  C:\Users\Mohamad\AppData\Local\Temp\ccDsqi1j.s 			page 258


 14614 3ac9 00000000 		.4byte	wholeLoopTime
 14615 3acd 4C       		.uleb128 0x4c
 14616 3ace 6F0B0000 		.4byte	.LASF280
 14617 3ad2 1B       		.byte	0x1b
 14618 3ad3 57       		.byte	0x57
 14619 3ad4 1E0D0000 		.4byte	0xd1e
 14620 3ad8 01       		.byte	0x1
 14621 3ad9 01       		.byte	0x1
 14622 3ada 4C       		.uleb128 0x4c
 14623 3adb 0C060000 		.4byte	.LASF281
 14624 3adf 1B       		.byte	0x1b
 14625 3ae0 58       		.byte	0x58
 14626 3ae1 1E0D0000 		.4byte	0xd1e
 14627 3ae5 01       		.byte	0x1
 14628 3ae6 01       		.byte	0x1
 14629 3ae7 4D       		.uleb128 0x4d
 14630 3ae8 A6050000 		.4byte	.LASF282
 14631 3aec 1C       		.byte	0x1c
 14632 3aed 0E01     		.2byte	0x10e
 14633 3aef 86000000 		.4byte	0x86
 14634 3af3 01       		.byte	0x1
 14635 3af4 01       		.byte	0x1
 14636 3af5 4D       		.uleb128 0x4d
 14637 3af6 59060000 		.4byte	.LASF283
 14638 3afa 1C       		.byte	0x1c
 14639 3afb 0F01     		.2byte	0x10f
 14640 3afd 86000000 		.4byte	0x86
 14641 3b01 01       		.byte	0x1
 14642 3b02 01       		.byte	0x1
 14643 3b03 4F       		.uleb128 0x4f
 14644 3b04 A0060000 		.4byte	.LASF284
 14645 3b08 01       		.byte	0x1
 14646 3b09 22       		.byte	0x22
 14647 3b0a 1D110000 		.4byte	0x111d
 14648 3b0e 01       		.byte	0x1
 14649 3b0f 05       		.byte	0x5
 14650 3b10 03       		.byte	0x3
 14651 3b11 00000000 		.4byte	floatToByte
 14652 3b15 4F       		.uleb128 0x4f
 14653 3b16 A40B0000 		.4byte	.LASF285
 14654 3b1a 01       		.byte	0x1
 14655 3b1b 23       		.byte	0x23
 14656 3b1c 3C110000 		.4byte	0x113c
 14657 3b20 01       		.byte	0x1
 14658 3b21 05       		.byte	0x5
 14659 3b22 03       		.byte	0x3
 14660 3b23 00000000 		.4byte	intToByte
 14661 3b27 4F       		.uleb128 0x4f
 14662 3b28 DF0D0000 		.4byte	.LASF286
 14663 3b2c 01       		.byte	0x1
 14664 3b2d 24       		.byte	0x24
 14665 3b2e 5B110000 		.4byte	0x115b
 14666 3b32 01       		.byte	0x1
 14667 3b33 05       		.byte	0x5
 14668 3b34 03       		.byte	0x3
 14669 3b35 00000000 		.4byte	int16ToByte
 14670 3b39 4F       		.uleb128 0x4f
ARM GAS  C:\Users\Mohamad\AppData\Local\Temp\ccDsqi1j.s 			page 259


 14671 3b3a FA040000 		.4byte	.LASF287
 14672 3b3e 01       		.byte	0x1
 14673 3b3f 25       		.byte	0x25
 14674 3b40 8A110000 		.4byte	0x118a
 14675 3b44 01       		.byte	0x1
 14676 3b45 05       		.byte	0x5
 14677 3b46 03       		.byte	0x3
 14678 3b47 00000000 		.4byte	uint16ToByte
 14679 3b4b 4F       		.uleb128 0x4f
 14680 3b4c 4C0C0000 		.4byte	.LASF288
 14681 3b50 01       		.byte	0x1
 14682 3b51 26       		.byte	0x26
 14683 3b52 A9110000 		.4byte	0x11a9
 14684 3b56 01       		.byte	0x1
 14685 3b57 05       		.byte	0x5
 14686 3b58 03       		.byte	0x3
 14687 3b59 00000000 		.4byte	uint32ToByte
 14688 3b5d 4F       		.uleb128 0x4f
 14689 3b5e B70D0000 		.4byte	.LASF289
 14690 3b62 01       		.byte	0x1
 14691 3b63 29       		.byte	0x29
 14692 3b64 1E0D0000 		.4byte	0xd1e
 14693 3b68 01       		.byte	0x1
 14694 3b69 05       		.byte	0x5
 14695 3b6a 03       		.byte	0x3
 14696 3b6b 00000000 		.4byte	lastLoopTime
 14697 3b6f 14       		.uleb128 0x14
 14698 3b70 50000000 		.4byte	0x50
 14699 3b74 7F3B0000 		.4byte	0x3b7f
 14700 3b78 15       		.uleb128 0x15
 14701 3b79 7C030000 		.4byte	0x37c
 14702 3b7d 05       		.byte	0x5
 14703 3b7e 00       		.byte	0
 14704 3b7f 4F       		.uleb128 0x4f
 14705 3b80 6A0F0000 		.4byte	.LASF160
 14706 3b84 01       		.byte	0x1
 14707 3b85 2F       		.byte	0x2f
 14708 3b86 6F3B0000 		.4byte	0x3b6f
 14709 3b8a 01       		.byte	0x1
 14710 3b8b 05       		.byte	0x5
 14711 3b8c 03       		.byte	0x3
 14712 3b8d 00000000 		.4byte	rxbuf
 14713 3b91 4F       		.uleb128 0x4f
 14714 3b92 130B0000 		.4byte	.LASF290
 14715 3b96 01       		.byte	0x1
 14716 3b97 30       		.byte	0x30
 14717 3b98 6F3B0000 		.4byte	0x3b6f
 14718 3b9c 01       		.byte	0x1
 14719 3b9d 05       		.byte	0x5
 14720 3b9e 03       		.byte	0x3
 14721 3b9f 00000000 		.4byte	txbuf
 14722 3ba3 4F       		.uleb128 0x4f
 14723 3ba4 E80E0000 		.4byte	.LASF291
 14724 3ba8 01       		.byte	0x1
 14725 3ba9 32       		.byte	0x32
 14726 3baa BC000000 		.4byte	0xbc
 14727 3bae 01       		.byte	0x1
ARM GAS  C:\Users\Mohamad\AppData\Local\Temp\ccDsqi1j.s 			page 260


 14728 3baf 05       		.byte	0x5
 14729 3bb0 03       		.byte	0x3
 14730 3bb1 00000000 		.4byte	RdyToSend
 14731 3bb5 4F       		.uleb128 0x4f
 14732 3bb6 8B010000 		.4byte	.LASF292
 14733 3bba 01       		.byte	0x1
 14734 3bbb 35       		.byte	0x35
 14735 3bbc BC000000 		.4byte	0xbc
 14736 3bc0 01       		.byte	0x1
 14737 3bc1 05       		.byte	0x5
 14738 3bc2 03       		.byte	0x3
 14739 3bc3 00000000 		.4byte	attitude_send_enabled
 14740 3bc7 4F       		.uleb128 0x4f
 14741 3bc8 E80B0000 		.4byte	.LASF293
 14742 3bcc 01       		.byte	0x1
 14743 3bcd 36       		.byte	0x36
 14744 3bce BC000000 		.4byte	0xbc
 14745 3bd2 01       		.byte	0x1
 14746 3bd3 05       		.byte	0x5
 14747 3bd4 03       		.byte	0x3
 14748 3bd5 00000000 		.4byte	GPS_send_enabled
 14749 3bd9 4F       		.uleb128 0x4f
 14750 3bda F20E0000 		.4byte	.LASF294
 14751 3bde 01       		.byte	0x1
 14752 3bdf 37       		.byte	0x37
 14753 3be0 BC000000 		.4byte	0xbc
 14754 3be4 01       		.byte	0x1
 14755 3be5 05       		.byte	0x5
 14756 3be6 03       		.byte	0x3
 14757 3be7 00000000 		.4byte	RawPress_send_enable
 14758 3beb 4F       		.uleb128 0x4f
 14759 3bec 770F0000 		.4byte	.LASF295
 14760 3bf0 01       		.byte	0x1
 14761 3bf1 38       		.byte	0x38
 14762 3bf2 BC000000 		.4byte	0xbc
 14763 3bf6 01       		.byte	0x1
 14764 3bf7 05       		.byte	0x5
 14765 3bf8 03       		.byte	0x3
 14766 3bf9 00000000 		.4byte	RawImu_send_enable
 14767 3bfd 4F       		.uleb128 0x4f
 14768 3bfe 740D0000 		.4byte	.LASF296
 14769 3c02 01       		.byte	0x1
 14770 3c03 39       		.byte	0x39
 14771 3c04 50000000 		.4byte	0x50
 14772 3c08 01       		.byte	0x1
 14773 3c09 05       		.byte	0x5
 14774 3c0a 03       		.byte	0x3
 14775 3c0b 00000000 		.4byte	startMessageCounet
 14776 3c0f 4F       		.uleb128 0x4f
 14777 3c10 90090000 		.4byte	.LASF297
 14778 3c14 01       		.byte	0x1
 14779 3c15 60       		.byte	0x60
 14780 3c16 1C050000 		.4byte	0x51c
 14781 3c1a 01       		.byte	0x1
 14782 3c1b 05       		.byte	0x5
 14783 3c1c 03       		.byte	0x3
 14784 3c1d 00000000 		.4byte	myMPU
ARM GAS  C:\Users\Mohamad\AppData\Local\Temp\ccDsqi1j.s 			page 261


 14785 3c21 4F       		.uleb128 0x4f
 14786 3c22 47000000 		.4byte	.LASF298
 14787 3c26 01       		.byte	0x1
 14788 3c27 61       		.byte	0x61
 14789 3c28 50000000 		.4byte	0x50
 14790 3c2c 01       		.byte	0x1
 14791 3c2d 05       		.byte	0x5
 14792 3c2e 03       		.byte	0x3
 14793 3c2f 00000000 		.4byte	reading
 14794 3c33 4F       		.uleb128 0x4f
 14795 3c34 D2070000 		.4byte	.LASF299
 14796 3c38 01       		.byte	0x1
 14797 3c39 76       		.byte	0x76
 14798 3c3a 6F3B0000 		.4byte	0x3b6f
 14799 3c3e 01       		.byte	0x1
 14800 3c3f 05       		.byte	0x5
 14801 3c40 03       		.byte	0x3
 14802 3c41 00000000 		.4byte	GyroData
 14803 3c45 4F       		.uleb128 0x4f
 14804 3c46 4B050000 		.4byte	.LASF300
 14805 3c4a 01       		.byte	0x1
 14806 3c4b 77       		.byte	0x77
 14807 3c4c 6F3B0000 		.4byte	0x3b6f
 14808 3c50 01       		.byte	0x1
 14809 3c51 05       		.byte	0x5
 14810 3c52 03       		.byte	0x3
 14811 3c53 00000000 		.4byte	AccelData
 14812 3c57 4F       		.uleb128 0x4f
 14813 3c58 C0050000 		.4byte	.LASF301
 14814 3c5c 01       		.byte	0x1
 14815 3c5d 79       		.byte	0x79
 14816 3c5e 98000000 		.4byte	0x98
 14817 3c62 01       		.byte	0x1
 14818 3c63 05       		.byte	0x5
 14819 3c64 03       		.byte	0x3
 14820 3c65 00000000 		.4byte	timeNow
 14821 3c69 50       		.uleb128 0x50
 14822 3c6a 6D736700 		.ascii	"msg\000"
 14823 3c6e 01       		.byte	0x1
 14824 3c6f 7B       		.byte	0x7b
 14825 3c70 0B0E0000 		.4byte	0xe0b
 14826 3c74 01       		.byte	0x1
 14827 3c75 05       		.byte	0x5
 14828 3c76 03       		.byte	0x3
 14829 3c77 00000000 		.4byte	msg
 14830 3c7b 14       		.uleb128 0x14
 14831 3c7c 50000000 		.4byte	0x50
 14832 3c80 8C3C0000 		.4byte	0x3c8c
 14833 3c84 51       		.uleb128 0x51
 14834 3c85 7C030000 		.4byte	0x37c
 14835 3c89 0601     		.2byte	0x106
 14836 3c8b 00       		.byte	0
 14837 3c8c 4F       		.uleb128 0x4f
 14838 3c8d AF040000 		.4byte	.LASF302
 14839 3c91 01       		.byte	0x1
 14840 3c92 7C       		.byte	0x7c
 14841 3c93 7B3C0000 		.4byte	0x3c7b
ARM GAS  C:\Users\Mohamad\AppData\Local\Temp\ccDsqi1j.s 			page 262


 14842 3c97 01       		.byte	0x1
 14843 3c98 05       		.byte	0x5
 14844 3c99 03       		.byte	0x3
 14845 3c9a 00000000 		.4byte	buff
 14846 3c9e 52       		.uleb128 0x52
 14847 3c9f 01       		.byte	0x1
 14848 3ca0 5C010000 		.4byte	.LASF303
 14849 3ca4 1D       		.byte	0x1d
 14850 3ca5 84       		.byte	0x84
 14851 3ca6 01       		.byte	0x1
 14852 3ca7 01       		.byte	0x1
 14853 3ca8 B23C0000 		.4byte	0x3cb2
 14854 3cac 0F       		.uleb128 0xf
 14855 3cad 0B050000 		.4byte	0x50b
 14856 3cb1 00       		.byte	0
 14857 3cb2 53       		.uleb128 0x53
 14858 3cb3 01       		.byte	0x1
 14859 3cb4 690D0000 		.4byte	.LASF304
 14860 3cb8 0C       		.byte	0xc
 14861 3cb9 7501     		.2byte	0x175
 14862 3cbb 01       		.byte	0x1
 14863 3cbc 01       		.byte	0x1
 14864 3cbd C73C0000 		.4byte	0x3cc7
 14865 3cc1 0F       		.uleb128 0xf
 14866 3cc2 1B010000 		.4byte	0x11b
 14867 3cc6 00       		.byte	0
 14868 3cc7 54       		.uleb128 0x54
 14869 3cc8 01       		.byte	0x1
 14870 3cc9 620E0000 		.4byte	.LASF305
 14871 3ccd 01       		.byte	0x1
 14872 3cce B9020000 		.4byte	0x2b9
 14873 3cd2 01       		.byte	0x1
 14874 3cd3 01       		.byte	0x1
 14875 3cd4 E83C0000 		.4byte	0x3ce8
 14876 3cd8 0F       		.uleb128 0xf
 14877 3cd9 B9020000 		.4byte	0x2b9
 14878 3cdd 0F       		.uleb128 0xf
 14879 3cde E83C0000 		.4byte	0x3ce8
 14880 3ce2 0F       		.uleb128 0xf
 14881 3ce3 7C030000 		.4byte	0x37c
 14882 3ce7 00       		.byte	0
 14883 3ce8 09       		.uleb128 0x9
 14884 3ce9 04       		.byte	0x4
 14885 3cea EE3C0000 		.4byte	0x3cee
 14886 3cee 55       		.uleb128 0x55
 14887 3cef 56       		.uleb128 0x56
 14888 3cf0 01       		.byte	0x1
 14889 3cf1 0D000000 		.4byte	.LASF307
 14890 3cf5 1E       		.byte	0x1e
 14891 3cf6 54       		.byte	0x54
 14892 3cf7 01       		.byte	0x1
 14893 3cf8 3E000000 		.4byte	0x3e
 14894 3cfc 01       		.byte	0x1
 14895 3cfd 52       		.uleb128 0x52
 14896 3cfe 01       		.byte	0x1
 14897 3cff 3D0C0000 		.4byte	.LASF306
 14898 3d03 15       		.byte	0x15
ARM GAS  C:\Users\Mohamad\AppData\Local\Temp\ccDsqi1j.s 			page 263


 14899 3d04 72       		.byte	0x72
 14900 3d05 01       		.byte	0x1
 14901 3d06 01       		.byte	0x1
 14902 3d07 1B3D0000 		.4byte	0x3d1b
 14903 3d0b 0F       		.uleb128 0xf
 14904 3d0c 1D0C0000 		.4byte	0xc1d
 14905 3d10 0F       		.uleb128 0xf
 14906 3d11 3E000000 		.4byte	0x3e
 14907 3d15 0F       		.uleb128 0xf
 14908 3d16 E83C0000 		.4byte	0x3ce8
 14909 3d1a 00       		.byte	0
 14910 3d1b 56       		.uleb128 0x56
 14911 3d1c 01       		.byte	0x1
 14912 3d1d 6B0C0000 		.4byte	.LASF308
 14913 3d21 1D       		.byte	0x1d
 14914 3d22 8E       		.byte	0x8e
 14915 3d23 01       		.byte	0x1
 14916 3d24 620D0000 		.4byte	0xd62
 14917 3d28 01       		.byte	0x1
 14918 3d29 52       		.uleb128 0x52
 14919 3d2a 01       		.byte	0x1
 14920 3d2b 040C0000 		.4byte	.LASF309
 14921 3d2f 15       		.byte	0x15
 14922 3d30 71       		.byte	0x71
 14923 3d31 01       		.byte	0x1
 14924 3d32 01       		.byte	0x1
 14925 3d33 473D0000 		.4byte	0x3d47
 14926 3d37 0F       		.uleb128 0xf
 14927 3d38 1D0C0000 		.4byte	0xc1d
 14928 3d3c 0F       		.uleb128 0xf
 14929 3d3d 3E000000 		.4byte	0x3e
 14930 3d41 0F       		.uleb128 0xf
 14931 3d42 E83C0000 		.4byte	0x3ce8
 14932 3d46 00       		.byte	0
 14933 3d47 56       		.uleb128 0x56
 14934 3d48 01       		.byte	0x1
 14935 3d49 21060000 		.4byte	.LASF310
 14936 3d4d 1D       		.byte	0x1d
 14937 3d4e 8D       		.byte	0x8d
 14938 3d4f 01       		.byte	0x1
 14939 3d50 620D0000 		.4byte	0xd62
 14940 3d54 01       		.byte	0x1
 14941 3d55 56       		.uleb128 0x56
 14942 3d56 01       		.byte	0x1
 14943 3d57 ED040000 		.4byte	.LASF311
 14944 3d5b 1D       		.byte	0x1d
 14945 3d5c 8C       		.byte	0x8c
 14946 3d5d 01       		.byte	0x1
 14947 3d5e 620D0000 		.4byte	0xd62
 14948 3d62 01       		.byte	0x1
 14949 3d63 57       		.uleb128 0x57
 14950 3d64 01       		.byte	0x1
 14951 3d65 8D040000 		.4byte	.LASF313
 14952 3d69 1F       		.byte	0x1f
 14953 3d6a D0       		.byte	0xd0
 14954 3d6b 01       		.byte	0x1
 14955 3d6c 01       		.byte	0x1
ARM GAS  C:\Users\Mohamad\AppData\Local\Temp\ccDsqi1j.s 			page 264


 14956 3d6d 57       		.uleb128 0x57
 14957 3d6e 01       		.byte	0x1
 14958 3d6f 190F0000 		.4byte	.LASF314
 14959 3d73 20       		.byte	0x20
 14960 3d74 F6       		.byte	0xf6
 14961 3d75 01       		.byte	0x1
 14962 3d76 01       		.byte	0x1
 14963 3d77 52       		.uleb128 0x52
 14964 3d78 01       		.byte	0x1
 14965 3d79 BB070000 		.4byte	.LASF315
 14966 3d7d 13       		.byte	0x13
 14967 3d7e 81       		.byte	0x81
 14968 3d7f 01       		.byte	0x1
 14969 3d80 01       		.byte	0x1
 14970 3d81 903D0000 		.4byte	0x3d90
 14971 3d85 0F       		.uleb128 0xf
 14972 3d86 903D0000 		.4byte	0x3d90
 14973 3d8a 0F       		.uleb128 0xf
 14974 3d8b C40A0000 		.4byte	0xac4
 14975 3d8f 00       		.byte	0
 14976 3d90 09       		.uleb128 0x9
 14977 3d91 04       		.byte	0x4
 14978 3d92 050A0000 		.4byte	0xa05
 14979 3d96 52       		.uleb128 0x52
 14980 3d97 01       		.byte	0x1
 14981 3d98 F90C0000 		.4byte	.LASF316
 14982 3d9c 15       		.byte	0x15
 14983 3d9d 6F       		.byte	0x6f
 14984 3d9e 01       		.byte	0x1
 14985 3d9f 01       		.byte	0x1
 14986 3da0 AF3D0000 		.4byte	0x3daf
 14987 3da4 0F       		.uleb128 0xf
 14988 3da5 1D0C0000 		.4byte	0xc1d
 14989 3da9 0F       		.uleb128 0xf
 14990 3daa 060D0000 		.4byte	0xd06
 14991 3dae 00       		.byte	0
 14992 3daf 57       		.uleb128 0x57
 14993 3db0 01       		.byte	0x1
 14994 3db1 45060000 		.4byte	.LASF317
 14995 3db5 1D       		.byte	0x1d
 14996 3db6 7F       		.byte	0x7f
 14997 3db7 01       		.byte	0x1
 14998 3db8 01       		.byte	0x1
 14999 3db9 52       		.uleb128 0x52
 15000 3dba 01       		.byte	0x1
 15001 3dbb EB0D0000 		.4byte	.LASF318
 15002 3dbf 21       		.byte	0x21
 15003 3dc0 45       		.byte	0x45
 15004 3dc1 01       		.byte	0x1
 15005 3dc2 01       		.byte	0x1
 15006 3dc3 CD3D0000 		.4byte	0x3dcd
 15007 3dc7 0F       		.uleb128 0xf
 15008 3dc8 C7000000 		.4byte	0xc7
 15009 3dcc 00       		.byte	0
 15010 3dcd 57       		.uleb128 0x57
 15011 3dce 01       		.byte	0x1
 15012 3dcf A4000000 		.4byte	.LASF319
ARM GAS  C:\Users\Mohamad\AppData\Local\Temp\ccDsqi1j.s 			page 265


 15013 3dd3 1A       		.byte	0x1a
 15014 3dd4 12       		.byte	0x12
 15015 3dd5 01       		.byte	0x1
 15016 3dd6 01       		.byte	0x1
 15017 3dd7 58       		.uleb128 0x58
 15018 3dd8 01       		.byte	0x1
 15019 3dd9 27090000 		.4byte	.LASF326
 15020 3ddd 0C       		.byte	0xc
 15021 3dde 7001     		.2byte	0x170
 15022 3de0 01       		.byte	0x1
 15023 3de1 7B020000 		.4byte	0x27b
 15024 3de5 01       		.byte	0x1
 15025 3de6 043E0000 		.4byte	0x3e04
 15026 3dea 0F       		.uleb128 0xf
 15027 3deb B9020000 		.4byte	0x2b9
 15028 3def 0F       		.uleb128 0xf
 15029 3df0 3E000000 		.4byte	0x3e
 15030 3df4 0F       		.uleb128 0xf
 15031 3df5 FA000000 		.4byte	0xfa
 15032 3df9 0F       		.uleb128 0xf
 15033 3dfa EA040000 		.4byte	0x4ea
 15034 3dfe 0F       		.uleb128 0xf
 15035 3dff B9020000 		.4byte	0x2b9
 15036 3e03 00       		.byte	0
 15037 3e04 57       		.uleb128 0x57
 15038 3e05 01       		.byte	0x1
 15039 3e06 D4040000 		.4byte	.LASF320
 15040 3e0a 1D       		.byte	0x1d
 15041 3e0b 80       		.byte	0x80
 15042 3e0c 01       		.byte	0x1
 15043 3e0d 01       		.byte	0x1
 15044 3e0e 57       		.uleb128 0x57
 15045 3e0f 01       		.byte	0x1
 15046 3e10 61090000 		.4byte	.LASF321
 15047 3e14 1A       		.byte	0x1a
 15048 3e15 13       		.byte	0x13
 15049 3e16 01       		.byte	0x1
 15050 3e17 01       		.byte	0x1
 15051 3e18 00       		.byte	0
 15052              		.section	.debug_abbrev,"",%progbits
 15053              	.Ldebug_abbrev0:
 15054 0000 01       		.uleb128 0x1
 15055 0001 11       		.uleb128 0x11
 15056 0002 01       		.byte	0x1
 15057 0003 25       		.uleb128 0x25
 15058 0004 0E       		.uleb128 0xe
 15059 0005 13       		.uleb128 0x13
 15060 0006 0B       		.uleb128 0xb
 15061 0007 03       		.uleb128 0x3
 15062 0008 0E       		.uleb128 0xe
 15063 0009 1B       		.uleb128 0x1b
 15064 000a 0E       		.uleb128 0xe
 15065 000b 55       		.uleb128 0x55
 15066 000c 06       		.uleb128 0x6
 15067 000d 11       		.uleb128 0x11
 15068 000e 01       		.uleb128 0x1
 15069 000f 52       		.uleb128 0x52
ARM GAS  C:\Users\Mohamad\AppData\Local\Temp\ccDsqi1j.s 			page 266


 15070 0010 01       		.uleb128 0x1
 15071 0011 10       		.uleb128 0x10
 15072 0012 06       		.uleb128 0x6
 15073 0013 00       		.byte	0
 15074 0014 00       		.byte	0
 15075 0015 02       		.uleb128 0x2
 15076 0016 24       		.uleb128 0x24
 15077 0017 00       		.byte	0
 15078 0018 0B       		.uleb128 0xb
 15079 0019 0B       		.uleb128 0xb
 15080 001a 3E       		.uleb128 0x3e
 15081 001b 0B       		.uleb128 0xb
 15082 001c 03       		.uleb128 0x3
 15083 001d 0E       		.uleb128 0xe
 15084 001e 00       		.byte	0
 15085 001f 00       		.byte	0
 15086 0020 03       		.uleb128 0x3
 15087 0021 24       		.uleb128 0x24
 15088 0022 00       		.byte	0
 15089 0023 0B       		.uleb128 0xb
 15090 0024 0B       		.uleb128 0xb
 15091 0025 3E       		.uleb128 0x3e
 15092 0026 0B       		.uleb128 0xb
 15093 0027 03       		.uleb128 0x3
 15094 0028 08       		.uleb128 0x8
 15095 0029 00       		.byte	0
 15096 002a 00       		.byte	0
 15097 002b 04       		.uleb128 0x4
 15098 002c 16       		.uleb128 0x16
 15099 002d 00       		.byte	0
 15100 002e 03       		.uleb128 0x3
 15101 002f 0E       		.uleb128 0xe
 15102 0030 3A       		.uleb128 0x3a
 15103 0031 0B       		.uleb128 0xb
 15104 0032 3B       		.uleb128 0x3b
 15105 0033 0B       		.uleb128 0xb
 15106 0034 49       		.uleb128 0x49
 15107 0035 13       		.uleb128 0x13
 15108 0036 00       		.byte	0
 15109 0037 00       		.byte	0
 15110 0038 05       		.uleb128 0x5
 15111 0039 13       		.uleb128 0x13
 15112 003a 01       		.byte	0x1
 15113 003b 03       		.uleb128 0x3
 15114 003c 0E       		.uleb128 0xe
 15115 003d 0B       		.uleb128 0xb
 15116 003e 0B       		.uleb128 0xb
 15117 003f 3A       		.uleb128 0x3a
 15118 0040 0B       		.uleb128 0xb
 15119 0041 3B       		.uleb128 0x3b
 15120 0042 0B       		.uleb128 0xb
 15121 0043 01       		.uleb128 0x1
 15122 0044 13       		.uleb128 0x13
 15123 0045 00       		.byte	0
 15124 0046 00       		.byte	0
 15125 0047 06       		.uleb128 0x6
 15126 0048 0D       		.uleb128 0xd
ARM GAS  C:\Users\Mohamad\AppData\Local\Temp\ccDsqi1j.s 			page 267


 15127 0049 00       		.byte	0
 15128 004a 03       		.uleb128 0x3
 15129 004b 0E       		.uleb128 0xe
 15130 004c 3A       		.uleb128 0x3a
 15131 004d 0B       		.uleb128 0xb
 15132 004e 3B       		.uleb128 0x3b
 15133 004f 0B       		.uleb128 0xb
 15134 0050 49       		.uleb128 0x49
 15135 0051 13       		.uleb128 0x13
 15136 0052 38       		.uleb128 0x38
 15137 0053 0A       		.uleb128 0xa
 15138 0054 00       		.byte	0
 15139 0055 00       		.byte	0
 15140 0056 07       		.uleb128 0x7
 15141 0057 0D       		.uleb128 0xd
 15142 0058 00       		.byte	0
 15143 0059 03       		.uleb128 0x3
 15144 005a 08       		.uleb128 0x8
 15145 005b 3A       		.uleb128 0x3a
 15146 005c 0B       		.uleb128 0xb
 15147 005d 3B       		.uleb128 0x3b
 15148 005e 0B       		.uleb128 0xb
 15149 005f 49       		.uleb128 0x49
 15150 0060 13       		.uleb128 0x13
 15151 0061 38       		.uleb128 0x38
 15152 0062 0A       		.uleb128 0xa
 15153 0063 00       		.byte	0
 15154 0064 00       		.byte	0
 15155 0065 08       		.uleb128 0x8
 15156 0066 13       		.uleb128 0x13
 15157 0067 01       		.byte	0x1
 15158 0068 0B       		.uleb128 0xb
 15159 0069 0B       		.uleb128 0xb
 15160 006a 3A       		.uleb128 0x3a
 15161 006b 0B       		.uleb128 0xb
 15162 006c 3B       		.uleb128 0x3b
 15163 006d 0B       		.uleb128 0xb
 15164 006e 01       		.uleb128 0x1
 15165 006f 13       		.uleb128 0x13
 15166 0070 00       		.byte	0
 15167 0071 00       		.byte	0
 15168 0072 09       		.uleb128 0x9
 15169 0073 0F       		.uleb128 0xf
 15170 0074 00       		.byte	0
 15171 0075 0B       		.uleb128 0xb
 15172 0076 0B       		.uleb128 0xb
 15173 0077 49       		.uleb128 0x49
 15174 0078 13       		.uleb128 0x13
 15175 0079 00       		.byte	0
 15176 007a 00       		.byte	0
 15177 007b 0A       		.uleb128 0xa
 15178 007c 0F       		.uleb128 0xf
 15179 007d 00       		.byte	0
 15180 007e 0B       		.uleb128 0xb
 15181 007f 0B       		.uleb128 0xb
 15182 0080 00       		.byte	0
 15183 0081 00       		.byte	0
ARM GAS  C:\Users\Mohamad\AppData\Local\Temp\ccDsqi1j.s 			page 268


 15184 0082 0B       		.uleb128 0xb
 15185 0083 13       		.uleb128 0x13
 15186 0084 01       		.byte	0x1
 15187 0085 03       		.uleb128 0x3
 15188 0086 0E       		.uleb128 0xe
 15189 0087 0B       		.uleb128 0xb
 15190 0088 0B       		.uleb128 0xb
 15191 0089 3A       		.uleb128 0x3a
 15192 008a 0B       		.uleb128 0xb
 15193 008b 3B       		.uleb128 0x3b
 15194 008c 05       		.uleb128 0x5
 15195 008d 01       		.uleb128 0x1
 15196 008e 13       		.uleb128 0x13
 15197 008f 00       		.byte	0
 15198 0090 00       		.byte	0
 15199 0091 0C       		.uleb128 0xc
 15200 0092 0D       		.uleb128 0xd
 15201 0093 00       		.byte	0
 15202 0094 03       		.uleb128 0x3
 15203 0095 08       		.uleb128 0x8
 15204 0096 3A       		.uleb128 0x3a
 15205 0097 0B       		.uleb128 0xb
 15206 0098 3B       		.uleb128 0x3b
 15207 0099 05       		.uleb128 0x5
 15208 009a 49       		.uleb128 0x49
 15209 009b 13       		.uleb128 0x13
 15210 009c 38       		.uleb128 0x38
 15211 009d 0A       		.uleb128 0xa
 15212 009e 00       		.byte	0
 15213 009f 00       		.byte	0
 15214 00a0 0D       		.uleb128 0xd
 15215 00a1 35       		.uleb128 0x35
 15216 00a2 00       		.byte	0
 15217 00a3 49       		.uleb128 0x49
 15218 00a4 13       		.uleb128 0x13
 15219 00a5 00       		.byte	0
 15220 00a6 00       		.byte	0
 15221 00a7 0E       		.uleb128 0xe
 15222 00a8 15       		.uleb128 0x15
 15223 00a9 01       		.byte	0x1
 15224 00aa 27       		.uleb128 0x27
 15225 00ab 0C       		.uleb128 0xc
 15226 00ac 01       		.uleb128 0x1
 15227 00ad 13       		.uleb128 0x13
 15228 00ae 00       		.byte	0
 15229 00af 00       		.byte	0
 15230 00b0 0F       		.uleb128 0xf
 15231 00b1 05       		.uleb128 0x5
 15232 00b2 00       		.byte	0
 15233 00b3 49       		.uleb128 0x49
 15234 00b4 13       		.uleb128 0x13
 15235 00b5 00       		.byte	0
 15236 00b6 00       		.byte	0
 15237 00b7 10       		.uleb128 0x10
 15238 00b8 17       		.uleb128 0x17
 15239 00b9 01       		.byte	0x1
 15240 00ba 0B       		.uleb128 0xb
ARM GAS  C:\Users\Mohamad\AppData\Local\Temp\ccDsqi1j.s 			page 269


 15241 00bb 0B       		.uleb128 0xb
 15242 00bc 3A       		.uleb128 0x3a
 15243 00bd 0B       		.uleb128 0xb
 15244 00be 3B       		.uleb128 0x3b
 15245 00bf 0B       		.uleb128 0xb
 15246 00c0 01       		.uleb128 0x1
 15247 00c1 13       		.uleb128 0x13
 15248 00c2 00       		.byte	0
 15249 00c3 00       		.byte	0
 15250 00c4 11       		.uleb128 0x11
 15251 00c5 0D       		.uleb128 0xd
 15252 00c6 00       		.byte	0
 15253 00c7 03       		.uleb128 0x3
 15254 00c8 0E       		.uleb128 0xe
 15255 00c9 3A       		.uleb128 0x3a
 15256 00ca 0B       		.uleb128 0xb
 15257 00cb 3B       		.uleb128 0x3b
 15258 00cc 0B       		.uleb128 0xb
 15259 00cd 49       		.uleb128 0x49
 15260 00ce 13       		.uleb128 0x13
 15261 00cf 00       		.byte	0
 15262 00d0 00       		.byte	0
 15263 00d1 12       		.uleb128 0x12
 15264 00d2 26       		.uleb128 0x26
 15265 00d3 00       		.byte	0
 15266 00d4 49       		.uleb128 0x49
 15267 00d5 13       		.uleb128 0x13
 15268 00d6 00       		.byte	0
 15269 00d7 00       		.byte	0
 15270 00d8 13       		.uleb128 0x13
 15271 00d9 15       		.uleb128 0x15
 15272 00da 01       		.byte	0x1
 15273 00db 27       		.uleb128 0x27
 15274 00dc 0C       		.uleb128 0xc
 15275 00dd 49       		.uleb128 0x49
 15276 00de 13       		.uleb128 0x13
 15277 00df 01       		.uleb128 0x1
 15278 00e0 13       		.uleb128 0x13
 15279 00e1 00       		.byte	0
 15280 00e2 00       		.byte	0
 15281 00e3 14       		.uleb128 0x14
 15282 00e4 01       		.uleb128 0x1
 15283 00e5 01       		.byte	0x1
 15284 00e6 49       		.uleb128 0x49
 15285 00e7 13       		.uleb128 0x13
 15286 00e8 01       		.uleb128 0x1
 15287 00e9 13       		.uleb128 0x13
 15288 00ea 00       		.byte	0
 15289 00eb 00       		.byte	0
 15290 00ec 15       		.uleb128 0x15
 15291 00ed 21       		.uleb128 0x21
 15292 00ee 00       		.byte	0
 15293 00ef 49       		.uleb128 0x49
 15294 00f0 13       		.uleb128 0x13
 15295 00f1 2F       		.uleb128 0x2f
 15296 00f2 0B       		.uleb128 0xb
 15297 00f3 00       		.byte	0
ARM GAS  C:\Users\Mohamad\AppData\Local\Temp\ccDsqi1j.s 			page 270


 15298 00f4 00       		.byte	0
 15299 00f5 16       		.uleb128 0x16
 15300 00f6 13       		.uleb128 0x13
 15301 00f7 01       		.byte	0x1
 15302 00f8 0B       		.uleb128 0xb
 15303 00f9 0B       		.uleb128 0xb
 15304 00fa 3A       		.uleb128 0x3a
 15305 00fb 0B       		.uleb128 0xb
 15306 00fc 3B       		.uleb128 0x3b
 15307 00fd 05       		.uleb128 0x5
 15308 00fe 01       		.uleb128 0x1
 15309 00ff 13       		.uleb128 0x13
 15310 0100 00       		.byte	0
 15311 0101 00       		.byte	0
 15312 0102 17       		.uleb128 0x17
 15313 0103 0D       		.uleb128 0xd
 15314 0104 00       		.byte	0
 15315 0105 03       		.uleb128 0x3
 15316 0106 0E       		.uleb128 0xe
 15317 0107 3A       		.uleb128 0x3a
 15318 0108 0B       		.uleb128 0xb
 15319 0109 3B       		.uleb128 0x3b
 15320 010a 05       		.uleb128 0x5
 15321 010b 49       		.uleb128 0x49
 15322 010c 13       		.uleb128 0x13
 15323 010d 38       		.uleb128 0x38
 15324 010e 0A       		.uleb128 0xa
 15325 010f 00       		.byte	0
 15326 0110 00       		.byte	0
 15327 0111 18       		.uleb128 0x18
 15328 0112 16       		.uleb128 0x16
 15329 0113 00       		.byte	0
 15330 0114 03       		.uleb128 0x3
 15331 0115 0E       		.uleb128 0xe
 15332 0116 3A       		.uleb128 0x3a
 15333 0117 0B       		.uleb128 0xb
 15334 0118 3B       		.uleb128 0x3b
 15335 0119 05       		.uleb128 0x5
 15336 011a 49       		.uleb128 0x49
 15337 011b 13       		.uleb128 0x13
 15338 011c 00       		.byte	0
 15339 011d 00       		.byte	0
 15340 011e 19       		.uleb128 0x19
 15341 011f 0D       		.uleb128 0xd
 15342 0120 00       		.byte	0
 15343 0121 03       		.uleb128 0x3
 15344 0122 08       		.uleb128 0x8
 15345 0123 3A       		.uleb128 0x3a
 15346 0124 0B       		.uleb128 0xb
 15347 0125 3B       		.uleb128 0x3b
 15348 0126 0B       		.uleb128 0xb
 15349 0127 49       		.uleb128 0x49
 15350 0128 13       		.uleb128 0x13
 15351 0129 00       		.byte	0
 15352 012a 00       		.byte	0
 15353 012b 1A       		.uleb128 0x1a
 15354 012c 04       		.uleb128 0x4
ARM GAS  C:\Users\Mohamad\AppData\Local\Temp\ccDsqi1j.s 			page 271


 15355 012d 01       		.byte	0x1
 15356 012e 0B       		.uleb128 0xb
 15357 012f 0B       		.uleb128 0xb
 15358 0130 3A       		.uleb128 0x3a
 15359 0131 0B       		.uleb128 0xb
 15360 0132 3B       		.uleb128 0x3b
 15361 0133 0B       		.uleb128 0xb
 15362 0134 01       		.uleb128 0x1
 15363 0135 13       		.uleb128 0x13
 15364 0136 00       		.byte	0
 15365 0137 00       		.byte	0
 15366 0138 1B       		.uleb128 0x1b
 15367 0139 28       		.uleb128 0x28
 15368 013a 00       		.byte	0
 15369 013b 03       		.uleb128 0x3
 15370 013c 0E       		.uleb128 0xe
 15371 013d 1C       		.uleb128 0x1c
 15372 013e 0D       		.uleb128 0xd
 15373 013f 00       		.byte	0
 15374 0140 00       		.byte	0
 15375 0141 1C       		.uleb128 0x1c
 15376 0142 04       		.uleb128 0x4
 15377 0143 01       		.byte	0x1
 15378 0144 0B       		.uleb128 0xb
 15379 0145 0B       		.uleb128 0xb
 15380 0146 3A       		.uleb128 0x3a
 15381 0147 0B       		.uleb128 0xb
 15382 0148 3B       		.uleb128 0x3b
 15383 0149 05       		.uleb128 0x5
 15384 014a 01       		.uleb128 0x1
 15385 014b 13       		.uleb128 0x13
 15386 014c 00       		.byte	0
 15387 014d 00       		.byte	0
 15388 014e 1D       		.uleb128 0x1d
 15389 014f 13       		.uleb128 0x13
 15390 0150 01       		.byte	0x1
 15391 0151 03       		.uleb128 0x3
 15392 0152 0E       		.uleb128 0xe
 15393 0153 0B       		.uleb128 0xb
 15394 0154 05       		.uleb128 0x5
 15395 0155 3A       		.uleb128 0x3a
 15396 0156 0B       		.uleb128 0xb
 15397 0157 3B       		.uleb128 0x3b
 15398 0158 0B       		.uleb128 0xb
 15399 0159 01       		.uleb128 0x1
 15400 015a 13       		.uleb128 0x13
 15401 015b 00       		.byte	0
 15402 015c 00       		.byte	0
 15403 015d 1E       		.uleb128 0x1e
 15404 015e 2E       		.uleb128 0x2e
 15405 015f 01       		.byte	0x1
 15406 0160 03       		.uleb128 0x3
 15407 0161 0E       		.uleb128 0xe
 15408 0162 3A       		.uleb128 0x3a
 15409 0163 0B       		.uleb128 0xb
 15410 0164 3B       		.uleb128 0x3b
 15411 0165 0B       		.uleb128 0xb
ARM GAS  C:\Users\Mohamad\AppData\Local\Temp\ccDsqi1j.s 			page 272


 15412 0166 27       		.uleb128 0x27
 15413 0167 0C       		.uleb128 0xc
 15414 0168 20       		.uleb128 0x20
 15415 0169 0B       		.uleb128 0xb
 15416 016a 01       		.uleb128 0x1
 15417 016b 13       		.uleb128 0x13
 15418 016c 00       		.byte	0
 15419 016d 00       		.byte	0
 15420 016e 1F       		.uleb128 0x1f
 15421 016f 05       		.uleb128 0x5
 15422 0170 00       		.byte	0
 15423 0171 03       		.uleb128 0x3
 15424 0172 0E       		.uleb128 0xe
 15425 0173 3A       		.uleb128 0x3a
 15426 0174 0B       		.uleb128 0xb
 15427 0175 3B       		.uleb128 0x3b
 15428 0176 0B       		.uleb128 0xb
 15429 0177 49       		.uleb128 0x49
 15430 0178 13       		.uleb128 0x13
 15431 0179 00       		.byte	0
 15432 017a 00       		.byte	0
 15433 017b 20       		.uleb128 0x20
 15434 017c 34       		.uleb128 0x34
 15435 017d 00       		.byte	0
 15436 017e 03       		.uleb128 0x3
 15437 017f 08       		.uleb128 0x8
 15438 0180 3A       		.uleb128 0x3a
 15439 0181 0B       		.uleb128 0xb
 15440 0182 3B       		.uleb128 0x3b
 15441 0183 0B       		.uleb128 0xb
 15442 0184 49       		.uleb128 0x49
 15443 0185 13       		.uleb128 0x13
 15444 0186 00       		.byte	0
 15445 0187 00       		.byte	0
 15446 0188 21       		.uleb128 0x21
 15447 0189 2E       		.uleb128 0x2e
 15448 018a 01       		.byte	0x1
 15449 018b 03       		.uleb128 0x3
 15450 018c 0E       		.uleb128 0xe
 15451 018d 3A       		.uleb128 0x3a
 15452 018e 0B       		.uleb128 0xb
 15453 018f 3B       		.uleb128 0x3b
 15454 0190 0B       		.uleb128 0xb
 15455 0191 27       		.uleb128 0x27
 15456 0192 0C       		.uleb128 0xc
 15457 0193 49       		.uleb128 0x49
 15458 0194 13       		.uleb128 0x13
 15459 0195 20       		.uleb128 0x20
 15460 0196 0B       		.uleb128 0xb
 15461 0197 01       		.uleb128 0x1
 15462 0198 13       		.uleb128 0x13
 15463 0199 00       		.byte	0
 15464 019a 00       		.byte	0
 15465 019b 22       		.uleb128 0x22
 15466 019c 34       		.uleb128 0x34
 15467 019d 00       		.byte	0
 15468 019e 03       		.uleb128 0x3
ARM GAS  C:\Users\Mohamad\AppData\Local\Temp\ccDsqi1j.s 			page 273


 15469 019f 0E       		.uleb128 0xe
 15470 01a0 3A       		.uleb128 0x3a
 15471 01a1 0B       		.uleb128 0xb
 15472 01a2 3B       		.uleb128 0x3b
 15473 01a3 0B       		.uleb128 0xb
 15474 01a4 49       		.uleb128 0x49
 15475 01a5 13       		.uleb128 0x13
 15476 01a6 00       		.byte	0
 15477 01a7 00       		.byte	0
 15478 01a8 23       		.uleb128 0x23
 15479 01a9 05       		.uleb128 0x5
 15480 01aa 00       		.byte	0
 15481 01ab 03       		.uleb128 0x3
 15482 01ac 08       		.uleb128 0x8
 15483 01ad 3A       		.uleb128 0x3a
 15484 01ae 0B       		.uleb128 0xb
 15485 01af 3B       		.uleb128 0x3b
 15486 01b0 0B       		.uleb128 0xb
 15487 01b1 49       		.uleb128 0x49
 15488 01b2 13       		.uleb128 0x13
 15489 01b3 00       		.byte	0
 15490 01b4 00       		.byte	0
 15491 01b5 24       		.uleb128 0x24
 15492 01b6 2E       		.uleb128 0x2e
 15493 01b7 01       		.byte	0x1
 15494 01b8 03       		.uleb128 0x3
 15495 01b9 0E       		.uleb128 0xe
 15496 01ba 3A       		.uleb128 0x3a
 15497 01bb 0B       		.uleb128 0xb
 15498 01bc 3B       		.uleb128 0x3b
 15499 01bd 0B       		.uleb128 0xb
 15500 01be 27       		.uleb128 0x27
 15501 01bf 0C       		.uleb128 0xc
 15502 01c0 11       		.uleb128 0x11
 15503 01c1 01       		.uleb128 0x1
 15504 01c2 12       		.uleb128 0x12
 15505 01c3 01       		.uleb128 0x1
 15506 01c4 40       		.uleb128 0x40
 15507 01c5 0A       		.uleb128 0xa
 15508 01c6 9742     		.uleb128 0x2117
 15509 01c8 0C       		.uleb128 0xc
 15510 01c9 01       		.uleb128 0x1
 15511 01ca 13       		.uleb128 0x13
 15512 01cb 00       		.byte	0
 15513 01cc 00       		.byte	0
 15514 01cd 25       		.uleb128 0x25
 15515 01ce 05       		.uleb128 0x5
 15516 01cf 00       		.byte	0
 15517 01d0 03       		.uleb128 0x3
 15518 01d1 0E       		.uleb128 0xe
 15519 01d2 3A       		.uleb128 0x3a
 15520 01d3 0B       		.uleb128 0xb
 15521 01d4 3B       		.uleb128 0x3b
 15522 01d5 0B       		.uleb128 0xb
 15523 01d6 49       		.uleb128 0x49
 15524 01d7 13       		.uleb128 0x13
 15525 01d8 02       		.uleb128 0x2
ARM GAS  C:\Users\Mohamad\AppData\Local\Temp\ccDsqi1j.s 			page 274


 15526 01d9 0A       		.uleb128 0xa
 15527 01da 00       		.byte	0
 15528 01db 00       		.byte	0
 15529 01dc 26       		.uleb128 0x26
 15530 01dd 05       		.uleb128 0x5
 15531 01de 00       		.byte	0
 15532 01df 03       		.uleb128 0x3
 15533 01e0 08       		.uleb128 0x8
 15534 01e1 3A       		.uleb128 0x3a
 15535 01e2 0B       		.uleb128 0xb
 15536 01e3 3B       		.uleb128 0x3b
 15537 01e4 0B       		.uleb128 0xb
 15538 01e5 49       		.uleb128 0x49
 15539 01e6 13       		.uleb128 0x13
 15540 01e7 02       		.uleb128 0x2
 15541 01e8 0A       		.uleb128 0xa
 15542 01e9 00       		.byte	0
 15543 01ea 00       		.byte	0
 15544 01eb 27       		.uleb128 0x27
 15545 01ec 0B       		.uleb128 0xb
 15546 01ed 01       		.byte	0x1
 15547 01ee 11       		.uleb128 0x11
 15548 01ef 01       		.uleb128 0x1
 15549 01f0 12       		.uleb128 0x12
 15550 01f1 01       		.uleb128 0x1
 15551 01f2 01       		.uleb128 0x1
 15552 01f3 13       		.uleb128 0x13
 15553 01f4 00       		.byte	0
 15554 01f5 00       		.byte	0
 15555 01f6 28       		.uleb128 0x28
 15556 01f7 34       		.uleb128 0x34
 15557 01f8 00       		.byte	0
 15558 01f9 03       		.uleb128 0x3
 15559 01fa 08       		.uleb128 0x8
 15560 01fb 3A       		.uleb128 0x3a
 15561 01fc 0B       		.uleb128 0xb
 15562 01fd 3B       		.uleb128 0x3b
 15563 01fe 0B       		.uleb128 0xb
 15564 01ff 49       		.uleb128 0x49
 15565 0200 13       		.uleb128 0x13
 15566 0201 02       		.uleb128 0x2
 15567 0202 06       		.uleb128 0x6
 15568 0203 00       		.byte	0
 15569 0204 00       		.byte	0
 15570 0205 29       		.uleb128 0x29
 15571 0206 0B       		.uleb128 0xb
 15572 0207 01       		.byte	0x1
 15573 0208 11       		.uleb128 0x11
 15574 0209 01       		.uleb128 0x1
 15575 020a 12       		.uleb128 0x12
 15576 020b 01       		.uleb128 0x1
 15577 020c 00       		.byte	0
 15578 020d 00       		.byte	0
 15579 020e 2A       		.uleb128 0x2a
 15580 020f 2E       		.uleb128 0x2e
 15581 0210 01       		.byte	0x1
 15582 0211 03       		.uleb128 0x3
ARM GAS  C:\Users\Mohamad\AppData\Local\Temp\ccDsqi1j.s 			page 275


 15583 0212 0E       		.uleb128 0xe
 15584 0213 3A       		.uleb128 0x3a
 15585 0214 0B       		.uleb128 0xb
 15586 0215 3B       		.uleb128 0x3b
 15587 0216 0B       		.uleb128 0xb
 15588 0217 27       		.uleb128 0x27
 15589 0218 0C       		.uleb128 0xc
 15590 0219 49       		.uleb128 0x49
 15591 021a 13       		.uleb128 0x13
 15592 021b 11       		.uleb128 0x11
 15593 021c 01       		.uleb128 0x1
 15594 021d 12       		.uleb128 0x12
 15595 021e 01       		.uleb128 0x1
 15596 021f 40       		.uleb128 0x40
 15597 0220 06       		.uleb128 0x6
 15598 0221 9742     		.uleb128 0x2117
 15599 0223 0C       		.uleb128 0xc
 15600 0224 01       		.uleb128 0x1
 15601 0225 13       		.uleb128 0x13
 15602 0226 00       		.byte	0
 15603 0227 00       		.byte	0
 15604 0228 2B       		.uleb128 0x2b
 15605 0229 05       		.uleb128 0x5
 15606 022a 00       		.byte	0
 15607 022b 03       		.uleb128 0x3
 15608 022c 08       		.uleb128 0x8
 15609 022d 3A       		.uleb128 0x3a
 15610 022e 0B       		.uleb128 0xb
 15611 022f 3B       		.uleb128 0x3b
 15612 0230 0B       		.uleb128 0xb
 15613 0231 49       		.uleb128 0x49
 15614 0232 13       		.uleb128 0x13
 15615 0233 02       		.uleb128 0x2
 15616 0234 06       		.uleb128 0x6
 15617 0235 00       		.byte	0
 15618 0236 00       		.byte	0
 15619 0237 2C       		.uleb128 0x2c
 15620 0238 898201   		.uleb128 0x4109
 15621 023b 01       		.byte	0x1
 15622 023c 11       		.uleb128 0x11
 15623 023d 01       		.uleb128 0x1
 15624 023e 31       		.uleb128 0x31
 15625 023f 13       		.uleb128 0x13
 15626 0240 01       		.uleb128 0x1
 15627 0241 13       		.uleb128 0x13
 15628 0242 00       		.byte	0
 15629 0243 00       		.byte	0
 15630 0244 2D       		.uleb128 0x2d
 15631 0245 8A8201   		.uleb128 0x410a
 15632 0248 00       		.byte	0
 15633 0249 02       		.uleb128 0x2
 15634 024a 0A       		.uleb128 0xa
 15635 024b 9142     		.uleb128 0x2111
 15636 024d 0A       		.uleb128 0xa
 15637 024e 00       		.byte	0
 15638 024f 00       		.byte	0
 15639 0250 2E       		.uleb128 0x2e
ARM GAS  C:\Users\Mohamad\AppData\Local\Temp\ccDsqi1j.s 			page 276


 15640 0251 898201   		.uleb128 0x4109
 15641 0254 01       		.byte	0x1
 15642 0255 11       		.uleb128 0x11
 15643 0256 01       		.uleb128 0x1
 15644 0257 31       		.uleb128 0x31
 15645 0258 13       		.uleb128 0x13
 15646 0259 00       		.byte	0
 15647 025a 00       		.byte	0
 15648 025b 2F       		.uleb128 0x2f
 15649 025c 2E       		.uleb128 0x2e
 15650 025d 01       		.byte	0x1
 15651 025e 3F       		.uleb128 0x3f
 15652 025f 0C       		.uleb128 0xc
 15653 0260 03       		.uleb128 0x3
 15654 0261 0E       		.uleb128 0xe
 15655 0262 3A       		.uleb128 0x3a
 15656 0263 0B       		.uleb128 0xb
 15657 0264 3B       		.uleb128 0x3b
 15658 0265 0B       		.uleb128 0xb
 15659 0266 27       		.uleb128 0x27
 15660 0267 0C       		.uleb128 0xc
 15661 0268 49       		.uleb128 0x49
 15662 0269 13       		.uleb128 0x13
 15663 026a 11       		.uleb128 0x11
 15664 026b 01       		.uleb128 0x1
 15665 026c 12       		.uleb128 0x12
 15666 026d 01       		.uleb128 0x1
 15667 026e 40       		.uleb128 0x40
 15668 026f 0A       		.uleb128 0xa
 15669 0270 9742     		.uleb128 0x2117
 15670 0272 0C       		.uleb128 0xc
 15671 0273 01       		.uleb128 0x1
 15672 0274 13       		.uleb128 0x13
 15673 0275 00       		.byte	0
 15674 0276 00       		.byte	0
 15675 0277 30       		.uleb128 0x30
 15676 0278 34       		.uleb128 0x34
 15677 0279 00       		.byte	0
 15678 027a 03       		.uleb128 0x3
 15679 027b 0E       		.uleb128 0xe
 15680 027c 3A       		.uleb128 0x3a
 15681 027d 0B       		.uleb128 0xb
 15682 027e 3B       		.uleb128 0x3b
 15683 027f 0B       		.uleb128 0xb
 15684 0280 49       		.uleb128 0x49
 15685 0281 13       		.uleb128 0x13
 15686 0282 02       		.uleb128 0x2
 15687 0283 06       		.uleb128 0x6
 15688 0284 00       		.byte	0
 15689 0285 00       		.byte	0
 15690 0286 31       		.uleb128 0x31
 15691 0287 2E       		.uleb128 0x2e
 15692 0288 00       		.byte	0
 15693 0289 3F       		.uleb128 0x3f
 15694 028a 0C       		.uleb128 0xc
 15695 028b 03       		.uleb128 0x3
 15696 028c 0E       		.uleb128 0xe
ARM GAS  C:\Users\Mohamad\AppData\Local\Temp\ccDsqi1j.s 			page 277


 15697 028d 3A       		.uleb128 0x3a
 15698 028e 0B       		.uleb128 0xb
 15699 028f 3B       		.uleb128 0x3b
 15700 0290 0B       		.uleb128 0xb
 15701 0291 27       		.uleb128 0x27
 15702 0292 0C       		.uleb128 0xc
 15703 0293 20       		.uleb128 0x20
 15704 0294 0B       		.uleb128 0xb
 15705 0295 00       		.byte	0
 15706 0296 00       		.byte	0
 15707 0297 32       		.uleb128 0x32
 15708 0298 2E       		.uleb128 0x2e
 15709 0299 01       		.byte	0x1
 15710 029a 3F       		.uleb128 0x3f
 15711 029b 0C       		.uleb128 0xc
 15712 029c 03       		.uleb128 0x3
 15713 029d 0E       		.uleb128 0xe
 15714 029e 3A       		.uleb128 0x3a
 15715 029f 0B       		.uleb128 0xb
 15716 02a0 3B       		.uleb128 0x3b
 15717 02a1 0B       		.uleb128 0xb
 15718 02a2 27       		.uleb128 0x27
 15719 02a3 0C       		.uleb128 0xc
 15720 02a4 20       		.uleb128 0x20
 15721 02a5 0B       		.uleb128 0xb
 15722 02a6 01       		.uleb128 0x1
 15723 02a7 13       		.uleb128 0x13
 15724 02a8 00       		.byte	0
 15725 02a9 00       		.byte	0
 15726 02aa 33       		.uleb128 0x33
 15727 02ab 2E       		.uleb128 0x2e
 15728 02ac 01       		.byte	0x1
 15729 02ad 3F       		.uleb128 0x3f
 15730 02ae 0C       		.uleb128 0xc
 15731 02af 03       		.uleb128 0x3
 15732 02b0 0E       		.uleb128 0xe
 15733 02b1 3A       		.uleb128 0x3a
 15734 02b2 0B       		.uleb128 0xb
 15735 02b3 3B       		.uleb128 0x3b
 15736 02b4 05       		.uleb128 0x5
 15737 02b5 27       		.uleb128 0x27
 15738 02b6 0C       		.uleb128 0xc
 15739 02b7 20       		.uleb128 0x20
 15740 02b8 0B       		.uleb128 0xb
 15741 02b9 01       		.uleb128 0x1
 15742 02ba 13       		.uleb128 0x13
 15743 02bb 00       		.byte	0
 15744 02bc 00       		.byte	0
 15745 02bd 34       		.uleb128 0x34
 15746 02be 34       		.uleb128 0x34
 15747 02bf 00       		.byte	0
 15748 02c0 03       		.uleb128 0x3
 15749 02c1 08       		.uleb128 0x8
 15750 02c2 3A       		.uleb128 0x3a
 15751 02c3 0B       		.uleb128 0xb
 15752 02c4 3B       		.uleb128 0x3b
 15753 02c5 05       		.uleb128 0x5
ARM GAS  C:\Users\Mohamad\AppData\Local\Temp\ccDsqi1j.s 			page 278


 15754 02c6 49       		.uleb128 0x49
 15755 02c7 13       		.uleb128 0x13
 15756 02c8 00       		.byte	0
 15757 02c9 00       		.byte	0
 15758 02ca 35       		.uleb128 0x35
 15759 02cb 2E       		.uleb128 0x2e
 15760 02cc 01       		.byte	0x1
 15761 02cd 3F       		.uleb128 0x3f
 15762 02ce 0C       		.uleb128 0xc
 15763 02cf 03       		.uleb128 0x3
 15764 02d0 0E       		.uleb128 0xe
 15765 02d1 3A       		.uleb128 0x3a
 15766 02d2 0B       		.uleb128 0xb
 15767 02d3 3B       		.uleb128 0x3b
 15768 02d4 0B       		.uleb128 0xb
 15769 02d5 27       		.uleb128 0x27
 15770 02d6 0C       		.uleb128 0xc
 15771 02d7 49       		.uleb128 0x49
 15772 02d8 13       		.uleb128 0x13
 15773 02d9 11       		.uleb128 0x11
 15774 02da 01       		.uleb128 0x1
 15775 02db 12       		.uleb128 0x12
 15776 02dc 01       		.uleb128 0x1
 15777 02dd 40       		.uleb128 0x40
 15778 02de 06       		.uleb128 0x6
 15779 02df 9642     		.uleb128 0x2116
 15780 02e1 0C       		.uleb128 0xc
 15781 02e2 01       		.uleb128 0x1
 15782 02e3 13       		.uleb128 0x13
 15783 02e4 00       		.byte	0
 15784 02e5 00       		.byte	0
 15785 02e6 36       		.uleb128 0x36
 15786 02e7 34       		.uleb128 0x34
 15787 02e8 00       		.byte	0
 15788 02e9 03       		.uleb128 0x3
 15789 02ea 08       		.uleb128 0x8
 15790 02eb 3A       		.uleb128 0x3a
 15791 02ec 0B       		.uleb128 0xb
 15792 02ed 3B       		.uleb128 0x3b
 15793 02ee 0B       		.uleb128 0xb
 15794 02ef 49       		.uleb128 0x49
 15795 02f0 13       		.uleb128 0x13
 15796 02f1 1C       		.uleb128 0x1c
 15797 02f2 0B       		.uleb128 0xb
 15798 02f3 00       		.byte	0
 15799 02f4 00       		.byte	0
 15800 02f5 37       		.uleb128 0x37
 15801 02f6 34       		.uleb128 0x34
 15802 02f7 00       		.byte	0
 15803 02f8 03       		.uleb128 0x3
 15804 02f9 0E       		.uleb128 0xe
 15805 02fa 3A       		.uleb128 0x3a
 15806 02fb 0B       		.uleb128 0xb
 15807 02fc 3B       		.uleb128 0x3b
 15808 02fd 0B       		.uleb128 0xb
 15809 02fe 49       		.uleb128 0x49
 15810 02ff 13       		.uleb128 0x13
ARM GAS  C:\Users\Mohamad\AppData\Local\Temp\ccDsqi1j.s 			page 279


 15811 0300 1C       		.uleb128 0x1c
 15812 0301 0A       		.uleb128 0xa
 15813 0302 00       		.byte	0
 15814 0303 00       		.byte	0
 15815 0304 38       		.uleb128 0x38
 15816 0305 1D       		.uleb128 0x1d
 15817 0306 01       		.byte	0x1
 15818 0307 31       		.uleb128 0x31
 15819 0308 13       		.uleb128 0x13
 15820 0309 52       		.uleb128 0x52
 15821 030a 01       		.uleb128 0x1
 15822 030b 55       		.uleb128 0x55
 15823 030c 06       		.uleb128 0x6
 15824 030d 58       		.uleb128 0x58
 15825 030e 0B       		.uleb128 0xb
 15826 030f 59       		.uleb128 0x59
 15827 0310 0B       		.uleb128 0xb
 15828 0311 01       		.uleb128 0x1
 15829 0312 13       		.uleb128 0x13
 15830 0313 00       		.byte	0
 15831 0314 00       		.byte	0
 15832 0315 39       		.uleb128 0x39
 15833 0316 1D       		.uleb128 0x1d
 15834 0317 01       		.byte	0x1
 15835 0318 31       		.uleb128 0x31
 15836 0319 13       		.uleb128 0x13
 15837 031a 11       		.uleb128 0x11
 15838 031b 01       		.uleb128 0x1
 15839 031c 12       		.uleb128 0x12
 15840 031d 01       		.uleb128 0x1
 15841 031e 58       		.uleb128 0x58
 15842 031f 0B       		.uleb128 0xb
 15843 0320 59       		.uleb128 0x59
 15844 0321 0B       		.uleb128 0xb
 15845 0322 01       		.uleb128 0x1
 15846 0323 13       		.uleb128 0x13
 15847 0324 00       		.byte	0
 15848 0325 00       		.byte	0
 15849 0326 3A       		.uleb128 0x3a
 15850 0327 34       		.uleb128 0x34
 15851 0328 00       		.byte	0
 15852 0329 31       		.uleb128 0x31
 15853 032a 13       		.uleb128 0x13
 15854 032b 00       		.byte	0
 15855 032c 00       		.byte	0
 15856 032d 3B       		.uleb128 0x3b
 15857 032e 1D       		.uleb128 0x1d
 15858 032f 01       		.byte	0x1
 15859 0330 31       		.uleb128 0x31
 15860 0331 13       		.uleb128 0x13
 15861 0332 52       		.uleb128 0x52
 15862 0333 01       		.uleb128 0x1
 15863 0334 55       		.uleb128 0x55
 15864 0335 06       		.uleb128 0x6
 15865 0336 58       		.uleb128 0x58
 15866 0337 0B       		.uleb128 0xb
 15867 0338 59       		.uleb128 0x59
ARM GAS  C:\Users\Mohamad\AppData\Local\Temp\ccDsqi1j.s 			page 280


 15868 0339 05       		.uleb128 0x5
 15869 033a 01       		.uleb128 0x1
 15870 033b 13       		.uleb128 0x13
 15871 033c 00       		.byte	0
 15872 033d 00       		.byte	0
 15873 033e 3C       		.uleb128 0x3c
 15874 033f 05       		.uleb128 0x5
 15875 0340 00       		.byte	0
 15876 0341 31       		.uleb128 0x31
 15877 0342 13       		.uleb128 0x13
 15878 0343 02       		.uleb128 0x2
 15879 0344 06       		.uleb128 0x6
 15880 0345 00       		.byte	0
 15881 0346 00       		.byte	0
 15882 0347 3D       		.uleb128 0x3d
 15883 0348 0B       		.uleb128 0xb
 15884 0349 01       		.byte	0x1
 15885 034a 55       		.uleb128 0x55
 15886 034b 06       		.uleb128 0x6
 15887 034c 00       		.byte	0
 15888 034d 00       		.byte	0
 15889 034e 3E       		.uleb128 0x3e
 15890 034f 34       		.uleb128 0x34
 15891 0350 00       		.byte	0
 15892 0351 31       		.uleb128 0x31
 15893 0352 13       		.uleb128 0x13
 15894 0353 02       		.uleb128 0x2
 15895 0354 0A       		.uleb128 0xa
 15896 0355 00       		.byte	0
 15897 0356 00       		.byte	0
 15898 0357 3F       		.uleb128 0x3f
 15899 0358 1D       		.uleb128 0x1d
 15900 0359 01       		.byte	0x1
 15901 035a 31       		.uleb128 0x31
 15902 035b 13       		.uleb128 0x13
 15903 035c 52       		.uleb128 0x52
 15904 035d 01       		.uleb128 0x1
 15905 035e 55       		.uleb128 0x55
 15906 035f 06       		.uleb128 0x6
 15907 0360 58       		.uleb128 0x58
 15908 0361 0B       		.uleb128 0xb
 15909 0362 59       		.uleb128 0x59
 15910 0363 0B       		.uleb128 0xb
 15911 0364 00       		.byte	0
 15912 0365 00       		.byte	0
 15913 0366 40       		.uleb128 0x40
 15914 0367 34       		.uleb128 0x34
 15915 0368 00       		.byte	0
 15916 0369 31       		.uleb128 0x31
 15917 036a 13       		.uleb128 0x13
 15918 036b 02       		.uleb128 0x2
 15919 036c 06       		.uleb128 0x6
 15920 036d 00       		.byte	0
 15921 036e 00       		.byte	0
 15922 036f 41       		.uleb128 0x41
 15923 0370 05       		.uleb128 0x5
 15924 0371 00       		.byte	0
ARM GAS  C:\Users\Mohamad\AppData\Local\Temp\ccDsqi1j.s 			page 281


 15925 0372 31       		.uleb128 0x31
 15926 0373 13       		.uleb128 0x13
 15927 0374 00       		.byte	0
 15928 0375 00       		.byte	0
 15929 0376 42       		.uleb128 0x42
 15930 0377 898201   		.uleb128 0x4109
 15931 037a 00       		.byte	0
 15932 037b 11       		.uleb128 0x11
 15933 037c 01       		.uleb128 0x1
 15934 037d 31       		.uleb128 0x31
 15935 037e 13       		.uleb128 0x13
 15936 037f 00       		.byte	0
 15937 0380 00       		.byte	0
 15938 0381 43       		.uleb128 0x43
 15939 0382 05       		.uleb128 0x5
 15940 0383 00       		.byte	0
 15941 0384 31       		.uleb128 0x31
 15942 0385 13       		.uleb128 0x13
 15943 0386 1C       		.uleb128 0x1c
 15944 0387 0A       		.uleb128 0xa
 15945 0388 00       		.byte	0
 15946 0389 00       		.byte	0
 15947 038a 44       		.uleb128 0x44
 15948 038b 05       		.uleb128 0x5
 15949 038c 00       		.byte	0
 15950 038d 31       		.uleb128 0x31
 15951 038e 13       		.uleb128 0x13
 15952 038f 1C       		.uleb128 0x1c
 15953 0390 0B       		.uleb128 0xb
 15954 0391 00       		.byte	0
 15955 0392 00       		.byte	0
 15956 0393 45       		.uleb128 0x45
 15957 0394 05       		.uleb128 0x5
 15958 0395 00       		.byte	0
 15959 0396 31       		.uleb128 0x31
 15960 0397 13       		.uleb128 0x13
 15961 0398 02       		.uleb128 0x2
 15962 0399 0A       		.uleb128 0xa
 15963 039a 00       		.byte	0
 15964 039b 00       		.byte	0
 15965 039c 46       		.uleb128 0x46
 15966 039d 05       		.uleb128 0x5
 15967 039e 00       		.byte	0
 15968 039f 31       		.uleb128 0x31
 15969 03a0 13       		.uleb128 0x13
 15970 03a1 1C       		.uleb128 0x1c
 15971 03a2 0D       		.uleb128 0xd
 15972 03a3 00       		.byte	0
 15973 03a4 00       		.byte	0
 15974 03a5 47       		.uleb128 0x47
 15975 03a6 2E       		.uleb128 0x2e
 15976 03a7 01       		.byte	0x1
 15977 03a8 31       		.uleb128 0x31
 15978 03a9 13       		.uleb128 0x13
 15979 03aa 11       		.uleb128 0x11
 15980 03ab 01       		.uleb128 0x1
 15981 03ac 12       		.uleb128 0x12
ARM GAS  C:\Users\Mohamad\AppData\Local\Temp\ccDsqi1j.s 			page 282


 15982 03ad 01       		.uleb128 0x1
 15983 03ae 40       		.uleb128 0x40
 15984 03af 06       		.uleb128 0x6
 15985 03b0 9642     		.uleb128 0x2116
 15986 03b2 0C       		.uleb128 0xc
 15987 03b3 01       		.uleb128 0x1
 15988 03b4 13       		.uleb128 0x13
 15989 03b5 00       		.byte	0
 15990 03b6 00       		.byte	0
 15991 03b7 48       		.uleb128 0x48
 15992 03b8 1D       		.uleb128 0x1d
 15993 03b9 01       		.byte	0x1
 15994 03ba 31       		.uleb128 0x31
 15995 03bb 13       		.uleb128 0x13
 15996 03bc 11       		.uleb128 0x11
 15997 03bd 01       		.uleb128 0x1
 15998 03be 12       		.uleb128 0x12
 15999 03bf 01       		.uleb128 0x1
 16000 03c0 58       		.uleb128 0x58
 16001 03c1 0B       		.uleb128 0xb
 16002 03c2 59       		.uleb128 0x59
 16003 03c3 0B       		.uleb128 0xb
 16004 03c4 00       		.byte	0
 16005 03c5 00       		.byte	0
 16006 03c6 49       		.uleb128 0x49
 16007 03c7 2E       		.uleb128 0x2e
 16008 03c8 01       		.byte	0x1
 16009 03c9 31       		.uleb128 0x31
 16010 03ca 13       		.uleb128 0x13
 16011 03cb 11       		.uleb128 0x11
 16012 03cc 01       		.uleb128 0x1
 16013 03cd 12       		.uleb128 0x12
 16014 03ce 01       		.uleb128 0x1
 16015 03cf 40       		.uleb128 0x40
 16016 03d0 06       		.uleb128 0x6
 16017 03d1 9742     		.uleb128 0x2117
 16018 03d3 0C       		.uleb128 0xc
 16019 03d4 01       		.uleb128 0x1
 16020 03d5 13       		.uleb128 0x13
 16021 03d6 00       		.byte	0
 16022 03d7 00       		.byte	0
 16023 03d8 4A       		.uleb128 0x4a
 16024 03d9 898201   		.uleb128 0x4109
 16025 03dc 01       		.byte	0x1
 16026 03dd 11       		.uleb128 0x11
 16027 03de 01       		.uleb128 0x1
 16028 03df 9542     		.uleb128 0x2115
 16029 03e1 0C       		.uleb128 0xc
 16030 03e2 31       		.uleb128 0x31
 16031 03e3 13       		.uleb128 0x13
 16032 03e4 00       		.byte	0
 16033 03e5 00       		.byte	0
 16034 03e6 4B       		.uleb128 0x4b
 16035 03e7 34       		.uleb128 0x34
 16036 03e8 00       		.byte	0
 16037 03e9 03       		.uleb128 0x3
 16038 03ea 0E       		.uleb128 0xe
ARM GAS  C:\Users\Mohamad\AppData\Local\Temp\ccDsqi1j.s 			page 283


 16039 03eb 3A       		.uleb128 0x3a
 16040 03ec 0B       		.uleb128 0xb
 16041 03ed 3B       		.uleb128 0x3b
 16042 03ee 0B       		.uleb128 0xb
 16043 03ef 49       		.uleb128 0x49
 16044 03f0 13       		.uleb128 0x13
 16045 03f1 02       		.uleb128 0x2
 16046 03f2 0A       		.uleb128 0xa
 16047 03f3 00       		.byte	0
 16048 03f4 00       		.byte	0
 16049 03f5 4C       		.uleb128 0x4c
 16050 03f6 34       		.uleb128 0x34
 16051 03f7 00       		.byte	0
 16052 03f8 03       		.uleb128 0x3
 16053 03f9 0E       		.uleb128 0xe
 16054 03fa 3A       		.uleb128 0x3a
 16055 03fb 0B       		.uleb128 0xb
 16056 03fc 3B       		.uleb128 0x3b
 16057 03fd 0B       		.uleb128 0xb
 16058 03fe 49       		.uleb128 0x49
 16059 03ff 13       		.uleb128 0x13
 16060 0400 3F       		.uleb128 0x3f
 16061 0401 0C       		.uleb128 0xc
 16062 0402 3C       		.uleb128 0x3c
 16063 0403 0C       		.uleb128 0xc
 16064 0404 00       		.byte	0
 16065 0405 00       		.byte	0
 16066 0406 4D       		.uleb128 0x4d
 16067 0407 34       		.uleb128 0x34
 16068 0408 00       		.byte	0
 16069 0409 03       		.uleb128 0x3
 16070 040a 0E       		.uleb128 0xe
 16071 040b 3A       		.uleb128 0x3a
 16072 040c 0B       		.uleb128 0xb
 16073 040d 3B       		.uleb128 0x3b
 16074 040e 05       		.uleb128 0x5
 16075 040f 49       		.uleb128 0x49
 16076 0410 13       		.uleb128 0x13
 16077 0411 3F       		.uleb128 0x3f
 16078 0412 0C       		.uleb128 0xc
 16079 0413 3C       		.uleb128 0x3c
 16080 0414 0C       		.uleb128 0xc
 16081 0415 00       		.byte	0
 16082 0416 00       		.byte	0
 16083 0417 4E       		.uleb128 0x4e
 16084 0418 34       		.uleb128 0x34
 16085 0419 00       		.byte	0
 16086 041a 03       		.uleb128 0x3
 16087 041b 08       		.uleb128 0x8
 16088 041c 3A       		.uleb128 0x3a
 16089 041d 0B       		.uleb128 0xb
 16090 041e 3B       		.uleb128 0x3b
 16091 041f 0B       		.uleb128 0xb
 16092 0420 49       		.uleb128 0x49
 16093 0421 13       		.uleb128 0x13
 16094 0422 3F       		.uleb128 0x3f
 16095 0423 0C       		.uleb128 0xc
ARM GAS  C:\Users\Mohamad\AppData\Local\Temp\ccDsqi1j.s 			page 284


 16096 0424 3C       		.uleb128 0x3c
 16097 0425 0C       		.uleb128 0xc
 16098 0426 00       		.byte	0
 16099 0427 00       		.byte	0
 16100 0428 4F       		.uleb128 0x4f
 16101 0429 34       		.uleb128 0x34
 16102 042a 00       		.byte	0
 16103 042b 03       		.uleb128 0x3
 16104 042c 0E       		.uleb128 0xe
 16105 042d 3A       		.uleb128 0x3a
 16106 042e 0B       		.uleb128 0xb
 16107 042f 3B       		.uleb128 0x3b
 16108 0430 0B       		.uleb128 0xb
 16109 0431 49       		.uleb128 0x49
 16110 0432 13       		.uleb128 0x13
 16111 0433 3F       		.uleb128 0x3f
 16112 0434 0C       		.uleb128 0xc
 16113 0435 02       		.uleb128 0x2
 16114 0436 0A       		.uleb128 0xa
 16115 0437 00       		.byte	0
 16116 0438 00       		.byte	0
 16117 0439 50       		.uleb128 0x50
 16118 043a 34       		.uleb128 0x34
 16119 043b 00       		.byte	0
 16120 043c 03       		.uleb128 0x3
 16121 043d 08       		.uleb128 0x8
 16122 043e 3A       		.uleb128 0x3a
 16123 043f 0B       		.uleb128 0xb
 16124 0440 3B       		.uleb128 0x3b
 16125 0441 0B       		.uleb128 0xb
 16126 0442 49       		.uleb128 0x49
 16127 0443 13       		.uleb128 0x13
 16128 0444 3F       		.uleb128 0x3f
 16129 0445 0C       		.uleb128 0xc
 16130 0446 02       		.uleb128 0x2
 16131 0447 0A       		.uleb128 0xa
 16132 0448 00       		.byte	0
 16133 0449 00       		.byte	0
 16134 044a 51       		.uleb128 0x51
 16135 044b 21       		.uleb128 0x21
 16136 044c 00       		.byte	0
 16137 044d 49       		.uleb128 0x49
 16138 044e 13       		.uleb128 0x13
 16139 044f 2F       		.uleb128 0x2f
 16140 0450 05       		.uleb128 0x5
 16141 0451 00       		.byte	0
 16142 0452 00       		.byte	0
 16143 0453 52       		.uleb128 0x52
 16144 0454 2E       		.uleb128 0x2e
 16145 0455 01       		.byte	0x1
 16146 0456 3F       		.uleb128 0x3f
 16147 0457 0C       		.uleb128 0xc
 16148 0458 03       		.uleb128 0x3
 16149 0459 0E       		.uleb128 0xe
 16150 045a 3A       		.uleb128 0x3a
 16151 045b 0B       		.uleb128 0xb
 16152 045c 3B       		.uleb128 0x3b
ARM GAS  C:\Users\Mohamad\AppData\Local\Temp\ccDsqi1j.s 			page 285


 16153 045d 0B       		.uleb128 0xb
 16154 045e 27       		.uleb128 0x27
 16155 045f 0C       		.uleb128 0xc
 16156 0460 3C       		.uleb128 0x3c
 16157 0461 0C       		.uleb128 0xc
 16158 0462 01       		.uleb128 0x1
 16159 0463 13       		.uleb128 0x13
 16160 0464 00       		.byte	0
 16161 0465 00       		.byte	0
 16162 0466 53       		.uleb128 0x53
 16163 0467 2E       		.uleb128 0x2e
 16164 0468 01       		.byte	0x1
 16165 0469 3F       		.uleb128 0x3f
 16166 046a 0C       		.uleb128 0xc
 16167 046b 03       		.uleb128 0x3
 16168 046c 0E       		.uleb128 0xe
 16169 046d 3A       		.uleb128 0x3a
 16170 046e 0B       		.uleb128 0xb
 16171 046f 3B       		.uleb128 0x3b
 16172 0470 05       		.uleb128 0x5
 16173 0471 27       		.uleb128 0x27
 16174 0472 0C       		.uleb128 0xc
 16175 0473 3C       		.uleb128 0x3c
 16176 0474 0C       		.uleb128 0xc
 16177 0475 01       		.uleb128 0x1
 16178 0476 13       		.uleb128 0x13
 16179 0477 00       		.byte	0
 16180 0478 00       		.byte	0
 16181 0479 54       		.uleb128 0x54
 16182 047a 2E       		.uleb128 0x2e
 16183 047b 01       		.byte	0x1
 16184 047c 3F       		.uleb128 0x3f
 16185 047d 0C       		.uleb128 0xc
 16186 047e 03       		.uleb128 0x3
 16187 047f 0E       		.uleb128 0xe
 16188 0480 27       		.uleb128 0x27
 16189 0481 0C       		.uleb128 0xc
 16190 0482 49       		.uleb128 0x49
 16191 0483 13       		.uleb128 0x13
 16192 0484 34       		.uleb128 0x34
 16193 0485 0C       		.uleb128 0xc
 16194 0486 3C       		.uleb128 0x3c
 16195 0487 0C       		.uleb128 0xc
 16196 0488 01       		.uleb128 0x1
 16197 0489 13       		.uleb128 0x13
 16198 048a 00       		.byte	0
 16199 048b 00       		.byte	0
 16200 048c 55       		.uleb128 0x55
 16201 048d 26       		.uleb128 0x26
 16202 048e 00       		.byte	0
 16203 048f 00       		.byte	0
 16204 0490 00       		.byte	0
 16205 0491 56       		.uleb128 0x56
 16206 0492 2E       		.uleb128 0x2e
 16207 0493 00       		.byte	0
 16208 0494 3F       		.uleb128 0x3f
 16209 0495 0C       		.uleb128 0xc
ARM GAS  C:\Users\Mohamad\AppData\Local\Temp\ccDsqi1j.s 			page 286


 16210 0496 03       		.uleb128 0x3
 16211 0497 0E       		.uleb128 0xe
 16212 0498 3A       		.uleb128 0x3a
 16213 0499 0B       		.uleb128 0xb
 16214 049a 3B       		.uleb128 0x3b
 16215 049b 0B       		.uleb128 0xb
 16216 049c 27       		.uleb128 0x27
 16217 049d 0C       		.uleb128 0xc
 16218 049e 49       		.uleb128 0x49
 16219 049f 13       		.uleb128 0x13
 16220 04a0 3C       		.uleb128 0x3c
 16221 04a1 0C       		.uleb128 0xc
 16222 04a2 00       		.byte	0
 16223 04a3 00       		.byte	0
 16224 04a4 57       		.uleb128 0x57
 16225 04a5 2E       		.uleb128 0x2e
 16226 04a6 00       		.byte	0
 16227 04a7 3F       		.uleb128 0x3f
 16228 04a8 0C       		.uleb128 0xc
 16229 04a9 03       		.uleb128 0x3
 16230 04aa 0E       		.uleb128 0xe
 16231 04ab 3A       		.uleb128 0x3a
 16232 04ac 0B       		.uleb128 0xb
 16233 04ad 3B       		.uleb128 0x3b
 16234 04ae 0B       		.uleb128 0xb
 16235 04af 27       		.uleb128 0x27
 16236 04b0 0C       		.uleb128 0xc
 16237 04b1 3C       		.uleb128 0x3c
 16238 04b2 0C       		.uleb128 0xc
 16239 04b3 00       		.byte	0
 16240 04b4 00       		.byte	0
 16241 04b5 58       		.uleb128 0x58
 16242 04b6 2E       		.uleb128 0x2e
 16243 04b7 01       		.byte	0x1
 16244 04b8 3F       		.uleb128 0x3f
 16245 04b9 0C       		.uleb128 0xc
 16246 04ba 03       		.uleb128 0x3
 16247 04bb 0E       		.uleb128 0xe
 16248 04bc 3A       		.uleb128 0x3a
 16249 04bd 0B       		.uleb128 0xb
 16250 04be 3B       		.uleb128 0x3b
 16251 04bf 05       		.uleb128 0x5
 16252 04c0 27       		.uleb128 0x27
 16253 04c1 0C       		.uleb128 0xc
 16254 04c2 49       		.uleb128 0x49
 16255 04c3 13       		.uleb128 0x13
 16256 04c4 3C       		.uleb128 0x3c
 16257 04c5 0C       		.uleb128 0xc
 16258 04c6 01       		.uleb128 0x1
 16259 04c7 13       		.uleb128 0x13
 16260 04c8 00       		.byte	0
 16261 04c9 00       		.byte	0
 16262 04ca 00       		.byte	0
 16263              		.section	.debug_loc,"",%progbits
 16264              	.Ldebug_loc0:
 16265              	.LLST0:
 16266 0000 06000000 		.4byte	.LVL3
ARM GAS  C:\Users\Mohamad\AppData\Local\Temp\ccDsqi1j.s 			page 287


 16267 0004 0A000000 		.4byte	.LVL4
 16268 0008 0100     		.2byte	0x1
 16269 000a 53       		.byte	0x53
 16270 000b 00000000 		.4byte	0
 16271 000f 00000000 		.4byte	0
 16272              	.LLST1:
 16273 0013 18000000 		.4byte	.LVL6
 16274 0017 1A000000 		.4byte	.LFE1533
 16275 001b 0100     		.2byte	0x1
 16276 001d 53       		.byte	0x53
 16277 001e 00000000 		.4byte	0
 16278 0022 00000000 		.4byte	0
 16279              	.LLST2:
 16280 0026 00000000 		.4byte	.LFB1534
 16281 002a 02000000 		.4byte	.LCFI0
 16282 002e 0200     		.2byte	0x2
 16283 0030 7D       		.byte	0x7d
 16284 0031 00       		.sleb128 0
 16285 0032 02000000 		.4byte	.LCFI0
 16286 0036 14000000 		.4byte	.LFE1534
 16287 003a 0200     		.2byte	0x2
 16288 003c 7D       		.byte	0x7d
 16289 003d 08       		.sleb128 8
 16290 003e 00000000 		.4byte	0
 16291 0042 00000000 		.4byte	0
 16292              	.LLST3:
 16293 0046 00000000 		.4byte	.LVL7
 16294 004a 02000000 		.4byte	.LVL8
 16295 004e 0100     		.2byte	0x1
 16296 0050 50       		.byte	0x50
 16297 0051 02000000 		.4byte	.LVL8
 16298 0055 14000000 		.4byte	.LFE1534
 16299 0059 0400     		.2byte	0x4
 16300 005b F3       		.byte	0xf3
 16301 005c 01       		.uleb128 0x1
 16302 005d 50       		.byte	0x50
 16303 005e 9F       		.byte	0x9f
 16304 005f 00000000 		.4byte	0
 16305 0063 00000000 		.4byte	0
 16306              	.LLST4:
 16307 0067 00000000 		.4byte	.LVL11
 16308 006b 04000000 		.4byte	.LVL12
 16309 006f 0100     		.2byte	0x1
 16310 0071 50       		.byte	0x50
 16311 0072 04000000 		.4byte	.LVL12
 16312 0076 08000000 		.4byte	.LFE1535
 16313 007a 0400     		.2byte	0x4
 16314 007c F3       		.byte	0xf3
 16315 007d 01       		.uleb128 0x1
 16316 007e 50       		.byte	0x50
 16317 007f 9F       		.byte	0x9f
 16318 0080 00000000 		.4byte	0
 16319 0084 00000000 		.4byte	0
 16320              	.LLST5:
 16321 0088 00000000 		.4byte	.LVL11
 16322 008c 04000000 		.4byte	.LVL12
 16323 0090 0E00     		.2byte	0xe
ARM GAS  C:\Users\Mohamad\AppData\Local\Temp\ccDsqi1j.s 			page 288


 16324 0092 70       		.byte	0x70
 16325 0093 00       		.sleb128 0
 16326 0094 08       		.byte	0x8
 16327 0095 FF       		.byte	0xff
 16328 0096 1A       		.byte	0x1a
 16329 0097 38       		.byte	0x38
 16330 0098 24       		.byte	0x24
 16331 0099 71       		.byte	0x71
 16332 009a 00       		.sleb128 0
 16333 009b 08       		.byte	0x8
 16334 009c FF       		.byte	0xff
 16335 009d 1A       		.byte	0x1a
 16336 009e 21       		.byte	0x21
 16337 009f 9F       		.byte	0x9f
 16338 00a0 04000000 		.4byte	.LVL12
 16339 00a4 08000000 		.4byte	.LFE1535
 16340 00a8 0F00     		.2byte	0xf
 16341 00aa F3       		.byte	0xf3
 16342 00ab 01       		.uleb128 0x1
 16343 00ac 50       		.byte	0x50
 16344 00ad 08       		.byte	0x8
 16345 00ae FF       		.byte	0xff
 16346 00af 1A       		.byte	0x1a
 16347 00b0 38       		.byte	0x38
 16348 00b1 24       		.byte	0x24
 16349 00b2 71       		.byte	0x71
 16350 00b3 00       		.sleb128 0
 16351 00b4 08       		.byte	0x8
 16352 00b5 FF       		.byte	0xff
 16353 00b6 1A       		.byte	0x1a
 16354 00b7 21       		.byte	0x21
 16355 00b8 9F       		.byte	0x9f
 16356 00b9 00000000 		.4byte	0
 16357 00bd 00000000 		.4byte	0
 16358              	.LLST6:
 16359 00c1 00000000 		.4byte	.LFB1536
 16360 00c5 04000000 		.4byte	.LCFI1
 16361 00c9 0200     		.2byte	0x2
 16362 00cb 7D       		.byte	0x7d
 16363 00cc 00       		.sleb128 0
 16364 00cd 04000000 		.4byte	.LCFI1
 16365 00d1 06000000 		.4byte	.LCFI2
 16366 00d5 0200     		.2byte	0x2
 16367 00d7 7D       		.byte	0x7d
 16368 00d8 24       		.sleb128 36
 16369 00d9 06000000 		.4byte	.LCFI2
 16370 00dd C40A0000 		.4byte	.LFE1536
 16371 00e1 0300     		.2byte	0x3
 16372 00e3 7D       		.byte	0x7d
 16373 00e4 D802     		.sleb128 344
 16374 00e6 00000000 		.4byte	0
 16375 00ea 00000000 		.4byte	0
 16376              	.LLST7:
 16377 00ee 84000000 		.4byte	.LVL25
 16378 00f2 88000000 		.4byte	.LVL26
 16379 00f6 0200     		.2byte	0x2
 16380 00f8 30       		.byte	0x30
ARM GAS  C:\Users\Mohamad\AppData\Local\Temp\ccDsqi1j.s 			page 289


 16381 00f9 9F       		.byte	0x9f
 16382 00fa 00000000 		.4byte	0
 16383 00fe 00000000 		.4byte	0
 16384              	.LLST8:
 16385 0102 3C010000 		.4byte	.LVL31
 16386 0106 4C010000 		.4byte	.LVL33
 16387 010a 0100     		.2byte	0x1
 16388 010c 50       		.byte	0x50
 16389 010d 4C010000 		.4byte	.LVL33
 16390 0111 93020000 		.4byte	.LVL55-1
 16391 0115 0300     		.2byte	0x3
 16392 0117 91       		.byte	0x91
 16393 0118 A87F     		.sleb128 -88
 16394 011a 00000000 		.4byte	0
 16395 011e 00000000 		.4byte	0
 16396              	.LLST9:
 16397 0122 3C010000 		.4byte	.LVL31
 16398 0126 4E010000 		.4byte	.LVL34
 16399 012a 0100     		.2byte	0x1
 16400 012c 54       		.byte	0x54
 16401 012d 4E010000 		.4byte	.LVL34
 16402 0131 93020000 		.4byte	.LVL55-1
 16403 0135 0300     		.2byte	0x3
 16404 0137 91       		.byte	0x91
 16405 0138 A47F     		.sleb128 -92
 16406 013a 00000000 		.4byte	0
 16407 013e 00000000 		.4byte	0
 16408              	.LLST10:
 16409 0142 3C010000 		.4byte	.LVL31
 16410 0146 48010000 		.4byte	.LVL32
 16411 014a 0100     		.2byte	0x1
 16412 014c 55       		.byte	0x55
 16413 014d 48010000 		.4byte	.LVL32
 16414 0151 93020000 		.4byte	.LVL55-1
 16415 0155 0300     		.2byte	0x3
 16416 0157 91       		.byte	0x91
 16417 0158 A07F     		.sleb128 -96
 16418 015a 00000000 		.4byte	0
 16419 015e 00000000 		.4byte	0
 16420              	.LLST11:
 16421 0162 3C010000 		.4byte	.LVL31
 16422 0166 7E020000 		.4byte	.LVL53
 16423 016a 0700     		.2byte	0x7
 16424 016c 78       		.byte	0x78
 16425 016d 00       		.sleb128 0
 16426 016e F7       		.byte	0xf7
 16427 016f 30       		.uleb128 0x30
 16428 0170 F7       		.byte	0xf7
 16429 0171 29       		.uleb128 0x29
 16430 0172 9F       		.byte	0x9f
 16431 0173 7E020000 		.4byte	.LVL53
 16432 0177 93020000 		.4byte	.LVL55-1
 16433 017b 0900     		.2byte	0x9
 16434 017d 91       		.byte	0x91
 16435 017e 987F     		.sleb128 -104
 16436 0180 06       		.byte	0x6
 16437 0181 F7       		.byte	0xf7
ARM GAS  C:\Users\Mohamad\AppData\Local\Temp\ccDsqi1j.s 			page 290


 16438 0182 30       		.uleb128 0x30
 16439 0183 F7       		.byte	0xf7
 16440 0184 29       		.uleb128 0x29
 16441 0185 9F       		.byte	0x9f
 16442 0186 00000000 		.4byte	0
 16443 018a 00000000 		.4byte	0
 16444              	.LLST12:
 16445 018e 3C010000 		.4byte	.LVL31
 16446 0192 00030000 		.4byte	.LVL58
 16447 0196 0200     		.2byte	0x2
 16448 0198 30       		.byte	0x30
 16449 0199 9F       		.byte	0x9f
 16450 019a 00000000 		.4byte	0
 16451 019e 00000000 		.4byte	0
 16452              	.LLST18:
 16453 01a2 3C010000 		.4byte	.LVL31
 16454 01a6 00030000 		.4byte	.LVL58
 16455 01aa 0600     		.2byte	0x6
 16456 01ac 03       		.byte	0x3
 16457 01ad 00000000 		.4byte	msg
 16458 01b1 9F       		.byte	0x9f
 16459 01b2 00000000 		.4byte	0
 16460 01b6 00000000 		.4byte	0
 16461              	.LLST19:
 16462 01ba 3C010000 		.4byte	.LVL31
 16463 01be 00030000 		.4byte	.LVL58
 16464 01c2 0200     		.2byte	0x2
 16465 01c4 31       		.byte	0x31
 16466 01c5 9F       		.byte	0x9f
 16467 01c6 00000000 		.4byte	0
 16468 01ca 00000000 		.4byte	0
 16469              	.LLST21:
 16470 01ce F8010000 		.4byte	.LVL35
 16471 01d2 00030000 		.4byte	.LVL58
 16472 01d6 0200     		.2byte	0x2
 16473 01d8 48       		.byte	0x48
 16474 01d9 9F       		.byte	0x9f
 16475 01da 00000000 		.4byte	0
 16476 01de 00000000 		.4byte	0
 16477              	.LLST22:
 16478 01e2 F8010000 		.4byte	.LVL35
 16479 01e6 00030000 		.4byte	.LVL58
 16480 01ea 0200     		.2byte	0x2
 16481 01ec 4E       		.byte	0x4e
 16482 01ed 9F       		.byte	0x9f
 16483 01ee 00000000 		.4byte	0
 16484 01f2 00000000 		.4byte	0
 16485              	.LLST23:
 16486 01f6 F8010000 		.4byte	.LVL35
 16487 01fa 00030000 		.4byte	.LVL58
 16488 01fe 0200     		.2byte	0x2
 16489 0200 31       		.byte	0x31
 16490 0201 9F       		.byte	0x9f
 16491 0202 00000000 		.4byte	0
 16492 0206 00000000 		.4byte	0
 16493              	.LLST25:
 16494 020a F8010000 		.4byte	.LVL35
ARM GAS  C:\Users\Mohamad\AppData\Local\Temp\ccDsqi1j.s 			page 291


 16495 020e 00030000 		.4byte	.LVL58
 16496 0212 0600     		.2byte	0x6
 16497 0214 03       		.byte	0x3
 16498 0215 00000000 		.4byte	msg
 16499 0219 9F       		.byte	0x9f
 16500 021a 00000000 		.4byte	0
 16501 021e 00000000 		.4byte	0
 16502              	.LLST28:
 16503 0222 F8010000 		.4byte	.LVL35
 16504 0226 00030000 		.4byte	.LVL58
 16505 022a 0200     		.2byte	0x2
 16506 022c 30       		.byte	0x30
 16507 022d 9F       		.byte	0x9f
 16508 022e 00000000 		.4byte	0
 16509 0232 00000000 		.4byte	0
 16510              	.LLST32:
 16511 0236 0A020000 		.4byte	.LVL37
 16512 023a 00030000 		.4byte	.LVL58
 16513 023e 0300     		.2byte	0x3
 16514 0240 09       		.byte	0x9
 16515 0241 FF       		.byte	0xff
 16516 0242 9F       		.byte	0x9f
 16517 0243 00000000 		.4byte	0
 16518 0247 00000000 		.4byte	0
 16519              	.LLST33:
 16520 024b 0A020000 		.4byte	.LVL37
 16521 024f 00030000 		.4byte	.LVL58
 16522 0253 0600     		.2byte	0x6
 16523 0255 03       		.byte	0x3
 16524 0256 08000000 		.4byte	msg+8
 16525 025a 9F       		.byte	0x9f
 16526 025b 00000000 		.4byte	0
 16527 025f 00000000 		.4byte	0
 16528              	.LLST34:
 16529 0263 0A020000 		.4byte	.LVL37
 16530 0267 0E020000 		.4byte	.LVL38
 16531 026b 0100     		.2byte	0x1
 16532 026d 53       		.byte	0x53
 16533 026e 00000000 		.4byte	0
 16534 0272 00000000 		.4byte	0
 16535              	.LLST35:
 16536 0276 0A020000 		.4byte	.LVL37
 16537 027a 00030000 		.4byte	.LVL58
 16538 027e 0600     		.2byte	0x6
 16539 0280 F2       		.byte	0xf2
 16540 0281 5E190000 		.4byte	.Ldebug_info0+6494
 16541 0285 00       		.sleb128 0
 16542 0286 14060000 		.4byte	.LVL60
 16543 028a 5C060000 		.4byte	.LVL64
 16544 028e 0600     		.2byte	0x6
 16545 0290 F2       		.byte	0xf2
 16546 0291 EB1B0000 		.4byte	.Ldebug_info0+7147
 16547 0295 00       		.sleb128 0
 16548 0296 D2070000 		.4byte	.LVL82
 16549 029a B8080000 		.4byte	.LVL102
 16550 029e 0600     		.2byte	0x6
 16551 02a0 F2       		.byte	0xf2
ARM GAS  C:\Users\Mohamad\AppData\Local\Temp\ccDsqi1j.s 			page 292


 16552 02a1 7B1E0000 		.4byte	.Ldebug_info0+7803
 16553 02a5 00       		.sleb128 0
 16554 02a6 E8090000 		.4byte	.LVL115
 16555 02aa C40A0000 		.4byte	.LFE1536
 16556 02ae 0600     		.2byte	0x6
 16557 02b0 F2       		.byte	0xf2
 16558 02b1 39210000 		.4byte	.Ldebug_info0+8505
 16559 02b5 00       		.sleb128 0
 16560 02b6 00000000 		.4byte	0
 16561 02ba 00000000 		.4byte	0
 16562              	.LLST36:
 16563 02be 0A020000 		.4byte	.LVL37
 16564 02c2 93020000 		.4byte	.LVL55-1
 16565 02c6 0500     		.2byte	0x5
 16566 02c8 03       		.byte	0x3
 16567 02c9 07000000 		.4byte	msg+7
 16568 02cd 14060000 		.4byte	.LVL60
 16569 02d1 23060000 		.4byte	.LVL62-1
 16570 02d5 0500     		.2byte	0x5
 16571 02d7 03       		.byte	0x3
 16572 02d8 07000000 		.4byte	msg+7
 16573 02dc D2070000 		.4byte	.LVL82
 16574 02e0 5D080000 		.4byte	.LVL99-1
 16575 02e4 0500     		.2byte	0x5
 16576 02e6 03       		.byte	0x3
 16577 02e7 07000000 		.4byte	msg+7
 16578 02eb E8090000 		.4byte	.LVL115
 16579 02ef 7D0A0000 		.4byte	.LVL131-1
 16580 02f3 0500     		.2byte	0x5
 16581 02f5 03       		.byte	0x3
 16582 02f6 07000000 		.4byte	msg+7
 16583 02fa 00000000 		.4byte	0
 16584 02fe 00000000 		.4byte	0
 16585              	.LLST37:
 16586 0302 0E020000 		.4byte	.LVL38
 16587 0306 00030000 		.4byte	.LVL58
 16588 030a 0600     		.2byte	0x6
 16589 030c 03       		.byte	0x3
 16590 030d 08000000 		.4byte	msg+8
 16591 0311 9F       		.byte	0x9f
 16592 0312 00000000 		.4byte	0
 16593 0316 00000000 		.4byte	0
 16594              	.LLST38:
 16595 031a 0E020000 		.4byte	.LVL38
 16596 031e 00030000 		.4byte	.LVL58
 16597 0322 0600     		.2byte	0x6
 16598 0324 03       		.byte	0x3
 16599 0325 00000000 		.4byte	msg
 16600 0329 9F       		.byte	0x9f
 16601 032a 00000000 		.4byte	0
 16602 032e 00000000 		.4byte	0
 16603              	.LLST39:
 16604 0332 16020000 		.4byte	.LVL39
 16605 0336 32020000 		.4byte	.LVL43
 16606 033a 0100     		.2byte	0x1
 16607 033c 52       		.byte	0x52
 16608 033d 32020000 		.4byte	.LVL43
ARM GAS  C:\Users\Mohamad\AppData\Local\Temp\ccDsqi1j.s 			page 293


 16609 0341 4A020000 		.4byte	.LVL45
 16610 0345 0300     		.2byte	0x3
 16611 0347 71       		.byte	0x71
 16612 0348 7F       		.sleb128 -1
 16613 0349 9F       		.byte	0x9f
 16614 034a 4A020000 		.4byte	.LVL45
 16615 034e 66020000 		.4byte	.LVL50
 16616 0352 0100     		.2byte	0x1
 16617 0354 52       		.byte	0x52
 16618 0355 00000000 		.4byte	0
 16619 0359 00000000 		.4byte	0
 16620              	.LLST40:
 16621 035d 16020000 		.4byte	.LVL39
 16622 0361 32020000 		.4byte	.LVL43
 16623 0365 0200     		.2byte	0x2
 16624 0367 72       		.byte	0x72
 16625 0368 00       		.sleb128 0
 16626 0369 32020000 		.4byte	.LVL43
 16627 036d 4E020000 		.4byte	.LVL46
 16628 0371 0200     		.2byte	0x2
 16629 0373 71       		.byte	0x71
 16630 0374 7F       		.sleb128 -1
 16631 0375 4E020000 		.4byte	.LVL46
 16632 0379 66020000 		.4byte	.LVL50
 16633 037d 0200     		.2byte	0x2
 16634 037f 72       		.byte	0x72
 16635 0380 7E       		.sleb128 -2
 16636 0381 00000000 		.4byte	0
 16637 0385 00000000 		.4byte	0
 16638              	.LLST41:
 16639 0389 16020000 		.4byte	.LVL39
 16640 038d 00030000 		.4byte	.LVL58
 16641 0391 0600     		.2byte	0x6
 16642 0393 03       		.byte	0x3
 16643 0394 00000000 		.4byte	msg
 16644 0398 9F       		.byte	0x9f
 16645 0399 14060000 		.4byte	.LVL60
 16646 039d 5C060000 		.4byte	.LVL64
 16647 03a1 0600     		.2byte	0x6
 16648 03a3 03       		.byte	0x3
 16649 03a4 00000000 		.4byte	msg
 16650 03a8 9F       		.byte	0x9f
 16651 03a9 E0070000 		.4byte	.LVL85
 16652 03ad B8080000 		.4byte	.LVL102
 16653 03b1 0600     		.2byte	0x6
 16654 03b3 03       		.byte	0x3
 16655 03b4 00000000 		.4byte	msg
 16656 03b8 9F       		.byte	0x9f
 16657 03b9 F6090000 		.4byte	.LVL117
 16658 03bd C40A0000 		.4byte	.LFE1536
 16659 03c1 0600     		.2byte	0x6
 16660 03c3 03       		.byte	0x3
 16661 03c4 00000000 		.4byte	msg
 16662 03c8 9F       		.byte	0x9f
 16663 03c9 00000000 		.4byte	0
 16664 03cd 00000000 		.4byte	0
 16665              	.LLST42:
ARM GAS  C:\Users\Mohamad\AppData\Local\Temp\ccDsqi1j.s 			page 294


 16666 03d1 1A020000 		.4byte	.LVL40
 16667 03d5 20020000 		.4byte	.LVL41
 16668 03d9 0100     		.2byte	0x1
 16669 03db 53       		.byte	0x53
 16670 03dc 20020000 		.4byte	.LVL41
 16671 03e0 2C020000 		.4byte	.LVL42
 16672 03e4 0100     		.2byte	0x1
 16673 03e6 57       		.byte	0x57
 16674 03e7 2C020000 		.4byte	.LVL42
 16675 03eb 38020000 		.4byte	.LVL44
 16676 03ef 0100     		.2byte	0x1
 16677 03f1 55       		.byte	0x55
 16678 03f2 00000000 		.4byte	0
 16679 03f6 00000000 		.4byte	0
 16680              	.LLST43:
 16681 03fa 56020000 		.4byte	.LVL47
 16682 03fe 00030000 		.4byte	.LVL58
 16683 0402 0600     		.2byte	0x6
 16684 0404 03       		.byte	0x3
 16685 0405 00000000 		.4byte	msg
 16686 0409 9F       		.byte	0x9f
 16687 040a 00000000 		.4byte	0
 16688 040e 00000000 		.4byte	0
 16689              	.LLST44:
 16690 0412 56020000 		.4byte	.LVL47
 16691 0416 00030000 		.4byte	.LVL58
 16692 041a 0200     		.2byte	0x2
 16693 041c 48       		.byte	0x48
 16694 041d 9F       		.byte	0x9f
 16695 041e 14060000 		.4byte	.LVL60
 16696 0422 5C060000 		.4byte	.LVL64
 16697 0426 0300     		.2byte	0x3
 16698 0428 08       		.byte	0x8
 16699 0429 43       		.byte	0x43
 16700 042a 9F       		.byte	0x9f
 16701 042b 20080000 		.4byte	.LVL92
 16702 042f B8080000 		.4byte	.LVL102
 16703 0433 0300     		.2byte	0x3
 16704 0435 08       		.byte	0x8
 16705 0436 27       		.byte	0x27
 16706 0437 9F       		.byte	0x9f
 16707 0438 360A0000 		.4byte	.LVL124
 16708 043c C40A0000 		.4byte	.LFE1536
 16709 0440 0300     		.2byte	0x3
 16710 0442 09       		.byte	0x9
 16711 0443 F6       		.byte	0xf6
 16712 0444 9F       		.byte	0x9f
 16713 0445 00000000 		.4byte	0
 16714 0449 00000000 		.4byte	0
 16715              	.LLST45:
 16716 044d 5A020000 		.4byte	.LVL48
 16717 0451 60020000 		.4byte	.LVL49
 16718 0455 0100     		.2byte	0x1
 16719 0457 55       		.byte	0x55
 16720 0458 60020000 		.4byte	.LVL49
 16721 045c 72020000 		.4byte	.LVL51
 16722 0460 0100     		.2byte	0x1
ARM GAS  C:\Users\Mohamad\AppData\Local\Temp\ccDsqi1j.s 			page 295


 16723 0462 50       		.byte	0x50
 16724 0463 72020000 		.4byte	.LVL51
 16725 0467 74020000 		.4byte	.LVL52
 16726 046b 0100     		.2byte	0x1
 16727 046d 57       		.byte	0x57
 16728 046e 00000000 		.4byte	0
 16729 0472 00000000 		.4byte	0
 16730              	.LLST46:
 16731 0476 9E020000 		.4byte	.LVL56
 16732 047a 00030000 		.4byte	.LVL58
 16733 047e 0100     		.2byte	0x1
 16734 0480 54       		.byte	0x54
 16735 0481 00000000 		.4byte	0
 16736 0485 00000000 		.4byte	0
 16737              	.LLST47:
 16738 0489 8E020000 		.4byte	.LVL54
 16739 048d 00030000 		.4byte	.LVL58
 16740 0491 0600     		.2byte	0x6
 16741 0493 03       		.byte	0x3
 16742 0494 00000000 		.4byte	msg
 16743 0498 9F       		.byte	0x9f
 16744 0499 00000000 		.4byte	0
 16745 049d 00000000 		.4byte	0
 16746              	.LLST48:
 16747 04a1 8E020000 		.4byte	.LVL54
 16748 04a5 00030000 		.4byte	.LVL58
 16749 04a9 0600     		.2byte	0x6
 16750 04ab 03       		.byte	0x3
 16751 04ac 00000000 		.4byte	buff
 16752 04b0 9F       		.byte	0x9f
 16753 04b1 00000000 		.4byte	0
 16754 04b5 00000000 		.4byte	0
 16755              	.LLST49:
 16756 04b9 F6050000 		.4byte	.LVL59
 16757 04bd 5C060000 		.4byte	.LVL64
 16758 04c1 0200     		.2byte	0x2
 16759 04c3 3C       		.byte	0x3c
 16760 04c4 9F       		.byte	0x9f
 16761 04c5 00000000 		.4byte	0
 16762 04c9 00000000 		.4byte	0
 16763              	.LLST50:
 16764 04cd F6050000 		.4byte	.LVL59
 16765 04d1 5C060000 		.4byte	.LVL64
 16766 04d5 0200     		.2byte	0x2
 16767 04d7 30       		.byte	0x30
 16768 04d8 9F       		.byte	0x9f
 16769 04d9 00000000 		.4byte	0
 16770 04dd 00000000 		.4byte	0
 16771              	.LLST53:
 16772 04e1 F6050000 		.4byte	.LVL59
 16773 04e5 5C060000 		.4byte	.LVL64
 16774 04e9 0A00     		.2byte	0xa
 16775 04eb 9E       		.byte	0x9e
 16776 04ec 08       		.uleb128 0x8
 16777 04ed 00000000 		.8byte	0
 16777      00000000 
 16778 04f5 00000000 		.4byte	0
ARM GAS  C:\Users\Mohamad\AppData\Local\Temp\ccDsqi1j.s 			page 296


 16779 04f9 00000000 		.4byte	0
 16780              	.LLST54:
 16781 04fd F6050000 		.4byte	.LVL59
 16782 0501 5C060000 		.4byte	.LVL64
 16783 0505 0600     		.2byte	0x6
 16784 0507 03       		.byte	0x3
 16785 0508 00000000 		.4byte	msg
 16786 050c 9F       		.byte	0x9f
 16787 050d 00000000 		.4byte	0
 16788 0511 00000000 		.4byte	0
 16789              	.LLST55:
 16790 0515 F6050000 		.4byte	.LVL59
 16791 0519 5C060000 		.4byte	.LVL64
 16792 051d 0200     		.2byte	0x2
 16793 051f 31       		.byte	0x31
 16794 0520 9F       		.byte	0x9f
 16795 0521 00000000 		.4byte	0
 16796 0525 00000000 		.4byte	0
 16797              	.LLST57:
 16798 0529 F6050000 		.4byte	.LVL59
 16799 052d 5C060000 		.4byte	.LVL64
 16800 0531 0300     		.2byte	0x3
 16801 0533 08       		.byte	0x8
 16802 0534 43       		.byte	0x43
 16803 0535 9F       		.byte	0x9f
 16804 0536 00000000 		.4byte	0
 16805 053a 00000000 		.4byte	0
 16806              	.LLST58:
 16807 053e F6050000 		.4byte	.LVL59
 16808 0542 5C060000 		.4byte	.LVL64
 16809 0546 0200     		.2byte	0x2
 16810 0548 40       		.byte	0x40
 16811 0549 9F       		.byte	0x9f
 16812 054a 00000000 		.4byte	0
 16813 054e 00000000 		.4byte	0
 16814              	.LLST68:
 16815 0552 14060000 		.4byte	.LVL60
 16816 0556 5C060000 		.4byte	.LVL64
 16817 055a 0300     		.2byte	0x3
 16818 055c 09       		.byte	0x9
 16819 055d FF       		.byte	0xff
 16820 055e 9F       		.byte	0x9f
 16821 055f 00000000 		.4byte	0
 16822 0563 00000000 		.4byte	0
 16823              	.LLST69:
 16824 0567 14060000 		.4byte	.LVL60
 16825 056b 5C060000 		.4byte	.LVL64
 16826 056f 0600     		.2byte	0x6
 16827 0571 03       		.byte	0x3
 16828 0572 08000000 		.4byte	msg+8
 16829 0576 9F       		.byte	0x9f
 16830 0577 00000000 		.4byte	0
 16831 057b 00000000 		.4byte	0
 16832              	.LLST72:
 16833 057f 14060000 		.4byte	.LVL60
 16834 0583 5C060000 		.4byte	.LVL64
 16835 0587 0600     		.2byte	0x6
ARM GAS  C:\Users\Mohamad\AppData\Local\Temp\ccDsqi1j.s 			page 297


 16836 0589 03       		.byte	0x3
 16837 058a 00000000 		.4byte	msg
 16838 058e 9F       		.byte	0x9f
 16839 058f 00000000 		.4byte	0
 16840 0593 00000000 		.4byte	0
 16841              	.LLST73:
 16842 0597 14060000 		.4byte	.LVL60
 16843 059b 5C060000 		.4byte	.LVL64
 16844 059f 0600     		.2byte	0x6
 16845 05a1 03       		.byte	0x3
 16846 05a2 18000000 		.4byte	msg+24
 16847 05a6 9F       		.byte	0x9f
 16848 05a7 00000000 		.4byte	0
 16849 05ab 00000000 		.4byte	0
 16850              	.LLST74:
 16851 05af 14060000 		.4byte	.LVL60
 16852 05b3 23060000 		.4byte	.LVL62-1
 16853 05b7 0500     		.2byte	0x5
 16854 05b9 03       		.byte	0x3
 16855 05ba 17000000 		.4byte	msg+23
 16856 05be 00000000 		.4byte	0
 16857 05c2 00000000 		.4byte	0
 16858              	.LLST76:
 16859 05c6 24060000 		.4byte	.LVL62
 16860 05ca 5C060000 		.4byte	.LVL64
 16861 05ce 0600     		.2byte	0x6
 16862 05d0 03       		.byte	0x3
 16863 05d1 16000000 		.4byte	.LANCHOR10+22
 16864 05d5 9F       		.byte	0x9f
 16865 05d6 00000000 		.4byte	0
 16866 05da 00000000 		.4byte	0
 16867              	.LLST77:
 16868 05de 20060000 		.4byte	.LVL61
 16869 05e2 5C060000 		.4byte	.LVL64
 16870 05e6 0600     		.2byte	0x6
 16871 05e8 03       		.byte	0x3
 16872 05e9 00000000 		.4byte	msg
 16873 05ed 9F       		.byte	0x9f
 16874 05ee 00000000 		.4byte	0
 16875 05f2 00000000 		.4byte	0
 16876              	.LLST78:
 16877 05f6 20060000 		.4byte	.LVL61
 16878 05fa 5C060000 		.4byte	.LVL64
 16879 05fe 0600     		.2byte	0x6
 16880 0600 03       		.byte	0x3
 16881 0601 00000000 		.4byte	buff
 16882 0605 9F       		.byte	0x9f
 16883 0606 00000000 		.4byte	0
 16884 060a 00000000 		.4byte	0
 16885              	.LLST79:
 16886 060e 6A070000 		.4byte	.LVL77
 16887 0612 70070000 		.4byte	.LVL78
 16888 0616 0100     		.2byte	0x1
 16889 0618 55       		.byte	0x55
 16890 0619 70070000 		.4byte	.LVL78
 16891 061d 5D080000 		.4byte	.LVL99-1
 16892 0621 0300     		.2byte	0x3
ARM GAS  C:\Users\Mohamad\AppData\Local\Temp\ccDsqi1j.s 			page 298


 16893 0623 91       		.byte	0x91
 16894 0624 947F     		.sleb128 -108
 16895 0626 00000000 		.4byte	0
 16896 062a 00000000 		.4byte	0
 16897              	.LLST80:
 16898 062e 6A070000 		.4byte	.LVL77
 16899 0632 B8080000 		.4byte	.LVL102
 16900 0636 0300     		.2byte	0x3
 16901 0638 91       		.byte	0x91
 16902 0639 CC7D     		.sleb128 -308
 16903 063b 00000000 		.4byte	0
 16904 063f 00000000 		.4byte	0
 16905              	.LLST81:
 16906 0643 6A070000 		.4byte	.LVL77
 16907 0647 B8080000 		.4byte	.LVL102
 16908 064b 0300     		.2byte	0x3
 16909 064d 91       		.byte	0x91
 16910 064e C87D     		.sleb128 -312
 16911 0650 00000000 		.4byte	0
 16912 0654 00000000 		.4byte	0
 16913              	.LLST82:
 16914 0658 6A070000 		.4byte	.LVL77
 16915 065c 5D080000 		.4byte	.LVL99-1
 16916 0660 0300     		.2byte	0x3
 16917 0662 91       		.byte	0x91
 16918 0663 B47D     		.sleb128 -332
 16919 0665 00000000 		.4byte	0
 16920 0669 00000000 		.4byte	0
 16921              	.LLST83:
 16922 066d 6A070000 		.4byte	.LVL77
 16923 0671 5D080000 		.4byte	.LVL99-1
 16924 0675 0300     		.2byte	0x3
 16925 0677 91       		.byte	0x91
 16926 0678 847F     		.sleb128 -124
 16927 067a 00000000 		.4byte	0
 16928 067e 00000000 		.4byte	0
 16929              	.LLST84:
 16930 0682 6A070000 		.4byte	.LVL77
 16931 0686 5D080000 		.4byte	.LVL99-1
 16932 068a 0300     		.2byte	0x3
 16933 068c 91       		.byte	0x91
 16934 068d 807F     		.sleb128 -128
 16935 068f 00000000 		.4byte	0
 16936 0693 00000000 		.4byte	0
 16937              	.LLST85:
 16938 0697 6A070000 		.4byte	.LVL77
 16939 069b 7E070000 		.4byte	.LVL79
 16940 069f 0100     		.2byte	0x1
 16941 06a1 50       		.byte	0x50
 16942 06a2 7E070000 		.4byte	.LVL79
 16943 06a6 5D080000 		.4byte	.LVL99-1
 16944 06aa 0500     		.2byte	0x5
 16945 06ac 03       		.byte	0x3
 16946 06ad 08000000 		.4byte	.LANCHOR2+8
 16947 06b1 00000000 		.4byte	0
 16948 06b5 00000000 		.4byte	0
 16949              	.LLST86:
ARM GAS  C:\Users\Mohamad\AppData\Local\Temp\ccDsqi1j.s 			page 299


 16950 06b9 6A070000 		.4byte	.LVL77
 16951 06bd B8080000 		.4byte	.LVL102
 16952 06c1 0600     		.2byte	0x6
 16953 06c3 03       		.byte	0x3
 16954 06c4 00000000 		.4byte	msg
 16955 06c8 9F       		.byte	0x9f
 16956 06c9 00000000 		.4byte	0
 16957 06cd 00000000 		.4byte	0
 16958              	.LLST87:
 16959 06d1 6A070000 		.4byte	.LVL77
 16960 06d5 B8080000 		.4byte	.LVL102
 16961 06d9 0200     		.2byte	0x2
 16962 06db 31       		.byte	0x31
 16963 06dc 9F       		.byte	0x9f
 16964 06dd 00000000 		.4byte	0
 16965 06e1 00000000 		.4byte	0
 16966              	.LLST89:
 16967 06e5 CC070000 		.4byte	.LVL80
 16968 06e9 B8080000 		.4byte	.LVL102
 16969 06ed 0300     		.2byte	0x3
 16970 06ef 08       		.byte	0x8
 16971 06f0 27       		.byte	0x27
 16972 06f1 9F       		.byte	0x9f
 16973 06f2 00000000 		.4byte	0
 16974 06f6 00000000 		.4byte	0
 16975              	.LLST90:
 16976 06fa CC070000 		.4byte	.LVL80
 16977 06fe B8080000 		.4byte	.LVL102
 16978 0702 0200     		.2byte	0x2
 16979 0704 4C       		.byte	0x4c
 16980 0705 9F       		.byte	0x9f
 16981 0706 00000000 		.4byte	0
 16982 070a 00000000 		.4byte	0
 16983              	.LLST91:
 16984 070e CC070000 		.4byte	.LVL80
 16985 0712 B8080000 		.4byte	.LVL102
 16986 0716 0200     		.2byte	0x2
 16987 0718 31       		.byte	0x31
 16988 0719 9F       		.byte	0x9f
 16989 071a 00000000 		.4byte	0
 16990 071e 00000000 		.4byte	0
 16991              	.LLST93:
 16992 0722 CC070000 		.4byte	.LVL80
 16993 0726 B8080000 		.4byte	.LVL102
 16994 072a 0600     		.2byte	0x6
 16995 072c 03       		.byte	0x3
 16996 072d 00000000 		.4byte	msg
 16997 0731 9F       		.byte	0x9f
 16998 0732 00000000 		.4byte	0
 16999 0736 00000000 		.4byte	0
 17000              	.LLST96:
 17001 073a CC070000 		.4byte	.LVL80
 17002 073e B8080000 		.4byte	.LVL102
 17003 0742 0200     		.2byte	0x2
 17004 0744 30       		.byte	0x30
 17005 0745 9F       		.byte	0x9f
 17006 0746 00000000 		.4byte	0
ARM GAS  C:\Users\Mohamad\AppData\Local\Temp\ccDsqi1j.s 			page 300


 17007 074a 00000000 		.4byte	0
 17008              	.LLST100:
 17009 074e D2070000 		.4byte	.LVL82
 17010 0752 B8080000 		.4byte	.LVL102
 17011 0756 0300     		.2byte	0x3
 17012 0758 09       		.byte	0x9
 17013 0759 FF       		.byte	0xff
 17014 075a 9F       		.byte	0x9f
 17015 075b 00000000 		.4byte	0
 17016 075f 00000000 		.4byte	0
 17017              	.LLST101:
 17018 0763 D2070000 		.4byte	.LVL82
 17019 0767 B8080000 		.4byte	.LVL102
 17020 076b 0600     		.2byte	0x6
 17021 076d 03       		.byte	0x3
 17022 076e 08000000 		.4byte	msg+8
 17023 0772 9F       		.byte	0x9f
 17024 0773 00000000 		.4byte	0
 17025 0777 00000000 		.4byte	0
 17026              	.LLST102:
 17027 077b D2070000 		.4byte	.LVL82
 17028 077f D8070000 		.4byte	.LVL84
 17029 0783 0100     		.2byte	0x1
 17030 0785 53       		.byte	0x53
 17031 0786 D8070000 		.4byte	.LVL84
 17032 078a 5D080000 		.4byte	.LVL99-1
 17033 078e 3800     		.2byte	0x38
 17034 0790 7C       		.byte	0x7c
 17035 0791 00       		.sleb128 0
 17036 0792 4E       		.byte	0x4e
 17037 0793 27       		.byte	0x27
 17038 0794 34       		.byte	0x34
 17039 0795 24       		.byte	0x24
 17040 0796 7C       		.byte	0x7c
 17041 0797 00       		.sleb128 0
 17042 0798 27       		.byte	0x27
 17043 0799 4E       		.byte	0x4e
 17044 079a 27       		.byte	0x27
 17045 079b 08       		.byte	0x8
 17046 079c FF       		.byte	0xff
 17047 079d 1A       		.byte	0x1a
 17048 079e 34       		.byte	0x34
 17049 079f 25       		.byte	0x25
 17050 07a0 7C       		.byte	0x7c
 17051 07a1 00       		.sleb128 0
 17052 07a2 38       		.byte	0x38
 17053 07a3 25       		.byte	0x25
 17054 07a4 27       		.byte	0x27
 17055 07a5 7C       		.byte	0x7c
 17056 07a6 00       		.sleb128 0
 17057 07a7 4E       		.byte	0x4e
 17058 07a8 27       		.byte	0x27
 17059 07a9 34       		.byte	0x34
 17060 07aa 24       		.byte	0x24
 17061 07ab 7C       		.byte	0x7c
 17062 07ac 00       		.sleb128 0
 17063 07ad 27       		.byte	0x27
ARM GAS  C:\Users\Mohamad\AppData\Local\Temp\ccDsqi1j.s 			page 301


 17064 07ae 4E       		.byte	0x4e
 17065 07af 27       		.byte	0x27
 17066 07b0 08       		.byte	0x8
 17067 07b1 FF       		.byte	0xff
 17068 07b2 1A       		.byte	0x1a
 17069 07b3 38       		.byte	0x38
 17070 07b4 24       		.byte	0x24
 17071 07b5 21       		.byte	0x21
 17072 07b6 7C       		.byte	0x7c
 17073 07b7 00       		.sleb128 0
 17074 07b8 4E       		.byte	0x4e
 17075 07b9 27       		.byte	0x27
 17076 07ba 34       		.byte	0x34
 17077 07bb 24       		.byte	0x24
 17078 07bc 7C       		.byte	0x7c
 17079 07bd 00       		.sleb128 0
 17080 07be 27       		.byte	0x27
 17081 07bf 4E       		.byte	0x4e
 17082 07c0 27       		.byte	0x27
 17083 07c1 08       		.byte	0x8
 17084 07c2 FF       		.byte	0xff
 17085 07c3 1A       		.byte	0x1a
 17086 07c4 33       		.byte	0x33
 17087 07c5 24       		.byte	0x24
 17088 07c6 27       		.byte	0x27
 17089 07c7 9F       		.byte	0x9f
 17090 07c8 5D080000 		.4byte	.LVL99-1
 17091 07cc B8080000 		.4byte	.LVL102
 17092 07d0 6C01     		.2byte	0x16c
 17093 07d2 91       		.byte	0x91
 17094 07d3 D07D     		.sleb128 -304
 17095 07d5 06       		.byte	0x6
 17096 07d6 31       		.byte	0x31
 17097 07d7 27       		.byte	0x27
 17098 07d8 34       		.byte	0x34
 17099 07d9 24       		.byte	0x24
 17100 07da 31       		.byte	0x31
 17101 07db 21       		.byte	0x21
 17102 07dc 91       		.byte	0x91
 17103 07dd D07D     		.sleb128 -304
 17104 07df 06       		.byte	0x6
 17105 07e0 27       		.byte	0x27
 17106 07e1 08       		.byte	0x8
 17107 07e2 FF       		.byte	0xff
 17108 07e3 1A       		.byte	0x1a
 17109 07e4 38       		.byte	0x38
 17110 07e5 24       		.byte	0x24
 17111 07e6 91       		.byte	0x91
 17112 07e7 C87D     		.sleb128 -312
 17113 07e9 06       		.byte	0x6
 17114 07ea 21       		.byte	0x21
 17115 07eb 91       		.byte	0x91
 17116 07ec D07D     		.sleb128 -304
 17117 07ee 06       		.byte	0x6
 17118 07ef 31       		.byte	0x31
 17119 07f0 27       		.byte	0x27
 17120 07f1 34       		.byte	0x34
ARM GAS  C:\Users\Mohamad\AppData\Local\Temp\ccDsqi1j.s 			page 302


 17121 07f2 24       		.byte	0x24
 17122 07f3 31       		.byte	0x31
 17123 07f4 21       		.byte	0x21
 17124 07f5 91       		.byte	0x91
 17125 07f6 D07D     		.sleb128 -304
 17126 07f8 06       		.byte	0x6
 17127 07f9 27       		.byte	0x27
 17128 07fa 08       		.byte	0x8
 17129 07fb FF       		.byte	0xff
 17130 07fc 1A       		.byte	0x1a
 17131 07fd 33       		.byte	0x33
 17132 07fe 24       		.byte	0x24
 17133 07ff 27       		.byte	0x27
 17134 0800 91       		.byte	0x91
 17135 0801 D07D     		.sleb128 -304
 17136 0803 06       		.byte	0x6
 17137 0804 31       		.byte	0x31
 17138 0805 27       		.byte	0x27
 17139 0806 34       		.byte	0x34
 17140 0807 24       		.byte	0x24
 17141 0808 31       		.byte	0x31
 17142 0809 21       		.byte	0x21
 17143 080a 91       		.byte	0x91
 17144 080b D07D     		.sleb128 -304
 17145 080d 06       		.byte	0x6
 17146 080e 27       		.byte	0x27
 17147 080f 08       		.byte	0x8
 17148 0810 FF       		.byte	0xff
 17149 0811 1A       		.byte	0x1a
 17150 0812 38       		.byte	0x38
 17151 0813 24       		.byte	0x24
 17152 0814 91       		.byte	0x91
 17153 0815 C87D     		.sleb128 -312
 17154 0817 06       		.byte	0x6
 17155 0818 21       		.byte	0x21
 17156 0819 91       		.byte	0x91
 17157 081a D07D     		.sleb128 -304
 17158 081c 06       		.byte	0x6
 17159 081d 31       		.byte	0x31
 17160 081e 27       		.byte	0x27
 17161 081f 34       		.byte	0x34
 17162 0820 24       		.byte	0x24
 17163 0821 31       		.byte	0x31
 17164 0822 21       		.byte	0x21
 17165 0823 91       		.byte	0x91
 17166 0824 D07D     		.sleb128 -304
 17167 0826 06       		.byte	0x6
 17168 0827 27       		.byte	0x27
 17169 0828 08       		.byte	0x8
 17170 0829 FF       		.byte	0xff
 17171 082a 1A       		.byte	0x1a
 17172 082b 33       		.byte	0x33
 17173 082c 24       		.byte	0x24
 17174 082d 27       		.byte	0x27
 17175 082e 4E       		.byte	0x4e
 17176 082f 27       		.byte	0x27
 17177 0830 34       		.byte	0x34
ARM GAS  C:\Users\Mohamad\AppData\Local\Temp\ccDsqi1j.s 			page 303


 17178 0831 24       		.byte	0x24
 17179 0832 27       		.byte	0x27
 17180 0833 4E       		.byte	0x4e
 17181 0834 27       		.byte	0x27
 17182 0835 08       		.byte	0x8
 17183 0836 FF       		.byte	0xff
 17184 0837 1A       		.byte	0x1a
 17185 0838 34       		.byte	0x34
 17186 0839 25       		.byte	0x25
 17187 083a 91       		.byte	0x91
 17188 083b D07D     		.sleb128 -304
 17189 083d 06       		.byte	0x6
 17190 083e 31       		.byte	0x31
 17191 083f 27       		.byte	0x27
 17192 0840 34       		.byte	0x34
 17193 0841 24       		.byte	0x24
 17194 0842 31       		.byte	0x31
 17195 0843 21       		.byte	0x21
 17196 0844 91       		.byte	0x91
 17197 0845 D07D     		.sleb128 -304
 17198 0847 06       		.byte	0x6
 17199 0848 27       		.byte	0x27
 17200 0849 08       		.byte	0x8
 17201 084a FF       		.byte	0xff
 17202 084b 1A       		.byte	0x1a
 17203 084c 38       		.byte	0x38
 17204 084d 24       		.byte	0x24
 17205 084e 91       		.byte	0x91
 17206 084f C87D     		.sleb128 -312
 17207 0851 06       		.byte	0x6
 17208 0852 21       		.byte	0x21
 17209 0853 91       		.byte	0x91
 17210 0854 D07D     		.sleb128 -304
 17211 0856 06       		.byte	0x6
 17212 0857 31       		.byte	0x31
 17213 0858 27       		.byte	0x27
 17214 0859 34       		.byte	0x34
 17215 085a 24       		.byte	0x24
 17216 085b 31       		.byte	0x31
 17217 085c 21       		.byte	0x21
 17218 085d 91       		.byte	0x91
 17219 085e D07D     		.sleb128 -304
 17220 0860 06       		.byte	0x6
 17221 0861 27       		.byte	0x27
 17222 0862 08       		.byte	0x8
 17223 0863 FF       		.byte	0xff
 17224 0864 1A       		.byte	0x1a
 17225 0865 33       		.byte	0x33
 17226 0866 24       		.byte	0x24
 17227 0867 27       		.byte	0x27
 17228 0868 38       		.byte	0x38
 17229 0869 25       		.byte	0x25
 17230 086a 27       		.byte	0x27
 17231 086b 91       		.byte	0x91
 17232 086c D07D     		.sleb128 -304
 17233 086e 06       		.byte	0x6
 17234 086f 31       		.byte	0x31
ARM GAS  C:\Users\Mohamad\AppData\Local\Temp\ccDsqi1j.s 			page 304


 17235 0870 27       		.byte	0x27
 17236 0871 34       		.byte	0x34
 17237 0872 24       		.byte	0x24
 17238 0873 31       		.byte	0x31
 17239 0874 21       		.byte	0x21
 17240 0875 91       		.byte	0x91
 17241 0876 D07D     		.sleb128 -304
 17242 0878 06       		.byte	0x6
 17243 0879 27       		.byte	0x27
 17244 087a 08       		.byte	0x8
 17245 087b FF       		.byte	0xff
 17246 087c 1A       		.byte	0x1a
 17247 087d 38       		.byte	0x38
 17248 087e 24       		.byte	0x24
 17249 087f 91       		.byte	0x91
 17250 0880 C87D     		.sleb128 -312
 17251 0882 06       		.byte	0x6
 17252 0883 21       		.byte	0x21
 17253 0884 91       		.byte	0x91
 17254 0885 D07D     		.sleb128 -304
 17255 0887 06       		.byte	0x6
 17256 0888 31       		.byte	0x31
 17257 0889 27       		.byte	0x27
 17258 088a 34       		.byte	0x34
 17259 088b 24       		.byte	0x24
 17260 088c 31       		.byte	0x31
 17261 088d 21       		.byte	0x21
 17262 088e 91       		.byte	0x91
 17263 088f D07D     		.sleb128 -304
 17264 0891 06       		.byte	0x6
 17265 0892 27       		.byte	0x27
 17266 0893 08       		.byte	0x8
 17267 0894 FF       		.byte	0xff
 17268 0895 1A       		.byte	0x1a
 17269 0896 33       		.byte	0x33
 17270 0897 24       		.byte	0x24
 17271 0898 27       		.byte	0x27
 17272 0899 91       		.byte	0x91
 17273 089a D07D     		.sleb128 -304
 17274 089c 06       		.byte	0x6
 17275 089d 31       		.byte	0x31
 17276 089e 27       		.byte	0x27
 17277 089f 34       		.byte	0x34
 17278 08a0 24       		.byte	0x24
 17279 08a1 31       		.byte	0x31
 17280 08a2 21       		.byte	0x21
 17281 08a3 91       		.byte	0x91
 17282 08a4 D07D     		.sleb128 -304
 17283 08a6 06       		.byte	0x6
 17284 08a7 27       		.byte	0x27
 17285 08a8 08       		.byte	0x8
 17286 08a9 FF       		.byte	0xff
 17287 08aa 1A       		.byte	0x1a
 17288 08ab 38       		.byte	0x38
 17289 08ac 24       		.byte	0x24
 17290 08ad 91       		.byte	0x91
 17291 08ae C87D     		.sleb128 -312
ARM GAS  C:\Users\Mohamad\AppData\Local\Temp\ccDsqi1j.s 			page 305


 17292 08b0 06       		.byte	0x6
 17293 08b1 21       		.byte	0x21
 17294 08b2 91       		.byte	0x91
 17295 08b3 D07D     		.sleb128 -304
 17296 08b5 06       		.byte	0x6
 17297 08b6 31       		.byte	0x31
 17298 08b7 27       		.byte	0x27
 17299 08b8 34       		.byte	0x34
 17300 08b9 24       		.byte	0x24
 17301 08ba 31       		.byte	0x31
 17302 08bb 21       		.byte	0x21
 17303 08bc 91       		.byte	0x91
 17304 08bd D07D     		.sleb128 -304
 17305 08bf 06       		.byte	0x6
 17306 08c0 27       		.byte	0x27
 17307 08c1 08       		.byte	0x8
 17308 08c2 FF       		.byte	0xff
 17309 08c3 1A       		.byte	0x1a
 17310 08c4 33       		.byte	0x33
 17311 08c5 24       		.byte	0x24
 17312 08c6 27       		.byte	0x27
 17313 08c7 4E       		.byte	0x4e
 17314 08c8 27       		.byte	0x27
 17315 08c9 34       		.byte	0x34
 17316 08ca 24       		.byte	0x24
 17317 08cb 27       		.byte	0x27
 17318 08cc 4E       		.byte	0x4e
 17319 08cd 27       		.byte	0x27
 17320 08ce 08       		.byte	0x8
 17321 08cf FF       		.byte	0xff
 17322 08d0 1A       		.byte	0x1a
 17323 08d1 38       		.byte	0x38
 17324 08d2 24       		.byte	0x24
 17325 08d3 21       		.byte	0x21
 17326 08d4 91       		.byte	0x91
 17327 08d5 D07D     		.sleb128 -304
 17328 08d7 06       		.byte	0x6
 17329 08d8 31       		.byte	0x31
 17330 08d9 27       		.byte	0x27
 17331 08da 34       		.byte	0x34
 17332 08db 24       		.byte	0x24
 17333 08dc 31       		.byte	0x31
 17334 08dd 21       		.byte	0x21
 17335 08de 91       		.byte	0x91
 17336 08df D07D     		.sleb128 -304
 17337 08e1 06       		.byte	0x6
 17338 08e2 27       		.byte	0x27
 17339 08e3 08       		.byte	0x8
 17340 08e4 FF       		.byte	0xff
 17341 08e5 1A       		.byte	0x1a
 17342 08e6 38       		.byte	0x38
 17343 08e7 24       		.byte	0x24
 17344 08e8 91       		.byte	0x91
 17345 08e9 C87D     		.sleb128 -312
 17346 08eb 06       		.byte	0x6
 17347 08ec 21       		.byte	0x21
 17348 08ed 91       		.byte	0x91
ARM GAS  C:\Users\Mohamad\AppData\Local\Temp\ccDsqi1j.s 			page 306


 17349 08ee D07D     		.sleb128 -304
 17350 08f0 06       		.byte	0x6
 17351 08f1 31       		.byte	0x31
 17352 08f2 27       		.byte	0x27
 17353 08f3 34       		.byte	0x34
 17354 08f4 24       		.byte	0x24
 17355 08f5 31       		.byte	0x31
 17356 08f6 21       		.byte	0x21
 17357 08f7 91       		.byte	0x91
 17358 08f8 D07D     		.sleb128 -304
 17359 08fa 06       		.byte	0x6
 17360 08fb 27       		.byte	0x27
 17361 08fc 08       		.byte	0x8
 17362 08fd FF       		.byte	0xff
 17363 08fe 1A       		.byte	0x1a
 17364 08ff 33       		.byte	0x33
 17365 0900 24       		.byte	0x24
 17366 0901 27       		.byte	0x27
 17367 0902 91       		.byte	0x91
 17368 0903 D07D     		.sleb128 -304
 17369 0905 06       		.byte	0x6
 17370 0906 31       		.byte	0x31
 17371 0907 27       		.byte	0x27
 17372 0908 34       		.byte	0x34
 17373 0909 24       		.byte	0x24
 17374 090a 31       		.byte	0x31
 17375 090b 21       		.byte	0x21
 17376 090c 91       		.byte	0x91
 17377 090d D07D     		.sleb128 -304
 17378 090f 06       		.byte	0x6
 17379 0910 27       		.byte	0x27
 17380 0911 08       		.byte	0x8
 17381 0912 FF       		.byte	0xff
 17382 0913 1A       		.byte	0x1a
 17383 0914 38       		.byte	0x38
 17384 0915 24       		.byte	0x24
 17385 0916 91       		.byte	0x91
 17386 0917 C87D     		.sleb128 -312
 17387 0919 06       		.byte	0x6
 17388 091a 21       		.byte	0x21
 17389 091b 91       		.byte	0x91
 17390 091c D07D     		.sleb128 -304
 17391 091e 06       		.byte	0x6
 17392 091f 31       		.byte	0x31
 17393 0920 27       		.byte	0x27
 17394 0921 34       		.byte	0x34
 17395 0922 24       		.byte	0x24
 17396 0923 31       		.byte	0x31
 17397 0924 21       		.byte	0x21
 17398 0925 91       		.byte	0x91
 17399 0926 D07D     		.sleb128 -304
 17400 0928 06       		.byte	0x6
 17401 0929 27       		.byte	0x27
 17402 092a 08       		.byte	0x8
 17403 092b FF       		.byte	0xff
 17404 092c 1A       		.byte	0x1a
 17405 092d 33       		.byte	0x33
ARM GAS  C:\Users\Mohamad\AppData\Local\Temp\ccDsqi1j.s 			page 307


 17406 092e 24       		.byte	0x24
 17407 092f 27       		.byte	0x27
 17408 0930 4E       		.byte	0x4e
 17409 0931 27       		.byte	0x27
 17410 0932 34       		.byte	0x34
 17411 0933 24       		.byte	0x24
 17412 0934 27       		.byte	0x27
 17413 0935 4E       		.byte	0x4e
 17414 0936 27       		.byte	0x27
 17415 0937 08       		.byte	0x8
 17416 0938 FF       		.byte	0xff
 17417 0939 1A       		.byte	0x1a
 17418 093a 33       		.byte	0x33
 17419 093b 24       		.byte	0x24
 17420 093c 27       		.byte	0x27
 17421 093d 9F       		.byte	0x9f
 17422 093e 00000000 		.4byte	0
 17423 0942 00000000 		.4byte	0
 17424              	.LLST103:
 17425 0946 D6070000 		.4byte	.LVL83
 17426 094a D8070000 		.4byte	.LVL84
 17427 094e 0200     		.2byte	0x2
 17428 0950 4B       		.byte	0x4b
 17429 0951 9F       		.byte	0x9f
 17430 0952 00000000 		.4byte	0
 17431 0956 00000000 		.4byte	0
 17432              	.LLST104:
 17433 095a D6070000 		.4byte	.LVL83
 17434 095e B8080000 		.4byte	.LVL102
 17435 0962 0600     		.2byte	0x6
 17436 0964 03       		.byte	0x3
 17437 0965 08000000 		.4byte	msg+8
 17438 0969 9F       		.byte	0x9f
 17439 096a 00000000 		.4byte	0
 17440 096e 00000000 		.4byte	0
 17441              	.LLST105:
 17442 0972 D6070000 		.4byte	.LVL83
 17443 0976 B8080000 		.4byte	.LVL102
 17444 097a 0600     		.2byte	0x6
 17445 097c 03       		.byte	0x3
 17446 097d 00000000 		.4byte	msg
 17447 0981 9F       		.byte	0x9f
 17448 0982 00000000 		.4byte	0
 17449 0986 00000000 		.4byte	0
 17450              	.LLST106:
 17451 098a D6070000 		.4byte	.LVL83
 17452 098e D8070000 		.4byte	.LVL84
 17453 0992 0600     		.2byte	0x6
 17454 0994 03       		.byte	0x3
 17455 0995 08000000 		.4byte	msg+8
 17456 0999 9F       		.byte	0x9f
 17457 099a E0070000 		.4byte	.LVL85
 17458 099e FC070000 		.4byte	.LVL88
 17459 09a2 0100     		.2byte	0x1
 17460 09a4 55       		.byte	0x55
 17461 09a5 FC070000 		.4byte	.LVL88
 17462 09a9 14080000 		.4byte	.LVL90
ARM GAS  C:\Users\Mohamad\AppData\Local\Temp\ccDsqi1j.s 			page 308


 17463 09ad 0300     		.2byte	0x3
 17464 09af 72       		.byte	0x72
 17465 09b0 7F       		.sleb128 -1
 17466 09b1 9F       		.byte	0x9f
 17467 09b2 14080000 		.4byte	.LVL90
 17468 09b6 30080000 		.4byte	.LVL95
 17469 09ba 0100     		.2byte	0x1
 17470 09bc 55       		.byte	0x55
 17471 09bd 00000000 		.4byte	0
 17472 09c1 00000000 		.4byte	0
 17473              	.LLST107:
 17474 09c5 E0070000 		.4byte	.LVL85
 17475 09c9 FC070000 		.4byte	.LVL88
 17476 09cd 0200     		.2byte	0x2
 17477 09cf 75       		.byte	0x75
 17478 09d0 00       		.sleb128 0
 17479 09d1 FC070000 		.4byte	.LVL88
 17480 09d5 18080000 		.4byte	.LVL91
 17481 09d9 0200     		.2byte	0x2
 17482 09db 72       		.byte	0x72
 17483 09dc 7F       		.sleb128 -1
 17484 09dd 18080000 		.4byte	.LVL91
 17485 09e1 30080000 		.4byte	.LVL95
 17486 09e5 0200     		.2byte	0x2
 17487 09e7 75       		.byte	0x75
 17488 09e8 7E       		.sleb128 -2
 17489 09e9 00000000 		.4byte	0
 17490 09ed 00000000 		.4byte	0
 17491              	.LLST108:
 17492 09f1 E4070000 		.4byte	.LVL86
 17493 09f5 EA070000 		.4byte	.LVL87
 17494 09f9 0100     		.2byte	0x1
 17495 09fb 53       		.byte	0x53
 17496 09fc EA070000 		.4byte	.LVL87
 17497 0a00 02080000 		.4byte	.LVL89
 17498 0a04 0100     		.2byte	0x1
 17499 0a06 51       		.byte	0x51
 17500 0a07 00000000 		.4byte	0
 17501 0a0b 00000000 		.4byte	0
 17502              	.LLST109:
 17503 0a0f 20080000 		.4byte	.LVL92
 17504 0a13 B8080000 		.4byte	.LVL102
 17505 0a17 0600     		.2byte	0x6
 17506 0a19 03       		.byte	0x3
 17507 0a1a 00000000 		.4byte	msg
 17508 0a1e 9F       		.byte	0x9f
 17509 0a1f 00000000 		.4byte	0
 17510 0a23 00000000 		.4byte	0
 17511              	.LLST110:
 17512 0a27 24080000 		.4byte	.LVL93
 17513 0a2b 2A080000 		.4byte	.LVL94
 17514 0a2f 0100     		.2byte	0x1
 17515 0a31 51       		.byte	0x51
 17516 0a32 2A080000 		.4byte	.LVL94
 17517 0a36 3C080000 		.4byte	.LVL96
 17518 0a3a 0100     		.2byte	0x1
 17519 0a3c 50       		.byte	0x50
ARM GAS  C:\Users\Mohamad\AppData\Local\Temp\ccDsqi1j.s 			page 309


 17520 0a3d 3C080000 		.4byte	.LVL96
 17521 0a41 3E080000 		.4byte	.LVL97
 17522 0a45 0100     		.2byte	0x1
 17523 0a47 57       		.byte	0x57
 17524 0a48 00000000 		.4byte	0
 17525 0a4c 00000000 		.4byte	0
 17526              	.LLST111:
 17527 0a50 6A080000 		.4byte	.LVL100
 17528 0a54 B8080000 		.4byte	.LVL102
 17529 0a58 0100     		.2byte	0x1
 17530 0a5a 54       		.byte	0x54
 17531 0a5b 00000000 		.4byte	0
 17532 0a5f 00000000 		.4byte	0
 17533              	.LLST112:
 17534 0a63 56080000 		.4byte	.LVL98
 17535 0a67 B8080000 		.4byte	.LVL102
 17536 0a6b 0600     		.2byte	0x6
 17537 0a6d 03       		.byte	0x3
 17538 0a6e 00000000 		.4byte	msg
 17539 0a72 9F       		.byte	0x9f
 17540 0a73 00000000 		.4byte	0
 17541 0a77 00000000 		.4byte	0
 17542              	.LLST113:
 17543 0a7b 56080000 		.4byte	.LVL98
 17544 0a7f B8080000 		.4byte	.LVL102
 17545 0a83 0600     		.2byte	0x6
 17546 0a85 03       		.byte	0x3
 17547 0a86 00000000 		.4byte	buff
 17548 0a8a 9F       		.byte	0x9f
 17549 0a8b 00000000 		.4byte	0
 17550 0a8f 00000000 		.4byte	0
 17551              	.LLST114:
 17552 0a93 7E090000 		.4byte	.LVL109
 17553 0a97 84090000 		.4byte	.LVL110
 17554 0a9b 0100     		.2byte	0x1
 17555 0a9d 54       		.byte	0x54
 17556 0a9e 84090000 		.4byte	.LVL110
 17557 0aa2 7D0A0000 		.4byte	.LVL131-1
 17558 0aa6 0200     		.2byte	0x2
 17559 0aa8 91       		.byte	0x91
 17560 0aa9 50       		.sleb128 -48
 17561 0aaa 00000000 		.4byte	0
 17562 0aae 00000000 		.4byte	0
 17563              	.LLST115:
 17564 0ab2 7E090000 		.4byte	.LVL109
 17565 0ab6 9A090000 		.4byte	.LVL111
 17566 0aba 0100     		.2byte	0x1
 17567 0abc 5C       		.byte	0x5c
 17568 0abd 9A090000 		.4byte	.LVL111
 17569 0ac1 C40A0000 		.4byte	.LFE1536
 17570 0ac5 0300     		.2byte	0x3
 17571 0ac7 91       		.byte	0x91
 17572 0ac8 C87D     		.sleb128 -312
 17573 0aca 00000000 		.4byte	0
 17574 0ace 00000000 		.4byte	0
 17575              	.LLST116:
 17576 0ad2 7E090000 		.4byte	.LVL109
ARM GAS  C:\Users\Mohamad\AppData\Local\Temp\ccDsqi1j.s 			page 310


 17577 0ad6 7D0A0000 		.4byte	.LVL131-1
 17578 0ada 0200     		.2byte	0x2
 17579 0adc 91       		.byte	0x91
 17580 0add 44       		.sleb128 -60
 17581 0ade 00000000 		.4byte	0
 17582 0ae2 00000000 		.4byte	0
 17583              	.LLST117:
 17584 0ae6 7E090000 		.4byte	.LVL109
 17585 0aea 7D0A0000 		.4byte	.LVL131-1
 17586 0aee 0300     		.2byte	0x3
 17587 0af0 91       		.byte	0x91
 17588 0af1 B47D     		.sleb128 -332
 17589 0af3 00000000 		.4byte	0
 17590 0af7 00000000 		.4byte	0
 17591              	.LLST118:
 17592 0afb 7E090000 		.4byte	.LVL109
 17593 0aff 7D0A0000 		.4byte	.LVL131-1
 17594 0b03 0300     		.2byte	0x3
 17595 0b05 91       		.byte	0x91
 17596 0b06 B87D     		.sleb128 -328
 17597 0b08 00000000 		.4byte	0
 17598 0b0c 00000000 		.4byte	0
 17599              	.LLST119:
 17600 0b10 E8090000 		.4byte	.LVL115
 17601 0b14 EE090000 		.4byte	.LVL116
 17602 0b18 0100     		.2byte	0x1
 17603 0b1a 55       		.byte	0x55
 17604 0b1b 00000000 		.4byte	0
 17605 0b1f 00000000 		.4byte	0
 17606              	.LLST120:
 17607 0b23 F6090000 		.4byte	.LVL117
 17608 0b27 120A0000 		.4byte	.LVL120
 17609 0b2b 0100     		.2byte	0x1
 17610 0b2d 54       		.byte	0x54
 17611 0b2e 120A0000 		.4byte	.LVL120
 17612 0b32 2A0A0000 		.4byte	.LVL122
 17613 0b36 0300     		.2byte	0x3
 17614 0b38 70       		.byte	0x70
 17615 0b39 7F       		.sleb128 -1
 17616 0b3a 9F       		.byte	0x9f
 17617 0b3b 2A0A0000 		.4byte	.LVL122
 17618 0b3f 460A0000 		.4byte	.LVL127
 17619 0b43 0100     		.2byte	0x1
 17620 0b45 54       		.byte	0x54
 17621 0b46 00000000 		.4byte	0
 17622 0b4a 00000000 		.4byte	0
 17623              	.LLST121:
 17624 0b4e F6090000 		.4byte	.LVL117
 17625 0b52 120A0000 		.4byte	.LVL120
 17626 0b56 0200     		.2byte	0x2
 17627 0b58 74       		.byte	0x74
 17628 0b59 00       		.sleb128 0
 17629 0b5a 120A0000 		.4byte	.LVL120
 17630 0b5e 2E0A0000 		.4byte	.LVL123
 17631 0b62 0200     		.2byte	0x2
 17632 0b64 70       		.byte	0x70
 17633 0b65 7F       		.sleb128 -1
ARM GAS  C:\Users\Mohamad\AppData\Local\Temp\ccDsqi1j.s 			page 311


 17634 0b66 2E0A0000 		.4byte	.LVL123
 17635 0b6a 460A0000 		.4byte	.LVL127
 17636 0b6e 0200     		.2byte	0x2
 17637 0b70 74       		.byte	0x74
 17638 0b71 7E       		.sleb128 -2
 17639 0b72 00000000 		.4byte	0
 17640 0b76 00000000 		.4byte	0
 17641              	.LLST122:
 17642 0b7a FA090000 		.4byte	.LVL118
 17643 0b7e 000A0000 		.4byte	.LVL119
 17644 0b82 0100     		.2byte	0x1
 17645 0b84 55       		.byte	0x55
 17646 0b85 000A0000 		.4byte	.LVL119
 17647 0b89 180A0000 		.4byte	.LVL121
 17648 0b8d 0100     		.2byte	0x1
 17649 0b8f 52       		.byte	0x52
 17650 0b90 00000000 		.4byte	0
 17651 0b94 00000000 		.4byte	0
 17652              	.LLST123:
 17653 0b98 3A0A0000 		.4byte	.LVL125
 17654 0b9c 400A0000 		.4byte	.LVL126
 17655 0ba0 0100     		.2byte	0x1
 17656 0ba2 52       		.byte	0x52
 17657 0ba3 400A0000 		.4byte	.LVL126
 17658 0ba7 4E0A0000 		.4byte	.LVL128
 17659 0bab 0100     		.2byte	0x1
 17660 0bad 51       		.byte	0x51
 17661 0bae 4E0A0000 		.4byte	.LVL128
 17662 0bb2 520A0000 		.4byte	.LVL129
 17663 0bb6 0100     		.2byte	0x1
 17664 0bb8 53       		.byte	0x53
 17665 0bb9 00000000 		.4byte	0
 17666 0bbd 00000000 		.4byte	0
 17667              	.LLST124:
 17668 0bc1 8A0A0000 		.4byte	.LVL132
 17669 0bc5 950A0000 		.4byte	.LVL133-1
 17670 0bc9 0100     		.2byte	0x1
 17671 0bcb 53       		.byte	0x53
 17672 0bcc 950A0000 		.4byte	.LVL133-1
 17673 0bd0 C40A0000 		.4byte	.LFE1536
 17674 0bd4 0600     		.2byte	0x6
 17675 0bd6 77       		.byte	0x77
 17676 0bd7 00       		.sleb128 0
 17677 0bd8 74       		.byte	0x74
 17678 0bd9 00       		.sleb128 0
 17679 0bda 22       		.byte	0x22
 17680 0bdb 9F       		.byte	0x9f
 17681 0bdc 00000000 		.4byte	0
 17682 0be0 00000000 		.4byte	0
 17683              	.LLST125:
 17684 0be4 00000000 		.4byte	.LFB1537
 17685 0be8 04000000 		.4byte	.LCFI3
 17686 0bec 0200     		.2byte	0x2
 17687 0bee 7D       		.byte	0x7d
 17688 0bef 00       		.sleb128 0
 17689 0bf0 04000000 		.4byte	.LCFI3
 17690 0bf4 0A000000 		.4byte	.LCFI4
ARM GAS  C:\Users\Mohamad\AppData\Local\Temp\ccDsqi1j.s 			page 312


 17691 0bf8 0200     		.2byte	0x2
 17692 0bfa 7D       		.byte	0x7d
 17693 0bfb 24       		.sleb128 36
 17694 0bfc 0A000000 		.4byte	.LCFI4
 17695 0c00 30090000 		.4byte	.LFE1537
 17696 0c04 0300     		.2byte	0x3
 17697 0c06 7D       		.byte	0x7d
 17698 0c07 B802     		.sleb128 312
 17699 0c09 00000000 		.4byte	0
 17700 0c0d 00000000 		.4byte	0
 17701              	.LLST126:
 17702 0c11 F6020000 		.4byte	.LVL134
 17703 0c15 6C030000 		.4byte	.LVL139
 17704 0c19 0200     		.2byte	0x2
 17705 0c1b 3C       		.byte	0x3c
 17706 0c1c 9F       		.byte	0x9f
 17707 0c1d 00000000 		.4byte	0
 17708 0c21 00000000 		.4byte	0
 17709              	.LLST127:
 17710 0c25 F6020000 		.4byte	.LVL134
 17711 0c29 6C030000 		.4byte	.LVL139
 17712 0c2d 0200     		.2byte	0x2
 17713 0c2f 30       		.byte	0x30
 17714 0c30 9F       		.byte	0x9f
 17715 0c31 00000000 		.4byte	0
 17716 0c35 00000000 		.4byte	0
 17717              	.LLST130:
 17718 0c39 F6020000 		.4byte	.LVL134
 17719 0c3d 6C030000 		.4byte	.LVL139
 17720 0c41 0A00     		.2byte	0xa
 17721 0c43 9E       		.byte	0x9e
 17722 0c44 08       		.uleb128 0x8
 17723 0c45 00000000 		.8byte	0
 17723      00000000 
 17724 0c4d 00000000 		.4byte	0
 17725 0c51 00000000 		.4byte	0
 17726              	.LLST131:
 17727 0c55 F6020000 		.4byte	.LVL134
 17728 0c59 6C030000 		.4byte	.LVL139
 17729 0c5d 0600     		.2byte	0x6
 17730 0c5f 03       		.byte	0x3
 17731 0c60 00000000 		.4byte	msg
 17732 0c64 9F       		.byte	0x9f
 17733 0c65 00000000 		.4byte	0
 17734 0c69 00000000 		.4byte	0
 17735              	.LLST132:
 17736 0c6d F6020000 		.4byte	.LVL134
 17737 0c71 6C030000 		.4byte	.LVL139
 17738 0c75 0200     		.2byte	0x2
 17739 0c77 31       		.byte	0x31
 17740 0c78 9F       		.byte	0x9f
 17741 0c79 00000000 		.4byte	0
 17742 0c7d 00000000 		.4byte	0
 17743              	.LLST134:
 17744 0c81 00030000 		.4byte	.LVL135
 17745 0c85 6C030000 		.4byte	.LVL139
 17746 0c89 0300     		.2byte	0x3
ARM GAS  C:\Users\Mohamad\AppData\Local\Temp\ccDsqi1j.s 			page 313


 17747 0c8b 08       		.byte	0x8
 17748 0c8c 43       		.byte	0x43
 17749 0c8d 9F       		.byte	0x9f
 17750 0c8e 00000000 		.4byte	0
 17751 0c92 00000000 		.4byte	0
 17752              	.LLST135:
 17753 0c96 00030000 		.4byte	.LVL135
 17754 0c9a 6C030000 		.4byte	.LVL139
 17755 0c9e 0200     		.2byte	0x2
 17756 0ca0 40       		.byte	0x40
 17757 0ca1 9F       		.byte	0x9f
 17758 0ca2 00000000 		.4byte	0
 17759 0ca6 00000000 		.4byte	0
 17760              	.LLST136:
 17761 0caa 00030000 		.4byte	.LVL135
 17762 0cae 6C030000 		.4byte	.LVL139
 17763 0cb2 0200     		.2byte	0x2
 17764 0cb4 31       		.byte	0x31
 17765 0cb5 9F       		.byte	0x9f
 17766 0cb6 00000000 		.4byte	0
 17767 0cba 00000000 		.4byte	0
 17768              	.LLST138:
 17769 0cbe 00030000 		.4byte	.LVL135
 17770 0cc2 6C030000 		.4byte	.LVL139
 17771 0cc6 0600     		.2byte	0x6
 17772 0cc8 03       		.byte	0x3
 17773 0cc9 00000000 		.4byte	msg
 17774 0ccd 9F       		.byte	0x9f
 17775 0cce 00000000 		.4byte	0
 17776 0cd2 00000000 		.4byte	0
 17777              	.LLST141:
 17778 0cd6 00030000 		.4byte	.LVL135
 17779 0cda 6C030000 		.4byte	.LVL139
 17780 0cde 0200     		.2byte	0x2
 17781 0ce0 30       		.byte	0x30
 17782 0ce1 9F       		.byte	0x9f
 17783 0ce2 00000000 		.4byte	0
 17784 0ce6 00000000 		.4byte	0
 17785              	.LLST145:
 17786 0cea 3A030000 		.4byte	.LVL136
 17787 0cee 6C030000 		.4byte	.LVL139
 17788 0cf2 0300     		.2byte	0x3
 17789 0cf4 09       		.byte	0x9
 17790 0cf5 FF       		.byte	0xff
 17791 0cf6 9F       		.byte	0x9f
 17792 0cf7 00000000 		.4byte	0
 17793 0cfb 00000000 		.4byte	0
 17794              	.LLST146:
 17795 0cff 3A030000 		.4byte	.LVL136
 17796 0d03 6C030000 		.4byte	.LVL139
 17797 0d07 0600     		.2byte	0x6
 17798 0d09 03       		.byte	0x3
 17799 0d0a 08000000 		.4byte	msg+8
 17800 0d0e 9F       		.byte	0x9f
 17801 0d0f 00000000 		.4byte	0
 17802 0d13 00000000 		.4byte	0
 17803              	.LLST147:
ARM GAS  C:\Users\Mohamad\AppData\Local\Temp\ccDsqi1j.s 			page 314


 17804 0d17 3A030000 		.4byte	.LVL136
 17805 0d1b 6C030000 		.4byte	.LVL139
 17806 0d1f 0600     		.2byte	0x6
 17807 0d21 F2       		.byte	0xf2
 17808 0d22 49250000 		.4byte	.Ldebug_info0+9545
 17809 0d26 00       		.sleb128 0
 17810 0d27 AC040000 		.4byte	.LVL159
 17811 0d2b 90050000 		.4byte	.LVL177
 17812 0d2f 0600     		.2byte	0x6
 17813 0d31 F2       		.byte	0xf2
 17814 0d32 CC270000 		.4byte	.Ldebug_info0+10188
 17815 0d36 00       		.sleb128 0
 17816 0d37 9E060000 		.4byte	.LVL191
 17817 0d3b 64070000 		.4byte	.LVL211
 17818 0d3f 0600     		.2byte	0x6
 17819 0d41 F2       		.byte	0xf2
 17820 0d42 B02A0000 		.4byte	.Ldebug_info0+10928
 17821 0d46 00       		.sleb128 0
 17822 0d47 5E080000 		.4byte	.LVL226
 17823 0d4b 30090000 		.4byte	.LFE1537
 17824 0d4f 0600     		.2byte	0x6
 17825 0d51 F2       		.byte	0xf2
 17826 0d52 BF2D0000 		.4byte	.Ldebug_info0+11711
 17827 0d56 00       		.sleb128 0
 17828 0d57 00000000 		.4byte	0
 17829 0d5b 00000000 		.4byte	0
 17830              	.LLST148:
 17831 0d5f 3A030000 		.4byte	.LVL136
 17832 0d63 3D030000 		.4byte	.LVL137-1
 17833 0d67 0500     		.2byte	0x5
 17834 0d69 03       		.byte	0x3
 17835 0d6a 07000000 		.4byte	msg+7
 17836 0d6e AC040000 		.4byte	.LVL159
 17837 0d72 37050000 		.4byte	.LVL174-1
 17838 0d76 0500     		.2byte	0x5
 17839 0d78 03       		.byte	0x3
 17840 0d79 07000000 		.4byte	msg+7
 17841 0d7d 9E060000 		.4byte	.LVL191
 17842 0d81 29070000 		.4byte	.LVL208-1
 17843 0d85 0500     		.2byte	0x5
 17844 0d87 03       		.byte	0x3
 17845 0d88 07000000 		.4byte	msg+7
 17846 0d8c 5E080000 		.4byte	.LVL226
 17847 0d90 E7080000 		.4byte	.LVL242-1
 17848 0d94 0500     		.2byte	0x5
 17849 0d96 03       		.byte	0x3
 17850 0d97 07000000 		.4byte	msg+7
 17851 0d9b 00000000 		.4byte	0
 17852 0d9f 00000000 		.4byte	0
 17853              	.LLST151:
 17854 0da3 3A030000 		.4byte	.LVL136
 17855 0da7 6C030000 		.4byte	.LVL139
 17856 0dab 0600     		.2byte	0x6
 17857 0dad 03       		.byte	0x3
 17858 0dae 00000000 		.4byte	msg
 17859 0db2 9F       		.byte	0x9f
 17860 0db3 00000000 		.4byte	0
ARM GAS  C:\Users\Mohamad\AppData\Local\Temp\ccDsqi1j.s 			page 315


 17861 0db7 00000000 		.4byte	0
 17862              	.LLST152:
 17863 0dbb 3A030000 		.4byte	.LVL136
 17864 0dbf 6C030000 		.4byte	.LVL139
 17865 0dc3 0600     		.2byte	0x6
 17866 0dc5 03       		.byte	0x3
 17867 0dc6 18000000 		.4byte	msg+24
 17868 0dca 9F       		.byte	0x9f
 17869 0dcb 00000000 		.4byte	0
 17870 0dcf 00000000 		.4byte	0
 17871              	.LLST153:
 17872 0dd3 3A030000 		.4byte	.LVL136
 17873 0dd7 3D030000 		.4byte	.LVL137-1
 17874 0ddb 0500     		.2byte	0x5
 17875 0ddd 03       		.byte	0x3
 17876 0dde 17000000 		.4byte	msg+23
 17877 0de2 00000000 		.4byte	0
 17878 0de6 00000000 		.4byte	0
 17879              	.LLST154:
 17880 0dea 3A030000 		.4byte	.LVL136
 17881 0dee 6C030000 		.4byte	.LVL139
 17882 0df2 0600     		.2byte	0x6
 17883 0df4 03       		.byte	0x3
 17884 0df5 00000000 		.4byte	msg
 17885 0df9 9F       		.byte	0x9f
 17886 0dfa B8040000 		.4byte	.LVL161
 17887 0dfe 90050000 		.4byte	.LVL177
 17888 0e02 0600     		.2byte	0x6
 17889 0e04 03       		.byte	0x3
 17890 0e05 00000000 		.4byte	msg
 17891 0e09 9F       		.byte	0x9f
 17892 0e0a AE060000 		.4byte	.LVL194
 17893 0e0e 64070000 		.4byte	.LVL211
 17894 0e12 0600     		.2byte	0x6
 17895 0e14 03       		.byte	0x3
 17896 0e15 00000000 		.4byte	msg
 17897 0e19 9F       		.byte	0x9f
 17898 0e1a 6A080000 		.4byte	.LVL228
 17899 0e1e 30090000 		.4byte	.LFE1537
 17900 0e22 0600     		.2byte	0x6
 17901 0e24 03       		.byte	0x3
 17902 0e25 00000000 		.4byte	msg
 17903 0e29 9F       		.byte	0x9f
 17904 0e2a 00000000 		.4byte	0
 17905 0e2e 00000000 		.4byte	0
 17906              	.LLST156:
 17907 0e32 3A030000 		.4byte	.LVL136
 17908 0e36 6C030000 		.4byte	.LVL139
 17909 0e3a 0300     		.2byte	0x3
 17910 0e3c 08       		.byte	0x8
 17911 0e3d 43       		.byte	0x43
 17912 0e3e 9F       		.byte	0x9f
 17913 0e3f F4040000 		.4byte	.LVL167
 17914 0e43 90050000 		.4byte	.LVL177
 17915 0e47 0300     		.2byte	0x3
 17916 0e49 08       		.byte	0x8
 17917 0e4a 27       		.byte	0x27
ARM GAS  C:\Users\Mohamad\AppData\Local\Temp\ccDsqi1j.s 			page 316


 17918 0e4b 9F       		.byte	0x9f
 17919 0e4c E8060000 		.4byte	.LVL201
 17920 0e50 64070000 		.4byte	.LVL211
 17921 0e54 0300     		.2byte	0x3
 17922 0e56 09       		.byte	0x9
 17923 0e57 F6       		.byte	0xf6
 17924 0e58 9F       		.byte	0x9f
 17925 0e59 A4080000 		.4byte	.LVL235
 17926 0e5d 30090000 		.4byte	.LFE1537
 17927 0e61 0200     		.2byte	0x2
 17928 0e63 48       		.byte	0x48
 17929 0e64 9F       		.byte	0x9f
 17930 0e65 00000000 		.4byte	0
 17931 0e69 00000000 		.4byte	0
 17932              	.LLST157:
 17933 0e6d 3E030000 		.4byte	.LVL137
 17934 0e71 6C030000 		.4byte	.LVL139
 17935 0e75 0300     		.2byte	0x3
 17936 0e77 78       		.byte	0x78
 17937 0e78 16       		.sleb128 22
 17938 0e79 9F       		.byte	0x9f
 17939 0e7a 00000000 		.4byte	0
 17940 0e7e 00000000 		.4byte	0
 17941              	.LLST159:
 17942 0e82 3A030000 		.4byte	.LVL136
 17943 0e86 6C030000 		.4byte	.LVL139
 17944 0e8a 0600     		.2byte	0x6
 17945 0e8c 03       		.byte	0x3
 17946 0e8d 00000000 		.4byte	buff
 17947 0e91 9F       		.byte	0x9f
 17948 0e92 00000000 		.4byte	0
 17949 0e96 00000000 		.4byte	0
 17950              	.LLST160:
 17951 0e9a 56040000 		.4byte	.LVL152
 17952 0e9e 5E040000 		.4byte	.LVL154
 17953 0ea2 0100     		.2byte	0x1
 17954 0ea4 5A       		.byte	0x5a
 17955 0ea5 5E040000 		.4byte	.LVL154
 17956 0ea9 37050000 		.4byte	.LVL174-1
 17957 0ead 0300     		.2byte	0x3
 17958 0eaf 91       		.byte	0x91
 17959 0eb0 947F     		.sleb128 -108
 17960 0eb2 00000000 		.4byte	0
 17961 0eb6 00000000 		.4byte	0
 17962              	.LLST161:
 17963 0eba 56040000 		.4byte	.LVL152
 17964 0ebe 90050000 		.4byte	.LVL177
 17965 0ec2 0300     		.2byte	0x3
 17966 0ec4 91       		.byte	0x91
 17967 0ec5 D07D     		.sleb128 -304
 17968 0ec7 00000000 		.4byte	0
 17969 0ecb 00000000 		.4byte	0
 17970              	.LLST162:
 17971 0ecf 56040000 		.4byte	.LVL152
 17972 0ed3 37050000 		.4byte	.LVL174-1
 17973 0ed7 0300     		.2byte	0x3
 17974 0ed9 91       		.byte	0x91
ARM GAS  C:\Users\Mohamad\AppData\Local\Temp\ccDsqi1j.s 			page 317


 17975 0eda 887F     		.sleb128 -120
 17976 0edc 00000000 		.4byte	0
 17977 0ee0 00000000 		.4byte	0
 17978              	.LLST163:
 17979 0ee4 56040000 		.4byte	.LVL152
 17980 0ee8 37050000 		.4byte	.LVL174-1
 17981 0eec 0300     		.2byte	0x3
 17982 0eee 91       		.byte	0x91
 17983 0eef 847F     		.sleb128 -124
 17984 0ef1 00000000 		.4byte	0
 17985 0ef5 00000000 		.4byte	0
 17986              	.LLST164:
 17987 0ef9 56040000 		.4byte	.LVL152
 17988 0efd 37050000 		.4byte	.LVL174-1
 17989 0f01 0300     		.2byte	0x3
 17990 0f03 91       		.byte	0x91
 17991 0f04 807F     		.sleb128 -128
 17992 0f06 00000000 		.4byte	0
 17993 0f0a 00000000 		.4byte	0
 17994              	.LLST165:
 17995 0f0e 56040000 		.4byte	.LVL152
 17996 0f12 58040000 		.4byte	.LVL153
 17997 0f16 0100     		.2byte	0x1
 17998 0f18 50       		.byte	0x50
 17999 0f19 58040000 		.4byte	.LVL153
 18000 0f1d 92040000 		.4byte	.LVL155
 18001 0f21 0200     		.2byte	0x2
 18002 0f23 76       		.byte	0x76
 18003 0f24 70       		.sleb128 -16
 18004 0f25 92040000 		.4byte	.LVL155
 18005 0f29 B0040000 		.4byte	.LVL160
 18006 0f2d 0200     		.2byte	0x2
 18007 0f2f 7E       		.byte	0x7e
 18008 0f30 00       		.sleb128 0
 18009 0f31 B0040000 		.4byte	.LVL160
 18010 0f35 F8040000 		.4byte	.LVL168
 18011 0f39 0200     		.2byte	0x2
 18012 0f3b 75       		.byte	0x75
 18013 0f3c 08       		.sleb128 8
 18014 0f3d F8040000 		.4byte	.LVL168
 18015 0f41 37050000 		.4byte	.LVL174-1
 18016 0f45 0200     		.2byte	0x2
 18017 0f47 74       		.byte	0x74
 18018 0f48 08       		.sleb128 8
 18019 0f49 00000000 		.4byte	0
 18020 0f4d 00000000 		.4byte	0
 18021              	.LLST166:
 18022 0f51 56040000 		.4byte	.LVL152
 18023 0f55 90050000 		.4byte	.LVL177
 18024 0f59 0600     		.2byte	0x6
 18025 0f5b 03       		.byte	0x3
 18026 0f5c 00000000 		.4byte	msg
 18027 0f60 9F       		.byte	0x9f
 18028 0f61 00000000 		.4byte	0
 18029 0f65 00000000 		.4byte	0
 18030              	.LLST167:
 18031 0f69 56040000 		.4byte	.LVL152
ARM GAS  C:\Users\Mohamad\AppData\Local\Temp\ccDsqi1j.s 			page 318


 18032 0f6d 90050000 		.4byte	.LVL177
 18033 0f71 0200     		.2byte	0x2
 18034 0f73 31       		.byte	0x31
 18035 0f74 9F       		.byte	0x9f
 18036 0f75 00000000 		.4byte	0
 18037 0f79 00000000 		.4byte	0
 18038              	.LLST169:
 18039 0f7d A0040000 		.4byte	.LVL156
 18040 0f81 90050000 		.4byte	.LVL177
 18041 0f85 0300     		.2byte	0x3
 18042 0f87 08       		.byte	0x8
 18043 0f88 27       		.byte	0x27
 18044 0f89 9F       		.byte	0x9f
 18045 0f8a 00000000 		.4byte	0
 18046 0f8e 00000000 		.4byte	0
 18047              	.LLST170:
 18048 0f92 A0040000 		.4byte	.LVL156
 18049 0f96 90050000 		.4byte	.LVL177
 18050 0f9a 0200     		.2byte	0x2
 18051 0f9c 4C       		.byte	0x4c
 18052 0f9d 9F       		.byte	0x9f
 18053 0f9e 00000000 		.4byte	0
 18054 0fa2 00000000 		.4byte	0
 18055              	.LLST171:
 18056 0fa6 A0040000 		.4byte	.LVL156
 18057 0faa 90050000 		.4byte	.LVL177
 18058 0fae 0200     		.2byte	0x2
 18059 0fb0 31       		.byte	0x31
 18060 0fb1 9F       		.byte	0x9f
 18061 0fb2 00000000 		.4byte	0
 18062 0fb6 00000000 		.4byte	0
 18063              	.LLST173:
 18064 0fba A0040000 		.4byte	.LVL156
 18065 0fbe 90050000 		.4byte	.LVL177
 18066 0fc2 0600     		.2byte	0x6
 18067 0fc4 03       		.byte	0x3
 18068 0fc5 00000000 		.4byte	msg
 18069 0fc9 9F       		.byte	0x9f
 18070 0fca 00000000 		.4byte	0
 18071 0fce 00000000 		.4byte	0
 18072              	.LLST176:
 18073 0fd2 A0040000 		.4byte	.LVL156
 18074 0fd6 90050000 		.4byte	.LVL177
 18075 0fda 0200     		.2byte	0x2
 18076 0fdc 30       		.byte	0x30
 18077 0fdd 9F       		.byte	0x9f
 18078 0fde 00000000 		.4byte	0
 18079 0fe2 00000000 		.4byte	0
 18080              	.LLST180:
 18081 0fe6 AC040000 		.4byte	.LVL159
 18082 0fea 90050000 		.4byte	.LVL177
 18083 0fee 0300     		.2byte	0x3
 18084 0ff0 09       		.byte	0x9
 18085 0ff1 FF       		.byte	0xff
 18086 0ff2 9F       		.byte	0x9f
 18087 0ff3 00000000 		.4byte	0
 18088 0ff7 00000000 		.4byte	0
ARM GAS  C:\Users\Mohamad\AppData\Local\Temp\ccDsqi1j.s 			page 319


 18089              	.LLST181:
 18090 0ffb AC040000 		.4byte	.LVL159
 18091 0fff 90050000 		.4byte	.LVL177
 18092 1003 0600     		.2byte	0x6
 18093 1005 03       		.byte	0x3
 18094 1006 08000000 		.4byte	msg+8
 18095 100a 9F       		.byte	0x9f
 18096 100b 00000000 		.4byte	0
 18097 100f 00000000 		.4byte	0
 18098              	.LLST182:
 18099 1013 AC040000 		.4byte	.LVL159
 18100 1017 B0040000 		.4byte	.LVL160
 18101 101b 0100     		.2byte	0x1
 18102 101d 53       		.byte	0x53
 18103 101e 00000000 		.4byte	0
 18104 1022 00000000 		.4byte	0
 18105              	.LLST183:
 18106 1026 AC040000 		.4byte	.LVL159
 18107 102a 16050000 		.4byte	.LVL170
 18108 102e 0100     		.2byte	0x1
 18109 1030 5A       		.byte	0x5a
 18110 1031 16050000 		.4byte	.LVL170
 18111 1035 37050000 		.4byte	.LVL174-1
 18112 1039 7E0C     		.2byte	0xc7e
 18113 103b 03       		.byte	0x3
 18114 103c 06000000 		.4byte	m_mavlink_status.8046+6
 18115 1040 94       		.byte	0x94
 18116 1041 01       		.byte	0x1
 18117 1042 08       		.byte	0x8
 18118 1043 FF       		.byte	0xff
 18119 1044 1A       		.byte	0x1a
 18120 1045 08       		.byte	0x8
 18121 1046 6A       		.byte	0x6a
 18122 1047 27       		.byte	0x27
 18123 1048 34       		.byte	0x34
 18124 1049 24       		.byte	0x24
 18125 104a 03       		.byte	0x3
 18126 104b 06000000 		.4byte	m_mavlink_status.8046+6
 18127 104f 94       		.byte	0x94
 18128 1050 01       		.byte	0x1
 18129 1051 08       		.byte	0x8
 18130 1052 FF       		.byte	0xff
 18131 1053 1A       		.byte	0x1a
 18132 1054 27       		.byte	0x27
 18133 1055 08       		.byte	0x8
 18134 1056 6A       		.byte	0x6a
 18135 1057 27       		.byte	0x27
 18136 1058 08       		.byte	0x8
 18137 1059 FF       		.byte	0xff
 18138 105a 1A       		.byte	0x1a
 18139 105b 34       		.byte	0x34
 18140 105c 25       		.byte	0x25
 18141 105d 08       		.byte	0x8
 18142 105e D5       		.byte	0xd5
 18143 105f 27       		.byte	0x27
 18144 1060 03       		.byte	0x3
 18145 1061 06000000 		.4byte	m_mavlink_status.8046+6
ARM GAS  C:\Users\Mohamad\AppData\Local\Temp\ccDsqi1j.s 			page 320


 18146 1065 94       		.byte	0x94
 18147 1066 01       		.byte	0x1
 18148 1067 08       		.byte	0x8
 18149 1068 FF       		.byte	0xff
 18150 1069 1A       		.byte	0x1a
 18151 106a 08       		.byte	0x8
 18152 106b 6A       		.byte	0x6a
 18153 106c 27       		.byte	0x27
 18154 106d 34       		.byte	0x34
 18155 106e 24       		.byte	0x24
 18156 106f 03       		.byte	0x3
 18157 1070 06000000 		.4byte	m_mavlink_status.8046+6
 18158 1074 94       		.byte	0x94
 18159 1075 01       		.byte	0x1
 18160 1076 08       		.byte	0x8
 18161 1077 FF       		.byte	0xff
 18162 1078 1A       		.byte	0x1a
 18163 1079 27       		.byte	0x27
 18164 107a 08       		.byte	0x8
 18165 107b 6A       		.byte	0x6a
 18166 107c 27       		.byte	0x27
 18167 107d 08       		.byte	0x8
 18168 107e FF       		.byte	0xff
 18169 107f 1A       		.byte	0x1a
 18170 1080 38       		.byte	0x38
 18171 1081 24       		.byte	0x24
 18172 1082 21       		.byte	0x21
 18173 1083 03       		.byte	0x3
 18174 1084 06000000 		.4byte	m_mavlink_status.8046+6
 18175 1088 94       		.byte	0x94
 18176 1089 01       		.byte	0x1
 18177 108a 08       		.byte	0x8
 18178 108b FF       		.byte	0xff
 18179 108c 1A       		.byte	0x1a
 18180 108d 08       		.byte	0x8
 18181 108e 6A       		.byte	0x6a
 18182 108f 27       		.byte	0x27
 18183 1090 34       		.byte	0x34
 18184 1091 24       		.byte	0x24
 18185 1092 03       		.byte	0x3
 18186 1093 06000000 		.4byte	m_mavlink_status.8046+6
 18187 1097 94       		.byte	0x94
 18188 1098 01       		.byte	0x1
 18189 1099 08       		.byte	0x8
 18190 109a FF       		.byte	0xff
 18191 109b 1A       		.byte	0x1a
 18192 109c 27       		.byte	0x27
 18193 109d 08       		.byte	0x8
 18194 109e 6A       		.byte	0x6a
 18195 109f 27       		.byte	0x27
 18196 10a0 08       		.byte	0x8
 18197 10a1 FF       		.byte	0xff
 18198 10a2 1A       		.byte	0x1a
 18199 10a3 33       		.byte	0x33
 18200 10a4 24       		.byte	0x24
 18201 10a5 31       		.byte	0x31
 18202 10a6 21       		.byte	0x21
ARM GAS  C:\Users\Mohamad\AppData\Local\Temp\ccDsqi1j.s 			page 321


 18203 10a7 27       		.byte	0x27
 18204 10a8 03       		.byte	0x3
 18205 10a9 06000000 		.4byte	m_mavlink_status.8046+6
 18206 10ad 94       		.byte	0x94
 18207 10ae 01       		.byte	0x1
 18208 10af 08       		.byte	0x8
 18209 10b0 FF       		.byte	0xff
 18210 10b1 1A       		.byte	0x1a
 18211 10b2 08       		.byte	0x8
 18212 10b3 6A       		.byte	0x6a
 18213 10b4 27       		.byte	0x27
 18214 10b5 34       		.byte	0x34
 18215 10b6 24       		.byte	0x24
 18216 10b7 03       		.byte	0x3
 18217 10b8 06000000 		.4byte	m_mavlink_status.8046+6
 18218 10bc 94       		.byte	0x94
 18219 10bd 01       		.byte	0x1
 18220 10be 08       		.byte	0x8
 18221 10bf FF       		.byte	0xff
 18222 10c0 1A       		.byte	0x1a
 18223 10c1 27       		.byte	0x27
 18224 10c2 08       		.byte	0x8
 18225 10c3 6A       		.byte	0x6a
 18226 10c4 27       		.byte	0x27
 18227 10c5 08       		.byte	0x8
 18228 10c6 FF       		.byte	0xff
 18229 10c7 1A       		.byte	0x1a
 18230 10c8 34       		.byte	0x34
 18231 10c9 25       		.byte	0x25
 18232 10ca 08       		.byte	0x8
 18233 10cb D5       		.byte	0xd5
 18234 10cc 27       		.byte	0x27
 18235 10cd 03       		.byte	0x3
 18236 10ce 06000000 		.4byte	m_mavlink_status.8046+6
 18237 10d2 94       		.byte	0x94
 18238 10d3 01       		.byte	0x1
 18239 10d4 08       		.byte	0x8
 18240 10d5 FF       		.byte	0xff
 18241 10d6 1A       		.byte	0x1a
 18242 10d7 08       		.byte	0x8
 18243 10d8 6A       		.byte	0x6a
 18244 10d9 27       		.byte	0x27
 18245 10da 34       		.byte	0x34
 18246 10db 24       		.byte	0x24
 18247 10dc 03       		.byte	0x3
 18248 10dd 06000000 		.4byte	m_mavlink_status.8046+6
 18249 10e1 94       		.byte	0x94
 18250 10e2 01       		.byte	0x1
 18251 10e3 08       		.byte	0x8
 18252 10e4 FF       		.byte	0xff
 18253 10e5 1A       		.byte	0x1a
 18254 10e6 27       		.byte	0x27
 18255 10e7 08       		.byte	0x8
 18256 10e8 6A       		.byte	0x6a
 18257 10e9 27       		.byte	0x27
 18258 10ea 08       		.byte	0x8
 18259 10eb FF       		.byte	0xff
ARM GAS  C:\Users\Mohamad\AppData\Local\Temp\ccDsqi1j.s 			page 322


 18260 10ec 1A       		.byte	0x1a
 18261 10ed 38       		.byte	0x38
 18262 10ee 24       		.byte	0x24
 18263 10ef 21       		.byte	0x21
 18264 10f0 03       		.byte	0x3
 18265 10f1 06000000 		.4byte	m_mavlink_status.8046+6
 18266 10f5 94       		.byte	0x94
 18267 10f6 01       		.byte	0x1
 18268 10f7 08       		.byte	0x8
 18269 10f8 FF       		.byte	0xff
 18270 10f9 1A       		.byte	0x1a
 18271 10fa 08       		.byte	0x8
 18272 10fb 6A       		.byte	0x6a
 18273 10fc 27       		.byte	0x27
 18274 10fd 34       		.byte	0x34
 18275 10fe 24       		.byte	0x24
 18276 10ff 03       		.byte	0x3
 18277 1100 06000000 		.4byte	m_mavlink_status.8046+6
 18278 1104 94       		.byte	0x94
 18279 1105 01       		.byte	0x1
 18280 1106 08       		.byte	0x8
 18281 1107 FF       		.byte	0xff
 18282 1108 1A       		.byte	0x1a
 18283 1109 27       		.byte	0x27
 18284 110a 08       		.byte	0x8
 18285 110b 6A       		.byte	0x6a
 18286 110c 27       		.byte	0x27
 18287 110d 08       		.byte	0x8
 18288 110e FF       		.byte	0xff
 18289 110f 1A       		.byte	0x1a
 18290 1110 33       		.byte	0x33
 18291 1111 24       		.byte	0x24
 18292 1112 31       		.byte	0x31
 18293 1113 21       		.byte	0x21
 18294 1114 27       		.byte	0x27
 18295 1115 34       		.byte	0x34
 18296 1116 24       		.byte	0x24
 18297 1117 27       		.byte	0x27
 18298 1118 08       		.byte	0x8
 18299 1119 FF       		.byte	0xff
 18300 111a 1A       		.byte	0x1a
 18301 111b 34       		.byte	0x34
 18302 111c 25       		.byte	0x25
 18303 111d 03       		.byte	0x3
 18304 111e 06000000 		.4byte	m_mavlink_status.8046+6
 18305 1122 94       		.byte	0x94
 18306 1123 01       		.byte	0x1
 18307 1124 08       		.byte	0x8
 18308 1125 FF       		.byte	0xff
 18309 1126 1A       		.byte	0x1a
 18310 1127 08       		.byte	0x8
 18311 1128 6A       		.byte	0x6a
 18312 1129 27       		.byte	0x27
 18313 112a 34       		.byte	0x34
 18314 112b 24       		.byte	0x24
 18315 112c 03       		.byte	0x3
 18316 112d 06000000 		.4byte	m_mavlink_status.8046+6
ARM GAS  C:\Users\Mohamad\AppData\Local\Temp\ccDsqi1j.s 			page 323


 18317 1131 94       		.byte	0x94
 18318 1132 01       		.byte	0x1
 18319 1133 08       		.byte	0x8
 18320 1134 FF       		.byte	0xff
 18321 1135 1A       		.byte	0x1a
 18322 1136 27       		.byte	0x27
 18323 1137 08       		.byte	0x8
 18324 1138 6A       		.byte	0x6a
 18325 1139 27       		.byte	0x27
 18326 113a 08       		.byte	0x8
 18327 113b FF       		.byte	0xff
 18328 113c 1A       		.byte	0x1a
 18329 113d 34       		.byte	0x34
 18330 113e 25       		.byte	0x25
 18331 113f 08       		.byte	0x8
 18332 1140 D5       		.byte	0xd5
 18333 1141 27       		.byte	0x27
 18334 1142 03       		.byte	0x3
 18335 1143 06000000 		.4byte	m_mavlink_status.8046+6
 18336 1147 94       		.byte	0x94
 18337 1148 01       		.byte	0x1
 18338 1149 08       		.byte	0x8
 18339 114a FF       		.byte	0xff
 18340 114b 1A       		.byte	0x1a
 18341 114c 08       		.byte	0x8
 18342 114d 6A       		.byte	0x6a
 18343 114e 27       		.byte	0x27
 18344 114f 34       		.byte	0x34
 18345 1150 24       		.byte	0x24
 18346 1151 03       		.byte	0x3
 18347 1152 06000000 		.4byte	m_mavlink_status.8046+6
 18348 1156 94       		.byte	0x94
 18349 1157 01       		.byte	0x1
 18350 1158 08       		.byte	0x8
 18351 1159 FF       		.byte	0xff
 18352 115a 1A       		.byte	0x1a
 18353 115b 27       		.byte	0x27
 18354 115c 08       		.byte	0x8
 18355 115d 6A       		.byte	0x6a
 18356 115e 27       		.byte	0x27
 18357 115f 08       		.byte	0x8
 18358 1160 FF       		.byte	0xff
 18359 1161 1A       		.byte	0x1a
 18360 1162 38       		.byte	0x38
 18361 1163 24       		.byte	0x24
 18362 1164 21       		.byte	0x21
 18363 1165 03       		.byte	0x3
 18364 1166 06000000 		.4byte	m_mavlink_status.8046+6
 18365 116a 94       		.byte	0x94
 18366 116b 01       		.byte	0x1
 18367 116c 08       		.byte	0x8
 18368 116d FF       		.byte	0xff
 18369 116e 1A       		.byte	0x1a
 18370 116f 08       		.byte	0x8
 18371 1170 6A       		.byte	0x6a
 18372 1171 27       		.byte	0x27
 18373 1172 34       		.byte	0x34
ARM GAS  C:\Users\Mohamad\AppData\Local\Temp\ccDsqi1j.s 			page 324


 18374 1173 24       		.byte	0x24
 18375 1174 03       		.byte	0x3
 18376 1175 06000000 		.4byte	m_mavlink_status.8046+6
 18377 1179 94       		.byte	0x94
 18378 117a 01       		.byte	0x1
 18379 117b 08       		.byte	0x8
 18380 117c FF       		.byte	0xff
 18381 117d 1A       		.byte	0x1a
 18382 117e 27       		.byte	0x27
 18383 117f 08       		.byte	0x8
 18384 1180 6A       		.byte	0x6a
 18385 1181 27       		.byte	0x27
 18386 1182 08       		.byte	0x8
 18387 1183 FF       		.byte	0xff
 18388 1184 1A       		.byte	0x1a
 18389 1185 33       		.byte	0x33
 18390 1186 24       		.byte	0x24
 18391 1187 27       		.byte	0x27
 18392 1188 38       		.byte	0x38
 18393 1189 25       		.byte	0x25
 18394 118a 27       		.byte	0x27
 18395 118b 03       		.byte	0x3
 18396 118c 06000000 		.4byte	m_mavlink_status.8046+6
 18397 1190 94       		.byte	0x94
 18398 1191 01       		.byte	0x1
 18399 1192 08       		.byte	0x8
 18400 1193 FF       		.byte	0xff
 18401 1194 1A       		.byte	0x1a
 18402 1195 08       		.byte	0x8
 18403 1196 6A       		.byte	0x6a
 18404 1197 27       		.byte	0x27
 18405 1198 34       		.byte	0x34
 18406 1199 24       		.byte	0x24
 18407 119a 03       		.byte	0x3
 18408 119b 06000000 		.4byte	m_mavlink_status.8046+6
 18409 119f 94       		.byte	0x94
 18410 11a0 01       		.byte	0x1
 18411 11a1 08       		.byte	0x8
 18412 11a2 FF       		.byte	0xff
 18413 11a3 1A       		.byte	0x1a
 18414 11a4 27       		.byte	0x27
 18415 11a5 08       		.byte	0x8
 18416 11a6 6A       		.byte	0x6a
 18417 11a7 27       		.byte	0x27
 18418 11a8 08       		.byte	0x8
 18419 11a9 FF       		.byte	0xff
 18420 11aa 1A       		.byte	0x1a
 18421 11ab 34       		.byte	0x34
 18422 11ac 25       		.byte	0x25
 18423 11ad 08       		.byte	0x8
 18424 11ae D5       		.byte	0xd5
 18425 11af 27       		.byte	0x27
 18426 11b0 03       		.byte	0x3
 18427 11b1 06000000 		.4byte	m_mavlink_status.8046+6
 18428 11b5 94       		.byte	0x94
 18429 11b6 01       		.byte	0x1
 18430 11b7 08       		.byte	0x8
ARM GAS  C:\Users\Mohamad\AppData\Local\Temp\ccDsqi1j.s 			page 325


 18431 11b8 FF       		.byte	0xff
 18432 11b9 1A       		.byte	0x1a
 18433 11ba 08       		.byte	0x8
 18434 11bb 6A       		.byte	0x6a
 18435 11bc 27       		.byte	0x27
 18436 11bd 34       		.byte	0x34
 18437 11be 24       		.byte	0x24
 18438 11bf 03       		.byte	0x3
 18439 11c0 06000000 		.4byte	m_mavlink_status.8046+6
 18440 11c4 94       		.byte	0x94
 18441 11c5 01       		.byte	0x1
 18442 11c6 08       		.byte	0x8
 18443 11c7 FF       		.byte	0xff
 18444 11c8 1A       		.byte	0x1a
 18445 11c9 27       		.byte	0x27
 18446 11ca 08       		.byte	0x8
 18447 11cb 6A       		.byte	0x6a
 18448 11cc 27       		.byte	0x27
 18449 11cd 08       		.byte	0x8
 18450 11ce FF       		.byte	0xff
 18451 11cf 1A       		.byte	0x1a
 18452 11d0 38       		.byte	0x38
 18453 11d1 24       		.byte	0x24
 18454 11d2 21       		.byte	0x21
 18455 11d3 03       		.byte	0x3
 18456 11d4 06000000 		.4byte	m_mavlink_status.8046+6
 18457 11d8 94       		.byte	0x94
 18458 11d9 01       		.byte	0x1
 18459 11da 08       		.byte	0x8
 18460 11db FF       		.byte	0xff
 18461 11dc 1A       		.byte	0x1a
 18462 11dd 08       		.byte	0x8
 18463 11de 6A       		.byte	0x6a
 18464 11df 27       		.byte	0x27
 18465 11e0 34       		.byte	0x34
 18466 11e1 24       		.byte	0x24
 18467 11e2 03       		.byte	0x3
 18468 11e3 06000000 		.4byte	m_mavlink_status.8046+6
 18469 11e7 94       		.byte	0x94
 18470 11e8 01       		.byte	0x1
 18471 11e9 08       		.byte	0x8
 18472 11ea FF       		.byte	0xff
 18473 11eb 1A       		.byte	0x1a
 18474 11ec 27       		.byte	0x27
 18475 11ed 08       		.byte	0x8
 18476 11ee 6A       		.byte	0x6a
 18477 11ef 27       		.byte	0x27
 18478 11f0 08       		.byte	0x8
 18479 11f1 FF       		.byte	0xff
 18480 11f2 1A       		.byte	0x1a
 18481 11f3 33       		.byte	0x33
 18482 11f4 24       		.byte	0x24
 18483 11f5 31       		.byte	0x31
 18484 11f6 21       		.byte	0x21
 18485 11f7 27       		.byte	0x27
 18486 11f8 03       		.byte	0x3
 18487 11f9 06000000 		.4byte	m_mavlink_status.8046+6
ARM GAS  C:\Users\Mohamad\AppData\Local\Temp\ccDsqi1j.s 			page 326


 18488 11fd 94       		.byte	0x94
 18489 11fe 01       		.byte	0x1
 18490 11ff 08       		.byte	0x8
 18491 1200 FF       		.byte	0xff
 18492 1201 1A       		.byte	0x1a
 18493 1202 08       		.byte	0x8
 18494 1203 6A       		.byte	0x6a
 18495 1204 27       		.byte	0x27
 18496 1205 34       		.byte	0x34
 18497 1206 24       		.byte	0x24
 18498 1207 03       		.byte	0x3
 18499 1208 06000000 		.4byte	m_mavlink_status.8046+6
 18500 120c 94       		.byte	0x94
 18501 120d 01       		.byte	0x1
 18502 120e 08       		.byte	0x8
 18503 120f FF       		.byte	0xff
 18504 1210 1A       		.byte	0x1a
 18505 1211 27       		.byte	0x27
 18506 1212 08       		.byte	0x8
 18507 1213 6A       		.byte	0x6a
 18508 1214 27       		.byte	0x27
 18509 1215 08       		.byte	0x8
 18510 1216 FF       		.byte	0xff
 18511 1217 1A       		.byte	0x1a
 18512 1218 34       		.byte	0x34
 18513 1219 25       		.byte	0x25
 18514 121a 08       		.byte	0x8
 18515 121b D5       		.byte	0xd5
 18516 121c 27       		.byte	0x27
 18517 121d 03       		.byte	0x3
 18518 121e 06000000 		.4byte	m_mavlink_status.8046+6
 18519 1222 94       		.byte	0x94
 18520 1223 01       		.byte	0x1
 18521 1224 08       		.byte	0x8
 18522 1225 FF       		.byte	0xff
 18523 1226 1A       		.byte	0x1a
 18524 1227 08       		.byte	0x8
 18525 1228 6A       		.byte	0x6a
 18526 1229 27       		.byte	0x27
 18527 122a 34       		.byte	0x34
 18528 122b 24       		.byte	0x24
 18529 122c 03       		.byte	0x3
 18530 122d 06000000 		.4byte	m_mavlink_status.8046+6
 18531 1231 94       		.byte	0x94
 18532 1232 01       		.byte	0x1
 18533 1233 08       		.byte	0x8
 18534 1234 FF       		.byte	0xff
 18535 1235 1A       		.byte	0x1a
 18536 1236 27       		.byte	0x27
 18537 1237 08       		.byte	0x8
 18538 1238 6A       		.byte	0x6a
 18539 1239 27       		.byte	0x27
 18540 123a 08       		.byte	0x8
 18541 123b FF       		.byte	0xff
 18542 123c 1A       		.byte	0x1a
 18543 123d 38       		.byte	0x38
 18544 123e 24       		.byte	0x24
ARM GAS  C:\Users\Mohamad\AppData\Local\Temp\ccDsqi1j.s 			page 327


 18545 123f 21       		.byte	0x21
 18546 1240 03       		.byte	0x3
 18547 1241 06000000 		.4byte	m_mavlink_status.8046+6
 18548 1245 94       		.byte	0x94
 18549 1246 01       		.byte	0x1
 18550 1247 08       		.byte	0x8
 18551 1248 FF       		.byte	0xff
 18552 1249 1A       		.byte	0x1a
 18553 124a 08       		.byte	0x8
 18554 124b 6A       		.byte	0x6a
 18555 124c 27       		.byte	0x27
 18556 124d 34       		.byte	0x34
 18557 124e 24       		.byte	0x24
 18558 124f 03       		.byte	0x3
 18559 1250 06000000 		.4byte	m_mavlink_status.8046+6
 18560 1254 94       		.byte	0x94
 18561 1255 01       		.byte	0x1
 18562 1256 08       		.byte	0x8
 18563 1257 FF       		.byte	0xff
 18564 1258 1A       		.byte	0x1a
 18565 1259 27       		.byte	0x27
 18566 125a 08       		.byte	0x8
 18567 125b 6A       		.byte	0x6a
 18568 125c 27       		.byte	0x27
 18569 125d 08       		.byte	0x8
 18570 125e FF       		.byte	0xff
 18571 125f 1A       		.byte	0x1a
 18572 1260 33       		.byte	0x33
 18573 1261 24       		.byte	0x24
 18574 1262 31       		.byte	0x31
 18575 1263 21       		.byte	0x21
 18576 1264 27       		.byte	0x27
 18577 1265 34       		.byte	0x34
 18578 1266 24       		.byte	0x24
 18579 1267 27       		.byte	0x27
 18580 1268 08       		.byte	0x8
 18581 1269 FF       		.byte	0xff
 18582 126a 1A       		.byte	0x1a
 18583 126b 38       		.byte	0x38
 18584 126c 24       		.byte	0x24
 18585 126d 21       		.byte	0x21
 18586 126e 03       		.byte	0x3
 18587 126f 06000000 		.4byte	m_mavlink_status.8046+6
 18588 1273 94       		.byte	0x94
 18589 1274 01       		.byte	0x1
 18590 1275 08       		.byte	0x8
 18591 1276 FF       		.byte	0xff
 18592 1277 1A       		.byte	0x1a
 18593 1278 08       		.byte	0x8
 18594 1279 6A       		.byte	0x6a
 18595 127a 27       		.byte	0x27
 18596 127b 34       		.byte	0x34
 18597 127c 24       		.byte	0x24
 18598 127d 03       		.byte	0x3
 18599 127e 06000000 		.4byte	m_mavlink_status.8046+6
 18600 1282 94       		.byte	0x94
 18601 1283 01       		.byte	0x1
ARM GAS  C:\Users\Mohamad\AppData\Local\Temp\ccDsqi1j.s 			page 328


 18602 1284 08       		.byte	0x8
 18603 1285 FF       		.byte	0xff
 18604 1286 1A       		.byte	0x1a
 18605 1287 27       		.byte	0x27
 18606 1288 08       		.byte	0x8
 18607 1289 6A       		.byte	0x6a
 18608 128a 27       		.byte	0x27
 18609 128b 08       		.byte	0x8
 18610 128c FF       		.byte	0xff
 18611 128d 1A       		.byte	0x1a
 18612 128e 34       		.byte	0x34
 18613 128f 25       		.byte	0x25
 18614 1290 08       		.byte	0x8
 18615 1291 D5       		.byte	0xd5
 18616 1292 27       		.byte	0x27
 18617 1293 03       		.byte	0x3
 18618 1294 06000000 		.4byte	m_mavlink_status.8046+6
 18619 1298 94       		.byte	0x94
 18620 1299 01       		.byte	0x1
 18621 129a 08       		.byte	0x8
 18622 129b FF       		.byte	0xff
 18623 129c 1A       		.byte	0x1a
 18624 129d 08       		.byte	0x8
 18625 129e 6A       		.byte	0x6a
 18626 129f 27       		.byte	0x27
 18627 12a0 34       		.byte	0x34
 18628 12a1 24       		.byte	0x24
 18629 12a2 03       		.byte	0x3
 18630 12a3 06000000 		.4byte	m_mavlink_status.8046+6
 18631 12a7 94       		.byte	0x94
 18632 12a8 01       		.byte	0x1
 18633 12a9 08       		.byte	0x8
 18634 12aa FF       		.byte	0xff
 18635 12ab 1A       		.byte	0x1a
 18636 12ac 27       		.byte	0x27
 18637 12ad 08       		.byte	0x8
 18638 12ae 6A       		.byte	0x6a
 18639 12af 27       		.byte	0x27
 18640 12b0 08       		.byte	0x8
 18641 12b1 FF       		.byte	0xff
 18642 12b2 1A       		.byte	0x1a
 18643 12b3 38       		.byte	0x38
 18644 12b4 24       		.byte	0x24
 18645 12b5 21       		.byte	0x21
 18646 12b6 03       		.byte	0x3
 18647 12b7 06000000 		.4byte	m_mavlink_status.8046+6
 18648 12bb 94       		.byte	0x94
 18649 12bc 01       		.byte	0x1
 18650 12bd 08       		.byte	0x8
 18651 12be FF       		.byte	0xff
 18652 12bf 1A       		.byte	0x1a
 18653 12c0 08       		.byte	0x8
 18654 12c1 6A       		.byte	0x6a
 18655 12c2 27       		.byte	0x27
 18656 12c3 34       		.byte	0x34
 18657 12c4 24       		.byte	0x24
 18658 12c5 03       		.byte	0x3
ARM GAS  C:\Users\Mohamad\AppData\Local\Temp\ccDsqi1j.s 			page 329


 18659 12c6 06000000 		.4byte	m_mavlink_status.8046+6
 18660 12ca 94       		.byte	0x94
 18661 12cb 01       		.byte	0x1
 18662 12cc 08       		.byte	0x8
 18663 12cd FF       		.byte	0xff
 18664 12ce 1A       		.byte	0x1a
 18665 12cf 27       		.byte	0x27
 18666 12d0 08       		.byte	0x8
 18667 12d1 6A       		.byte	0x6a
 18668 12d2 27       		.byte	0x27
 18669 12d3 08       		.byte	0x8
 18670 12d4 FF       		.byte	0xff
 18671 12d5 1A       		.byte	0x1a
 18672 12d6 33       		.byte	0x33
 18673 12d7 24       		.byte	0x24
 18674 12d8 31       		.byte	0x31
 18675 12d9 21       		.byte	0x21
 18676 12da 27       		.byte	0x27
 18677 12db 03       		.byte	0x3
 18678 12dc 06000000 		.4byte	m_mavlink_status.8046+6
 18679 12e0 94       		.byte	0x94
 18680 12e1 01       		.byte	0x1
 18681 12e2 08       		.byte	0x8
 18682 12e3 FF       		.byte	0xff
 18683 12e4 1A       		.byte	0x1a
 18684 12e5 08       		.byte	0x8
 18685 12e6 6A       		.byte	0x6a
 18686 12e7 27       		.byte	0x27
 18687 12e8 34       		.byte	0x34
 18688 12e9 24       		.byte	0x24
 18689 12ea 03       		.byte	0x3
 18690 12eb 06000000 		.4byte	m_mavlink_status.8046+6
 18691 12ef 94       		.byte	0x94
 18692 12f0 01       		.byte	0x1
 18693 12f1 08       		.byte	0x8
 18694 12f2 FF       		.byte	0xff
 18695 12f3 1A       		.byte	0x1a
 18696 12f4 27       		.byte	0x27
 18697 12f5 08       		.byte	0x8
 18698 12f6 6A       		.byte	0x6a
 18699 12f7 27       		.byte	0x27
 18700 12f8 08       		.byte	0x8
 18701 12f9 FF       		.byte	0xff
 18702 12fa 1A       		.byte	0x1a
 18703 12fb 34       		.byte	0x34
 18704 12fc 25       		.byte	0x25
 18705 12fd 08       		.byte	0x8
 18706 12fe D5       		.byte	0xd5
 18707 12ff 27       		.byte	0x27
 18708 1300 03       		.byte	0x3
 18709 1301 06000000 		.4byte	m_mavlink_status.8046+6
 18710 1305 94       		.byte	0x94
 18711 1306 01       		.byte	0x1
 18712 1307 08       		.byte	0x8
 18713 1308 FF       		.byte	0xff
 18714 1309 1A       		.byte	0x1a
 18715 130a 08       		.byte	0x8
ARM GAS  C:\Users\Mohamad\AppData\Local\Temp\ccDsqi1j.s 			page 330


 18716 130b 6A       		.byte	0x6a
 18717 130c 27       		.byte	0x27
 18718 130d 34       		.byte	0x34
 18719 130e 24       		.byte	0x24
 18720 130f 03       		.byte	0x3
 18721 1310 06000000 		.4byte	m_mavlink_status.8046+6
 18722 1314 94       		.byte	0x94
 18723 1315 01       		.byte	0x1
 18724 1316 08       		.byte	0x8
 18725 1317 FF       		.byte	0xff
 18726 1318 1A       		.byte	0x1a
 18727 1319 27       		.byte	0x27
 18728 131a 08       		.byte	0x8
 18729 131b 6A       		.byte	0x6a
 18730 131c 27       		.byte	0x27
 18731 131d 08       		.byte	0x8
 18732 131e FF       		.byte	0xff
 18733 131f 1A       		.byte	0x1a
 18734 1320 38       		.byte	0x38
 18735 1321 24       		.byte	0x24
 18736 1322 21       		.byte	0x21
 18737 1323 03       		.byte	0x3
 18738 1324 06000000 		.4byte	m_mavlink_status.8046+6
 18739 1328 94       		.byte	0x94
 18740 1329 01       		.byte	0x1
 18741 132a 08       		.byte	0x8
 18742 132b FF       		.byte	0xff
 18743 132c 1A       		.byte	0x1a
 18744 132d 08       		.byte	0x8
 18745 132e 6A       		.byte	0x6a
 18746 132f 27       		.byte	0x27
 18747 1330 34       		.byte	0x34
 18748 1331 24       		.byte	0x24
 18749 1332 03       		.byte	0x3
 18750 1333 06000000 		.4byte	m_mavlink_status.8046+6
 18751 1337 94       		.byte	0x94
 18752 1338 01       		.byte	0x1
 18753 1339 08       		.byte	0x8
 18754 133a FF       		.byte	0xff
 18755 133b 1A       		.byte	0x1a
 18756 133c 27       		.byte	0x27
 18757 133d 08       		.byte	0x8
 18758 133e 6A       		.byte	0x6a
 18759 133f 27       		.byte	0x27
 18760 1340 08       		.byte	0x8
 18761 1341 FF       		.byte	0xff
 18762 1342 1A       		.byte	0x1a
 18763 1343 33       		.byte	0x33
 18764 1344 24       		.byte	0x24
 18765 1345 31       		.byte	0x31
 18766 1346 21       		.byte	0x21
 18767 1347 27       		.byte	0x27
 18768 1348 34       		.byte	0x34
 18769 1349 24       		.byte	0x24
 18770 134a 27       		.byte	0x27
 18771 134b 08       		.byte	0x8
 18772 134c FF       		.byte	0xff
ARM GAS  C:\Users\Mohamad\AppData\Local\Temp\ccDsqi1j.s 			page 331


 18773 134d 1A       		.byte	0x1a
 18774 134e 33       		.byte	0x33
 18775 134f 24       		.byte	0x24
 18776 1350 31       		.byte	0x31
 18777 1351 21       		.byte	0x21
 18778 1352 27       		.byte	0x27
 18779 1353 03       		.byte	0x3
 18780 1354 06000000 		.4byte	m_mavlink_status.8046+6
 18781 1358 94       		.byte	0x94
 18782 1359 01       		.byte	0x1
 18783 135a 08       		.byte	0x8
 18784 135b FF       		.byte	0xff
 18785 135c 1A       		.byte	0x1a
 18786 135d 08       		.byte	0x8
 18787 135e 6A       		.byte	0x6a
 18788 135f 27       		.byte	0x27
 18789 1360 34       		.byte	0x34
 18790 1361 24       		.byte	0x24
 18791 1362 03       		.byte	0x3
 18792 1363 06000000 		.4byte	m_mavlink_status.8046+6
 18793 1367 94       		.byte	0x94
 18794 1368 01       		.byte	0x1
 18795 1369 08       		.byte	0x8
 18796 136a FF       		.byte	0xff
 18797 136b 1A       		.byte	0x1a
 18798 136c 27       		.byte	0x27
 18799 136d 08       		.byte	0x8
 18800 136e 6A       		.byte	0x6a
 18801 136f 27       		.byte	0x27
 18802 1370 08       		.byte	0x8
 18803 1371 FF       		.byte	0xff
 18804 1372 1A       		.byte	0x1a
 18805 1373 34       		.byte	0x34
 18806 1374 25       		.byte	0x25
 18807 1375 08       		.byte	0x8
 18808 1376 D5       		.byte	0xd5
 18809 1377 27       		.byte	0x27
 18810 1378 03       		.byte	0x3
 18811 1379 06000000 		.4byte	m_mavlink_status.8046+6
 18812 137d 94       		.byte	0x94
 18813 137e 01       		.byte	0x1
 18814 137f 08       		.byte	0x8
 18815 1380 FF       		.byte	0xff
 18816 1381 1A       		.byte	0x1a
 18817 1382 08       		.byte	0x8
 18818 1383 6A       		.byte	0x6a
 18819 1384 27       		.byte	0x27
 18820 1385 34       		.byte	0x34
 18821 1386 24       		.byte	0x24
 18822 1387 03       		.byte	0x3
 18823 1388 06000000 		.4byte	m_mavlink_status.8046+6
 18824 138c 94       		.byte	0x94
 18825 138d 01       		.byte	0x1
 18826 138e 08       		.byte	0x8
 18827 138f FF       		.byte	0xff
 18828 1390 1A       		.byte	0x1a
 18829 1391 27       		.byte	0x27
ARM GAS  C:\Users\Mohamad\AppData\Local\Temp\ccDsqi1j.s 			page 332


 18830 1392 08       		.byte	0x8
 18831 1393 6A       		.byte	0x6a
 18832 1394 27       		.byte	0x27
 18833 1395 08       		.byte	0x8
 18834 1396 FF       		.byte	0xff
 18835 1397 1A       		.byte	0x1a
 18836 1398 38       		.byte	0x38
 18837 1399 24       		.byte	0x24
 18838 139a 21       		.byte	0x21
 18839 139b 03       		.byte	0x3
 18840 139c 06000000 		.4byte	m_mavlink_status.8046+6
 18841 13a0 94       		.byte	0x94
 18842 13a1 01       		.byte	0x1
 18843 13a2 08       		.byte	0x8
 18844 13a3 FF       		.byte	0xff
 18845 13a4 1A       		.byte	0x1a
 18846 13a5 08       		.byte	0x8
 18847 13a6 6A       		.byte	0x6a
 18848 13a7 27       		.byte	0x27
 18849 13a8 34       		.byte	0x34
 18850 13a9 24       		.byte	0x24
 18851 13aa 03       		.byte	0x3
 18852 13ab 06000000 		.4byte	m_mavlink_status.8046+6
 18853 13af 94       		.byte	0x94
 18854 13b0 01       		.byte	0x1
 18855 13b1 08       		.byte	0x8
 18856 13b2 FF       		.byte	0xff
 18857 13b3 1A       		.byte	0x1a
 18858 13b4 27       		.byte	0x27
 18859 13b5 08       		.byte	0x8
 18860 13b6 6A       		.byte	0x6a
 18861 13b7 27       		.byte	0x27
 18862 13b8 08       		.byte	0x8
 18863 13b9 FF       		.byte	0xff
 18864 13ba 1A       		.byte	0x1a
 18865 13bb 33       		.byte	0x33
 18866 13bc 24       		.byte	0x24
 18867 13bd 31       		.byte	0x31
 18868 13be 21       		.byte	0x21
 18869 13bf 27       		.byte	0x27
 18870 13c0 03       		.byte	0x3
 18871 13c1 06000000 		.4byte	m_mavlink_status.8046+6
 18872 13c5 94       		.byte	0x94
 18873 13c6 01       		.byte	0x1
 18874 13c7 08       		.byte	0x8
 18875 13c8 FF       		.byte	0xff
 18876 13c9 1A       		.byte	0x1a
 18877 13ca 08       		.byte	0x8
 18878 13cb 6A       		.byte	0x6a
 18879 13cc 27       		.byte	0x27
 18880 13cd 34       		.byte	0x34
 18881 13ce 24       		.byte	0x24
 18882 13cf 03       		.byte	0x3
 18883 13d0 06000000 		.4byte	m_mavlink_status.8046+6
 18884 13d4 94       		.byte	0x94
 18885 13d5 01       		.byte	0x1
 18886 13d6 08       		.byte	0x8
ARM GAS  C:\Users\Mohamad\AppData\Local\Temp\ccDsqi1j.s 			page 333


 18887 13d7 FF       		.byte	0xff
 18888 13d8 1A       		.byte	0x1a
 18889 13d9 27       		.byte	0x27
 18890 13da 08       		.byte	0x8
 18891 13db 6A       		.byte	0x6a
 18892 13dc 27       		.byte	0x27
 18893 13dd 08       		.byte	0x8
 18894 13de FF       		.byte	0xff
 18895 13df 1A       		.byte	0x1a
 18896 13e0 34       		.byte	0x34
 18897 13e1 25       		.byte	0x25
 18898 13e2 08       		.byte	0x8
 18899 13e3 D5       		.byte	0xd5
 18900 13e4 27       		.byte	0x27
 18901 13e5 03       		.byte	0x3
 18902 13e6 06000000 		.4byte	m_mavlink_status.8046+6
 18903 13ea 94       		.byte	0x94
 18904 13eb 01       		.byte	0x1
 18905 13ec 08       		.byte	0x8
 18906 13ed FF       		.byte	0xff
 18907 13ee 1A       		.byte	0x1a
 18908 13ef 08       		.byte	0x8
 18909 13f0 6A       		.byte	0x6a
 18910 13f1 27       		.byte	0x27
 18911 13f2 34       		.byte	0x34
 18912 13f3 24       		.byte	0x24
 18913 13f4 03       		.byte	0x3
 18914 13f5 06000000 		.4byte	m_mavlink_status.8046+6
 18915 13f9 94       		.byte	0x94
 18916 13fa 01       		.byte	0x1
 18917 13fb 08       		.byte	0x8
 18918 13fc FF       		.byte	0xff
 18919 13fd 1A       		.byte	0x1a
 18920 13fe 27       		.byte	0x27
 18921 13ff 08       		.byte	0x8
 18922 1400 6A       		.byte	0x6a
 18923 1401 27       		.byte	0x27
 18924 1402 08       		.byte	0x8
 18925 1403 FF       		.byte	0xff
 18926 1404 1A       		.byte	0x1a
 18927 1405 38       		.byte	0x38
 18928 1406 24       		.byte	0x24
 18929 1407 21       		.byte	0x21
 18930 1408 03       		.byte	0x3
 18931 1409 06000000 		.4byte	m_mavlink_status.8046+6
 18932 140d 94       		.byte	0x94
 18933 140e 01       		.byte	0x1
 18934 140f 08       		.byte	0x8
 18935 1410 FF       		.byte	0xff
 18936 1411 1A       		.byte	0x1a
 18937 1412 08       		.byte	0x8
 18938 1413 6A       		.byte	0x6a
 18939 1414 27       		.byte	0x27
 18940 1415 34       		.byte	0x34
 18941 1416 24       		.byte	0x24
 18942 1417 03       		.byte	0x3
 18943 1418 06000000 		.4byte	m_mavlink_status.8046+6
ARM GAS  C:\Users\Mohamad\AppData\Local\Temp\ccDsqi1j.s 			page 334


 18944 141c 94       		.byte	0x94
 18945 141d 01       		.byte	0x1
 18946 141e 08       		.byte	0x8
 18947 141f FF       		.byte	0xff
 18948 1420 1A       		.byte	0x1a
 18949 1421 27       		.byte	0x27
 18950 1422 08       		.byte	0x8
 18951 1423 6A       		.byte	0x6a
 18952 1424 27       		.byte	0x27
 18953 1425 08       		.byte	0x8
 18954 1426 FF       		.byte	0xff
 18955 1427 1A       		.byte	0x1a
 18956 1428 33       		.byte	0x33
 18957 1429 24       		.byte	0x24
 18958 142a 31       		.byte	0x31
 18959 142b 21       		.byte	0x21
 18960 142c 27       		.byte	0x27
 18961 142d 34       		.byte	0x34
 18962 142e 24       		.byte	0x24
 18963 142f 27       		.byte	0x27
 18964 1430 08       		.byte	0x8
 18965 1431 FF       		.byte	0xff
 18966 1432 1A       		.byte	0x1a
 18967 1433 34       		.byte	0x34
 18968 1434 25       		.byte	0x25
 18969 1435 03       		.byte	0x3
 18970 1436 06000000 		.4byte	m_mavlink_status.8046+6
 18971 143a 94       		.byte	0x94
 18972 143b 01       		.byte	0x1
 18973 143c 08       		.byte	0x8
 18974 143d FF       		.byte	0xff
 18975 143e 1A       		.byte	0x1a
 18976 143f 08       		.byte	0x8
 18977 1440 6A       		.byte	0x6a
 18978 1441 27       		.byte	0x27
 18979 1442 34       		.byte	0x34
 18980 1443 24       		.byte	0x24
 18981 1444 03       		.byte	0x3
 18982 1445 06000000 		.4byte	m_mavlink_status.8046+6
 18983 1449 94       		.byte	0x94
 18984 144a 01       		.byte	0x1
 18985 144b 08       		.byte	0x8
 18986 144c FF       		.byte	0xff
 18987 144d 1A       		.byte	0x1a
 18988 144e 27       		.byte	0x27
 18989 144f 08       		.byte	0x8
 18990 1450 6A       		.byte	0x6a
 18991 1451 27       		.byte	0x27
 18992 1452 08       		.byte	0x8
 18993 1453 FF       		.byte	0xff
 18994 1454 1A       		.byte	0x1a
 18995 1455 34       		.byte	0x34
 18996 1456 25       		.byte	0x25
 18997 1457 08       		.byte	0x8
 18998 1458 D5       		.byte	0xd5
 18999 1459 27       		.byte	0x27
 19000 145a 03       		.byte	0x3
ARM GAS  C:\Users\Mohamad\AppData\Local\Temp\ccDsqi1j.s 			page 335


 19001 145b 06000000 		.4byte	m_mavlink_status.8046+6
 19002 145f 94       		.byte	0x94
 19003 1460 01       		.byte	0x1
 19004 1461 08       		.byte	0x8
 19005 1462 FF       		.byte	0xff
 19006 1463 1A       		.byte	0x1a
 19007 1464 08       		.byte	0x8
 19008 1465 6A       		.byte	0x6a
 19009 1466 27       		.byte	0x27
 19010 1467 34       		.byte	0x34
 19011 1468 24       		.byte	0x24
 19012 1469 03       		.byte	0x3
 19013 146a 06000000 		.4byte	m_mavlink_status.8046+6
 19014 146e 94       		.byte	0x94
 19015 146f 01       		.byte	0x1
 19016 1470 08       		.byte	0x8
 19017 1471 FF       		.byte	0xff
 19018 1472 1A       		.byte	0x1a
 19019 1473 27       		.byte	0x27
 19020 1474 08       		.byte	0x8
 19021 1475 6A       		.byte	0x6a
 19022 1476 27       		.byte	0x27
 19023 1477 08       		.byte	0x8
 19024 1478 FF       		.byte	0xff
 19025 1479 1A       		.byte	0x1a
 19026 147a 38       		.byte	0x38
 19027 147b 24       		.byte	0x24
 19028 147c 21       		.byte	0x21
 19029 147d 03       		.byte	0x3
 19030 147e 06000000 		.4byte	m_mavlink_status.8046+6
 19031 1482 94       		.byte	0x94
 19032 1483 01       		.byte	0x1
 19033 1484 08       		.byte	0x8
 19034 1485 FF       		.byte	0xff
 19035 1486 1A       		.byte	0x1a
 19036 1487 08       		.byte	0x8
 19037 1488 6A       		.byte	0x6a
 19038 1489 27       		.byte	0x27
 19039 148a 34       		.byte	0x34
 19040 148b 24       		.byte	0x24
 19041 148c 03       		.byte	0x3
 19042 148d 06000000 		.4byte	m_mavlink_status.8046+6
 19043 1491 94       		.byte	0x94
 19044 1492 01       		.byte	0x1
 19045 1493 08       		.byte	0x8
 19046 1494 FF       		.byte	0xff
 19047 1495 1A       		.byte	0x1a
 19048 1496 27       		.byte	0x27
 19049 1497 08       		.byte	0x8
 19050 1498 6A       		.byte	0x6a
 19051 1499 27       		.byte	0x27
 19052 149a 08       		.byte	0x8
 19053 149b FF       		.byte	0xff
 19054 149c 1A       		.byte	0x1a
 19055 149d 33       		.byte	0x33
 19056 149e 24       		.byte	0x24
 19057 149f 27       		.byte	0x27
ARM GAS  C:\Users\Mohamad\AppData\Local\Temp\ccDsqi1j.s 			page 336


 19058 14a0 38       		.byte	0x38
 19059 14a1 25       		.byte	0x25
 19060 14a2 27       		.byte	0x27
 19061 14a3 03       		.byte	0x3
 19062 14a4 06000000 		.4byte	m_mavlink_status.8046+6
 19063 14a8 94       		.byte	0x94
 19064 14a9 01       		.byte	0x1
 19065 14aa 08       		.byte	0x8
 19066 14ab FF       		.byte	0xff
 19067 14ac 1A       		.byte	0x1a
 19068 14ad 08       		.byte	0x8
 19069 14ae 6A       		.byte	0x6a
 19070 14af 27       		.byte	0x27
 19071 14b0 34       		.byte	0x34
 19072 14b1 24       		.byte	0x24
 19073 14b2 03       		.byte	0x3
 19074 14b3 06000000 		.4byte	m_mavlink_status.8046+6
 19075 14b7 94       		.byte	0x94
 19076 14b8 01       		.byte	0x1
 19077 14b9 08       		.byte	0x8
 19078 14ba FF       		.byte	0xff
 19079 14bb 1A       		.byte	0x1a
 19080 14bc 27       		.byte	0x27
 19081 14bd 08       		.byte	0x8
 19082 14be 6A       		.byte	0x6a
 19083 14bf 27       		.byte	0x27
 19084 14c0 08       		.byte	0x8
 19085 14c1 FF       		.byte	0xff
 19086 14c2 1A       		.byte	0x1a
 19087 14c3 34       		.byte	0x34
 19088 14c4 25       		.byte	0x25
 19089 14c5 08       		.byte	0x8
 19090 14c6 D5       		.byte	0xd5
 19091 14c7 27       		.byte	0x27
 19092 14c8 03       		.byte	0x3
 19093 14c9 06000000 		.4byte	m_mavlink_status.8046+6
 19094 14cd 94       		.byte	0x94
 19095 14ce 01       		.byte	0x1
 19096 14cf 08       		.byte	0x8
 19097 14d0 FF       		.byte	0xff
 19098 14d1 1A       		.byte	0x1a
 19099 14d2 08       		.byte	0x8
 19100 14d3 6A       		.byte	0x6a
 19101 14d4 27       		.byte	0x27
 19102 14d5 34       		.byte	0x34
 19103 14d6 24       		.byte	0x24
 19104 14d7 03       		.byte	0x3
 19105 14d8 06000000 		.4byte	m_mavlink_status.8046+6
 19106 14dc 94       		.byte	0x94
 19107 14dd 01       		.byte	0x1
 19108 14de 08       		.byte	0x8
 19109 14df FF       		.byte	0xff
 19110 14e0 1A       		.byte	0x1a
 19111 14e1 27       		.byte	0x27
 19112 14e2 08       		.byte	0x8
 19113 14e3 6A       		.byte	0x6a
 19114 14e4 27       		.byte	0x27
ARM GAS  C:\Users\Mohamad\AppData\Local\Temp\ccDsqi1j.s 			page 337


 19115 14e5 08       		.byte	0x8
 19116 14e6 FF       		.byte	0xff
 19117 14e7 1A       		.byte	0x1a
 19118 14e8 38       		.byte	0x38
 19119 14e9 24       		.byte	0x24
 19120 14ea 21       		.byte	0x21
 19121 14eb 03       		.byte	0x3
 19122 14ec 06000000 		.4byte	m_mavlink_status.8046+6
 19123 14f0 94       		.byte	0x94
 19124 14f1 01       		.byte	0x1
 19125 14f2 08       		.byte	0x8
 19126 14f3 FF       		.byte	0xff
 19127 14f4 1A       		.byte	0x1a
 19128 14f5 08       		.byte	0x8
 19129 14f6 6A       		.byte	0x6a
 19130 14f7 27       		.byte	0x27
 19131 14f8 34       		.byte	0x34
 19132 14f9 24       		.byte	0x24
 19133 14fa 03       		.byte	0x3
 19134 14fb 06000000 		.4byte	m_mavlink_status.8046+6
 19135 14ff 94       		.byte	0x94
 19136 1500 01       		.byte	0x1
 19137 1501 08       		.byte	0x8
 19138 1502 FF       		.byte	0xff
 19139 1503 1A       		.byte	0x1a
 19140 1504 27       		.byte	0x27
 19141 1505 08       		.byte	0x8
 19142 1506 6A       		.byte	0x6a
 19143 1507 27       		.byte	0x27
 19144 1508 08       		.byte	0x8
 19145 1509 FF       		.byte	0xff
 19146 150a 1A       		.byte	0x1a
 19147 150b 33       		.byte	0x33
 19148 150c 24       		.byte	0x24
 19149 150d 31       		.byte	0x31
 19150 150e 21       		.byte	0x21
 19151 150f 27       		.byte	0x27
 19152 1510 03       		.byte	0x3
 19153 1511 06000000 		.4byte	m_mavlink_status.8046+6
 19154 1515 94       		.byte	0x94
 19155 1516 01       		.byte	0x1
 19156 1517 08       		.byte	0x8
 19157 1518 FF       		.byte	0xff
 19158 1519 1A       		.byte	0x1a
 19159 151a 08       		.byte	0x8
 19160 151b 6A       		.byte	0x6a
 19161 151c 27       		.byte	0x27
 19162 151d 34       		.byte	0x34
 19163 151e 24       		.byte	0x24
 19164 151f 03       		.byte	0x3
 19165 1520 06000000 		.4byte	m_mavlink_status.8046+6
 19166 1524 94       		.byte	0x94
 19167 1525 01       		.byte	0x1
 19168 1526 08       		.byte	0x8
 19169 1527 FF       		.byte	0xff
 19170 1528 1A       		.byte	0x1a
 19171 1529 27       		.byte	0x27
ARM GAS  C:\Users\Mohamad\AppData\Local\Temp\ccDsqi1j.s 			page 338


 19172 152a 08       		.byte	0x8
 19173 152b 6A       		.byte	0x6a
 19174 152c 27       		.byte	0x27
 19175 152d 08       		.byte	0x8
 19176 152e FF       		.byte	0xff
 19177 152f 1A       		.byte	0x1a
 19178 1530 34       		.byte	0x34
 19179 1531 25       		.byte	0x25
 19180 1532 08       		.byte	0x8
 19181 1533 D5       		.byte	0xd5
 19182 1534 27       		.byte	0x27
 19183 1535 03       		.byte	0x3
 19184 1536 06000000 		.4byte	m_mavlink_status.8046+6
 19185 153a 94       		.byte	0x94
 19186 153b 01       		.byte	0x1
 19187 153c 08       		.byte	0x8
 19188 153d FF       		.byte	0xff
 19189 153e 1A       		.byte	0x1a
 19190 153f 08       		.byte	0x8
 19191 1540 6A       		.byte	0x6a
 19192 1541 27       		.byte	0x27
 19193 1542 34       		.byte	0x34
 19194 1543 24       		.byte	0x24
 19195 1544 03       		.byte	0x3
 19196 1545 06000000 		.4byte	m_mavlink_status.8046+6
 19197 1549 94       		.byte	0x94
 19198 154a 01       		.byte	0x1
 19199 154b 08       		.byte	0x8
 19200 154c FF       		.byte	0xff
 19201 154d 1A       		.byte	0x1a
 19202 154e 27       		.byte	0x27
 19203 154f 08       		.byte	0x8
 19204 1550 6A       		.byte	0x6a
 19205 1551 27       		.byte	0x27
 19206 1552 08       		.byte	0x8
 19207 1553 FF       		.byte	0xff
 19208 1554 1A       		.byte	0x1a
 19209 1555 38       		.byte	0x38
 19210 1556 24       		.byte	0x24
 19211 1557 21       		.byte	0x21
 19212 1558 03       		.byte	0x3
 19213 1559 06000000 		.4byte	m_mavlink_status.8046+6
 19214 155d 94       		.byte	0x94
 19215 155e 01       		.byte	0x1
 19216 155f 08       		.byte	0x8
 19217 1560 FF       		.byte	0xff
 19218 1561 1A       		.byte	0x1a
 19219 1562 08       		.byte	0x8
 19220 1563 6A       		.byte	0x6a
 19221 1564 27       		.byte	0x27
 19222 1565 34       		.byte	0x34
 19223 1566 24       		.byte	0x24
 19224 1567 03       		.byte	0x3
 19225 1568 06000000 		.4byte	m_mavlink_status.8046+6
 19226 156c 94       		.byte	0x94
 19227 156d 01       		.byte	0x1
 19228 156e 08       		.byte	0x8
ARM GAS  C:\Users\Mohamad\AppData\Local\Temp\ccDsqi1j.s 			page 339


 19229 156f FF       		.byte	0xff
 19230 1570 1A       		.byte	0x1a
 19231 1571 27       		.byte	0x27
 19232 1572 08       		.byte	0x8
 19233 1573 6A       		.byte	0x6a
 19234 1574 27       		.byte	0x27
 19235 1575 08       		.byte	0x8
 19236 1576 FF       		.byte	0xff
 19237 1577 1A       		.byte	0x1a
 19238 1578 33       		.byte	0x33
 19239 1579 24       		.byte	0x24
 19240 157a 31       		.byte	0x31
 19241 157b 21       		.byte	0x21
 19242 157c 27       		.byte	0x27
 19243 157d 34       		.byte	0x34
 19244 157e 24       		.byte	0x24
 19245 157f 27       		.byte	0x27
 19246 1580 08       		.byte	0x8
 19247 1581 FF       		.byte	0xff
 19248 1582 1A       		.byte	0x1a
 19249 1583 38       		.byte	0x38
 19250 1584 24       		.byte	0x24
 19251 1585 21       		.byte	0x21
 19252 1586 03       		.byte	0x3
 19253 1587 06000000 		.4byte	m_mavlink_status.8046+6
 19254 158b 94       		.byte	0x94
 19255 158c 01       		.byte	0x1
 19256 158d 08       		.byte	0x8
 19257 158e FF       		.byte	0xff
 19258 158f 1A       		.byte	0x1a
 19259 1590 08       		.byte	0x8
 19260 1591 6A       		.byte	0x6a
 19261 1592 27       		.byte	0x27
 19262 1593 34       		.byte	0x34
 19263 1594 24       		.byte	0x24
 19264 1595 03       		.byte	0x3
 19265 1596 06000000 		.4byte	m_mavlink_status.8046+6
 19266 159a 94       		.byte	0x94
 19267 159b 01       		.byte	0x1
 19268 159c 08       		.byte	0x8
 19269 159d FF       		.byte	0xff
 19270 159e 1A       		.byte	0x1a
 19271 159f 27       		.byte	0x27
 19272 15a0 08       		.byte	0x8
 19273 15a1 6A       		.byte	0x6a
 19274 15a2 27       		.byte	0x27
 19275 15a3 08       		.byte	0x8
 19276 15a4 FF       		.byte	0xff
 19277 15a5 1A       		.byte	0x1a
 19278 15a6 34       		.byte	0x34
 19279 15a7 25       		.byte	0x25
 19280 15a8 08       		.byte	0x8
 19281 15a9 D5       		.byte	0xd5
 19282 15aa 27       		.byte	0x27
 19283 15ab 03       		.byte	0x3
 19284 15ac 06000000 		.4byte	m_mavlink_status.8046+6
 19285 15b0 94       		.byte	0x94
ARM GAS  C:\Users\Mohamad\AppData\Local\Temp\ccDsqi1j.s 			page 340


 19286 15b1 01       		.byte	0x1
 19287 15b2 08       		.byte	0x8
 19288 15b3 FF       		.byte	0xff
 19289 15b4 1A       		.byte	0x1a
 19290 15b5 08       		.byte	0x8
 19291 15b6 6A       		.byte	0x6a
 19292 15b7 27       		.byte	0x27
 19293 15b8 34       		.byte	0x34
 19294 15b9 24       		.byte	0x24
 19295 15ba 03       		.byte	0x3
 19296 15bb 06000000 		.4byte	m_mavlink_status.8046+6
 19297 15bf 94       		.byte	0x94
 19298 15c0 01       		.byte	0x1
 19299 15c1 08       		.byte	0x8
 19300 15c2 FF       		.byte	0xff
 19301 15c3 1A       		.byte	0x1a
 19302 15c4 27       		.byte	0x27
 19303 15c5 08       		.byte	0x8
 19304 15c6 6A       		.byte	0x6a
 19305 15c7 27       		.byte	0x27
 19306 15c8 08       		.byte	0x8
 19307 15c9 FF       		.byte	0xff
 19308 15ca 1A       		.byte	0x1a
 19309 15cb 38       		.byte	0x38
 19310 15cc 24       		.byte	0x24
 19311 15cd 21       		.byte	0x21
 19312 15ce 03       		.byte	0x3
 19313 15cf 06000000 		.4byte	m_mavlink_status.8046+6
 19314 15d3 94       		.byte	0x94
 19315 15d4 01       		.byte	0x1
 19316 15d5 08       		.byte	0x8
 19317 15d6 FF       		.byte	0xff
 19318 15d7 1A       		.byte	0x1a
 19319 15d8 08       		.byte	0x8
 19320 15d9 6A       		.byte	0x6a
 19321 15da 27       		.byte	0x27
 19322 15db 34       		.byte	0x34
 19323 15dc 24       		.byte	0x24
 19324 15dd 03       		.byte	0x3
 19325 15de 06000000 		.4byte	m_mavlink_status.8046+6
 19326 15e2 94       		.byte	0x94
 19327 15e3 01       		.byte	0x1
 19328 15e4 08       		.byte	0x8
 19329 15e5 FF       		.byte	0xff
 19330 15e6 1A       		.byte	0x1a
 19331 15e7 27       		.byte	0x27
 19332 15e8 08       		.byte	0x8
 19333 15e9 6A       		.byte	0x6a
 19334 15ea 27       		.byte	0x27
 19335 15eb 08       		.byte	0x8
 19336 15ec FF       		.byte	0xff
 19337 15ed 1A       		.byte	0x1a
 19338 15ee 33       		.byte	0x33
 19339 15ef 24       		.byte	0x24
 19340 15f0 31       		.byte	0x31
 19341 15f1 21       		.byte	0x21
 19342 15f2 27       		.byte	0x27
ARM GAS  C:\Users\Mohamad\AppData\Local\Temp\ccDsqi1j.s 			page 341


 19343 15f3 03       		.byte	0x3
 19344 15f4 06000000 		.4byte	m_mavlink_status.8046+6
 19345 15f8 94       		.byte	0x94
 19346 15f9 01       		.byte	0x1
 19347 15fa 08       		.byte	0x8
 19348 15fb FF       		.byte	0xff
 19349 15fc 1A       		.byte	0x1a
 19350 15fd 08       		.byte	0x8
 19351 15fe 6A       		.byte	0x6a
 19352 15ff 27       		.byte	0x27
 19353 1600 34       		.byte	0x34
 19354 1601 24       		.byte	0x24
 19355 1602 03       		.byte	0x3
 19356 1603 06000000 		.4byte	m_mavlink_status.8046+6
 19357 1607 94       		.byte	0x94
 19358 1608 01       		.byte	0x1
 19359 1609 08       		.byte	0x8
 19360 160a FF       		.byte	0xff
 19361 160b 1A       		.byte	0x1a
 19362 160c 27       		.byte	0x27
 19363 160d 08       		.byte	0x8
 19364 160e 6A       		.byte	0x6a
 19365 160f 27       		.byte	0x27
 19366 1610 08       		.byte	0x8
 19367 1611 FF       		.byte	0xff
 19368 1612 1A       		.byte	0x1a
 19369 1613 34       		.byte	0x34
 19370 1614 25       		.byte	0x25
 19371 1615 08       		.byte	0x8
 19372 1616 D5       		.byte	0xd5
 19373 1617 27       		.byte	0x27
 19374 1618 03       		.byte	0x3
 19375 1619 06000000 		.4byte	m_mavlink_status.8046+6
 19376 161d 94       		.byte	0x94
 19377 161e 01       		.byte	0x1
 19378 161f 08       		.byte	0x8
 19379 1620 FF       		.byte	0xff
 19380 1621 1A       		.byte	0x1a
 19381 1622 08       		.byte	0x8
 19382 1623 6A       		.byte	0x6a
 19383 1624 27       		.byte	0x27
 19384 1625 34       		.byte	0x34
 19385 1626 24       		.byte	0x24
 19386 1627 03       		.byte	0x3
 19387 1628 06000000 		.4byte	m_mavlink_status.8046+6
 19388 162c 94       		.byte	0x94
 19389 162d 01       		.byte	0x1
 19390 162e 08       		.byte	0x8
 19391 162f FF       		.byte	0xff
 19392 1630 1A       		.byte	0x1a
 19393 1631 27       		.byte	0x27
 19394 1632 08       		.byte	0x8
 19395 1633 6A       		.byte	0x6a
 19396 1634 27       		.byte	0x27
 19397 1635 08       		.byte	0x8
 19398 1636 FF       		.byte	0xff
 19399 1637 1A       		.byte	0x1a
ARM GAS  C:\Users\Mohamad\AppData\Local\Temp\ccDsqi1j.s 			page 342


 19400 1638 38       		.byte	0x38
 19401 1639 24       		.byte	0x24
 19402 163a 21       		.byte	0x21
 19403 163b 03       		.byte	0x3
 19404 163c 06000000 		.4byte	m_mavlink_status.8046+6
 19405 1640 94       		.byte	0x94
 19406 1641 01       		.byte	0x1
 19407 1642 08       		.byte	0x8
 19408 1643 FF       		.byte	0xff
 19409 1644 1A       		.byte	0x1a
 19410 1645 08       		.byte	0x8
 19411 1646 6A       		.byte	0x6a
 19412 1647 27       		.byte	0x27
 19413 1648 34       		.byte	0x34
 19414 1649 24       		.byte	0x24
 19415 164a 03       		.byte	0x3
 19416 164b 06000000 		.4byte	m_mavlink_status.8046+6
 19417 164f 94       		.byte	0x94
 19418 1650 01       		.byte	0x1
 19419 1651 08       		.byte	0x8
 19420 1652 FF       		.byte	0xff
 19421 1653 1A       		.byte	0x1a
 19422 1654 27       		.byte	0x27
 19423 1655 08       		.byte	0x8
 19424 1656 6A       		.byte	0x6a
 19425 1657 27       		.byte	0x27
 19426 1658 08       		.byte	0x8
 19427 1659 FF       		.byte	0xff
 19428 165a 1A       		.byte	0x1a
 19429 165b 33       		.byte	0x33
 19430 165c 24       		.byte	0x24
 19431 165d 31       		.byte	0x31
 19432 165e 21       		.byte	0x21
 19433 165f 27       		.byte	0x27
 19434 1660 34       		.byte	0x34
 19435 1661 24       		.byte	0x24
 19436 1662 27       		.byte	0x27
 19437 1663 08       		.byte	0x8
 19438 1664 FF       		.byte	0xff
 19439 1665 1A       		.byte	0x1a
 19440 1666 33       		.byte	0x33
 19441 1667 24       		.byte	0x24
 19442 1668 31       		.byte	0x31
 19443 1669 21       		.byte	0x21
 19444 166a 27       		.byte	0x27
 19445 166b 34       		.byte	0x34
 19446 166c 24       		.byte	0x24
 19447 166d 27       		.byte	0x27
 19448 166e 08       		.byte	0x8
 19449 166f FF       		.byte	0xff
 19450 1670 1A       		.byte	0x1a
 19451 1671 33       		.byte	0x33
 19452 1672 24       		.byte	0x24
 19453 1673 03       		.byte	0x3
 19454 1674 06000000 		.4byte	m_mavlink_status.8046+6
 19455 1678 94       		.byte	0x94
 19456 1679 01       		.byte	0x1
ARM GAS  C:\Users\Mohamad\AppData\Local\Temp\ccDsqi1j.s 			page 343


 19457 167a 08       		.byte	0x8
 19458 167b FF       		.byte	0xff
 19459 167c 1A       		.byte	0x1a
 19460 167d 08       		.byte	0x8
 19461 167e 6A       		.byte	0x6a
 19462 167f 27       		.byte	0x27
 19463 1680 34       		.byte	0x34
 19464 1681 24       		.byte	0x24
 19465 1682 03       		.byte	0x3
 19466 1683 06000000 		.4byte	m_mavlink_status.8046+6
 19467 1687 94       		.byte	0x94
 19468 1688 01       		.byte	0x1
 19469 1689 08       		.byte	0x8
 19470 168a FF       		.byte	0xff
 19471 168b 1A       		.byte	0x1a
 19472 168c 27       		.byte	0x27
 19473 168d 08       		.byte	0x8
 19474 168e 6A       		.byte	0x6a
 19475 168f 27       		.byte	0x27
 19476 1690 08       		.byte	0x8
 19477 1691 FF       		.byte	0xff
 19478 1692 1A       		.byte	0x1a
 19479 1693 34       		.byte	0x34
 19480 1694 25       		.byte	0x25
 19481 1695 08       		.byte	0x8
 19482 1696 D5       		.byte	0xd5
 19483 1697 27       		.byte	0x27
 19484 1698 03       		.byte	0x3
 19485 1699 06000000 		.4byte	m_mavlink_status.8046+6
 19486 169d 94       		.byte	0x94
 19487 169e 01       		.byte	0x1
 19488 169f 08       		.byte	0x8
 19489 16a0 FF       		.byte	0xff
 19490 16a1 1A       		.byte	0x1a
 19491 16a2 08       		.byte	0x8
 19492 16a3 6A       		.byte	0x6a
 19493 16a4 27       		.byte	0x27
 19494 16a5 34       		.byte	0x34
 19495 16a6 24       		.byte	0x24
 19496 16a7 03       		.byte	0x3
 19497 16a8 06000000 		.4byte	m_mavlink_status.8046+6
 19498 16ac 94       		.byte	0x94
 19499 16ad 01       		.byte	0x1
 19500 16ae 08       		.byte	0x8
 19501 16af FF       		.byte	0xff
 19502 16b0 1A       		.byte	0x1a
 19503 16b1 27       		.byte	0x27
 19504 16b2 08       		.byte	0x8
 19505 16b3 6A       		.byte	0x6a
 19506 16b4 27       		.byte	0x27
 19507 16b5 08       		.byte	0x8
 19508 16b6 FF       		.byte	0xff
 19509 16b7 1A       		.byte	0x1a
 19510 16b8 38       		.byte	0x38
 19511 16b9 24       		.byte	0x24
 19512 16ba 21       		.byte	0x21
 19513 16bb 03       		.byte	0x3
ARM GAS  C:\Users\Mohamad\AppData\Local\Temp\ccDsqi1j.s 			page 344


 19514 16bc 06000000 		.4byte	m_mavlink_status.8046+6
 19515 16c0 94       		.byte	0x94
 19516 16c1 01       		.byte	0x1
 19517 16c2 08       		.byte	0x8
 19518 16c3 FF       		.byte	0xff
 19519 16c4 1A       		.byte	0x1a
 19520 16c5 08       		.byte	0x8
 19521 16c6 6A       		.byte	0x6a
 19522 16c7 27       		.byte	0x27
 19523 16c8 34       		.byte	0x34
 19524 16c9 24       		.byte	0x24
 19525 16ca 03       		.byte	0x3
 19526 16cb 06000000 		.4byte	m_mavlink_status.8046+6
 19527 16cf 94       		.byte	0x94
 19528 16d0 01       		.byte	0x1
 19529 16d1 08       		.byte	0x8
 19530 16d2 FF       		.byte	0xff
 19531 16d3 1A       		.byte	0x1a
 19532 16d4 27       		.byte	0x27
 19533 16d5 08       		.byte	0x8
 19534 16d6 6A       		.byte	0x6a
 19535 16d7 27       		.byte	0x27
 19536 16d8 08       		.byte	0x8
 19537 16d9 FF       		.byte	0xff
 19538 16da 1A       		.byte	0x1a
 19539 16db 33       		.byte	0x33
 19540 16dc 24       		.byte	0x24
 19541 16dd 31       		.byte	0x31
 19542 16de 21       		.byte	0x21
 19543 16df 27       		.byte	0x27
 19544 16e0 03       		.byte	0x3
 19545 16e1 06000000 		.4byte	m_mavlink_status.8046+6
 19546 16e5 94       		.byte	0x94
 19547 16e6 01       		.byte	0x1
 19548 16e7 08       		.byte	0x8
 19549 16e8 FF       		.byte	0xff
 19550 16e9 1A       		.byte	0x1a
 19551 16ea 08       		.byte	0x8
 19552 16eb 6A       		.byte	0x6a
 19553 16ec 27       		.byte	0x27
 19554 16ed 34       		.byte	0x34
 19555 16ee 24       		.byte	0x24
 19556 16ef 03       		.byte	0x3
 19557 16f0 06000000 		.4byte	m_mavlink_status.8046+6
 19558 16f4 94       		.byte	0x94
 19559 16f5 01       		.byte	0x1
 19560 16f6 08       		.byte	0x8
 19561 16f7 FF       		.byte	0xff
 19562 16f8 1A       		.byte	0x1a
 19563 16f9 27       		.byte	0x27
 19564 16fa 08       		.byte	0x8
 19565 16fb 6A       		.byte	0x6a
 19566 16fc 27       		.byte	0x27
 19567 16fd 08       		.byte	0x8
 19568 16fe FF       		.byte	0xff
 19569 16ff 1A       		.byte	0x1a
 19570 1700 34       		.byte	0x34
ARM GAS  C:\Users\Mohamad\AppData\Local\Temp\ccDsqi1j.s 			page 345


 19571 1701 25       		.byte	0x25
 19572 1702 08       		.byte	0x8
 19573 1703 D5       		.byte	0xd5
 19574 1704 27       		.byte	0x27
 19575 1705 03       		.byte	0x3
 19576 1706 06000000 		.4byte	m_mavlink_status.8046+6
 19577 170a 94       		.byte	0x94
 19578 170b 01       		.byte	0x1
 19579 170c 08       		.byte	0x8
 19580 170d FF       		.byte	0xff
 19581 170e 1A       		.byte	0x1a
 19582 170f 08       		.byte	0x8
 19583 1710 6A       		.byte	0x6a
 19584 1711 27       		.byte	0x27
 19585 1712 34       		.byte	0x34
 19586 1713 24       		.byte	0x24
 19587 1714 03       		.byte	0x3
 19588 1715 06000000 		.4byte	m_mavlink_status.8046+6
 19589 1719 94       		.byte	0x94
 19590 171a 01       		.byte	0x1
 19591 171b 08       		.byte	0x8
 19592 171c FF       		.byte	0xff
 19593 171d 1A       		.byte	0x1a
 19594 171e 27       		.byte	0x27
 19595 171f 08       		.byte	0x8
 19596 1720 6A       		.byte	0x6a
 19597 1721 27       		.byte	0x27
 19598 1722 08       		.byte	0x8
 19599 1723 FF       		.byte	0xff
 19600 1724 1A       		.byte	0x1a
 19601 1725 38       		.byte	0x38
 19602 1726 24       		.byte	0x24
 19603 1727 21       		.byte	0x21
 19604 1728 03       		.byte	0x3
 19605 1729 06000000 		.4byte	m_mavlink_status.8046+6
 19606 172d 94       		.byte	0x94
 19607 172e 01       		.byte	0x1
 19608 172f 08       		.byte	0x8
 19609 1730 FF       		.byte	0xff
 19610 1731 1A       		.byte	0x1a
 19611 1732 08       		.byte	0x8
 19612 1733 6A       		.byte	0x6a
 19613 1734 27       		.byte	0x27
 19614 1735 34       		.byte	0x34
 19615 1736 24       		.byte	0x24
 19616 1737 03       		.byte	0x3
 19617 1738 06000000 		.4byte	m_mavlink_status.8046+6
 19618 173c 94       		.byte	0x94
 19619 173d 01       		.byte	0x1
 19620 173e 08       		.byte	0x8
 19621 173f FF       		.byte	0xff
 19622 1740 1A       		.byte	0x1a
 19623 1741 27       		.byte	0x27
 19624 1742 08       		.byte	0x8
 19625 1743 6A       		.byte	0x6a
 19626 1744 27       		.byte	0x27
 19627 1745 08       		.byte	0x8
ARM GAS  C:\Users\Mohamad\AppData\Local\Temp\ccDsqi1j.s 			page 346


 19628 1746 FF       		.byte	0xff
 19629 1747 1A       		.byte	0x1a
 19630 1748 33       		.byte	0x33
 19631 1749 24       		.byte	0x24
 19632 174a 31       		.byte	0x31
 19633 174b 21       		.byte	0x21
 19634 174c 27       		.byte	0x27
 19635 174d 34       		.byte	0x34
 19636 174e 24       		.byte	0x24
 19637 174f 27       		.byte	0x27
 19638 1750 08       		.byte	0x8
 19639 1751 FF       		.byte	0xff
 19640 1752 1A       		.byte	0x1a
 19641 1753 34       		.byte	0x34
 19642 1754 25       		.byte	0x25
 19643 1755 03       		.byte	0x3
 19644 1756 06000000 		.4byte	m_mavlink_status.8046+6
 19645 175a 94       		.byte	0x94
 19646 175b 01       		.byte	0x1
 19647 175c 08       		.byte	0x8
 19648 175d FF       		.byte	0xff
 19649 175e 1A       		.byte	0x1a
 19650 175f 08       		.byte	0x8
 19651 1760 6A       		.byte	0x6a
 19652 1761 27       		.byte	0x27
 19653 1762 34       		.byte	0x34
 19654 1763 24       		.byte	0x24
 19655 1764 03       		.byte	0x3
 19656 1765 06000000 		.4byte	m_mavlink_status.8046+6
 19657 1769 94       		.byte	0x94
 19658 176a 01       		.byte	0x1
 19659 176b 08       		.byte	0x8
 19660 176c FF       		.byte	0xff
 19661 176d 1A       		.byte	0x1a
 19662 176e 27       		.byte	0x27
 19663 176f 08       		.byte	0x8
 19664 1770 6A       		.byte	0x6a
 19665 1771 27       		.byte	0x27
 19666 1772 08       		.byte	0x8
 19667 1773 FF       		.byte	0xff
 19668 1774 1A       		.byte	0x1a
 19669 1775 34       		.byte	0x34
 19670 1776 25       		.byte	0x25
 19671 1777 08       		.byte	0x8
 19672 1778 D5       		.byte	0xd5
 19673 1779 27       		.byte	0x27
 19674 177a 03       		.byte	0x3
 19675 177b 06000000 		.4byte	m_mavlink_status.8046+6
 19676 177f 94       		.byte	0x94
 19677 1780 01       		.byte	0x1
 19678 1781 08       		.byte	0x8
 19679 1782 FF       		.byte	0xff
 19680 1783 1A       		.byte	0x1a
 19681 1784 08       		.byte	0x8
 19682 1785 6A       		.byte	0x6a
 19683 1786 27       		.byte	0x27
 19684 1787 34       		.byte	0x34
ARM GAS  C:\Users\Mohamad\AppData\Local\Temp\ccDsqi1j.s 			page 347


 19685 1788 24       		.byte	0x24
 19686 1789 03       		.byte	0x3
 19687 178a 06000000 		.4byte	m_mavlink_status.8046+6
 19688 178e 94       		.byte	0x94
 19689 178f 01       		.byte	0x1
 19690 1790 08       		.byte	0x8
 19691 1791 FF       		.byte	0xff
 19692 1792 1A       		.byte	0x1a
 19693 1793 27       		.byte	0x27
 19694 1794 08       		.byte	0x8
 19695 1795 6A       		.byte	0x6a
 19696 1796 27       		.byte	0x27
 19697 1797 08       		.byte	0x8
 19698 1798 FF       		.byte	0xff
 19699 1799 1A       		.byte	0x1a
 19700 179a 38       		.byte	0x38
 19701 179b 24       		.byte	0x24
 19702 179c 21       		.byte	0x21
 19703 179d 03       		.byte	0x3
 19704 179e 06000000 		.4byte	m_mavlink_status.8046+6
 19705 17a2 94       		.byte	0x94
 19706 17a3 01       		.byte	0x1
 19707 17a4 08       		.byte	0x8
 19708 17a5 FF       		.byte	0xff
 19709 17a6 1A       		.byte	0x1a
 19710 17a7 08       		.byte	0x8
 19711 17a8 6A       		.byte	0x6a
 19712 17a9 27       		.byte	0x27
 19713 17aa 34       		.byte	0x34
 19714 17ab 24       		.byte	0x24
 19715 17ac 03       		.byte	0x3
 19716 17ad 06000000 		.4byte	m_mavlink_status.8046+6
 19717 17b1 94       		.byte	0x94
 19718 17b2 01       		.byte	0x1
 19719 17b3 08       		.byte	0x8
 19720 17b4 FF       		.byte	0xff
 19721 17b5 1A       		.byte	0x1a
 19722 17b6 27       		.byte	0x27
 19723 17b7 08       		.byte	0x8
 19724 17b8 6A       		.byte	0x6a
 19725 17b9 27       		.byte	0x27
 19726 17ba 08       		.byte	0x8
 19727 17bb FF       		.byte	0xff
 19728 17bc 1A       		.byte	0x1a
 19729 17bd 33       		.byte	0x33
 19730 17be 24       		.byte	0x24
 19731 17bf 27       		.byte	0x27
 19732 17c0 38       		.byte	0x38
 19733 17c1 25       		.byte	0x25
 19734 17c2 27       		.byte	0x27
 19735 17c3 03       		.byte	0x3
 19736 17c4 06000000 		.4byte	m_mavlink_status.8046+6
 19737 17c8 94       		.byte	0x94
 19738 17c9 01       		.byte	0x1
 19739 17ca 08       		.byte	0x8
 19740 17cb FF       		.byte	0xff
 19741 17cc 1A       		.byte	0x1a
ARM GAS  C:\Users\Mohamad\AppData\Local\Temp\ccDsqi1j.s 			page 348


 19742 17cd 08       		.byte	0x8
 19743 17ce 6A       		.byte	0x6a
 19744 17cf 27       		.byte	0x27
 19745 17d0 34       		.byte	0x34
 19746 17d1 24       		.byte	0x24
 19747 17d2 03       		.byte	0x3
 19748 17d3 06000000 		.4byte	m_mavlink_status.8046+6
 19749 17d7 94       		.byte	0x94
 19750 17d8 01       		.byte	0x1
 19751 17d9 08       		.byte	0x8
 19752 17da FF       		.byte	0xff
 19753 17db 1A       		.byte	0x1a
 19754 17dc 27       		.byte	0x27
 19755 17dd 08       		.byte	0x8
 19756 17de 6A       		.byte	0x6a
 19757 17df 27       		.byte	0x27
 19758 17e0 08       		.byte	0x8
 19759 17e1 FF       		.byte	0xff
 19760 17e2 1A       		.byte	0x1a
 19761 17e3 34       		.byte	0x34
 19762 17e4 25       		.byte	0x25
 19763 17e5 08       		.byte	0x8
 19764 17e6 D5       		.byte	0xd5
 19765 17e7 27       		.byte	0x27
 19766 17e8 03       		.byte	0x3
 19767 17e9 06000000 		.4byte	m_mavlink_status.8046+6
 19768 17ed 94       		.byte	0x94
 19769 17ee 01       		.byte	0x1
 19770 17ef 08       		.byte	0x8
 19771 17f0 FF       		.byte	0xff
 19772 17f1 1A       		.byte	0x1a
 19773 17f2 08       		.byte	0x8
 19774 17f3 6A       		.byte	0x6a
 19775 17f4 27       		.byte	0x27
 19776 17f5 34       		.byte	0x34
 19777 17f6 24       		.byte	0x24
 19778 17f7 03       		.byte	0x3
 19779 17f8 06000000 		.4byte	m_mavlink_status.8046+6
 19780 17fc 94       		.byte	0x94
 19781 17fd 01       		.byte	0x1
 19782 17fe 08       		.byte	0x8
 19783 17ff FF       		.byte	0xff
 19784 1800 1A       		.byte	0x1a
 19785 1801 27       		.byte	0x27
 19786 1802 08       		.byte	0x8
 19787 1803 6A       		.byte	0x6a
 19788 1804 27       		.byte	0x27
 19789 1805 08       		.byte	0x8
 19790 1806 FF       		.byte	0xff
 19791 1807 1A       		.byte	0x1a
 19792 1808 38       		.byte	0x38
 19793 1809 24       		.byte	0x24
 19794 180a 21       		.byte	0x21
 19795 180b 03       		.byte	0x3
 19796 180c 06000000 		.4byte	m_mavlink_status.8046+6
 19797 1810 94       		.byte	0x94
 19798 1811 01       		.byte	0x1
ARM GAS  C:\Users\Mohamad\AppData\Local\Temp\ccDsqi1j.s 			page 349


 19799 1812 08       		.byte	0x8
 19800 1813 FF       		.byte	0xff
 19801 1814 1A       		.byte	0x1a
 19802 1815 08       		.byte	0x8
 19803 1816 6A       		.byte	0x6a
 19804 1817 27       		.byte	0x27
 19805 1818 34       		.byte	0x34
 19806 1819 24       		.byte	0x24
 19807 181a 03       		.byte	0x3
 19808 181b 06000000 		.4byte	m_mavlink_status.8046+6
 19809 181f 94       		.byte	0x94
 19810 1820 01       		.byte	0x1
 19811 1821 08       		.byte	0x8
 19812 1822 FF       		.byte	0xff
 19813 1823 1A       		.byte	0x1a
 19814 1824 27       		.byte	0x27
 19815 1825 08       		.byte	0x8
 19816 1826 6A       		.byte	0x6a
 19817 1827 27       		.byte	0x27
 19818 1828 08       		.byte	0x8
 19819 1829 FF       		.byte	0xff
 19820 182a 1A       		.byte	0x1a
 19821 182b 33       		.byte	0x33
 19822 182c 24       		.byte	0x24
 19823 182d 31       		.byte	0x31
 19824 182e 21       		.byte	0x21
 19825 182f 27       		.byte	0x27
 19826 1830 03       		.byte	0x3
 19827 1831 06000000 		.4byte	m_mavlink_status.8046+6
 19828 1835 94       		.byte	0x94
 19829 1836 01       		.byte	0x1
 19830 1837 08       		.byte	0x8
 19831 1838 FF       		.byte	0xff
 19832 1839 1A       		.byte	0x1a
 19833 183a 08       		.byte	0x8
 19834 183b 6A       		.byte	0x6a
 19835 183c 27       		.byte	0x27
 19836 183d 34       		.byte	0x34
 19837 183e 24       		.byte	0x24
 19838 183f 03       		.byte	0x3
 19839 1840 06000000 		.4byte	m_mavlink_status.8046+6
 19840 1844 94       		.byte	0x94
 19841 1845 01       		.byte	0x1
 19842 1846 08       		.byte	0x8
 19843 1847 FF       		.byte	0xff
 19844 1848 1A       		.byte	0x1a
 19845 1849 27       		.byte	0x27
 19846 184a 08       		.byte	0x8
 19847 184b 6A       		.byte	0x6a
 19848 184c 27       		.byte	0x27
 19849 184d 08       		.byte	0x8
 19850 184e FF       		.byte	0xff
 19851 184f 1A       		.byte	0x1a
 19852 1850 34       		.byte	0x34
 19853 1851 25       		.byte	0x25
 19854 1852 08       		.byte	0x8
 19855 1853 D5       		.byte	0xd5
ARM GAS  C:\Users\Mohamad\AppData\Local\Temp\ccDsqi1j.s 			page 350


 19856 1854 27       		.byte	0x27
 19857 1855 03       		.byte	0x3
 19858 1856 06000000 		.4byte	m_mavlink_status.8046+6
 19859 185a 94       		.byte	0x94
 19860 185b 01       		.byte	0x1
 19861 185c 08       		.byte	0x8
 19862 185d FF       		.byte	0xff
 19863 185e 1A       		.byte	0x1a
 19864 185f 08       		.byte	0x8
 19865 1860 6A       		.byte	0x6a
 19866 1861 27       		.byte	0x27
 19867 1862 34       		.byte	0x34
 19868 1863 24       		.byte	0x24
 19869 1864 03       		.byte	0x3
 19870 1865 06000000 		.4byte	m_mavlink_status.8046+6
 19871 1869 94       		.byte	0x94
 19872 186a 01       		.byte	0x1
 19873 186b 08       		.byte	0x8
 19874 186c FF       		.byte	0xff
 19875 186d 1A       		.byte	0x1a
 19876 186e 27       		.byte	0x27
 19877 186f 08       		.byte	0x8
 19878 1870 6A       		.byte	0x6a
 19879 1871 27       		.byte	0x27
 19880 1872 08       		.byte	0x8
 19881 1873 FF       		.byte	0xff
 19882 1874 1A       		.byte	0x1a
 19883 1875 38       		.byte	0x38
 19884 1876 24       		.byte	0x24
 19885 1877 21       		.byte	0x21
 19886 1878 03       		.byte	0x3
 19887 1879 06000000 		.4byte	m_mavlink_status.8046+6
 19888 187d 94       		.byte	0x94
 19889 187e 01       		.byte	0x1
 19890 187f 08       		.byte	0x8
 19891 1880 FF       		.byte	0xff
 19892 1881 1A       		.byte	0x1a
 19893 1882 08       		.byte	0x8
 19894 1883 6A       		.byte	0x6a
 19895 1884 27       		.byte	0x27
 19896 1885 34       		.byte	0x34
 19897 1886 24       		.byte	0x24
 19898 1887 03       		.byte	0x3
 19899 1888 06000000 		.4byte	m_mavlink_status.8046+6
 19900 188c 94       		.byte	0x94
 19901 188d 01       		.byte	0x1
 19902 188e 08       		.byte	0x8
 19903 188f FF       		.byte	0xff
 19904 1890 1A       		.byte	0x1a
 19905 1891 27       		.byte	0x27
 19906 1892 08       		.byte	0x8
 19907 1893 6A       		.byte	0x6a
 19908 1894 27       		.byte	0x27
 19909 1895 08       		.byte	0x8
 19910 1896 FF       		.byte	0xff
 19911 1897 1A       		.byte	0x1a
 19912 1898 33       		.byte	0x33
ARM GAS  C:\Users\Mohamad\AppData\Local\Temp\ccDsqi1j.s 			page 351


 19913 1899 24       		.byte	0x24
 19914 189a 31       		.byte	0x31
 19915 189b 21       		.byte	0x21
 19916 189c 27       		.byte	0x27
 19917 189d 34       		.byte	0x34
 19918 189e 24       		.byte	0x24
 19919 189f 27       		.byte	0x27
 19920 18a0 08       		.byte	0x8
 19921 18a1 FF       		.byte	0xff
 19922 18a2 1A       		.byte	0x1a
 19923 18a3 38       		.byte	0x38
 19924 18a4 24       		.byte	0x24
 19925 18a5 21       		.byte	0x21
 19926 18a6 03       		.byte	0x3
 19927 18a7 06000000 		.4byte	m_mavlink_status.8046+6
 19928 18ab 94       		.byte	0x94
 19929 18ac 01       		.byte	0x1
 19930 18ad 08       		.byte	0x8
 19931 18ae FF       		.byte	0xff
 19932 18af 1A       		.byte	0x1a
 19933 18b0 08       		.byte	0x8
 19934 18b1 6A       		.byte	0x6a
 19935 18b2 27       		.byte	0x27
 19936 18b3 34       		.byte	0x34
 19937 18b4 24       		.byte	0x24
 19938 18b5 03       		.byte	0x3
 19939 18b6 06000000 		.4byte	m_mavlink_status.8046+6
 19940 18ba 94       		.byte	0x94
 19941 18bb 01       		.byte	0x1
 19942 18bc 08       		.byte	0x8
 19943 18bd FF       		.byte	0xff
 19944 18be 1A       		.byte	0x1a
 19945 18bf 27       		.byte	0x27
 19946 18c0 08       		.byte	0x8
 19947 18c1 6A       		.byte	0x6a
 19948 18c2 27       		.byte	0x27
 19949 18c3 08       		.byte	0x8
 19950 18c4 FF       		.byte	0xff
 19951 18c5 1A       		.byte	0x1a
 19952 18c6 34       		.byte	0x34
 19953 18c7 25       		.byte	0x25
 19954 18c8 08       		.byte	0x8
 19955 18c9 D5       		.byte	0xd5
 19956 18ca 27       		.byte	0x27
 19957 18cb 03       		.byte	0x3
 19958 18cc 06000000 		.4byte	m_mavlink_status.8046+6
 19959 18d0 94       		.byte	0x94
 19960 18d1 01       		.byte	0x1
 19961 18d2 08       		.byte	0x8
 19962 18d3 FF       		.byte	0xff
 19963 18d4 1A       		.byte	0x1a
 19964 18d5 08       		.byte	0x8
 19965 18d6 6A       		.byte	0x6a
 19966 18d7 27       		.byte	0x27
 19967 18d8 34       		.byte	0x34
 19968 18d9 24       		.byte	0x24
 19969 18da 03       		.byte	0x3
ARM GAS  C:\Users\Mohamad\AppData\Local\Temp\ccDsqi1j.s 			page 352


 19970 18db 06000000 		.4byte	m_mavlink_status.8046+6
 19971 18df 94       		.byte	0x94
 19972 18e0 01       		.byte	0x1
 19973 18e1 08       		.byte	0x8
 19974 18e2 FF       		.byte	0xff
 19975 18e3 1A       		.byte	0x1a
 19976 18e4 27       		.byte	0x27
 19977 18e5 08       		.byte	0x8
 19978 18e6 6A       		.byte	0x6a
 19979 18e7 27       		.byte	0x27
 19980 18e8 08       		.byte	0x8
 19981 18e9 FF       		.byte	0xff
 19982 18ea 1A       		.byte	0x1a
 19983 18eb 38       		.byte	0x38
 19984 18ec 24       		.byte	0x24
 19985 18ed 21       		.byte	0x21
 19986 18ee 03       		.byte	0x3
 19987 18ef 06000000 		.4byte	m_mavlink_status.8046+6
 19988 18f3 94       		.byte	0x94
 19989 18f4 01       		.byte	0x1
 19990 18f5 08       		.byte	0x8
 19991 18f6 FF       		.byte	0xff
 19992 18f7 1A       		.byte	0x1a
 19993 18f8 08       		.byte	0x8
 19994 18f9 6A       		.byte	0x6a
 19995 18fa 27       		.byte	0x27
 19996 18fb 34       		.byte	0x34
 19997 18fc 24       		.byte	0x24
 19998 18fd 03       		.byte	0x3
 19999 18fe 06000000 		.4byte	m_mavlink_status.8046+6
 20000 1902 94       		.byte	0x94
 20001 1903 01       		.byte	0x1
 20002 1904 08       		.byte	0x8
 20003 1905 FF       		.byte	0xff
 20004 1906 1A       		.byte	0x1a
 20005 1907 27       		.byte	0x27
 20006 1908 08       		.byte	0x8
 20007 1909 6A       		.byte	0x6a
 20008 190a 27       		.byte	0x27
 20009 190b 08       		.byte	0x8
 20010 190c FF       		.byte	0xff
 20011 190d 1A       		.byte	0x1a
 20012 190e 33       		.byte	0x33
 20013 190f 24       		.byte	0x24
 20014 1910 31       		.byte	0x31
 20015 1911 21       		.byte	0x21
 20016 1912 27       		.byte	0x27
 20017 1913 03       		.byte	0x3
 20018 1914 06000000 		.4byte	m_mavlink_status.8046+6
 20019 1918 94       		.byte	0x94
 20020 1919 01       		.byte	0x1
 20021 191a 08       		.byte	0x8
 20022 191b FF       		.byte	0xff
 20023 191c 1A       		.byte	0x1a
 20024 191d 08       		.byte	0x8
 20025 191e 6A       		.byte	0x6a
 20026 191f 27       		.byte	0x27
ARM GAS  C:\Users\Mohamad\AppData\Local\Temp\ccDsqi1j.s 			page 353


 20027 1920 34       		.byte	0x34
 20028 1921 24       		.byte	0x24
 20029 1922 03       		.byte	0x3
 20030 1923 06000000 		.4byte	m_mavlink_status.8046+6
 20031 1927 94       		.byte	0x94
 20032 1928 01       		.byte	0x1
 20033 1929 08       		.byte	0x8
 20034 192a FF       		.byte	0xff
 20035 192b 1A       		.byte	0x1a
 20036 192c 27       		.byte	0x27
 20037 192d 08       		.byte	0x8
 20038 192e 6A       		.byte	0x6a
 20039 192f 27       		.byte	0x27
 20040 1930 08       		.byte	0x8
 20041 1931 FF       		.byte	0xff
 20042 1932 1A       		.byte	0x1a
 20043 1933 34       		.byte	0x34
 20044 1934 25       		.byte	0x25
 20045 1935 08       		.byte	0x8
 20046 1936 D5       		.byte	0xd5
 20047 1937 27       		.byte	0x27
 20048 1938 03       		.byte	0x3
 20049 1939 06000000 		.4byte	m_mavlink_status.8046+6
 20050 193d 94       		.byte	0x94
 20051 193e 01       		.byte	0x1
 20052 193f 08       		.byte	0x8
 20053 1940 FF       		.byte	0xff
 20054 1941 1A       		.byte	0x1a
 20055 1942 08       		.byte	0x8
 20056 1943 6A       		.byte	0x6a
 20057 1944 27       		.byte	0x27
 20058 1945 34       		.byte	0x34
 20059 1946 24       		.byte	0x24
 20060 1947 03       		.byte	0x3
 20061 1948 06000000 		.4byte	m_mavlink_status.8046+6
 20062 194c 94       		.byte	0x94
 20063 194d 01       		.byte	0x1
 20064 194e 08       		.byte	0x8
 20065 194f FF       		.byte	0xff
 20066 1950 1A       		.byte	0x1a
 20067 1951 27       		.byte	0x27
 20068 1952 08       		.byte	0x8
 20069 1953 6A       		.byte	0x6a
 20070 1954 27       		.byte	0x27
 20071 1955 08       		.byte	0x8
 20072 1956 FF       		.byte	0xff
 20073 1957 1A       		.byte	0x1a
 20074 1958 38       		.byte	0x38
 20075 1959 24       		.byte	0x24
 20076 195a 21       		.byte	0x21
 20077 195b 03       		.byte	0x3
 20078 195c 06000000 		.4byte	m_mavlink_status.8046+6
 20079 1960 94       		.byte	0x94
 20080 1961 01       		.byte	0x1
 20081 1962 08       		.byte	0x8
 20082 1963 FF       		.byte	0xff
 20083 1964 1A       		.byte	0x1a
ARM GAS  C:\Users\Mohamad\AppData\Local\Temp\ccDsqi1j.s 			page 354


 20084 1965 08       		.byte	0x8
 20085 1966 6A       		.byte	0x6a
 20086 1967 27       		.byte	0x27
 20087 1968 34       		.byte	0x34
 20088 1969 24       		.byte	0x24
 20089 196a 03       		.byte	0x3
 20090 196b 06000000 		.4byte	m_mavlink_status.8046+6
 20091 196f 94       		.byte	0x94
 20092 1970 01       		.byte	0x1
 20093 1971 08       		.byte	0x8
 20094 1972 FF       		.byte	0xff
 20095 1973 1A       		.byte	0x1a
 20096 1974 27       		.byte	0x27
 20097 1975 08       		.byte	0x8
 20098 1976 6A       		.byte	0x6a
 20099 1977 27       		.byte	0x27
 20100 1978 08       		.byte	0x8
 20101 1979 FF       		.byte	0xff
 20102 197a 1A       		.byte	0x1a
 20103 197b 33       		.byte	0x33
 20104 197c 24       		.byte	0x24
 20105 197d 31       		.byte	0x31
 20106 197e 21       		.byte	0x21
 20107 197f 27       		.byte	0x27
 20108 1980 34       		.byte	0x34
 20109 1981 24       		.byte	0x24
 20110 1982 27       		.byte	0x27
 20111 1983 08       		.byte	0x8
 20112 1984 FF       		.byte	0xff
 20113 1985 1A       		.byte	0x1a
 20114 1986 33       		.byte	0x33
 20115 1987 24       		.byte	0x24
 20116 1988 31       		.byte	0x31
 20117 1989 21       		.byte	0x21
 20118 198a 27       		.byte	0x27
 20119 198b 03       		.byte	0x3
 20120 198c 06000000 		.4byte	m_mavlink_status.8046+6
 20121 1990 94       		.byte	0x94
 20122 1991 01       		.byte	0x1
 20123 1992 08       		.byte	0x8
 20124 1993 FF       		.byte	0xff
 20125 1994 1A       		.byte	0x1a
 20126 1995 08       		.byte	0x8
 20127 1996 6A       		.byte	0x6a
 20128 1997 27       		.byte	0x27
 20129 1998 34       		.byte	0x34
 20130 1999 24       		.byte	0x24
 20131 199a 03       		.byte	0x3
 20132 199b 06000000 		.4byte	m_mavlink_status.8046+6
 20133 199f 94       		.byte	0x94
 20134 19a0 01       		.byte	0x1
 20135 19a1 08       		.byte	0x8
 20136 19a2 FF       		.byte	0xff
 20137 19a3 1A       		.byte	0x1a
 20138 19a4 27       		.byte	0x27
 20139 19a5 08       		.byte	0x8
 20140 19a6 6A       		.byte	0x6a
ARM GAS  C:\Users\Mohamad\AppData\Local\Temp\ccDsqi1j.s 			page 355


 20141 19a7 27       		.byte	0x27
 20142 19a8 08       		.byte	0x8
 20143 19a9 FF       		.byte	0xff
 20144 19aa 1A       		.byte	0x1a
 20145 19ab 34       		.byte	0x34
 20146 19ac 25       		.byte	0x25
 20147 19ad 08       		.byte	0x8
 20148 19ae D5       		.byte	0xd5
 20149 19af 27       		.byte	0x27
 20150 19b0 03       		.byte	0x3
 20151 19b1 06000000 		.4byte	m_mavlink_status.8046+6
 20152 19b5 94       		.byte	0x94
 20153 19b6 01       		.byte	0x1
 20154 19b7 08       		.byte	0x8
 20155 19b8 FF       		.byte	0xff
 20156 19b9 1A       		.byte	0x1a
 20157 19ba 08       		.byte	0x8
 20158 19bb 6A       		.byte	0x6a
 20159 19bc 27       		.byte	0x27
 20160 19bd 34       		.byte	0x34
 20161 19be 24       		.byte	0x24
 20162 19bf 03       		.byte	0x3
 20163 19c0 06000000 		.4byte	m_mavlink_status.8046+6
 20164 19c4 94       		.byte	0x94
 20165 19c5 01       		.byte	0x1
 20166 19c6 08       		.byte	0x8
 20167 19c7 FF       		.byte	0xff
 20168 19c8 1A       		.byte	0x1a
 20169 19c9 27       		.byte	0x27
 20170 19ca 08       		.byte	0x8
 20171 19cb 6A       		.byte	0x6a
 20172 19cc 27       		.byte	0x27
 20173 19cd 08       		.byte	0x8
 20174 19ce FF       		.byte	0xff
 20175 19cf 1A       		.byte	0x1a
 20176 19d0 38       		.byte	0x38
 20177 19d1 24       		.byte	0x24
 20178 19d2 21       		.byte	0x21
 20179 19d3 03       		.byte	0x3
 20180 19d4 06000000 		.4byte	m_mavlink_status.8046+6
 20181 19d8 94       		.byte	0x94
 20182 19d9 01       		.byte	0x1
 20183 19da 08       		.byte	0x8
 20184 19db FF       		.byte	0xff
 20185 19dc 1A       		.byte	0x1a
 20186 19dd 08       		.byte	0x8
 20187 19de 6A       		.byte	0x6a
 20188 19df 27       		.byte	0x27
 20189 19e0 34       		.byte	0x34
 20190 19e1 24       		.byte	0x24
 20191 19e2 03       		.byte	0x3
 20192 19e3 06000000 		.4byte	m_mavlink_status.8046+6
 20193 19e7 94       		.byte	0x94
 20194 19e8 01       		.byte	0x1
 20195 19e9 08       		.byte	0x8
 20196 19ea FF       		.byte	0xff
 20197 19eb 1A       		.byte	0x1a
ARM GAS  C:\Users\Mohamad\AppData\Local\Temp\ccDsqi1j.s 			page 356


 20198 19ec 27       		.byte	0x27
 20199 19ed 08       		.byte	0x8
 20200 19ee 6A       		.byte	0x6a
 20201 19ef 27       		.byte	0x27
 20202 19f0 08       		.byte	0x8
 20203 19f1 FF       		.byte	0xff
 20204 19f2 1A       		.byte	0x1a
 20205 19f3 33       		.byte	0x33
 20206 19f4 24       		.byte	0x24
 20207 19f5 31       		.byte	0x31
 20208 19f6 21       		.byte	0x21
 20209 19f7 27       		.byte	0x27
 20210 19f8 03       		.byte	0x3
 20211 19f9 06000000 		.4byte	m_mavlink_status.8046+6
 20212 19fd 94       		.byte	0x94
 20213 19fe 01       		.byte	0x1
 20214 19ff 08       		.byte	0x8
 20215 1a00 FF       		.byte	0xff
 20216 1a01 1A       		.byte	0x1a
 20217 1a02 08       		.byte	0x8
 20218 1a03 6A       		.byte	0x6a
 20219 1a04 27       		.byte	0x27
 20220 1a05 34       		.byte	0x34
 20221 1a06 24       		.byte	0x24
 20222 1a07 03       		.byte	0x3
 20223 1a08 06000000 		.4byte	m_mavlink_status.8046+6
 20224 1a0c 94       		.byte	0x94
 20225 1a0d 01       		.byte	0x1
 20226 1a0e 08       		.byte	0x8
 20227 1a0f FF       		.byte	0xff
 20228 1a10 1A       		.byte	0x1a
 20229 1a11 27       		.byte	0x27
 20230 1a12 08       		.byte	0x8
 20231 1a13 6A       		.byte	0x6a
 20232 1a14 27       		.byte	0x27
 20233 1a15 08       		.byte	0x8
 20234 1a16 FF       		.byte	0xff
 20235 1a17 1A       		.byte	0x1a
 20236 1a18 34       		.byte	0x34
 20237 1a19 25       		.byte	0x25
 20238 1a1a 08       		.byte	0x8
 20239 1a1b D5       		.byte	0xd5
 20240 1a1c 27       		.byte	0x27
 20241 1a1d 03       		.byte	0x3
 20242 1a1e 06000000 		.4byte	m_mavlink_status.8046+6
 20243 1a22 94       		.byte	0x94
 20244 1a23 01       		.byte	0x1
 20245 1a24 08       		.byte	0x8
 20246 1a25 FF       		.byte	0xff
 20247 1a26 1A       		.byte	0x1a
 20248 1a27 08       		.byte	0x8
 20249 1a28 6A       		.byte	0x6a
 20250 1a29 27       		.byte	0x27
 20251 1a2a 34       		.byte	0x34
 20252 1a2b 24       		.byte	0x24
 20253 1a2c 03       		.byte	0x3
 20254 1a2d 06000000 		.4byte	m_mavlink_status.8046+6
ARM GAS  C:\Users\Mohamad\AppData\Local\Temp\ccDsqi1j.s 			page 357


 20255 1a31 94       		.byte	0x94
 20256 1a32 01       		.byte	0x1
 20257 1a33 08       		.byte	0x8
 20258 1a34 FF       		.byte	0xff
 20259 1a35 1A       		.byte	0x1a
 20260 1a36 27       		.byte	0x27
 20261 1a37 08       		.byte	0x8
 20262 1a38 6A       		.byte	0x6a
 20263 1a39 27       		.byte	0x27
 20264 1a3a 08       		.byte	0x8
 20265 1a3b FF       		.byte	0xff
 20266 1a3c 1A       		.byte	0x1a
 20267 1a3d 38       		.byte	0x38
 20268 1a3e 24       		.byte	0x24
 20269 1a3f 21       		.byte	0x21
 20270 1a40 03       		.byte	0x3
 20271 1a41 06000000 		.4byte	m_mavlink_status.8046+6
 20272 1a45 94       		.byte	0x94
 20273 1a46 01       		.byte	0x1
 20274 1a47 08       		.byte	0x8
 20275 1a48 FF       		.byte	0xff
 20276 1a49 1A       		.byte	0x1a
 20277 1a4a 08       		.byte	0x8
 20278 1a4b 6A       		.byte	0x6a
 20279 1a4c 27       		.byte	0x27
 20280 1a4d 34       		.byte	0x34
 20281 1a4e 24       		.byte	0x24
 20282 1a4f 03       		.byte	0x3
 20283 1a50 06000000 		.4byte	m_mavlink_status.8046+6
 20284 1a54 94       		.byte	0x94
 20285 1a55 01       		.byte	0x1
 20286 1a56 08       		.byte	0x8
 20287 1a57 FF       		.byte	0xff
 20288 1a58 1A       		.byte	0x1a
 20289 1a59 27       		.byte	0x27
 20290 1a5a 08       		.byte	0x8
 20291 1a5b 6A       		.byte	0x6a
 20292 1a5c 27       		.byte	0x27
 20293 1a5d 08       		.byte	0x8
 20294 1a5e FF       		.byte	0xff
 20295 1a5f 1A       		.byte	0x1a
 20296 1a60 33       		.byte	0x33
 20297 1a61 24       		.byte	0x24
 20298 1a62 31       		.byte	0x31
 20299 1a63 21       		.byte	0x21
 20300 1a64 27       		.byte	0x27
 20301 1a65 34       		.byte	0x34
 20302 1a66 24       		.byte	0x24
 20303 1a67 27       		.byte	0x27
 20304 1a68 08       		.byte	0x8
 20305 1a69 FF       		.byte	0xff
 20306 1a6a 1A       		.byte	0x1a
 20307 1a6b 34       		.byte	0x34
 20308 1a6c 25       		.byte	0x25
 20309 1a6d 03       		.byte	0x3
 20310 1a6e 06000000 		.4byte	m_mavlink_status.8046+6
 20311 1a72 94       		.byte	0x94
ARM GAS  C:\Users\Mohamad\AppData\Local\Temp\ccDsqi1j.s 			page 358


 20312 1a73 01       		.byte	0x1
 20313 1a74 08       		.byte	0x8
 20314 1a75 FF       		.byte	0xff
 20315 1a76 1A       		.byte	0x1a
 20316 1a77 08       		.byte	0x8
 20317 1a78 6A       		.byte	0x6a
 20318 1a79 27       		.byte	0x27
 20319 1a7a 34       		.byte	0x34
 20320 1a7b 24       		.byte	0x24
 20321 1a7c 03       		.byte	0x3
 20322 1a7d 06000000 		.4byte	m_mavlink_status.8046+6
 20323 1a81 94       		.byte	0x94
 20324 1a82 01       		.byte	0x1
 20325 1a83 08       		.byte	0x8
 20326 1a84 FF       		.byte	0xff
 20327 1a85 1A       		.byte	0x1a
 20328 1a86 27       		.byte	0x27
 20329 1a87 08       		.byte	0x8
 20330 1a88 6A       		.byte	0x6a
 20331 1a89 27       		.byte	0x27
 20332 1a8a 08       		.byte	0x8
 20333 1a8b FF       		.byte	0xff
 20334 1a8c 1A       		.byte	0x1a
 20335 1a8d 34       		.byte	0x34
 20336 1a8e 25       		.byte	0x25
 20337 1a8f 08       		.byte	0x8
 20338 1a90 D5       		.byte	0xd5
 20339 1a91 27       		.byte	0x27
 20340 1a92 03       		.byte	0x3
 20341 1a93 06000000 		.4byte	m_mavlink_status.8046+6
 20342 1a97 94       		.byte	0x94
 20343 1a98 01       		.byte	0x1
 20344 1a99 08       		.byte	0x8
 20345 1a9a FF       		.byte	0xff
 20346 1a9b 1A       		.byte	0x1a
 20347 1a9c 08       		.byte	0x8
 20348 1a9d 6A       		.byte	0x6a
 20349 1a9e 27       		.byte	0x27
 20350 1a9f 34       		.byte	0x34
 20351 1aa0 24       		.byte	0x24
 20352 1aa1 03       		.byte	0x3
 20353 1aa2 06000000 		.4byte	m_mavlink_status.8046+6
 20354 1aa6 94       		.byte	0x94
 20355 1aa7 01       		.byte	0x1
 20356 1aa8 08       		.byte	0x8
 20357 1aa9 FF       		.byte	0xff
 20358 1aaa 1A       		.byte	0x1a
 20359 1aab 27       		.byte	0x27
 20360 1aac 08       		.byte	0x8
 20361 1aad 6A       		.byte	0x6a
 20362 1aae 27       		.byte	0x27
 20363 1aaf 08       		.byte	0x8
 20364 1ab0 FF       		.byte	0xff
 20365 1ab1 1A       		.byte	0x1a
 20366 1ab2 38       		.byte	0x38
 20367 1ab3 24       		.byte	0x24
 20368 1ab4 21       		.byte	0x21
ARM GAS  C:\Users\Mohamad\AppData\Local\Temp\ccDsqi1j.s 			page 359


 20369 1ab5 03       		.byte	0x3
 20370 1ab6 06000000 		.4byte	m_mavlink_status.8046+6
 20371 1aba 94       		.byte	0x94
 20372 1abb 01       		.byte	0x1
 20373 1abc 08       		.byte	0x8
 20374 1abd FF       		.byte	0xff
 20375 1abe 1A       		.byte	0x1a
 20376 1abf 08       		.byte	0x8
 20377 1ac0 6A       		.byte	0x6a
 20378 1ac1 27       		.byte	0x27
 20379 1ac2 34       		.byte	0x34
 20380 1ac3 24       		.byte	0x24
 20381 1ac4 03       		.byte	0x3
 20382 1ac5 06000000 		.4byte	m_mavlink_status.8046+6
 20383 1ac9 94       		.byte	0x94
 20384 1aca 01       		.byte	0x1
 20385 1acb 08       		.byte	0x8
 20386 1acc FF       		.byte	0xff
 20387 1acd 1A       		.byte	0x1a
 20388 1ace 27       		.byte	0x27
 20389 1acf 08       		.byte	0x8
 20390 1ad0 6A       		.byte	0x6a
 20391 1ad1 27       		.byte	0x27
 20392 1ad2 08       		.byte	0x8
 20393 1ad3 FF       		.byte	0xff
 20394 1ad4 1A       		.byte	0x1a
 20395 1ad5 33       		.byte	0x33
 20396 1ad6 24       		.byte	0x24
 20397 1ad7 27       		.byte	0x27
 20398 1ad8 38       		.byte	0x38
 20399 1ad9 25       		.byte	0x25
 20400 1ada 27       		.byte	0x27
 20401 1adb 03       		.byte	0x3
 20402 1adc 06000000 		.4byte	m_mavlink_status.8046+6
 20403 1ae0 94       		.byte	0x94
 20404 1ae1 01       		.byte	0x1
 20405 1ae2 08       		.byte	0x8
 20406 1ae3 FF       		.byte	0xff
 20407 1ae4 1A       		.byte	0x1a
 20408 1ae5 08       		.byte	0x8
 20409 1ae6 6A       		.byte	0x6a
 20410 1ae7 27       		.byte	0x27
 20411 1ae8 34       		.byte	0x34
 20412 1ae9 24       		.byte	0x24
 20413 1aea 03       		.byte	0x3
 20414 1aeb 06000000 		.4byte	m_mavlink_status.8046+6
 20415 1aef 94       		.byte	0x94
 20416 1af0 01       		.byte	0x1
 20417 1af1 08       		.byte	0x8
 20418 1af2 FF       		.byte	0xff
 20419 1af3 1A       		.byte	0x1a
 20420 1af4 27       		.byte	0x27
 20421 1af5 08       		.byte	0x8
 20422 1af6 6A       		.byte	0x6a
 20423 1af7 27       		.byte	0x27
 20424 1af8 08       		.byte	0x8
 20425 1af9 FF       		.byte	0xff
ARM GAS  C:\Users\Mohamad\AppData\Local\Temp\ccDsqi1j.s 			page 360


 20426 1afa 1A       		.byte	0x1a
 20427 1afb 34       		.byte	0x34
 20428 1afc 25       		.byte	0x25
 20429 1afd 08       		.byte	0x8
 20430 1afe D5       		.byte	0xd5
 20431 1aff 27       		.byte	0x27
 20432 1b00 03       		.byte	0x3
 20433 1b01 06000000 		.4byte	m_mavlink_status.8046+6
 20434 1b05 94       		.byte	0x94
 20435 1b06 01       		.byte	0x1
 20436 1b07 08       		.byte	0x8
 20437 1b08 FF       		.byte	0xff
 20438 1b09 1A       		.byte	0x1a
 20439 1b0a 08       		.byte	0x8
 20440 1b0b 6A       		.byte	0x6a
 20441 1b0c 27       		.byte	0x27
 20442 1b0d 34       		.byte	0x34
 20443 1b0e 24       		.byte	0x24
 20444 1b0f 03       		.byte	0x3
 20445 1b10 06000000 		.4byte	m_mavlink_status.8046+6
 20446 1b14 94       		.byte	0x94
 20447 1b15 01       		.byte	0x1
 20448 1b16 08       		.byte	0x8
 20449 1b17 FF       		.byte	0xff
 20450 1b18 1A       		.byte	0x1a
 20451 1b19 27       		.byte	0x27
 20452 1b1a 08       		.byte	0x8
 20453 1b1b 6A       		.byte	0x6a
 20454 1b1c 27       		.byte	0x27
 20455 1b1d 08       		.byte	0x8
 20456 1b1e FF       		.byte	0xff
 20457 1b1f 1A       		.byte	0x1a
 20458 1b20 38       		.byte	0x38
 20459 1b21 24       		.byte	0x24
 20460 1b22 21       		.byte	0x21
 20461 1b23 03       		.byte	0x3
 20462 1b24 06000000 		.4byte	m_mavlink_status.8046+6
 20463 1b28 94       		.byte	0x94
 20464 1b29 01       		.byte	0x1
 20465 1b2a 08       		.byte	0x8
 20466 1b2b FF       		.byte	0xff
 20467 1b2c 1A       		.byte	0x1a
 20468 1b2d 08       		.byte	0x8
 20469 1b2e 6A       		.byte	0x6a
 20470 1b2f 27       		.byte	0x27
 20471 1b30 34       		.byte	0x34
 20472 1b31 24       		.byte	0x24
 20473 1b32 03       		.byte	0x3
 20474 1b33 06000000 		.4byte	m_mavlink_status.8046+6
 20475 1b37 94       		.byte	0x94
 20476 1b38 01       		.byte	0x1
 20477 1b39 08       		.byte	0x8
 20478 1b3a FF       		.byte	0xff
 20479 1b3b 1A       		.byte	0x1a
 20480 1b3c 27       		.byte	0x27
 20481 1b3d 08       		.byte	0x8
 20482 1b3e 6A       		.byte	0x6a
ARM GAS  C:\Users\Mohamad\AppData\Local\Temp\ccDsqi1j.s 			page 361


 20483 1b3f 27       		.byte	0x27
 20484 1b40 08       		.byte	0x8
 20485 1b41 FF       		.byte	0xff
 20486 1b42 1A       		.byte	0x1a
 20487 1b43 33       		.byte	0x33
 20488 1b44 24       		.byte	0x24
 20489 1b45 31       		.byte	0x31
 20490 1b46 21       		.byte	0x21
 20491 1b47 27       		.byte	0x27
 20492 1b48 03       		.byte	0x3
 20493 1b49 06000000 		.4byte	m_mavlink_status.8046+6
 20494 1b4d 94       		.byte	0x94
 20495 1b4e 01       		.byte	0x1
 20496 1b4f 08       		.byte	0x8
 20497 1b50 FF       		.byte	0xff
 20498 1b51 1A       		.byte	0x1a
 20499 1b52 08       		.byte	0x8
 20500 1b53 6A       		.byte	0x6a
 20501 1b54 27       		.byte	0x27
 20502 1b55 34       		.byte	0x34
 20503 1b56 24       		.byte	0x24
 20504 1b57 03       		.byte	0x3
 20505 1b58 06000000 		.4byte	m_mavlink_status.8046+6
 20506 1b5c 94       		.byte	0x94
 20507 1b5d 01       		.byte	0x1
 20508 1b5e 08       		.byte	0x8
 20509 1b5f FF       		.byte	0xff
 20510 1b60 1A       		.byte	0x1a
 20511 1b61 27       		.byte	0x27
 20512 1b62 08       		.byte	0x8
 20513 1b63 6A       		.byte	0x6a
 20514 1b64 27       		.byte	0x27
 20515 1b65 08       		.byte	0x8
 20516 1b66 FF       		.byte	0xff
 20517 1b67 1A       		.byte	0x1a
 20518 1b68 34       		.byte	0x34
 20519 1b69 25       		.byte	0x25
 20520 1b6a 08       		.byte	0x8
 20521 1b6b D5       		.byte	0xd5
 20522 1b6c 27       		.byte	0x27
 20523 1b6d 03       		.byte	0x3
 20524 1b6e 06000000 		.4byte	m_mavlink_status.8046+6
 20525 1b72 94       		.byte	0x94
 20526 1b73 01       		.byte	0x1
 20527 1b74 08       		.byte	0x8
 20528 1b75 FF       		.byte	0xff
 20529 1b76 1A       		.byte	0x1a
 20530 1b77 08       		.byte	0x8
 20531 1b78 6A       		.byte	0x6a
 20532 1b79 27       		.byte	0x27
 20533 1b7a 34       		.byte	0x34
 20534 1b7b 24       		.byte	0x24
 20535 1b7c 03       		.byte	0x3
 20536 1b7d 06000000 		.4byte	m_mavlink_status.8046+6
 20537 1b81 94       		.byte	0x94
 20538 1b82 01       		.byte	0x1
 20539 1b83 08       		.byte	0x8
ARM GAS  C:\Users\Mohamad\AppData\Local\Temp\ccDsqi1j.s 			page 362


 20540 1b84 FF       		.byte	0xff
 20541 1b85 1A       		.byte	0x1a
 20542 1b86 27       		.byte	0x27
 20543 1b87 08       		.byte	0x8
 20544 1b88 6A       		.byte	0x6a
 20545 1b89 27       		.byte	0x27
 20546 1b8a 08       		.byte	0x8
 20547 1b8b FF       		.byte	0xff
 20548 1b8c 1A       		.byte	0x1a
 20549 1b8d 38       		.byte	0x38
 20550 1b8e 24       		.byte	0x24
 20551 1b8f 21       		.byte	0x21
 20552 1b90 03       		.byte	0x3
 20553 1b91 06000000 		.4byte	m_mavlink_status.8046+6
 20554 1b95 94       		.byte	0x94
 20555 1b96 01       		.byte	0x1
 20556 1b97 08       		.byte	0x8
 20557 1b98 FF       		.byte	0xff
 20558 1b99 1A       		.byte	0x1a
 20559 1b9a 08       		.byte	0x8
 20560 1b9b 6A       		.byte	0x6a
 20561 1b9c 27       		.byte	0x27
 20562 1b9d 34       		.byte	0x34
 20563 1b9e 24       		.byte	0x24
 20564 1b9f 03       		.byte	0x3
 20565 1ba0 06000000 		.4byte	m_mavlink_status.8046+6
 20566 1ba4 94       		.byte	0x94
 20567 1ba5 01       		.byte	0x1
 20568 1ba6 08       		.byte	0x8
 20569 1ba7 FF       		.byte	0xff
 20570 1ba8 1A       		.byte	0x1a
 20571 1ba9 27       		.byte	0x27
 20572 1baa 08       		.byte	0x8
 20573 1bab 6A       		.byte	0x6a
 20574 1bac 27       		.byte	0x27
 20575 1bad 08       		.byte	0x8
 20576 1bae FF       		.byte	0xff
 20577 1baf 1A       		.byte	0x1a
 20578 1bb0 33       		.byte	0x33
 20579 1bb1 24       		.byte	0x24
 20580 1bb2 31       		.byte	0x31
 20581 1bb3 21       		.byte	0x21
 20582 1bb4 27       		.byte	0x27
 20583 1bb5 34       		.byte	0x34
 20584 1bb6 24       		.byte	0x24
 20585 1bb7 27       		.byte	0x27
 20586 1bb8 08       		.byte	0x8
 20587 1bb9 FF       		.byte	0xff
 20588 1bba 1A       		.byte	0x1a
 20589 1bbb 38       		.byte	0x38
 20590 1bbc 24       		.byte	0x24
 20591 1bbd 21       		.byte	0x21
 20592 1bbe 03       		.byte	0x3
 20593 1bbf 06000000 		.4byte	m_mavlink_status.8046+6
 20594 1bc3 94       		.byte	0x94
 20595 1bc4 01       		.byte	0x1
 20596 1bc5 08       		.byte	0x8
ARM GAS  C:\Users\Mohamad\AppData\Local\Temp\ccDsqi1j.s 			page 363


 20597 1bc6 FF       		.byte	0xff
 20598 1bc7 1A       		.byte	0x1a
 20599 1bc8 08       		.byte	0x8
 20600 1bc9 6A       		.byte	0x6a
 20601 1bca 27       		.byte	0x27
 20602 1bcb 34       		.byte	0x34
 20603 1bcc 24       		.byte	0x24
 20604 1bcd 03       		.byte	0x3
 20605 1bce 06000000 		.4byte	m_mavlink_status.8046+6
 20606 1bd2 94       		.byte	0x94
 20607 1bd3 01       		.byte	0x1
 20608 1bd4 08       		.byte	0x8
 20609 1bd5 FF       		.byte	0xff
 20610 1bd6 1A       		.byte	0x1a
 20611 1bd7 27       		.byte	0x27
 20612 1bd8 08       		.byte	0x8
 20613 1bd9 6A       		.byte	0x6a
 20614 1bda 27       		.byte	0x27
 20615 1bdb 08       		.byte	0x8
 20616 1bdc FF       		.byte	0xff
 20617 1bdd 1A       		.byte	0x1a
 20618 1bde 34       		.byte	0x34
 20619 1bdf 25       		.byte	0x25
 20620 1be0 08       		.byte	0x8
 20621 1be1 D5       		.byte	0xd5
 20622 1be2 27       		.byte	0x27
 20623 1be3 03       		.byte	0x3
 20624 1be4 06000000 		.4byte	m_mavlink_status.8046+6
 20625 1be8 94       		.byte	0x94
 20626 1be9 01       		.byte	0x1
 20627 1bea 08       		.byte	0x8
 20628 1beb FF       		.byte	0xff
 20629 1bec 1A       		.byte	0x1a
 20630 1bed 08       		.byte	0x8
 20631 1bee 6A       		.byte	0x6a
 20632 1bef 27       		.byte	0x27
 20633 1bf0 34       		.byte	0x34
 20634 1bf1 24       		.byte	0x24
 20635 1bf2 03       		.byte	0x3
 20636 1bf3 06000000 		.4byte	m_mavlink_status.8046+6
 20637 1bf7 94       		.byte	0x94
 20638 1bf8 01       		.byte	0x1
 20639 1bf9 08       		.byte	0x8
 20640 1bfa FF       		.byte	0xff
 20641 1bfb 1A       		.byte	0x1a
 20642 1bfc 27       		.byte	0x27
 20643 1bfd 08       		.byte	0x8
 20644 1bfe 6A       		.byte	0x6a
 20645 1bff 27       		.byte	0x27
 20646 1c00 08       		.byte	0x8
 20647 1c01 FF       		.byte	0xff
 20648 1c02 1A       		.byte	0x1a
 20649 1c03 38       		.byte	0x38
 20650 1c04 24       		.byte	0x24
 20651 1c05 21       		.byte	0x21
 20652 1c06 03       		.byte	0x3
 20653 1c07 06000000 		.4byte	m_mavlink_status.8046+6
ARM GAS  C:\Users\Mohamad\AppData\Local\Temp\ccDsqi1j.s 			page 364


 20654 1c0b 94       		.byte	0x94
 20655 1c0c 01       		.byte	0x1
 20656 1c0d 08       		.byte	0x8
 20657 1c0e FF       		.byte	0xff
 20658 1c0f 1A       		.byte	0x1a
 20659 1c10 08       		.byte	0x8
 20660 1c11 6A       		.byte	0x6a
 20661 1c12 27       		.byte	0x27
 20662 1c13 34       		.byte	0x34
 20663 1c14 24       		.byte	0x24
 20664 1c15 03       		.byte	0x3
 20665 1c16 06000000 		.4byte	m_mavlink_status.8046+6
 20666 1c1a 94       		.byte	0x94
 20667 1c1b 01       		.byte	0x1
 20668 1c1c 08       		.byte	0x8
 20669 1c1d FF       		.byte	0xff
 20670 1c1e 1A       		.byte	0x1a
 20671 1c1f 27       		.byte	0x27
 20672 1c20 08       		.byte	0x8
 20673 1c21 6A       		.byte	0x6a
 20674 1c22 27       		.byte	0x27
 20675 1c23 08       		.byte	0x8
 20676 1c24 FF       		.byte	0xff
 20677 1c25 1A       		.byte	0x1a
 20678 1c26 33       		.byte	0x33
 20679 1c27 24       		.byte	0x24
 20680 1c28 31       		.byte	0x31
 20681 1c29 21       		.byte	0x21
 20682 1c2a 27       		.byte	0x27
 20683 1c2b 03       		.byte	0x3
 20684 1c2c 06000000 		.4byte	m_mavlink_status.8046+6
 20685 1c30 94       		.byte	0x94
 20686 1c31 01       		.byte	0x1
 20687 1c32 08       		.byte	0x8
 20688 1c33 FF       		.byte	0xff
 20689 1c34 1A       		.byte	0x1a
 20690 1c35 08       		.byte	0x8
 20691 1c36 6A       		.byte	0x6a
 20692 1c37 27       		.byte	0x27
 20693 1c38 34       		.byte	0x34
 20694 1c39 24       		.byte	0x24
 20695 1c3a 03       		.byte	0x3
 20696 1c3b 06000000 		.4byte	m_mavlink_status.8046+6
 20697 1c3f 94       		.byte	0x94
 20698 1c40 01       		.byte	0x1
 20699 1c41 08       		.byte	0x8
 20700 1c42 FF       		.byte	0xff
 20701 1c43 1A       		.byte	0x1a
 20702 1c44 27       		.byte	0x27
 20703 1c45 08       		.byte	0x8
 20704 1c46 6A       		.byte	0x6a
 20705 1c47 27       		.byte	0x27
 20706 1c48 08       		.byte	0x8
 20707 1c49 FF       		.byte	0xff
 20708 1c4a 1A       		.byte	0x1a
 20709 1c4b 34       		.byte	0x34
 20710 1c4c 25       		.byte	0x25
ARM GAS  C:\Users\Mohamad\AppData\Local\Temp\ccDsqi1j.s 			page 365


 20711 1c4d 08       		.byte	0x8
 20712 1c4e D5       		.byte	0xd5
 20713 1c4f 27       		.byte	0x27
 20714 1c50 03       		.byte	0x3
 20715 1c51 06000000 		.4byte	m_mavlink_status.8046+6
 20716 1c55 94       		.byte	0x94
 20717 1c56 01       		.byte	0x1
 20718 1c57 08       		.byte	0x8
 20719 1c58 FF       		.byte	0xff
 20720 1c59 1A       		.byte	0x1a
 20721 1c5a 08       		.byte	0x8
 20722 1c5b 6A       		.byte	0x6a
 20723 1c5c 27       		.byte	0x27
 20724 1c5d 34       		.byte	0x34
 20725 1c5e 24       		.byte	0x24
 20726 1c5f 03       		.byte	0x3
 20727 1c60 06000000 		.4byte	m_mavlink_status.8046+6
 20728 1c64 94       		.byte	0x94
 20729 1c65 01       		.byte	0x1
 20730 1c66 08       		.byte	0x8
 20731 1c67 FF       		.byte	0xff
 20732 1c68 1A       		.byte	0x1a
 20733 1c69 27       		.byte	0x27
 20734 1c6a 08       		.byte	0x8
 20735 1c6b 6A       		.byte	0x6a
 20736 1c6c 27       		.byte	0x27
 20737 1c6d 08       		.byte	0x8
 20738 1c6e FF       		.byte	0xff
 20739 1c6f 1A       		.byte	0x1a
 20740 1c70 38       		.byte	0x38
 20741 1c71 24       		.byte	0x24
 20742 1c72 21       		.byte	0x21
 20743 1c73 03       		.byte	0x3
 20744 1c74 06000000 		.4byte	m_mavlink_status.8046+6
 20745 1c78 94       		.byte	0x94
 20746 1c79 01       		.byte	0x1
 20747 1c7a 08       		.byte	0x8
 20748 1c7b FF       		.byte	0xff
 20749 1c7c 1A       		.byte	0x1a
 20750 1c7d 08       		.byte	0x8
 20751 1c7e 6A       		.byte	0x6a
 20752 1c7f 27       		.byte	0x27
 20753 1c80 34       		.byte	0x34
 20754 1c81 24       		.byte	0x24
 20755 1c82 03       		.byte	0x3
 20756 1c83 06000000 		.4byte	m_mavlink_status.8046+6
 20757 1c87 94       		.byte	0x94
 20758 1c88 01       		.byte	0x1
 20759 1c89 08       		.byte	0x8
 20760 1c8a FF       		.byte	0xff
 20761 1c8b 1A       		.byte	0x1a
 20762 1c8c 27       		.byte	0x27
 20763 1c8d 08       		.byte	0x8
 20764 1c8e 6A       		.byte	0x6a
 20765 1c8f 27       		.byte	0x27
 20766 1c90 08       		.byte	0x8
 20767 1c91 FF       		.byte	0xff
ARM GAS  C:\Users\Mohamad\AppData\Local\Temp\ccDsqi1j.s 			page 366


 20768 1c92 1A       		.byte	0x1a
 20769 1c93 33       		.byte	0x33
 20770 1c94 24       		.byte	0x24
 20771 1c95 31       		.byte	0x31
 20772 1c96 21       		.byte	0x21
 20773 1c97 27       		.byte	0x27
 20774 1c98 34       		.byte	0x34
 20775 1c99 24       		.byte	0x24
 20776 1c9a 27       		.byte	0x27
 20777 1c9b 08       		.byte	0x8
 20778 1c9c FF       		.byte	0xff
 20779 1c9d 1A       		.byte	0x1a
 20780 1c9e 33       		.byte	0x33
 20781 1c9f 24       		.byte	0x24
 20782 1ca0 31       		.byte	0x31
 20783 1ca1 21       		.byte	0x21
 20784 1ca2 27       		.byte	0x27
 20785 1ca3 34       		.byte	0x34
 20786 1ca4 24       		.byte	0x24
 20787 1ca5 27       		.byte	0x27
 20788 1ca6 08       		.byte	0x8
 20789 1ca7 FF       		.byte	0xff
 20790 1ca8 1A       		.byte	0x1a
 20791 1ca9 33       		.byte	0x33
 20792 1caa 24       		.byte	0x24
 20793 1cab 7B       		.byte	0x7b
 20794 1cac 00       		.sleb128 0
 20795 1cad 27       		.byte	0x27
 20796 1cae 4E       		.byte	0x4e
 20797 1caf 27       		.byte	0x27
 20798 1cb0 34       		.byte	0x34
 20799 1cb1 24       		.byte	0x24
 20800 1cb2 27       		.byte	0x27
 20801 1cb3 7B       		.byte	0x7b
 20802 1cb4 00       		.sleb128 0
 20803 1cb5 27       		.byte	0x27
 20804 1cb6 4E       		.byte	0x4e
 20805 1cb7 27       		.byte	0x27
 20806 1cb8 9F       		.byte	0x9f
 20807 1cb9 00000000 		.4byte	0
 20808 1cbd 00000000 		.4byte	0
 20809              	.LLST184:
 20810 1cc1 AC040000 		.4byte	.LVL159
 20811 1cc5 B0040000 		.4byte	.LVL160
 20812 1cc9 0200     		.2byte	0x2
 20813 1ccb 4B       		.byte	0x4b
 20814 1ccc 9F       		.byte	0x9f
 20815 1ccd 00000000 		.4byte	0
 20816 1cd1 00000000 		.4byte	0
 20817              	.LLST186:
 20818 1cd5 AC040000 		.4byte	.LVL159
 20819 1cd9 90050000 		.4byte	.LVL177
 20820 1cdd 0600     		.2byte	0x6
 20821 1cdf 03       		.byte	0x3
 20822 1ce0 00000000 		.4byte	msg
 20823 1ce4 9F       		.byte	0x9f
 20824 1ce5 00000000 		.4byte	0
ARM GAS  C:\Users\Mohamad\AppData\Local\Temp\ccDsqi1j.s 			page 367


 20825 1ce9 00000000 		.4byte	0
 20826              	.LLST187:
 20827 1ced AC040000 		.4byte	.LVL159
 20828 1cf1 B0040000 		.4byte	.LVL160
 20829 1cf5 0600     		.2byte	0x6
 20830 1cf7 03       		.byte	0x3
 20831 1cf8 08000000 		.4byte	msg+8
 20832 1cfc 9F       		.byte	0x9f
 20833 1cfd B8040000 		.4byte	.LVL161
 20834 1d01 37050000 		.4byte	.LVL174-1
 20835 1d05 0100     		.2byte	0x1
 20836 1d07 5E       		.byte	0x5e
 20837 1d08 00000000 		.4byte	0
 20838 1d0c 00000000 		.4byte	0
 20839              	.LLST188:
 20840 1d10 B8040000 		.4byte	.LVL161
 20841 1d14 EA040000 		.4byte	.LVL166
 20842 1d18 0200     		.2byte	0x2
 20843 1d1a 7E       		.byte	0x7e
 20844 1d1b 00       		.sleb128 0
 20845 1d1c EA040000 		.4byte	.LVL166
 20846 1d20 FE040000 		.4byte	.LVL169
 20847 1d24 0200     		.2byte	0x2
 20848 1d26 72       		.byte	0x72
 20849 1d27 7F       		.sleb128 -1
 20850 1d28 FE040000 		.4byte	.LVL169
 20851 1d2c 37050000 		.4byte	.LVL174-1
 20852 1d30 0200     		.2byte	0x2
 20853 1d32 7E       		.byte	0x7e
 20854 1d33 7E       		.sleb128 -2
 20855 1d34 00000000 		.4byte	0
 20856 1d38 00000000 		.4byte	0
 20857              	.LLST189:
 20858 1d3c BC040000 		.4byte	.LVL162
 20859 1d40 C2040000 		.4byte	.LVL163
 20860 1d44 0100     		.2byte	0x1
 20861 1d46 53       		.byte	0x53
 20862 1d47 C2040000 		.4byte	.LVL163
 20863 1d4b CA040000 		.4byte	.LVL164
 20864 1d4f 0100     		.2byte	0x1
 20865 1d51 51       		.byte	0x51
 20866 1d52 CA040000 		.4byte	.LVL164
 20867 1d56 CE040000 		.4byte	.LVL165
 20868 1d5a 0100     		.2byte	0x1
 20869 1d5c 53       		.byte	0x53
 20870 1d5d 00000000 		.4byte	0
 20871 1d61 00000000 		.4byte	0
 20872              	.LLST190:
 20873 1d65 F4040000 		.4byte	.LVL167
 20874 1d69 90050000 		.4byte	.LVL177
 20875 1d6d 0600     		.2byte	0x6
 20876 1d6f 03       		.byte	0x3
 20877 1d70 00000000 		.4byte	msg
 20878 1d74 9F       		.byte	0x9f
 20879 1d75 00000000 		.4byte	0
 20880 1d79 00000000 		.4byte	0
 20881              	.LLST191:
ARM GAS  C:\Users\Mohamad\AppData\Local\Temp\ccDsqi1j.s 			page 368


 20882 1d7d F8040000 		.4byte	.LVL168
 20883 1d81 FE040000 		.4byte	.LVL169
 20884 1d85 0100     		.2byte	0x1
 20885 1d87 55       		.byte	0x55
 20886 1d88 FE040000 		.4byte	.LVL169
 20887 1d8c 28050000 		.4byte	.LVL171
 20888 1d90 0100     		.2byte	0x1
 20889 1d92 56       		.byte	0x56
 20890 1d93 28050000 		.4byte	.LVL171
 20891 1d97 2C050000 		.4byte	.LVL172
 20892 1d9b 0100     		.2byte	0x1
 20893 1d9d 52       		.byte	0x52
 20894 1d9e 00000000 		.4byte	0
 20895 1da2 00000000 		.4byte	0
 20896              	.LLST192:
 20897 1da6 3A050000 		.4byte	.LVL175
 20898 1daa 4D050000 		.4byte	.LVL176-1
 20899 1dae 0100     		.2byte	0x1
 20900 1db0 53       		.byte	0x53
 20901 1db1 4D050000 		.4byte	.LVL176-1
 20902 1db5 90050000 		.4byte	.LVL177
 20903 1db9 0600     		.2byte	0x6
 20904 1dbb 75       		.byte	0x75
 20905 1dbc 00       		.sleb128 0
 20906 1dbd 76       		.byte	0x76
 20907 1dbe 00       		.sleb128 0
 20908 1dbf 22       		.byte	0x22
 20909 1dc0 9F       		.byte	0x9f
 20910 1dc1 00000000 		.4byte	0
 20911 1dc5 00000000 		.4byte	0
 20912              	.LLST193:
 20913 1dc9 34050000 		.4byte	.LVL173
 20914 1dcd 90050000 		.4byte	.LVL177
 20915 1dd1 0600     		.2byte	0x6
 20916 1dd3 03       		.byte	0x3
 20917 1dd4 00000000 		.4byte	msg
 20918 1dd8 9F       		.byte	0x9f
 20919 1dd9 00000000 		.4byte	0
 20920 1ddd 00000000 		.4byte	0
 20921              	.LLST194:
 20922 1de1 34050000 		.4byte	.LVL173
 20923 1de5 90050000 		.4byte	.LVL177
 20924 1de9 0600     		.2byte	0x6
 20925 1deb 03       		.byte	0x3
 20926 1dec 00000000 		.4byte	buff
 20927 1df0 9F       		.byte	0x9f
 20928 1df1 00000000 		.4byte	0
 20929 1df5 00000000 		.4byte	0
 20930              	.LLST195:
 20931 1df9 30060000 		.4byte	.LVL184
 20932 1dfd 52060000 		.4byte	.LVL187
 20933 1e01 0100     		.2byte	0x1
 20934 1e03 5E       		.byte	0x5e
 20935 1e04 52060000 		.4byte	.LVL187
 20936 1e08 29070000 		.4byte	.LVL208-1
 20937 1e0c 0200     		.2byte	0x2
 20938 1e0e 91       		.byte	0x91
ARM GAS  C:\Users\Mohamad\AppData\Local\Temp\ccDsqi1j.s 			page 369


 20939 1e0f 50       		.sleb128 -48
 20940 1e10 00000000 		.4byte	0
 20941 1e14 00000000 		.4byte	0
 20942              	.LLST196:
 20943 1e18 30060000 		.4byte	.LVL184
 20944 1e1c 42060000 		.4byte	.LVL186
 20945 1e20 0100     		.2byte	0x1
 20946 1e22 58       		.byte	0x58
 20947 1e23 42060000 		.4byte	.LVL186
 20948 1e27 29070000 		.4byte	.LVL208-1
 20949 1e2b 0200     		.2byte	0x2
 20950 1e2d 91       		.byte	0x91
 20951 1e2e 4C       		.sleb128 -52
 20952 1e2f 00000000 		.4byte	0
 20953 1e33 00000000 		.4byte	0
 20954              	.LLST197:
 20955 1e37 30060000 		.4byte	.LVL184
 20956 1e3b 3E060000 		.4byte	.LVL185
 20957 1e3f 0100     		.2byte	0x1
 20958 1e41 5A       		.byte	0x5a
 20959 1e42 3E060000 		.4byte	.LVL185
 20960 1e46 29070000 		.4byte	.LVL208-1
 20961 1e4a 0200     		.2byte	0x2
 20962 1e4c 91       		.byte	0x91
 20963 1e4d 48       		.sleb128 -56
 20964 1e4e 00000000 		.4byte	0
 20965 1e52 00000000 		.4byte	0
 20966              	.LLST198:
 20967 1e56 30060000 		.4byte	.LVL184
 20968 1e5a 29070000 		.4byte	.LVL208-1
 20969 1e5e 0200     		.2byte	0x2
 20970 1e60 91       		.byte	0x91
 20971 1e61 44       		.sleb128 -60
 20972 1e62 00000000 		.4byte	0
 20973 1e66 00000000 		.4byte	0
 20974              	.LLST199:
 20975 1e6a 30060000 		.4byte	.LVL184
 20976 1e6e 29070000 		.4byte	.LVL208-1
 20977 1e72 0200     		.2byte	0x2
 20978 1e74 91       		.byte	0x91
 20979 1e75 40       		.sleb128 -64
 20980 1e76 00000000 		.4byte	0
 20981 1e7a 00000000 		.4byte	0
 20982              	.LLST200:
 20983 1e7e 30060000 		.4byte	.LVL184
 20984 1e82 29070000 		.4byte	.LVL208-1
 20985 1e86 0300     		.2byte	0x3
 20986 1e88 91       		.byte	0x91
 20987 1e89 BC7F     		.sleb128 -68
 20988 1e8b 00000000 		.4byte	0
 20989 1e8f 00000000 		.4byte	0
 20990              	.LLST201:
 20991 1e93 30060000 		.4byte	.LVL184
 20992 1e97 64070000 		.4byte	.LVL211
 20993 1e9b 0600     		.2byte	0x6
 20994 1e9d 9E       		.byte	0x9e
 20995 1e9e 04       		.uleb128 0x4
ARM GAS  C:\Users\Mohamad\AppData\Local\Temp\ccDsqi1j.s 			page 370


 20996 1e9f 00000000 		.4byte	0
 20997 1ea3 00000000 		.4byte	0
 20998 1ea7 00000000 		.4byte	0
 20999              	.LLST202:
 21000 1eab 30060000 		.4byte	.LVL184
 21001 1eaf 64070000 		.4byte	.LVL211
 21002 1eb3 0200     		.2byte	0x2
 21003 1eb5 30       		.byte	0x30
 21004 1eb6 9F       		.byte	0x9f
 21005 1eb7 00000000 		.4byte	0
 21006 1ebb 00000000 		.4byte	0
 21007              	.LLST203:
 21008 1ebf 30060000 		.4byte	.LVL184
 21009 1ec3 64070000 		.4byte	.LVL211
 21010 1ec7 0600     		.2byte	0x6
 21011 1ec9 03       		.byte	0x3
 21012 1eca 00000000 		.4byte	msg
 21013 1ece 9F       		.byte	0x9f
 21014 1ecf 00000000 		.4byte	0
 21015 1ed3 00000000 		.4byte	0
 21016              	.LLST204:
 21017 1ed7 30060000 		.4byte	.LVL184
 21018 1edb 64070000 		.4byte	.LVL211
 21019 1edf 0200     		.2byte	0x2
 21020 1ee1 31       		.byte	0x31
 21021 1ee2 9F       		.byte	0x9f
 21022 1ee3 00000000 		.4byte	0
 21023 1ee7 00000000 		.4byte	0
 21024              	.LLST206:
 21025 1eeb 8A060000 		.4byte	.LVL188
 21026 1eef 64070000 		.4byte	.LVL211
 21027 1ef3 0300     		.2byte	0x3
 21028 1ef5 09       		.byte	0x9
 21029 1ef6 F6       		.byte	0xf6
 21030 1ef7 9F       		.byte	0x9f
 21031 1ef8 00000000 		.4byte	0
 21032 1efc 00000000 		.4byte	0
 21033              	.LLST207:
 21034 1f00 8A060000 		.4byte	.LVL188
 21035 1f04 64070000 		.4byte	.LVL211
 21036 1f08 0300     		.2byte	0x3
 21037 1f0a 08       		.byte	0x8
 21038 1f0b 20       		.byte	0x20
 21039 1f0c 9F       		.byte	0x9f
 21040 1f0d 00000000 		.4byte	0
 21041 1f11 00000000 		.4byte	0
 21042              	.LLST208:
 21043 1f15 8A060000 		.4byte	.LVL188
 21044 1f19 64070000 		.4byte	.LVL211
 21045 1f1d 0200     		.2byte	0x2
 21046 1f1f 31       		.byte	0x31
 21047 1f20 9F       		.byte	0x9f
 21048 1f21 00000000 		.4byte	0
 21049 1f25 00000000 		.4byte	0
 21050              	.LLST210:
 21051 1f29 8A060000 		.4byte	.LVL188
 21052 1f2d 64070000 		.4byte	.LVL211
ARM GAS  C:\Users\Mohamad\AppData\Local\Temp\ccDsqi1j.s 			page 371


 21053 1f31 0600     		.2byte	0x6
 21054 1f33 03       		.byte	0x3
 21055 1f34 00000000 		.4byte	msg
 21056 1f38 9F       		.byte	0x9f
 21057 1f39 00000000 		.4byte	0
 21058 1f3d 00000000 		.4byte	0
 21059              	.LLST213:
 21060 1f41 8A060000 		.4byte	.LVL188
 21061 1f45 64070000 		.4byte	.LVL211
 21062 1f49 0200     		.2byte	0x2
 21063 1f4b 30       		.byte	0x30
 21064 1f4c 9F       		.byte	0x9f
 21065 1f4d 00000000 		.4byte	0
 21066 1f51 00000000 		.4byte	0
 21067              	.LLST217:
 21068 1f55 9E060000 		.4byte	.LVL191
 21069 1f59 64070000 		.4byte	.LVL211
 21070 1f5d 0300     		.2byte	0x3
 21071 1f5f 09       		.byte	0x9
 21072 1f60 FF       		.byte	0xff
 21073 1f61 9F       		.byte	0x9f
 21074 1f62 00000000 		.4byte	0
 21075 1f66 00000000 		.4byte	0
 21076              	.LLST218:
 21077 1f6a 9E060000 		.4byte	.LVL191
 21078 1f6e 64070000 		.4byte	.LVL211
 21079 1f72 0600     		.2byte	0x6
 21080 1f74 03       		.byte	0x3
 21081 1f75 08000000 		.4byte	msg+8
 21082 1f79 9F       		.byte	0x9f
 21083 1f7a 00000000 		.4byte	0
 21084 1f7e 00000000 		.4byte	0
 21085              	.LLST219:
 21086 1f82 9E060000 		.4byte	.LVL191
 21087 1f86 A6060000 		.4byte	.LVL193
 21088 1f8a 0100     		.2byte	0x1
 21089 1f8c 54       		.byte	0x54
 21090 1f8d 00000000 		.4byte	0
 21091 1f91 00000000 		.4byte	0
 21092              	.LLST220:
 21093 1f95 9E060000 		.4byte	.LVL191
 21094 1f99 0E070000 		.4byte	.LVL205
 21095 1f9d 0100     		.2byte	0x1
 21096 1f9f 58       		.byte	0x58
 21097 1fa0 00000000 		.4byte	0
 21098 1fa4 00000000 		.4byte	0
 21099              	.LLST221:
 21100 1fa8 A2060000 		.4byte	.LVL192
 21101 1fac A6060000 		.4byte	.LVL193
 21102 1fb0 0200     		.2byte	0x2
 21103 1fb2 4F       		.byte	0x4f
 21104 1fb3 9F       		.byte	0x9f
 21105 1fb4 00000000 		.4byte	0
 21106 1fb8 00000000 		.4byte	0
 21107              	.LLST222:
 21108 1fbc A2060000 		.4byte	.LVL192
 21109 1fc0 64070000 		.4byte	.LVL211
ARM GAS  C:\Users\Mohamad\AppData\Local\Temp\ccDsqi1j.s 			page 372


 21110 1fc4 0600     		.2byte	0x6
 21111 1fc6 03       		.byte	0x3
 21112 1fc7 08000000 		.4byte	msg+8
 21113 1fcb 9F       		.byte	0x9f
 21114 1fcc 00000000 		.4byte	0
 21115 1fd0 00000000 		.4byte	0
 21116              	.LLST223:
 21117 1fd4 A2060000 		.4byte	.LVL192
 21118 1fd8 64070000 		.4byte	.LVL211
 21119 1fdc 0600     		.2byte	0x6
 21120 1fde 03       		.byte	0x3
 21121 1fdf 00000000 		.4byte	msg
 21122 1fe3 9F       		.byte	0x9f
 21123 1fe4 00000000 		.4byte	0
 21124 1fe8 00000000 		.4byte	0
 21125              	.LLST224:
 21126 1fec A2060000 		.4byte	.LVL192
 21127 1ff0 A6060000 		.4byte	.LVL193
 21128 1ff4 0600     		.2byte	0x6
 21129 1ff6 03       		.byte	0x3
 21130 1ff7 08000000 		.4byte	msg+8
 21131 1ffb 9F       		.byte	0x9f
 21132 1ffc AE060000 		.4byte	.LVL194
 21133 2000 CA060000 		.4byte	.LVL199
 21134 2004 0100     		.2byte	0x1
 21135 2006 55       		.byte	0x55
 21136 2007 CA060000 		.4byte	.LVL199
 21137 200b DE060000 		.4byte	.LVL200
 21138 200f 0300     		.2byte	0x3
 21139 2011 73       		.byte	0x73
 21140 2012 7F       		.sleb128 -1
 21141 2013 9F       		.byte	0x9f
 21142 2014 DE060000 		.4byte	.LVL200
 21143 2018 FC060000 		.4byte	.LVL204
 21144 201c 0100     		.2byte	0x1
 21145 201e 55       		.byte	0x55
 21146 201f 00000000 		.4byte	0
 21147 2023 00000000 		.4byte	0
 21148              	.LLST225:
 21149 2027 AE060000 		.4byte	.LVL194
 21150 202b CA060000 		.4byte	.LVL199
 21151 202f 0200     		.2byte	0x2
 21152 2031 75       		.byte	0x75
 21153 2032 00       		.sleb128 0
 21154 2033 CA060000 		.4byte	.LVL199
 21155 2037 F2060000 		.4byte	.LVL203
 21156 203b 0200     		.2byte	0x2
 21157 203d 73       		.byte	0x73
 21158 203e 7F       		.sleb128 -1
 21159 203f F2060000 		.4byte	.LVL203
 21160 2043 FC060000 		.4byte	.LVL204
 21161 2047 0200     		.2byte	0x2
 21162 2049 75       		.byte	0x75
 21163 204a 7E       		.sleb128 -2
 21164 204b 00000000 		.4byte	0
 21165 204f 00000000 		.4byte	0
 21166              	.LLST226:
ARM GAS  C:\Users\Mohamad\AppData\Local\Temp\ccDsqi1j.s 			page 373


 21167 2053 B4060000 		.4byte	.LVL195
 21168 2057 BA060000 		.4byte	.LVL196
 21169 205b 0100     		.2byte	0x1
 21170 205d 54       		.byte	0x54
 21171 205e BA060000 		.4byte	.LVL196
 21172 2062 C2060000 		.4byte	.LVL197
 21173 2066 0100     		.2byte	0x1
 21174 2068 52       		.byte	0x52
 21175 2069 C2060000 		.4byte	.LVL197
 21176 206d C6060000 		.4byte	.LVL198
 21177 2071 0100     		.2byte	0x1
 21178 2073 54       		.byte	0x54
 21179 2074 00000000 		.4byte	0
 21180 2078 00000000 		.4byte	0
 21181              	.LLST227:
 21182 207c E8060000 		.4byte	.LVL201
 21183 2080 64070000 		.4byte	.LVL211
 21184 2084 0600     		.2byte	0x6
 21185 2086 03       		.byte	0x3
 21186 2087 00000000 		.4byte	msg
 21187 208b 9F       		.byte	0x9f
 21188 208c 00000000 		.4byte	0
 21189 2090 00000000 		.4byte	0
 21190              	.LLST228:
 21191 2094 EC060000 		.4byte	.LVL202
 21192 2098 F2060000 		.4byte	.LVL203
 21193 209c 0100     		.2byte	0x1
 21194 209e 56       		.byte	0x56
 21195 209f F2060000 		.4byte	.LVL203
 21196 20a3 26070000 		.4byte	.LVL207
 21197 20a7 0100     		.2byte	0x1
 21198 20a9 50       		.byte	0x50
 21199 20aa 00000000 		.4byte	0
 21200 20ae 00000000 		.4byte	0
 21201              	.LLST229:
 21202 20b2 2C070000 		.4byte	.LVL209
 21203 20b6 3D070000 		.4byte	.LVL210-1
 21204 20ba 0100     		.2byte	0x1
 21205 20bc 53       		.byte	0x53
 21206 20bd 3D070000 		.4byte	.LVL210-1
 21207 20c1 64070000 		.4byte	.LVL211
 21208 20c5 0600     		.2byte	0x6
 21209 20c7 74       		.byte	0x74
 21210 20c8 00       		.sleb128 0
 21211 20c9 75       		.byte	0x75
 21212 20ca 00       		.sleb128 0
 21213 20cb 22       		.byte	0x22
 21214 20cc 9F       		.byte	0x9f
 21215 20cd 00000000 		.4byte	0
 21216 20d1 00000000 		.4byte	0
 21217              	.LLST230:
 21218 20d5 24070000 		.4byte	.LVL206
 21219 20d9 64070000 		.4byte	.LVL211
 21220 20dd 0600     		.2byte	0x6
 21221 20df 03       		.byte	0x3
 21222 20e0 00000000 		.4byte	msg
 21223 20e4 9F       		.byte	0x9f
ARM GAS  C:\Users\Mohamad\AppData\Local\Temp\ccDsqi1j.s 			page 374


 21224 20e5 00000000 		.4byte	0
 21225 20e9 00000000 		.4byte	0
 21226              	.LLST231:
 21227 20ed 24070000 		.4byte	.LVL206
 21228 20f1 64070000 		.4byte	.LVL211
 21229 20f5 0600     		.2byte	0x6
 21230 20f7 03       		.byte	0x3
 21231 20f8 00000000 		.4byte	buff
 21232 20fc 9F       		.byte	0x9f
 21233 20fd 00000000 		.4byte	0
 21234 2101 00000000 		.4byte	0
 21235              	.LLST232:
 21236 2105 98070000 		.4byte	.LVL215
 21237 2109 A8070000 		.4byte	.LVL217
 21238 210d 0100     		.2byte	0x1
 21239 210f 50       		.byte	0x50
 21240 2110 A8070000 		.4byte	.LVL217
 21241 2114 E7080000 		.4byte	.LVL242-1
 21242 2118 0300     		.2byte	0x3
 21243 211a 91       		.byte	0x91
 21244 211b A87F     		.sleb128 -88
 21245 211d 00000000 		.4byte	0
 21246 2121 00000000 		.4byte	0
 21247              	.LLST233:
 21248 2125 98070000 		.4byte	.LVL215
 21249 2129 AA070000 		.4byte	.LVL218
 21250 212d 0100     		.2byte	0x1
 21251 212f 55       		.byte	0x55
 21252 2130 AA070000 		.4byte	.LVL218
 21253 2134 E7080000 		.4byte	.LVL242-1
 21254 2138 0300     		.2byte	0x3
 21255 213a 91       		.byte	0x91
 21256 213b A47F     		.sleb128 -92
 21257 213d 00000000 		.4byte	0
 21258 2141 00000000 		.4byte	0
 21259              	.LLST234:
 21260 2145 98070000 		.4byte	.LVL215
 21261 2149 C6070000 		.4byte	.LVL219
 21262 214d 0100     		.2byte	0x1
 21263 214f 56       		.byte	0x56
 21264 2150 C6070000 		.4byte	.LVL219
 21265 2154 E7080000 		.4byte	.LVL242-1
 21266 2158 0300     		.2byte	0x3
 21267 215a 91       		.byte	0x91
 21268 215b A07F     		.sleb128 -96
 21269 215d 00000000 		.4byte	0
 21270 2161 00000000 		.4byte	0
 21271              	.LLST235:
 21272 2165 98070000 		.4byte	.LVL215
 21273 2169 A4070000 		.4byte	.LVL216
 21274 216d 0700     		.2byte	0x7
 21275 216f 77       		.byte	0x77
 21276 2170 00       		.sleb128 0
 21277 2171 F7       		.byte	0xf7
 21278 2172 30       		.uleb128 0x30
 21279 2173 F7       		.byte	0xf7
 21280 2174 29       		.uleb128 0x29
ARM GAS  C:\Users\Mohamad\AppData\Local\Temp\ccDsqi1j.s 			page 375


 21281 2175 9F       		.byte	0x9f
 21282 2176 A4070000 		.4byte	.LVL216
 21283 217a A8070000 		.4byte	.LVL217
 21284 217e 0800     		.2byte	0x8
 21285 2180 77       		.byte	0x77
 21286 2181 00       		.sleb128 0
 21287 2182 06       		.byte	0x6
 21288 2183 F7       		.byte	0xf7
 21289 2184 30       		.uleb128 0x30
 21290 2185 F7       		.byte	0xf7
 21291 2186 29       		.uleb128 0x29
 21292 2187 9F       		.byte	0x9f
 21293 2188 A8070000 		.4byte	.LVL217
 21294 218c CC070000 		.4byte	.LVL220
 21295 2190 0700     		.2byte	0x7
 21296 2192 70       		.byte	0x70
 21297 2193 00       		.sleb128 0
 21298 2194 F7       		.byte	0xf7
 21299 2195 30       		.uleb128 0x30
 21300 2196 F7       		.byte	0xf7
 21301 2197 29       		.uleb128 0x29
 21302 2198 9F       		.byte	0x9f
 21303 2199 CC070000 		.4byte	.LVL220
 21304 219d CE070000 		.4byte	.LVL221
 21305 21a1 0800     		.2byte	0x8
 21306 21a3 76       		.byte	0x76
 21307 21a4 70       		.sleb128 -16
 21308 21a5 06       		.byte	0x6
 21309 21a6 F7       		.byte	0xf7
 21310 21a7 30       		.uleb128 0x30
 21311 21a8 F7       		.byte	0xf7
 21312 21a9 29       		.uleb128 0x29
 21313 21aa 9F       		.byte	0x9f
 21314 21ab CE070000 		.4byte	.LVL221
 21315 21af DE070000 		.4byte	.LVL222
 21316 21b3 0800     		.2byte	0x8
 21317 21b5 76       		.byte	0x76
 21318 21b6 64       		.sleb128 -28
 21319 21b7 06       		.byte	0x6
 21320 21b8 F7       		.byte	0xf7
 21321 21b9 30       		.uleb128 0x30
 21322 21ba F7       		.byte	0xf7
 21323 21bb 29       		.uleb128 0x29
 21324 21bc 9F       		.byte	0x9f
 21325 21bd DE070000 		.4byte	.LVL222
 21326 21c1 4A080000 		.4byte	.LVL223
 21327 21c5 0800     		.2byte	0x8
 21328 21c7 75       		.byte	0x75
 21329 21c8 08       		.sleb128 8
 21330 21c9 06       		.byte	0x6
 21331 21ca F7       		.byte	0xf7
 21332 21cb 30       		.uleb128 0x30
 21333 21cc F7       		.byte	0xf7
 21334 21cd 29       		.uleb128 0x29
 21335 21ce 9F       		.byte	0x9f
 21336 21cf 4A080000 		.4byte	.LVL223
 21337 21d3 62080000 		.4byte	.LVL227
ARM GAS  C:\Users\Mohamad\AppData\Local\Temp\ccDsqi1j.s 			page 376


 21338 21d7 0800     		.2byte	0x8
 21339 21d9 72       		.byte	0x72
 21340 21da 00       		.sleb128 0
 21341 21db 06       		.byte	0x6
 21342 21dc F7       		.byte	0xf7
 21343 21dd 30       		.uleb128 0x30
 21344 21de F7       		.byte	0xf7
 21345 21df 29       		.uleb128 0x29
 21346 21e0 9F       		.byte	0x9f
 21347 21e1 62080000 		.4byte	.LVL227
 21348 21e5 A8080000 		.4byte	.LVL236
 21349 21e9 0800     		.2byte	0x8
 21350 21eb 75       		.byte	0x75
 21351 21ec 08       		.sleb128 8
 21352 21ed 06       		.byte	0x6
 21353 21ee F7       		.byte	0xf7
 21354 21ef 30       		.uleb128 0x30
 21355 21f0 F7       		.byte	0xf7
 21356 21f1 29       		.uleb128 0x29
 21357 21f2 9F       		.byte	0x9f
 21358 21f3 A8080000 		.4byte	.LVL236
 21359 21f7 E7080000 		.4byte	.LVL242-1
 21360 21fb 0800     		.2byte	0x8
 21361 21fd 76       		.byte	0x76
 21362 21fe 08       		.sleb128 8
 21363 21ff 06       		.byte	0x6
 21364 2200 F7       		.byte	0xf7
 21365 2201 30       		.uleb128 0x30
 21366 2202 F7       		.byte	0xf7
 21367 2203 29       		.uleb128 0x29
 21368 2204 9F       		.byte	0x9f
 21369 2205 00000000 		.4byte	0
 21370 2209 00000000 		.4byte	0
 21371              	.LLST236:
 21372 220d 5E080000 		.4byte	.LVL226
 21373 2211 62080000 		.4byte	.LVL227
 21374 2215 0100     		.2byte	0x1
 21375 2217 53       		.byte	0x53
 21376 2218 00000000 		.4byte	0
 21377 221c 00000000 		.4byte	0
 21378              	.LLST237:
 21379 2220 5E080000 		.4byte	.LVL226
 21380 2224 62080000 		.4byte	.LVL227
 21381 2228 0200     		.2byte	0x2
 21382 222a 4D       		.byte	0x4d
 21383 222b 9F       		.byte	0x9f
 21384 222c 00000000 		.4byte	0
 21385 2230 00000000 		.4byte	0
 21386              	.LLST238:
 21387 2234 5E080000 		.4byte	.LVL226
 21388 2238 62080000 		.4byte	.LVL227
 21389 223c 0600     		.2byte	0x6
 21390 223e 03       		.byte	0x3
 21391 223f 08000000 		.4byte	msg+8
 21392 2243 9F       		.byte	0x9f
 21393 2244 6A080000 		.4byte	.LVL228
 21394 2248 86080000 		.4byte	.LVL233
ARM GAS  C:\Users\Mohamad\AppData\Local\Temp\ccDsqi1j.s 			page 377


 21395 224c 0100     		.2byte	0x1
 21396 224e 52       		.byte	0x52
 21397 224f 86080000 		.4byte	.LVL233
 21398 2253 9E080000 		.4byte	.LVL234
 21399 2257 0300     		.2byte	0x3
 21400 2259 71       		.byte	0x71
 21401 225a 7F       		.sleb128 -1
 21402 225b 9F       		.byte	0x9f
 21403 225c 9E080000 		.4byte	.LVL234
 21404 2260 BE080000 		.4byte	.LVL238
 21405 2264 0100     		.2byte	0x1
 21406 2266 52       		.byte	0x52
 21407 2267 00000000 		.4byte	0
 21408 226b 00000000 		.4byte	0
 21409              	.LLST239:
 21410 226f 6A080000 		.4byte	.LVL228
 21411 2273 86080000 		.4byte	.LVL233
 21412 2277 0200     		.2byte	0x2
 21413 2279 72       		.byte	0x72
 21414 227a 00       		.sleb128 0
 21415 227b 86080000 		.4byte	.LVL233
 21416 227f 9E080000 		.4byte	.LVL234
 21417 2283 0200     		.2byte	0x2
 21418 2285 71       		.byte	0x71
 21419 2286 7F       		.sleb128 -1
 21420 2287 9E080000 		.4byte	.LVL234
 21421 228b E7080000 		.4byte	.LVL242-1
 21422 228f 0100     		.2byte	0x1
 21423 2291 5E       		.byte	0x5e
 21424 2292 00000000 		.4byte	0
 21425 2296 00000000 		.4byte	0
 21426              	.LLST240:
 21427 229a 70080000 		.4byte	.LVL229
 21428 229e 74080000 		.4byte	.LVL230
 21429 22a2 0100     		.2byte	0x1
 21430 22a4 53       		.byte	0x53
 21431 22a5 76080000 		.4byte	.LVL231
 21432 22a9 82080000 		.4byte	.LVL232
 21433 22ad 0100     		.2byte	0x1
 21434 22af 53       		.byte	0x53
 21435 22b0 00000000 		.4byte	0
 21436 22b4 00000000 		.4byte	0
 21437              	.LLST241:
 21438 22b8 A8080000 		.4byte	.LVL236
 21439 22bc AE080000 		.4byte	.LVL237
 21440 22c0 0100     		.2byte	0x1
 21441 22c2 55       		.byte	0x55
 21442 22c3 AE080000 		.4byte	.LVL237
 21443 22c7 D8080000 		.4byte	.LVL239
 21444 22cb 0100     		.2byte	0x1
 21445 22cd 57       		.byte	0x57
 21446 22ce D8080000 		.4byte	.LVL239
 21447 22d2 DA080000 		.4byte	.LVL240
 21448 22d6 0100     		.2byte	0x1
 21449 22d8 51       		.byte	0x51
 21450 22d9 00000000 		.4byte	0
 21451 22dd 00000000 		.4byte	0
ARM GAS  C:\Users\Mohamad\AppData\Local\Temp\ccDsqi1j.s 			page 378


 21452              	.LLST242:
 21453 22e1 EA080000 		.4byte	.LVL243
 21454 22e5 FD080000 		.4byte	.LVL244-1
 21455 22e9 0100     		.2byte	0x1
 21456 22eb 53       		.byte	0x53
 21457 22ec FD080000 		.4byte	.LVL244-1
 21458 22f0 30090000 		.4byte	.LFE1537
 21459 22f4 0600     		.2byte	0x6
 21460 22f6 75       		.byte	0x75
 21461 22f7 00       		.sleb128 0
 21462 22f8 77       		.byte	0x77
 21463 22f9 00       		.sleb128 0
 21464 22fa 22       		.byte	0x22
 21465 22fb 9F       		.byte	0x9f
 21466 22fc 00000000 		.4byte	0
 21467 2300 00000000 		.4byte	0
 21468              	.LLST243:
 21469 2304 00000000 		.4byte	.LFB1538
 21470 2308 04000000 		.4byte	.LCFI5
 21471 230c 0200     		.2byte	0x2
 21472 230e 7D       		.byte	0x7d
 21473 230f 00       		.sleb128 0
 21474 2310 04000000 		.4byte	.LCFI5
 21475 2314 06000000 		.4byte	.LCFI6
 21476 2318 0200     		.2byte	0x2
 21477 231a 7D       		.byte	0x7d
 21478 231b 20       		.sleb128 32
 21479 231c 06000000 		.4byte	.LCFI6
 21480 2320 A8010000 		.4byte	.LFE1538
 21481 2324 0300     		.2byte	0x3
 21482 2326 7D       		.byte	0x7d
 21483 2327 8801     		.sleb128 136
 21484 2329 00000000 		.4byte	0
 21485 232d 00000000 		.4byte	0
 21486              	.LLST244:
 21487 2331 90000000 		.4byte	.LVL251
 21488 2335 BA000000 		.4byte	.LVL254
 21489 2339 0100     		.2byte	0x1
 21490 233b 5C       		.byte	0x5c
 21491 233c BA000000 		.4byte	.LVL254
 21492 2340 7B010000 		.4byte	.LVL274-1
 21493 2344 0200     		.2byte	0x2
 21494 2346 91       		.byte	0x91
 21495 2347 58       		.sleb128 -40
 21496 2348 00000000 		.4byte	0
 21497 234c 00000000 		.4byte	0
 21498              	.LLST245:
 21499 2350 90000000 		.4byte	.LVL251
 21500 2354 9E000000 		.4byte	.LVL253
 21501 2358 0100     		.2byte	0x1
 21502 235a 57       		.byte	0x57
 21503 235b 9E000000 		.4byte	.LVL253
 21504 235f 7B010000 		.4byte	.LVL274-1
 21505 2363 0200     		.2byte	0x2
 21506 2365 91       		.byte	0x91
 21507 2366 54       		.sleb128 -44
 21508 2367 00000000 		.4byte	0
ARM GAS  C:\Users\Mohamad\AppData\Local\Temp\ccDsqi1j.s 			page 379


 21509 236b 00000000 		.4byte	0
 21510              	.LLST246:
 21511 236f 90000000 		.4byte	.LVL251
 21512 2373 9C000000 		.4byte	.LVL252
 21513 2377 0100     		.2byte	0x1
 21514 2379 59       		.byte	0x59
 21515 237a 9C000000 		.4byte	.LVL252
 21516 237e 7B010000 		.4byte	.LVL274-1
 21517 2382 0200     		.2byte	0x2
 21518 2384 91       		.byte	0x91
 21519 2385 50       		.sleb128 -48
 21520 2386 00000000 		.4byte	0
 21521 238a 00000000 		.4byte	0
 21522              	.LLST247:
 21523 238e 90000000 		.4byte	.LVL251
 21524 2392 7B010000 		.4byte	.LVL274-1
 21525 2396 0200     		.2byte	0x2
 21526 2398 91       		.byte	0x91
 21527 2399 4C       		.sleb128 -52
 21528 239a 00000000 		.4byte	0
 21529 239e 00000000 		.4byte	0
 21530              	.LLST248:
 21531 23a2 90000000 		.4byte	.LVL251
 21532 23a6 7B010000 		.4byte	.LVL274-1
 21533 23aa 0200     		.2byte	0x2
 21534 23ac 91       		.byte	0x91
 21535 23ad 48       		.sleb128 -56
 21536 23ae 00000000 		.4byte	0
 21537 23b2 00000000 		.4byte	0
 21538              	.LLST249:
 21539 23b6 90000000 		.4byte	.LVL251
 21540 23ba 7B010000 		.4byte	.LVL274-1
 21541 23be 0200     		.2byte	0x2
 21542 23c0 91       		.byte	0x91
 21543 23c1 44       		.sleb128 -60
 21544 23c2 00000000 		.4byte	0
 21545 23c6 00000000 		.4byte	0
 21546              	.LLST250:
 21547 23ca F6000000 		.4byte	.LVL258
 21548 23ce FE000000 		.4byte	.LVL260
 21549 23d2 0100     		.2byte	0x1
 21550 23d4 54       		.byte	0x54
 21551 23d5 00000000 		.4byte	0
 21552 23d9 00000000 		.4byte	0
 21553              	.LLST251:
 21554 23dd F6000000 		.4byte	.LVL258
 21555 23e1 7B010000 		.4byte	.LVL274-1
 21556 23e5 0500     		.2byte	0x5
 21557 23e7 03       		.byte	0x3
 21558 23e8 07000000 		.4byte	msg+7
 21559 23ec 00000000 		.4byte	0
 21560 23f0 00000000 		.4byte	0
 21561              	.LLST252:
 21562 23f4 F6000000 		.4byte	.LVL258
 21563 23f8 7B010000 		.4byte	.LVL274-1
 21564 23fc 0100     		.2byte	0x1
 21565 23fe 5C       		.byte	0x5c
ARM GAS  C:\Users\Mohamad\AppData\Local\Temp\ccDsqi1j.s 			page 380


 21566 23ff 00000000 		.4byte	0
 21567 2403 00000000 		.4byte	0
 21568              	.LLST253:
 21569 2407 FA000000 		.4byte	.LVL259
 21570 240b FE000000 		.4byte	.LVL260
 21571 240f 0200     		.2byte	0x2
 21572 2411 4F       		.byte	0x4f
 21573 2412 9F       		.byte	0x9f
 21574 2413 00000000 		.4byte	0
 21575 2417 00000000 		.4byte	0
 21576              	.LLST254:
 21577 241b FA000000 		.4byte	.LVL259
 21578 241f FE000000 		.4byte	.LVL260
 21579 2423 0600     		.2byte	0x6
 21580 2425 03       		.byte	0x3
 21581 2426 08000000 		.4byte	msg+8
 21582 242a 9F       		.byte	0x9f
 21583 242b 06010000 		.4byte	.LVL261
 21584 242f 20010000 		.4byte	.LVL266
 21585 2433 0100     		.2byte	0x1
 21586 2435 55       		.byte	0x55
 21587 2436 20010000 		.4byte	.LVL266
 21588 243a 34010000 		.4byte	.LVL267
 21589 243e 0300     		.2byte	0x3
 21590 2440 73       		.byte	0x73
 21591 2441 7F       		.sleb128 -1
 21592 2442 9F       		.byte	0x9f
 21593 2443 34010000 		.4byte	.LVL267
 21594 2447 5C010000 		.4byte	.LVL271
 21595 244b 0100     		.2byte	0x1
 21596 244d 55       		.byte	0x55
 21597 244e 00000000 		.4byte	0
 21598 2452 00000000 		.4byte	0
 21599              	.LLST255:
 21600 2456 06010000 		.4byte	.LVL261
 21601 245a 20010000 		.4byte	.LVL266
 21602 245e 0200     		.2byte	0x2
 21603 2460 75       		.byte	0x75
 21604 2461 00       		.sleb128 0
 21605 2462 20010000 		.4byte	.LVL266
 21606 2466 48010000 		.4byte	.LVL270
 21607 246a 0200     		.2byte	0x2
 21608 246c 73       		.byte	0x73
 21609 246d 7F       		.sleb128 -1
 21610 246e 48010000 		.4byte	.LVL270
 21611 2472 5C010000 		.4byte	.LVL271
 21612 2476 0200     		.2byte	0x2
 21613 2478 75       		.byte	0x75
 21614 2479 7E       		.sleb128 -2
 21615 247a 00000000 		.4byte	0
 21616 247e 00000000 		.4byte	0
 21617              	.LLST256:
 21618 2482 0A010000 		.4byte	.LVL262
 21619 2486 10010000 		.4byte	.LVL263
 21620 248a 0100     		.2byte	0x1
 21621 248c 54       		.byte	0x54
 21622 248d 10010000 		.4byte	.LVL263
ARM GAS  C:\Users\Mohamad\AppData\Local\Temp\ccDsqi1j.s 			page 381


 21623 2491 18010000 		.4byte	.LVL264
 21624 2495 0100     		.2byte	0x1
 21625 2497 52       		.byte	0x52
 21626 2498 18010000 		.4byte	.LVL264
 21627 249c 1C010000 		.4byte	.LVL265
 21628 24a0 0100     		.2byte	0x1
 21629 24a2 54       		.byte	0x54
 21630 24a3 00000000 		.4byte	0
 21631 24a7 00000000 		.4byte	0
 21632              	.LLST257:
 21633 24ab 42010000 		.4byte	.LVL269
 21634 24af 48010000 		.4byte	.LVL270
 21635 24b3 0100     		.2byte	0x1
 21636 24b5 56       		.byte	0x56
 21637 24b6 48010000 		.4byte	.LVL270
 21638 24ba 70010000 		.4byte	.LVL272
 21639 24be 0100     		.2byte	0x1
 21640 24c0 50       		.byte	0x50
 21641 24c1 00000000 		.4byte	0
 21642 24c5 00000000 		.4byte	0
 21643              	.LLST258:
 21644 24c9 7E010000 		.4byte	.LVL275
 21645 24cd 95010000 		.4byte	.LVL276-1
 21646 24d1 0100     		.2byte	0x1
 21647 24d3 53       		.byte	0x53
 21648 24d4 95010000 		.4byte	.LVL276-1
 21649 24d8 A8010000 		.4byte	.LFE1538
 21650 24dc 0600     		.2byte	0x6
 21651 24de 75       		.byte	0x75
 21652 24df 00       		.sleb128 0
 21653 24e0 74       		.byte	0x74
 21654 24e1 00       		.sleb128 0
 21655 24e2 22       		.byte	0x22
 21656 24e3 9F       		.byte	0x9f
 21657 24e4 00000000 		.4byte	0
 21658 24e8 00000000 		.4byte	0
 21659              	.LLST259:
 21660 24ec 00000000 		.4byte	.LFB1539
 21661 24f0 04000000 		.4byte	.LCFI7
 21662 24f4 0200     		.2byte	0x2
 21663 24f6 7D       		.byte	0x7d
 21664 24f7 00       		.sleb128 0
 21665 24f8 04000000 		.4byte	.LCFI7
 21666 24fc 12000000 		.4byte	.LCFI8
 21667 2500 0200     		.2byte	0x2
 21668 2502 7D       		.byte	0x7d
 21669 2503 24       		.sleb128 36
 21670 2504 12000000 		.4byte	.LCFI8
 21671 2508 F0010000 		.4byte	.LFE1539
 21672 250c 0300     		.2byte	0x3
 21673 250e 7D       		.byte	0x7d
 21674 250f E800     		.sleb128 104
 21675 2511 00000000 		.4byte	0
 21676 2515 00000000 		.4byte	0
 21677              	.LLST260:
 21678 2519 CC000000 		.4byte	.LVL289
 21679 251d F6000000 		.4byte	.LVL293
ARM GAS  C:\Users\Mohamad\AppData\Local\Temp\ccDsqi1j.s 			page 382


 21680 2521 0100     		.2byte	0x1
 21681 2523 5C       		.byte	0x5c
 21682 2524 F6000000 		.4byte	.LVL293
 21683 2528 AB010000 		.4byte	.LVL312-1
 21684 252c 0200     		.2byte	0x2
 21685 252e 91       		.byte	0x91
 21686 252f 54       		.sleb128 -44
 21687 2530 00000000 		.4byte	0
 21688 2534 00000000 		.4byte	0
 21689              	.LLST261:
 21690 2538 CC000000 		.4byte	.LVL289
 21691 253c F2000000 		.4byte	.LVL292
 21692 2540 0100     		.2byte	0x1
 21693 2542 59       		.byte	0x59
 21694 2543 F2000000 		.4byte	.LVL292
 21695 2547 AB010000 		.4byte	.LVL312-1
 21696 254b 0200     		.2byte	0x2
 21697 254d 91       		.byte	0x91
 21698 254e 50       		.sleb128 -48
 21699 254f 00000000 		.4byte	0
 21700 2553 00000000 		.4byte	0
 21701              	.LLST262:
 21702 2557 CC000000 		.4byte	.LVL289
 21703 255b AB010000 		.4byte	.LVL312-1
 21704 255f 0200     		.2byte	0x2
 21705 2561 91       		.byte	0x91
 21706 2562 48       		.sleb128 -56
 21707 2563 00000000 		.4byte	0
 21708 2567 00000000 		.4byte	0
 21709              	.LLST263:
 21710 256b CC000000 		.4byte	.LVL289
 21711 256f AB010000 		.4byte	.LVL312-1
 21712 2573 0200     		.2byte	0x2
 21713 2575 91       		.byte	0x91
 21714 2576 44       		.sleb128 -60
 21715 2577 00000000 		.4byte	0
 21716 257b 00000000 		.4byte	0
 21717              	.LLST264:
 21718 257f CC000000 		.4byte	.LVL289
 21719 2583 EA000000 		.4byte	.LVL290
 21720 2587 0100     		.2byte	0x1
 21721 2589 50       		.byte	0x50
 21722 258a EA000000 		.4byte	.LVL290
 21723 258e EE000000 		.4byte	.LVL291
 21724 2592 0200     		.2byte	0x2
 21725 2594 74       		.byte	0x74
 21726 2595 70       		.sleb128 -16
 21727 2596 EE000000 		.4byte	.LVL291
 21728 259a AB010000 		.4byte	.LVL312-1
 21729 259e 0300     		.2byte	0x3
 21730 25a0 91       		.byte	0x91
 21731 25a1 BC7F     		.sleb128 -68
 21732 25a3 00000000 		.4byte	0
 21733 25a7 00000000 		.4byte	0
 21734              	.LLST265:
 21735 25ab 2A010000 		.4byte	.LVL296
 21736 25af 2E010000 		.4byte	.LVL297
ARM GAS  C:\Users\Mohamad\AppData\Local\Temp\ccDsqi1j.s 			page 383


 21737 25b3 0100     		.2byte	0x1
 21738 25b5 53       		.byte	0x53
 21739 25b6 2E010000 		.4byte	.LVL297
 21740 25ba AB010000 		.4byte	.LVL312-1
 21741 25be 1900     		.2byte	0x19
 21742 25c0 7C       		.byte	0x7c
 21743 25c1 00       		.sleb128 0
 21744 25c2 34       		.byte	0x34
 21745 25c3 25       		.byte	0x25
 21746 25c4 7E       		.byte	0x7e
 21747 25c5 00       		.sleb128 0
 21748 25c6 33       		.byte	0x33
 21749 25c7 24       		.byte	0x24
 21750 25c8 7A       		.byte	0x7a
 21751 25c9 00       		.sleb128 0
 21752 25ca 27       		.byte	0x27
 21753 25cb 38       		.byte	0x38
 21754 25cc 25       		.byte	0x25
 21755 25cd 27       		.byte	0x27
 21756 25ce 7C       		.byte	0x7c
 21757 25cf 00       		.sleb128 0
 21758 25d0 38       		.byte	0x38
 21759 25d1 24       		.byte	0x24
 21760 25d2 21       		.byte	0x21
 21761 25d3 7C       		.byte	0x7c
 21762 25d4 00       		.sleb128 0
 21763 25d5 33       		.byte	0x33
 21764 25d6 24       		.byte	0x24
 21765 25d7 27       		.byte	0x27
 21766 25d8 9F       		.byte	0x9f
 21767 25d9 00000000 		.4byte	0
 21768 25dd 00000000 		.4byte	0
 21769              	.LLST266:
 21770 25e1 2A010000 		.4byte	.LVL296
 21771 25e5 AB010000 		.4byte	.LVL312-1
 21772 25e9 0500     		.2byte	0x5
 21773 25eb 03       		.byte	0x3
 21774 25ec 07000000 		.4byte	msg+7
 21775 25f0 00000000 		.4byte	0
 21776 25f4 00000000 		.4byte	0
 21777              	.LLST267:
 21778 25f8 2A010000 		.4byte	.LVL296
 21779 25fc AB010000 		.4byte	.LVL312-1
 21780 2600 0100     		.2byte	0x1
 21781 2602 5C       		.byte	0x5c
 21782 2603 00000000 		.4byte	0
 21783 2607 00000000 		.4byte	0
 21784              	.LLST268:
 21785 260b 2A010000 		.4byte	.LVL296
 21786 260f 2E010000 		.4byte	.LVL297
 21787 2613 0200     		.2byte	0x2
 21788 2615 4B       		.byte	0x4b
 21789 2616 9F       		.byte	0x9f
 21790 2617 00000000 		.4byte	0
 21791 261b 00000000 		.4byte	0
 21792              	.LLST269:
 21793 261f 2A010000 		.4byte	.LVL296
ARM GAS  C:\Users\Mohamad\AppData\Local\Temp\ccDsqi1j.s 			page 384


 21794 2623 2E010000 		.4byte	.LVL297
 21795 2627 0600     		.2byte	0x6
 21796 2629 03       		.byte	0x3
 21797 262a 08000000 		.4byte	msg+8
 21798 262e 9F       		.byte	0x9f
 21799 262f 36010000 		.4byte	.LVL298
 21800 2633 50010000 		.4byte	.LVL303
 21801 2637 0100     		.2byte	0x1
 21802 2639 54       		.byte	0x54
 21803 263a 50010000 		.4byte	.LVL303
 21804 263e 64010000 		.4byte	.LVL304
 21805 2642 0300     		.2byte	0x3
 21806 2644 72       		.byte	0x72
 21807 2645 7F       		.sleb128 -1
 21808 2646 9F       		.byte	0x9f
 21809 2647 64010000 		.4byte	.LVL304
 21810 264b 8E010000 		.4byte	.LVL309
 21811 264f 0100     		.2byte	0x1
 21812 2651 54       		.byte	0x54
 21813 2652 00000000 		.4byte	0
 21814 2656 00000000 		.4byte	0
 21815              	.LLST270:
 21816 265a 36010000 		.4byte	.LVL298
 21817 265e 50010000 		.4byte	.LVL303
 21818 2662 0200     		.2byte	0x2
 21819 2664 74       		.byte	0x74
 21820 2665 00       		.sleb128 0
 21821 2666 50010000 		.4byte	.LVL303
 21822 266a 78010000 		.4byte	.LVL307
 21823 266e 0200     		.2byte	0x2
 21824 2670 72       		.byte	0x72
 21825 2671 7F       		.sleb128 -1
 21826 2672 78010000 		.4byte	.LVL307
 21827 2676 8E010000 		.4byte	.LVL309
 21828 267a 0200     		.2byte	0x2
 21829 267c 74       		.byte	0x74
 21830 267d 7E       		.sleb128 -2
 21831 267e 00000000 		.4byte	0
 21832 2682 00000000 		.4byte	0
 21833              	.LLST271:
 21834 2686 3A010000 		.4byte	.LVL299
 21835 268a 40010000 		.4byte	.LVL300
 21836 268e 0100     		.2byte	0x1
 21837 2690 53       		.byte	0x53
 21838 2691 40010000 		.4byte	.LVL300
 21839 2695 48010000 		.4byte	.LVL301
 21840 2699 0100     		.2byte	0x1
 21841 269b 51       		.byte	0x51
 21842 269c 48010000 		.4byte	.LVL301
 21843 26a0 4C010000 		.4byte	.LVL302
 21844 26a4 0100     		.2byte	0x1
 21845 26a6 53       		.byte	0x53
 21846 26a7 00000000 		.4byte	0
 21847 26ab 00000000 		.4byte	0
 21848              	.LLST272:
 21849 26af 72010000 		.4byte	.LVL306
 21850 26b3 78010000 		.4byte	.LVL307
ARM GAS  C:\Users\Mohamad\AppData\Local\Temp\ccDsqi1j.s 			page 385


 21851 26b7 0100     		.2byte	0x1
 21852 26b9 55       		.byte	0x55
 21853 26ba 78010000 		.4byte	.LVL307
 21854 26be 88010000 		.4byte	.LVL308
 21855 26c2 0100     		.2byte	0x1
 21856 26c4 57       		.byte	0x57
 21857 26c5 88010000 		.4byte	.LVL308
 21858 26c9 A0010000 		.4byte	.LVL310
 21859 26cd 0100     		.2byte	0x1
 21860 26cf 52       		.byte	0x52
 21861 26d0 00000000 		.4byte	0
 21862 26d4 00000000 		.4byte	0
 21863              	.LLST273:
 21864 26d8 AE010000 		.4byte	.LVL313
 21865 26dc C5010000 		.4byte	.LVL314-1
 21866 26e0 0100     		.2byte	0x1
 21867 26e2 53       		.byte	0x53
 21868 26e3 C5010000 		.4byte	.LVL314-1
 21869 26e7 F0010000 		.4byte	.LFE1539
 21870 26eb 0600     		.2byte	0x6
 21871 26ed 74       		.byte	0x74
 21872 26ee 00       		.sleb128 0
 21873 26ef 75       		.byte	0x75
 21874 26f0 00       		.sleb128 0
 21875 26f1 22       		.byte	0x22
 21876 26f2 9F       		.byte	0x9f
 21877 26f3 00000000 		.4byte	0
 21878 26f7 00000000 		.4byte	0
 21879              	.LLST274:
 21880 26fb 00000000 		.4byte	.LFB1540
 21881 26ff 04000000 		.4byte	.LCFI9
 21882 2703 0200     		.2byte	0x2
 21883 2705 7D       		.byte	0x7d
 21884 2706 00       		.sleb128 0
 21885 2707 04000000 		.4byte	.LCFI9
 21886 270b 06000000 		.4byte	.LCFI10
 21887 270f 0200     		.2byte	0x2
 21888 2711 7D       		.byte	0x7d
 21889 2712 1C       		.sleb128 28
 21890 2713 06000000 		.4byte	.LCFI10
 21891 2717 A4010000 		.4byte	.LFE1540
 21892 271b 0300     		.2byte	0x3
 21893 271d 7D       		.byte	0x7d
 21894 271e C000     		.sleb128 64
 21895 2720 00000000 		.4byte	0
 21896 2724 00000000 		.4byte	0
 21897              	.LLST275:
 21898 2728 2E000000 		.4byte	.LVL318
 21899 272c 3E000000 		.4byte	.LVL320
 21900 2730 0100     		.2byte	0x1
 21901 2732 50       		.byte	0x50
 21902 2733 3E000000 		.4byte	.LVL320
 21903 2737 69010000 		.4byte	.LVL341-1
 21904 273b 0200     		.2byte	0x2
 21905 273d 91       		.byte	0x91
 21906 273e 50       		.sleb128 -48
 21907 273f 00000000 		.4byte	0
ARM GAS  C:\Users\Mohamad\AppData\Local\Temp\ccDsqi1j.s 			page 386


 21908 2743 00000000 		.4byte	0
 21909              	.LLST276:
 21910 2747 2E000000 		.4byte	.LVL318
 21911 274b 40000000 		.4byte	.LVL321
 21912 274f 0100     		.2byte	0x1
 21913 2751 54       		.byte	0x54
 21914 2752 40000000 		.4byte	.LVL321
 21915 2756 69010000 		.4byte	.LVL341-1
 21916 275a 0200     		.2byte	0x2
 21917 275c 91       		.byte	0x91
 21918 275d 4C       		.sleb128 -52
 21919 275e 00000000 		.4byte	0
 21920 2762 00000000 		.4byte	0
 21921              	.LLST277:
 21922 2766 2E000000 		.4byte	.LVL318
 21923 276a 3A000000 		.4byte	.LVL319
 21924 276e 0100     		.2byte	0x1
 21925 2770 56       		.byte	0x56
 21926 2771 3A000000 		.4byte	.LVL319
 21927 2775 69010000 		.4byte	.LVL341-1
 21928 2779 0200     		.2byte	0x2
 21929 277b 91       		.byte	0x91
 21930 277c 48       		.sleb128 -56
 21931 277d 00000000 		.4byte	0
 21932 2781 00000000 		.4byte	0
 21933              	.LLST278:
 21934 2785 2E000000 		.4byte	.LVL318
 21935 2789 74000000 		.4byte	.LVL322
 21936 278d 0700     		.2byte	0x7
 21937 278f 77       		.byte	0x77
 21938 2790 00       		.sleb128 0
 21939 2791 F7       		.byte	0xf7
 21940 2792 30       		.uleb128 0x30
 21941 2793 F7       		.byte	0xf7
 21942 2794 29       		.uleb128 0x29
 21943 2795 9F       		.byte	0x9f
 21944 2796 74000000 		.4byte	.LVL322
 21945 279a 69010000 		.4byte	.LVL341-1
 21946 279e 0800     		.2byte	0x8
 21947 27a0 7D       		.byte	0x7d
 21948 27a1 00       		.sleb128 0
 21949 27a2 06       		.byte	0x6
 21950 27a3 F7       		.byte	0xf7
 21951 27a4 30       		.uleb128 0x30
 21952 27a5 F7       		.byte	0xf7
 21953 27a6 29       		.uleb128 0x29
 21954 27a7 9F       		.byte	0x9f
 21955 27a8 00000000 		.4byte	0
 21956 27ac 00000000 		.4byte	0
 21957              	.LLST279:
 21958 27b0 E8000000 		.4byte	.LVL325
 21959 27b4 EC000000 		.4byte	.LVL326
 21960 27b8 0100     		.2byte	0x1
 21961 27ba 53       		.byte	0x53
 21962 27bb 00000000 		.4byte	0
 21963 27bf 00000000 		.4byte	0
 21964              	.LLST280:
ARM GAS  C:\Users\Mohamad\AppData\Local\Temp\ccDsqi1j.s 			page 387


 21965 27c3 E8000000 		.4byte	.LVL325
 21966 27c7 69010000 		.4byte	.LVL341-1
 21967 27cb 0500     		.2byte	0x5
 21968 27cd 03       		.byte	0x3
 21969 27ce 07000000 		.4byte	msg+7
 21970 27d2 00000000 		.4byte	0
 21971 27d6 00000000 		.4byte	0
 21972              	.LLST281:
 21973 27da E8000000 		.4byte	.LVL325
 21974 27de EC000000 		.4byte	.LVL326
 21975 27e2 0200     		.2byte	0x2
 21976 27e4 4D       		.byte	0x4d
 21977 27e5 9F       		.byte	0x9f
 21978 27e6 00000000 		.4byte	0
 21979 27ea 00000000 		.4byte	0
 21980              	.LLST282:
 21981 27ee E8000000 		.4byte	.LVL325
 21982 27f2 EC000000 		.4byte	.LVL326
 21983 27f6 0600     		.2byte	0x6
 21984 27f8 03       		.byte	0x3
 21985 27f9 08000000 		.4byte	msg+8
 21986 27fd 9F       		.byte	0x9f
 21987 27fe F4000000 		.4byte	.LVL327
 21988 2802 0E010000 		.4byte	.LVL332
 21989 2806 0100     		.2byte	0x1
 21990 2808 52       		.byte	0x52
 21991 2809 0E010000 		.4byte	.LVL332
 21992 280d 22010000 		.4byte	.LVL333
 21993 2811 0300     		.2byte	0x3
 21994 2813 71       		.byte	0x71
 21995 2814 7F       		.sleb128 -1
 21996 2815 9F       		.byte	0x9f
 21997 2816 22010000 		.4byte	.LVL333
 21998 281a 44010000 		.4byte	.LVL337
 21999 281e 0100     		.2byte	0x1
 22000 2820 52       		.byte	0x52
 22001 2821 00000000 		.4byte	0
 22002 2825 00000000 		.4byte	0
 22003              	.LLST283:
 22004 2829 F4000000 		.4byte	.LVL327
 22005 282d 0E010000 		.4byte	.LVL332
 22006 2831 0200     		.2byte	0x2
 22007 2833 72       		.byte	0x72
 22008 2834 00       		.sleb128 0
 22009 2835 0E010000 		.4byte	.LVL332
 22010 2839 36010000 		.4byte	.LVL336
 22011 283d 0200     		.2byte	0x2
 22012 283f 71       		.byte	0x71
 22013 2840 7F       		.sleb128 -1
 22014 2841 36010000 		.4byte	.LVL336
 22015 2845 44010000 		.4byte	.LVL337
 22016 2849 0200     		.2byte	0x2
 22017 284b 72       		.byte	0x72
 22018 284c 7E       		.sleb128 -2
 22019 284d 00000000 		.4byte	0
 22020 2851 00000000 		.4byte	0
 22021              	.LLST284:
ARM GAS  C:\Users\Mohamad\AppData\Local\Temp\ccDsqi1j.s 			page 388


 22022 2855 F8000000 		.4byte	.LVL328
 22023 2859 FE000000 		.4byte	.LVL329
 22024 285d 0100     		.2byte	0x1
 22025 285f 53       		.byte	0x53
 22026 2860 FE000000 		.4byte	.LVL329
 22027 2864 06010000 		.4byte	.LVL330
 22028 2868 0100     		.2byte	0x1
 22029 286a 57       		.byte	0x57
 22030 286b 06010000 		.4byte	.LVL330
 22031 286f 0A010000 		.4byte	.LVL331
 22032 2873 0100     		.2byte	0x1
 22033 2875 53       		.byte	0x53
 22034 2876 00000000 		.4byte	0
 22035 287a 00000000 		.4byte	0
 22036              	.LLST285:
 22037 287e 30010000 		.4byte	.LVL335
 22038 2882 36010000 		.4byte	.LVL336
 22039 2886 0100     		.2byte	0x1
 22040 2888 54       		.byte	0x54
 22041 2889 36010000 		.4byte	.LVL336
 22042 288d 5A010000 		.4byte	.LVL338
 22043 2891 0100     		.2byte	0x1
 22044 2893 56       		.byte	0x56
 22045 2894 5A010000 		.4byte	.LVL338
 22046 2898 5C010000 		.4byte	.LVL339
 22047 289c 0100     		.2byte	0x1
 22048 289e 51       		.byte	0x51
 22049 289f 00000000 		.4byte	0
 22050 28a3 00000000 		.4byte	0
 22051              	.LLST286:
 22052 28a7 6C010000 		.4byte	.LVL342
 22053 28ab 83010000 		.4byte	.LVL343-1
 22054 28af 0100     		.2byte	0x1
 22055 28b1 53       		.byte	0x53
 22056 28b2 83010000 		.4byte	.LVL343-1
 22057 28b6 A4010000 		.4byte	.LFE1540
 22058 28ba 0600     		.2byte	0x6
 22059 28bc 74       		.byte	0x74
 22060 28bd 00       		.sleb128 0
 22061 28be 76       		.byte	0x76
 22062 28bf 00       		.sleb128 0
 22063 28c0 22       		.byte	0x22
 22064 28c1 9F       		.byte	0x9f
 22065 28c2 00000000 		.4byte	0
 22066 28c6 00000000 		.4byte	0
 22067              	.LLST287:
 22068 28ca 00000000 		.4byte	.LFB1541
 22069 28ce 04000000 		.4byte	.LCFI11
 22070 28d2 0200     		.2byte	0x2
 22071 28d4 7D       		.byte	0x7d
 22072 28d5 00       		.sleb128 0
 22073 28d6 04000000 		.4byte	.LCFI11
 22074 28da 0E000000 		.4byte	.LCFI12
 22075 28de 0200     		.2byte	0x2
 22076 28e0 7D       		.byte	0x7d
 22077 28e1 24       		.sleb128 36
 22078 28e2 0E000000 		.4byte	.LCFI12
ARM GAS  C:\Users\Mohamad\AppData\Local\Temp\ccDsqi1j.s 			page 389


 22079 28e6 0A030000 		.4byte	.LFE1541
 22080 28ea 0300     		.2byte	0x3
 22081 28ec 7D       		.byte	0x7d
 22082 28ed D800     		.sleb128 88
 22083 28ef 00000000 		.4byte	0
 22084 28f3 00000000 		.4byte	0
 22085              	.LLST288:
 22086 28f7 E8020000 		.4byte	.LVL347
 22087 28fb EB020000 		.4byte	.LVL348-1
 22088 28ff 0500     		.2byte	0x5
 22089 2901 03       		.byte	0x3
 22090 2902 07000000 		.4byte	msg+7
 22091 2906 00000000 		.4byte	0
 22092 290a 00000000 		.4byte	0
 22093              	.LLST289:
 22094 290e E8020000 		.4byte	.LVL347
 22095 2912 EB020000 		.4byte	.LVL348-1
 22096 2916 0500     		.2byte	0x5
 22097 2918 03       		.byte	0x3
 22098 2919 17000000 		.4byte	msg+23
 22099 291d 00000000 		.4byte	0
 22100 2921 00000000 		.4byte	0
 22101              		.section	.debug_aranges,"",%progbits
 22102 0000 64000000 		.4byte	0x64
 22103 0004 0200     		.2byte	0x2
 22104 0006 00000000 		.4byte	.Ldebug_info0
 22105 000a 04       		.byte	0x4
 22106 000b 00       		.byte	0
 22107 000c 0000     		.2byte	0
 22108 000e 0000     		.2byte	0
 22109 0010 00000000 		.4byte	.LFB1532
 22110 0014 02000000 		.4byte	.LFE1532-.LFB1532
 22111 0018 00000000 		.4byte	.LFB1533
 22112 001c 1A000000 		.4byte	.LFE1533-.LFB1533
 22113 0020 00000000 		.4byte	.LFB1534
 22114 0024 14000000 		.4byte	.LFE1534-.LFB1534
 22115 0028 00000000 		.4byte	.LFB1535
 22116 002c 08000000 		.4byte	.LFE1535-.LFB1535
 22117 0030 00000000 		.4byte	.LFB1536
 22118 0034 C40A0000 		.4byte	.LFE1536-.LFB1536
 22119 0038 00000000 		.4byte	.LFB1537
 22120 003c 30090000 		.4byte	.LFE1537-.LFB1537
 22121 0040 00000000 		.4byte	.LFB1538
 22122 0044 A8010000 		.4byte	.LFE1538-.LFB1538
 22123 0048 00000000 		.4byte	.LFB1539
 22124 004c F0010000 		.4byte	.LFE1539-.LFB1539
 22125 0050 00000000 		.4byte	.LFB1540
 22126 0054 A4010000 		.4byte	.LFE1540-.LFB1540
 22127 0058 00000000 		.4byte	.LFB1541
 22128 005c 0A030000 		.4byte	.LFE1541-.LFB1541
 22129 0060 00000000 		.4byte	0
 22130 0064 00000000 		.4byte	0
 22131              		.section	.debug_ranges,"",%progbits
 22132              	.Ldebug_ranges0:
 22133 0000 9C000000 		.4byte	.LBB140
 22134 0004 A4000000 		.4byte	.LBE140
 22135 0008 AC000000 		.4byte	.LBB690
ARM GAS  C:\Users\Mohamad\AppData\Local\Temp\ccDsqi1j.s 			page 390


 22136 000c AE000000 		.4byte	.LBE690
 22137 0010 B4000000 		.4byte	.LBB691
 22138 0014 C40A0000 		.4byte	.LBE691
 22139 0018 00000000 		.4byte	0
 22140 001c 00000000 		.4byte	0
 22141 0020 3E010000 		.4byte	.LBB144
 22142 0024 42010000 		.4byte	.LBE144
 22143 0028 46010000 		.4byte	.LBB206
 22144 002c 6E020000 		.4byte	.LBE206
 22145 0030 72020000 		.4byte	.LBB213
 22146 0034 78020000 		.4byte	.LBE213
 22147 0038 7A020000 		.4byte	.LBB215
 22148 003c 86020000 		.4byte	.LBE215
 22149 0040 8A020000 		.4byte	.LBB217
 22150 0044 8E020000 		.4byte	.LBE217
 22151 0048 00000000 		.4byte	0
 22152 004c 00000000 		.4byte	0
 22153 0050 3E010000 		.4byte	.LBB145
 22154 0054 42010000 		.4byte	.LBE145
 22155 0058 46010000 		.4byte	.LBB202
 22156 005c 6E020000 		.4byte	.LBE202
 22157 0060 72020000 		.4byte	.LBB203
 22158 0064 78020000 		.4byte	.LBE203
 22159 0068 7A020000 		.4byte	.LBB204
 22160 006c 86020000 		.4byte	.LBE204
 22161 0070 8A020000 		.4byte	.LBB205
 22162 0074 8E020000 		.4byte	.LBE205
 22163 0078 00000000 		.4byte	0
 22164 007c 00000000 		.4byte	0
 22165 0080 70010000 		.4byte	.LBB146
 22166 0084 72010000 		.4byte	.LBE146
 22167 0088 76010000 		.4byte	.LBB196
 22168 008c EE010000 		.4byte	.LBE196
 22169 0090 F0010000 		.4byte	.LBB197
 22170 0094 F4010000 		.4byte	.LBE197
 22171 0098 F8010000 		.4byte	.LBB198
 22172 009c 6E020000 		.4byte	.LBE198
 22173 00a0 72020000 		.4byte	.LBB199
 22174 00a4 78020000 		.4byte	.LBE199
 22175 00a8 7A020000 		.4byte	.LBB200
 22176 00ac 86020000 		.4byte	.LBE200
 22177 00b0 8A020000 		.4byte	.LBB201
 22178 00b4 8E020000 		.4byte	.LBE201
 22179 00b8 00000000 		.4byte	0
 22180 00bc 00000000 		.4byte	0
 22181 00c0 70010000 		.4byte	.LBB147
 22182 00c4 72010000 		.4byte	.LBE147
 22183 00c8 76010000 		.4byte	.LBB190
 22184 00cc EE010000 		.4byte	.LBE190
 22185 00d0 F0010000 		.4byte	.LBB191
 22186 00d4 F4010000 		.4byte	.LBE191
 22187 00d8 F8010000 		.4byte	.LBB192
 22188 00dc 6E020000 		.4byte	.LBE192
 22189 00e0 72020000 		.4byte	.LBB193
 22190 00e4 78020000 		.4byte	.LBE193
 22191 00e8 7A020000 		.4byte	.LBB194
 22192 00ec 86020000 		.4byte	.LBE194
ARM GAS  C:\Users\Mohamad\AppData\Local\Temp\ccDsqi1j.s 			page 391


 22193 00f0 8A020000 		.4byte	.LBB195
 22194 00f4 8E020000 		.4byte	.LBE195
 22195 00f8 00000000 		.4byte	0
 22196 00fc 00000000 		.4byte	0
 22197 0100 70010000 		.4byte	.LBB148
 22198 0104 72010000 		.4byte	.LBE148
 22199 0108 76010000 		.4byte	.LBB184
 22200 010c EE010000 		.4byte	.LBE184
 22201 0110 F0010000 		.4byte	.LBB185
 22202 0114 F4010000 		.4byte	.LBE185
 22203 0118 F8010000 		.4byte	.LBB186
 22204 011c 6E020000 		.4byte	.LBE186
 22205 0120 72020000 		.4byte	.LBB187
 22206 0124 78020000 		.4byte	.LBE187
 22207 0128 7A020000 		.4byte	.LBB188
 22208 012c 86020000 		.4byte	.LBE188
 22209 0130 8A020000 		.4byte	.LBB189
 22210 0134 8E020000 		.4byte	.LBE189
 22211 0138 00000000 		.4byte	0
 22212 013c 00000000 		.4byte	0
 22213 0140 70010000 		.4byte	.LBB149
 22214 0144 72010000 		.4byte	.LBE149
 22215 0148 76010000 		.4byte	.LBB178
 22216 014c EE010000 		.4byte	.LBE178
 22217 0150 F0010000 		.4byte	.LBB179
 22218 0154 F4010000 		.4byte	.LBE179
 22219 0158 F8010000 		.4byte	.LBB180
 22220 015c 6E020000 		.4byte	.LBE180
 22221 0160 72020000 		.4byte	.LBB181
 22222 0164 78020000 		.4byte	.LBE181
 22223 0168 7A020000 		.4byte	.LBB182
 22224 016c 86020000 		.4byte	.LBE182
 22225 0170 8A020000 		.4byte	.LBB183
 22226 0174 8E020000 		.4byte	.LBE183
 22227 0178 00000000 		.4byte	0
 22228 017c 00000000 		.4byte	0
 22229 0180 88010000 		.4byte	.LBB150
 22230 0184 E0010000 		.4byte	.LBE150
 22231 0188 E6010000 		.4byte	.LBB160
 22232 018c EA010000 		.4byte	.LBE160
 22233 0190 F0010000 		.4byte	.LBB161
 22234 0194 F4010000 		.4byte	.LBE161
 22235 0198 00000000 		.4byte	0
 22236 019c 00000000 		.4byte	0
 22237 01a0 88010000 		.4byte	.LBB151
 22238 01a4 E0010000 		.4byte	.LBE151
 22239 01a8 E6010000 		.4byte	.LBB158
 22240 01ac EA010000 		.4byte	.LBE158
 22241 01b0 F0010000 		.4byte	.LBB159
 22242 01b4 F4010000 		.4byte	.LBE159
 22243 01b8 00000000 		.4byte	0
 22244 01bc 00000000 		.4byte	0
 22245 01c0 88010000 		.4byte	.LBB152
 22246 01c4 E0010000 		.4byte	.LBE152
 22247 01c8 E6010000 		.4byte	.LBB156
 22248 01cc EA010000 		.4byte	.LBE156
 22249 01d0 F0010000 		.4byte	.LBB157
ARM GAS  C:\Users\Mohamad\AppData\Local\Temp\ccDsqi1j.s 			page 392


 22250 01d4 F4010000 		.4byte	.LBE157
 22251 01d8 00000000 		.4byte	0
 22252 01dc 00000000 		.4byte	0
 22253 01e0 88010000 		.4byte	.LBB153
 22254 01e4 E0010000 		.4byte	.LBE153
 22255 01e8 E6010000 		.4byte	.LBB154
 22256 01ec EA010000 		.4byte	.LBE154
 22257 01f0 F0010000 		.4byte	.LBB155
 22258 01f4 F4010000 		.4byte	.LBE155
 22259 01f8 00000000 		.4byte	0
 22260 01fc 00000000 		.4byte	0
 22261 0200 10020000 		.4byte	.LBB164
 22262 0204 12020000 		.4byte	.LBE164
 22263 0208 16020000 		.4byte	.LBB169
 22264 020c 30020000 		.4byte	.LBE169
 22265 0210 32020000 		.4byte	.LBB170
 22266 0214 48020000 		.4byte	.LBE170
 22267 0218 50020000 		.4byte	.LBB171
 22268 021c 54020000 		.4byte	.LBE171
 22269 0220 00000000 		.4byte	0
 22270 0224 00000000 		.4byte	0
 22271 0228 10020000 		.4byte	.LBB165
 22272 022c 12020000 		.4byte	.LBE165
 22273 0230 16020000 		.4byte	.LBB166
 22274 0234 30020000 		.4byte	.LBE166
 22275 0238 32020000 		.4byte	.LBB167
 22276 023c 48020000 		.4byte	.LBE167
 22277 0240 50020000 		.4byte	.LBB168
 22278 0244 54020000 		.4byte	.LBE168
 22279 0248 00000000 		.4byte	0
 22280 024c 00000000 		.4byte	0
 22281 0250 5A020000 		.4byte	.LBB172
 22282 0254 6E020000 		.4byte	.LBE172
 22283 0258 72020000 		.4byte	.LBB176
 22284 025c 78020000 		.4byte	.LBE176
 22285 0260 7E020000 		.4byte	.LBB177
 22286 0264 82020000 		.4byte	.LBE177
 22287 0268 00000000 		.4byte	0
 22288 026c 00000000 		.4byte	0
 22289 0270 5A020000 		.4byte	.LBB173
 22290 0274 6E020000 		.4byte	.LBE173
 22291 0278 72020000 		.4byte	.LBB174
 22292 027c 78020000 		.4byte	.LBE174
 22293 0280 7E020000 		.4byte	.LBB175
 22294 0284 82020000 		.4byte	.LBE175
 22295 0288 00000000 		.4byte	0
 22296 028c 00000000 		.4byte	0
 22297 0290 6E020000 		.4byte	.LBB207
 22298 0294 72020000 		.4byte	.LBE207
 22299 0298 78020000 		.4byte	.LBB214
 22300 029c 7A020000 		.4byte	.LBE214
 22301 02a0 86020000 		.4byte	.LBB216
 22302 02a4 8A020000 		.4byte	.LBE216
 22303 02a8 8E020000 		.4byte	.LBB218
 22304 02ac A0020000 		.4byte	.LBE218
 22305 02b0 A6020000 		.4byte	.LBB219
 22306 02b4 AA020000 		.4byte	.LBE219
ARM GAS  C:\Users\Mohamad\AppData\Local\Temp\ccDsqi1j.s 			page 393


 22307 02b8 00000000 		.4byte	0
 22308 02bc 00000000 		.4byte	0
 22309 02c0 6E020000 		.4byte	.LBB208
 22310 02c4 72020000 		.4byte	.LBE208
 22311 02c8 78020000 		.4byte	.LBB209
 22312 02cc 7A020000 		.4byte	.LBE209
 22313 02d0 86020000 		.4byte	.LBB210
 22314 02d4 8A020000 		.4byte	.LBE210
 22315 02d8 8E020000 		.4byte	.LBB211
 22316 02dc A0020000 		.4byte	.LBE211
 22317 02e0 A6020000 		.4byte	.LBB212
 22318 02e4 AA020000 		.4byte	.LBE212
 22319 02e8 00000000 		.4byte	0
 22320 02ec 00000000 		.4byte	0
 22321 02f0 16030000 		.4byte	.LBB220
 22322 02f4 F6030000 		.4byte	.LBE220
 22323 02f8 02040000 		.4byte	.LBB380
 22324 02fc D0050000 		.4byte	.LBE380
 22325 0300 D2050000 		.4byte	.LBB381
 22326 0304 F2050000 		.4byte	.LBE381
 22327 0308 F6050000 		.4byte	.LBB382
 22328 030c 32060000 		.4byte	.LBE382
 22329 0310 3C060000 		.4byte	.LBB383
 22330 0314 40060000 		.4byte	.LBE383
 22331 0318 00000000 		.4byte	0
 22332 031c 00000000 		.4byte	0
 22333 0320 16030000 		.4byte	.LBB221
 22334 0324 F6030000 		.4byte	.LBE221
 22335 0328 02040000 		.4byte	.LBB376
 22336 032c D0050000 		.4byte	.LBE376
 22337 0330 D2050000 		.4byte	.LBB377
 22338 0334 F2050000 		.4byte	.LBE377
 22339 0338 F6050000 		.4byte	.LBB378
 22340 033c 32060000 		.4byte	.LBE378
 22341 0340 3C060000 		.4byte	.LBB379
 22342 0344 40060000 		.4byte	.LBE379
 22343 0348 00000000 		.4byte	0
 22344 034c 00000000 		.4byte	0
 22345 0350 16030000 		.4byte	.LBB222
 22346 0354 F6030000 		.4byte	.LBE222
 22347 0358 02040000 		.4byte	.LBB360
 22348 035c 96040000 		.4byte	.LBE360
 22349 0360 9A040000 		.4byte	.LBB367
 22350 0364 D0050000 		.4byte	.LBE367
 22351 0368 D2050000 		.4byte	.LBB368
 22352 036c F2050000 		.4byte	.LBE368
 22353 0370 F6050000 		.4byte	.LBB369
 22354 0374 06060000 		.4byte	.LBE369
 22355 0378 08060000 		.4byte	.LBB371
 22356 037c 20060000 		.4byte	.LBE371
 22357 0380 3C060000 		.4byte	.LBB375
 22358 0384 40060000 		.4byte	.LBE375
 22359 0388 00000000 		.4byte	0
 22360 038c 00000000 		.4byte	0
 22361 0390 16030000 		.4byte	.LBB223
 22362 0394 F6030000 		.4byte	.LBE223
 22363 0398 02040000 		.4byte	.LBB354
ARM GAS  C:\Users\Mohamad\AppData\Local\Temp\ccDsqi1j.s 			page 394


 22364 039c 96040000 		.4byte	.LBE354
 22365 03a0 9A040000 		.4byte	.LBB355
 22366 03a4 D0050000 		.4byte	.LBE355
 22367 03a8 D2050000 		.4byte	.LBB356
 22368 03ac F2050000 		.4byte	.LBE356
 22369 03b0 F6050000 		.4byte	.LBB357
 22370 03b4 06060000 		.4byte	.LBE357
 22371 03b8 08060000 		.4byte	.LBB358
 22372 03bc 20060000 		.4byte	.LBE358
 22373 03c0 3C060000 		.4byte	.LBB359
 22374 03c4 40060000 		.4byte	.LBE359
 22375 03c8 00000000 		.4byte	0
 22376 03cc 00000000 		.4byte	0
 22377 03d0 16030000 		.4byte	.LBB224
 22378 03d4 1E030000 		.4byte	.LBE224
 22379 03d8 22030000 		.4byte	.LBB342
 22380 03dc 4A030000 		.4byte	.LBE342
 22381 03e0 52030000 		.4byte	.LBB343
 22382 03e4 5A030000 		.4byte	.LBE343
 22383 03e8 5E030000 		.4byte	.LBB344
 22384 03ec 62030000 		.4byte	.LBE344
 22385 03f0 76030000 		.4byte	.LBB345
 22386 03f4 86030000 		.4byte	.LBE345
 22387 03f8 88030000 		.4byte	.LBB346
 22388 03fc 8C030000 		.4byte	.LBE346
 22389 0400 90030000 		.4byte	.LBB347
 22390 0404 F6030000 		.4byte	.LBE347
 22391 0408 02040000 		.4byte	.LBB348
 22392 040c 96040000 		.4byte	.LBE348
 22393 0410 9A040000 		.4byte	.LBB349
 22394 0414 D0050000 		.4byte	.LBE349
 22395 0418 D2050000 		.4byte	.LBB350
 22396 041c D6050000 		.4byte	.LBE350
 22397 0420 DE050000 		.4byte	.LBB351
 22398 0424 F2050000 		.4byte	.LBE351
 22399 0428 F6050000 		.4byte	.LBB352
 22400 042c 06060000 		.4byte	.LBE352
 22401 0430 08060000 		.4byte	.LBB353
 22402 0434 20060000 		.4byte	.LBE353
 22403 0438 00000000 		.4byte	0
 22404 043c 00000000 		.4byte	0
 22405 0440 16030000 		.4byte	.LBB225
 22406 0444 1E030000 		.4byte	.LBE225
 22407 0448 22030000 		.4byte	.LBB330
 22408 044c 4A030000 		.4byte	.LBE330
 22409 0450 52030000 		.4byte	.LBB331
 22410 0454 5A030000 		.4byte	.LBE331
 22411 0458 5E030000 		.4byte	.LBB332
 22412 045c 62030000 		.4byte	.LBE332
 22413 0460 76030000 		.4byte	.LBB333
 22414 0464 86030000 		.4byte	.LBE333
 22415 0468 88030000 		.4byte	.LBB334
 22416 046c 8C030000 		.4byte	.LBE334
 22417 0470 90030000 		.4byte	.LBB335
 22418 0474 F6030000 		.4byte	.LBE335
 22419 0478 02040000 		.4byte	.LBB336
 22420 047c 96040000 		.4byte	.LBE336
ARM GAS  C:\Users\Mohamad\AppData\Local\Temp\ccDsqi1j.s 			page 395


 22421 0480 9A040000 		.4byte	.LBB337
 22422 0484 D0050000 		.4byte	.LBE337
 22423 0488 D2050000 		.4byte	.LBB338
 22424 048c D6050000 		.4byte	.LBE338
 22425 0490 DE050000 		.4byte	.LBB339
 22426 0494 F2050000 		.4byte	.LBE339
 22427 0498 F6050000 		.4byte	.LBB340
 22428 049c 06060000 		.4byte	.LBE340
 22429 04a0 08060000 		.4byte	.LBB341
 22430 04a4 20060000 		.4byte	.LBE341
 22431 04a8 00000000 		.4byte	0
 22432 04ac 00000000 		.4byte	0
 22433 04b0 16030000 		.4byte	.LBB226
 22434 04b4 1E030000 		.4byte	.LBE226
 22435 04b8 22030000 		.4byte	.LBB318
 22436 04bc 4A030000 		.4byte	.LBE318
 22437 04c0 52030000 		.4byte	.LBB319
 22438 04c4 5A030000 		.4byte	.LBE319
 22439 04c8 5E030000 		.4byte	.LBB320
 22440 04cc 62030000 		.4byte	.LBE320
 22441 04d0 76030000 		.4byte	.LBB321
 22442 04d4 86030000 		.4byte	.LBE321
 22443 04d8 88030000 		.4byte	.LBB322
 22444 04dc 8C030000 		.4byte	.LBE322
 22445 04e0 90030000 		.4byte	.LBB323
 22446 04e4 F6030000 		.4byte	.LBE323
 22447 04e8 02040000 		.4byte	.LBB324
 22448 04ec 96040000 		.4byte	.LBE324
 22449 04f0 9A040000 		.4byte	.LBB325
 22450 04f4 D0050000 		.4byte	.LBE325
 22451 04f8 D2050000 		.4byte	.LBB326
 22452 04fc D6050000 		.4byte	.LBE326
 22453 0500 DE050000 		.4byte	.LBB327
 22454 0504 F2050000 		.4byte	.LBE327
 22455 0508 F6050000 		.4byte	.LBB328
 22456 050c 06060000 		.4byte	.LBE328
 22457 0510 08060000 		.4byte	.LBB329
 22458 0514 20060000 		.4byte	.LBE329
 22459 0518 00000000 		.4byte	0
 22460 051c 00000000 		.4byte	0
 22461 0520 16030000 		.4byte	.LBB227
 22462 0524 1E030000 		.4byte	.LBE227
 22463 0528 22030000 		.4byte	.LBB306
 22464 052c 4A030000 		.4byte	.LBE306
 22465 0530 52030000 		.4byte	.LBB307
 22466 0534 5A030000 		.4byte	.LBE307
 22467 0538 5E030000 		.4byte	.LBB308
 22468 053c 62030000 		.4byte	.LBE308
 22469 0540 76030000 		.4byte	.LBB309
 22470 0544 86030000 		.4byte	.LBE309
 22471 0548 88030000 		.4byte	.LBB310
 22472 054c 8C030000 		.4byte	.LBE310
 22473 0550 90030000 		.4byte	.LBB311
 22474 0554 F6030000 		.4byte	.LBE311
 22475 0558 02040000 		.4byte	.LBB312
 22476 055c 96040000 		.4byte	.LBE312
 22477 0560 9A040000 		.4byte	.LBB313
ARM GAS  C:\Users\Mohamad\AppData\Local\Temp\ccDsqi1j.s 			page 396


 22478 0564 D0050000 		.4byte	.LBE313
 22479 0568 D2050000 		.4byte	.LBB314
 22480 056c D6050000 		.4byte	.LBE314
 22481 0570 DE050000 		.4byte	.LBB315
 22482 0574 F2050000 		.4byte	.LBE315
 22483 0578 F6050000 		.4byte	.LBB316
 22484 057c 06060000 		.4byte	.LBE316
 22485 0580 08060000 		.4byte	.LBB317
 22486 0584 20060000 		.4byte	.LBE317
 22487 0588 00000000 		.4byte	0
 22488 058c 00000000 		.4byte	0
 22489 0590 24030000 		.4byte	.LBB228
 22490 0594 38030000 		.4byte	.LBE228
 22491 0598 3A030000 		.4byte	.LBB262
 22492 059c 4A030000 		.4byte	.LBE262
 22493 05a0 52030000 		.4byte	.LBB263
 22494 05a4 5A030000 		.4byte	.LBE263
 22495 05a8 5E030000 		.4byte	.LBB264
 22496 05ac 62030000 		.4byte	.LBE264
 22497 05b0 76030000 		.4byte	.LBB265
 22498 05b4 86030000 		.4byte	.LBE265
 22499 05b8 88030000 		.4byte	.LBB266
 22500 05bc 8C030000 		.4byte	.LBE266
 22501 05c0 90030000 		.4byte	.LBB267
 22502 05c4 A4030000 		.4byte	.LBE267
 22503 05c8 B2030000 		.4byte	.LBB290
 22504 05cc B6030000 		.4byte	.LBE290
 22505 05d0 CA030000 		.4byte	.LBB292
 22506 05d4 CC030000 		.4byte	.LBE292
 22507 05d8 02040000 		.4byte	.LBB294
 22508 05dc 04040000 		.4byte	.LBE294
 22509 05e0 0E040000 		.4byte	.LBB296
 22510 05e4 12040000 		.4byte	.LBE296
 22511 05e8 00000000 		.4byte	0
 22512 05ec 00000000 		.4byte	0
 22513 05f0 24030000 		.4byte	.LBB229
 22514 05f4 38030000 		.4byte	.LBE229
 22515 05f8 3A030000 		.4byte	.LBB252
 22516 05fc 4A030000 		.4byte	.LBE252
 22517 0600 52030000 		.4byte	.LBB253
 22518 0604 5A030000 		.4byte	.LBE253
 22519 0608 5E030000 		.4byte	.LBB254
 22520 060c 62030000 		.4byte	.LBE254
 22521 0610 76030000 		.4byte	.LBB255
 22522 0614 86030000 		.4byte	.LBE255
 22523 0618 88030000 		.4byte	.LBB256
 22524 061c 8C030000 		.4byte	.LBE256
 22525 0620 90030000 		.4byte	.LBB257
 22526 0624 A4030000 		.4byte	.LBE257
 22527 0628 B2030000 		.4byte	.LBB258
 22528 062c B6030000 		.4byte	.LBE258
 22529 0630 CA030000 		.4byte	.LBB259
 22530 0634 CC030000 		.4byte	.LBE259
 22531 0638 02040000 		.4byte	.LBB260
 22532 063c 04040000 		.4byte	.LBE260
 22533 0640 0E040000 		.4byte	.LBB261
 22534 0644 12040000 		.4byte	.LBE261
ARM GAS  C:\Users\Mohamad\AppData\Local\Temp\ccDsqi1j.s 			page 397


 22535 0648 00000000 		.4byte	0
 22536 064c 00000000 		.4byte	0
 22537 0650 24030000 		.4byte	.LBB230
 22538 0654 38030000 		.4byte	.LBE230
 22539 0658 3A030000 		.4byte	.LBB242
 22540 065c 4A030000 		.4byte	.LBE242
 22541 0660 52030000 		.4byte	.LBB243
 22542 0664 5A030000 		.4byte	.LBE243
 22543 0668 5E030000 		.4byte	.LBB244
 22544 066c 62030000 		.4byte	.LBE244
 22545 0670 76030000 		.4byte	.LBB245
 22546 0674 86030000 		.4byte	.LBE245
 22547 0678 88030000 		.4byte	.LBB246
 22548 067c 8C030000 		.4byte	.LBE246
 22549 0680 90030000 		.4byte	.LBB247
 22550 0684 A4030000 		.4byte	.LBE247
 22551 0688 B2030000 		.4byte	.LBB248
 22552 068c B6030000 		.4byte	.LBE248
 22553 0690 CA030000 		.4byte	.LBB249
 22554 0694 CC030000 		.4byte	.LBE249
 22555 0698 02040000 		.4byte	.LBB250
 22556 069c 04040000 		.4byte	.LBE250
 22557 06a0 0E040000 		.4byte	.LBB251
 22558 06a4 12040000 		.4byte	.LBE251
 22559 06a8 00000000 		.4byte	0
 22560 06ac 00000000 		.4byte	0
 22561 06b0 24030000 		.4byte	.LBB231
 22562 06b4 38030000 		.4byte	.LBE231
 22563 06b8 3A030000 		.4byte	.LBB232
 22564 06bc 4A030000 		.4byte	.LBE232
 22565 06c0 52030000 		.4byte	.LBB233
 22566 06c4 5A030000 		.4byte	.LBE233
 22567 06c8 5E030000 		.4byte	.LBB234
 22568 06cc 62030000 		.4byte	.LBE234
 22569 06d0 76030000 		.4byte	.LBB235
 22570 06d4 86030000 		.4byte	.LBE235
 22571 06d8 88030000 		.4byte	.LBB236
 22572 06dc 8C030000 		.4byte	.LBE236
 22573 06e0 90030000 		.4byte	.LBB237
 22574 06e4 A4030000 		.4byte	.LBE237
 22575 06e8 B2030000 		.4byte	.LBB238
 22576 06ec B6030000 		.4byte	.LBE238
 22577 06f0 CA030000 		.4byte	.LBB239
 22578 06f4 CC030000 		.4byte	.LBE239
 22579 06f8 02040000 		.4byte	.LBB240
 22580 06fc 04040000 		.4byte	.LBE240
 22581 0700 0E040000 		.4byte	.LBB241
 22582 0704 12040000 		.4byte	.LBE241
 22583 0708 00000000 		.4byte	0
 22584 070c 00000000 		.4byte	0
 22585 0710 A4030000 		.4byte	.LBB268
 22586 0714 B2030000 		.4byte	.LBE268
 22587 0718 B6030000 		.4byte	.LBB291
 22588 071c CA030000 		.4byte	.LBE291
 22589 0720 CC030000 		.4byte	.LBB293
 22590 0724 F6030000 		.4byte	.LBE293
 22591 0728 04040000 		.4byte	.LBB295
ARM GAS  C:\Users\Mohamad\AppData\Local\Temp\ccDsqi1j.s 			page 398


 22592 072c 0E040000 		.4byte	.LBE295
 22593 0730 12040000 		.4byte	.LBB297
 22594 0734 96040000 		.4byte	.LBE297
 22595 0738 9A040000 		.4byte	.LBB298
 22596 073c 32050000 		.4byte	.LBE298
 22597 0740 36050000 		.4byte	.LBB299
 22598 0744 BC050000 		.4byte	.LBE299
 22599 0748 00000000 		.4byte	0
 22600 074c 00000000 		.4byte	0
 22601 0750 A4030000 		.4byte	.LBB269
 22602 0754 B2030000 		.4byte	.LBE269
 22603 0758 B6030000 		.4byte	.LBB284
 22604 075c CA030000 		.4byte	.LBE284
 22605 0760 CC030000 		.4byte	.LBB285
 22606 0764 F6030000 		.4byte	.LBE285
 22607 0768 04040000 		.4byte	.LBB286
 22608 076c 0E040000 		.4byte	.LBE286
 22609 0770 12040000 		.4byte	.LBB287
 22610 0774 96040000 		.4byte	.LBE287
 22611 0778 9A040000 		.4byte	.LBB288
 22612 077c 32050000 		.4byte	.LBE288
 22613 0780 36050000 		.4byte	.LBB289
 22614 0784 BC050000 		.4byte	.LBE289
 22615 0788 00000000 		.4byte	0
 22616 078c 00000000 		.4byte	0
 22617 0790 A4030000 		.4byte	.LBB270
 22618 0794 B2030000 		.4byte	.LBE270
 22619 0798 B6030000 		.4byte	.LBB278
 22620 079c CA030000 		.4byte	.LBE278
 22621 07a0 CC030000 		.4byte	.LBB279
 22622 07a4 F6030000 		.4byte	.LBE279
 22623 07a8 04040000 		.4byte	.LBB280
 22624 07ac 0E040000 		.4byte	.LBE280
 22625 07b0 12040000 		.4byte	.LBB281
 22626 07b4 96040000 		.4byte	.LBE281
 22627 07b8 9A040000 		.4byte	.LBB282
 22628 07bc 32050000 		.4byte	.LBE282
 22629 07c0 36050000 		.4byte	.LBB283
 22630 07c4 BC050000 		.4byte	.LBE283
 22631 07c8 00000000 		.4byte	0
 22632 07cc 00000000 		.4byte	0
 22633 07d0 A4030000 		.4byte	.LBB271
 22634 07d4 B2030000 		.4byte	.LBE271
 22635 07d8 B6030000 		.4byte	.LBB272
 22636 07dc CA030000 		.4byte	.LBE272
 22637 07e0 CC030000 		.4byte	.LBB273
 22638 07e4 F6030000 		.4byte	.LBE273
 22639 07e8 04040000 		.4byte	.LBB274
 22640 07ec 0E040000 		.4byte	.LBE274
 22641 07f0 12040000 		.4byte	.LBB275
 22642 07f4 96040000 		.4byte	.LBE275
 22643 07f8 9A040000 		.4byte	.LBB276
 22644 07fc 32050000 		.4byte	.LBE276
 22645 0800 36050000 		.4byte	.LBB277
 22646 0804 BC050000 		.4byte	.LBE277
 22647 0808 00000000 		.4byte	0
 22648 080c 00000000 		.4byte	0
ARM GAS  C:\Users\Mohamad\AppData\Local\Temp\ccDsqi1j.s 			page 399


 22649 0810 BC050000 		.4byte	.LBB300
 22650 0814 D0050000 		.4byte	.LBE300
 22651 0818 FE050000 		.4byte	.LBB304
 22652 081c 00060000 		.4byte	.LBE304
 22653 0820 14060000 		.4byte	.LBB305
 22654 0824 18060000 		.4byte	.LBE305
 22655 0828 00000000 		.4byte	0
 22656 082c 00000000 		.4byte	0
 22657 0830 BC050000 		.4byte	.LBB301
 22658 0834 D0050000 		.4byte	.LBE301
 22659 0838 FE050000 		.4byte	.LBB302
 22660 083c 00060000 		.4byte	.LBE302
 22661 0840 14060000 		.4byte	.LBB303
 22662 0844 18060000 		.4byte	.LBE303
 22663 0848 00000000 		.4byte	0
 22664 084c 00000000 		.4byte	0
 22665 0850 96040000 		.4byte	.LBB361
 22666 0854 9A040000 		.4byte	.LBE361
 22667 0858 06060000 		.4byte	.LBB370
 22668 085c 08060000 		.4byte	.LBE370
 22669 0860 20060000 		.4byte	.LBB372
 22670 0864 24060000 		.4byte	.LBE372
 22671 0868 28060000 		.4byte	.LBB373
 22672 086c 2A060000 		.4byte	.LBE373
 22673 0870 2C060000 		.4byte	.LBB374
 22674 0874 2E060000 		.4byte	.LBE374
 22675 0878 00000000 		.4byte	0
 22676 087c 00000000 		.4byte	0
 22677 0880 96040000 		.4byte	.LBB362
 22678 0884 9A040000 		.4byte	.LBE362
 22679 0888 06060000 		.4byte	.LBB363
 22680 088c 08060000 		.4byte	.LBE363
 22681 0890 20060000 		.4byte	.LBB364
 22682 0894 24060000 		.4byte	.LBE364
 22683 0898 28060000 		.4byte	.LBB365
 22684 089c 2A060000 		.4byte	.LBE365
 22685 08a0 2C060000 		.4byte	.LBB366
 22686 08a4 2E060000 		.4byte	.LBE366
 22687 08a8 00000000 		.4byte	0
 22688 08ac 00000000 		.4byte	0
 22689 08b0 6C060000 		.4byte	.LBB384
 22690 08b4 70060000 		.4byte	.LBE384
 22691 08b8 78060000 		.4byte	.LBB543
 22692 08bc 7C060000 		.4byte	.LBE543
 22693 08c0 80060000 		.4byte	.LBB544
 22694 08c4 82060000 		.4byte	.LBE544
 22695 08c8 88060000 		.4byte	.LBB545
 22696 08cc 80080000 		.4byte	.LBE545
 22697 08d0 00000000 		.4byte	0
 22698 08d4 00000000 		.4byte	0
 22699 08d8 6C060000 		.4byte	.LBB385
 22700 08dc 70060000 		.4byte	.LBE385
 22701 08e0 78060000 		.4byte	.LBB540
 22702 08e4 7C060000 		.4byte	.LBE540
 22703 08e8 80060000 		.4byte	.LBB541
 22704 08ec 82060000 		.4byte	.LBE541
 22705 08f0 88060000 		.4byte	.LBB542
ARM GAS  C:\Users\Mohamad\AppData\Local\Temp\ccDsqi1j.s 			page 400


 22706 08f4 80080000 		.4byte	.LBE542
 22707 08f8 00000000 		.4byte	0
 22708 08fc 00000000 		.4byte	0
 22709 0900 FA060000 		.4byte	.LBB386
 22710 0904 62070000 		.4byte	.LBE386
 22711 0908 64070000 		.4byte	.LBB525
 22712 090c 68070000 		.4byte	.LBE525
 22713 0910 6A070000 		.4byte	.LBB526
 22714 0914 38080000 		.4byte	.LBE526
 22715 0918 3C080000 		.4byte	.LBB533
 22716 091c 42080000 		.4byte	.LBE533
 22717 0920 44080000 		.4byte	.LBB535
 22718 0924 50080000 		.4byte	.LBE535
 22719 0928 52080000 		.4byte	.LBB537
 22720 092c 56080000 		.4byte	.LBE537
 22721 0930 00000000 		.4byte	0
 22722 0934 00000000 		.4byte	0
 22723 0938 FA060000 		.4byte	.LBB387
 22724 093c 62070000 		.4byte	.LBE387
 22725 0940 64070000 		.4byte	.LBB520
 22726 0944 68070000 		.4byte	.LBE520
 22727 0948 6A070000 		.4byte	.LBB521
 22728 094c 38080000 		.4byte	.LBE521
 22729 0950 3C080000 		.4byte	.LBB522
 22730 0954 42080000 		.4byte	.LBE522
 22731 0958 44080000 		.4byte	.LBB523
 22732 095c 50080000 		.4byte	.LBE523
 22733 0960 52080000 		.4byte	.LBB524
 22734 0964 56080000 		.4byte	.LBE524
 22735 0968 00000000 		.4byte	0
 22736 096c 00000000 		.4byte	0
 22737 0970 FA060000 		.4byte	.LBB388
 22738 0974 02070000 		.4byte	.LBE388
 22739 0978 04070000 		.4byte	.LBB503
 22740 097c 08070000 		.4byte	.LBE503
 22741 0980 0C070000 		.4byte	.LBB504
 22742 0984 40070000 		.4byte	.LBE504
 22743 0988 42070000 		.4byte	.LBB505
 22744 098c 46070000 		.4byte	.LBE505
 22745 0990 48070000 		.4byte	.LBB506
 22746 0994 50070000 		.4byte	.LBE506
 22747 0998 5E070000 		.4byte	.LBB507
 22748 099c 62070000 		.4byte	.LBE507
 22749 09a0 64070000 		.4byte	.LBB508
 22750 09a4 68070000 		.4byte	.LBE508
 22751 09a8 6A070000 		.4byte	.LBB509
 22752 09ac 6E070000 		.4byte	.LBE509
 22753 09b0 70070000 		.4byte	.LBB510
 22754 09b4 74070000 		.4byte	.LBE510
 22755 09b8 76070000 		.4byte	.LBB511
 22756 09bc 78070000 		.4byte	.LBE511
 22757 09c0 7A070000 		.4byte	.LBB512
 22758 09c4 82070000 		.4byte	.LBE512
 22759 09c8 88070000 		.4byte	.LBB513
 22760 09cc 9A070000 		.4byte	.LBE513
 22761 09d0 9E070000 		.4byte	.LBB514
 22762 09d4 A6070000 		.4byte	.LBE514
ARM GAS  C:\Users\Mohamad\AppData\Local\Temp\ccDsqi1j.s 			page 401


 22763 09d8 A8070000 		.4byte	.LBB515
 22764 09dc AC070000 		.4byte	.LBE515
 22765 09e0 B0070000 		.4byte	.LBB516
 22766 09e4 38080000 		.4byte	.LBE516
 22767 09e8 3C080000 		.4byte	.LBB517
 22768 09ec 42080000 		.4byte	.LBE517
 22769 09f0 44080000 		.4byte	.LBB518
 22770 09f4 50080000 		.4byte	.LBE518
 22771 09f8 52080000 		.4byte	.LBB519
 22772 09fc 56080000 		.4byte	.LBE519
 22773 0a00 00000000 		.4byte	0
 22774 0a04 00000000 		.4byte	0
 22775 0a08 FA060000 		.4byte	.LBB389
 22776 0a0c 02070000 		.4byte	.LBE389
 22777 0a10 04070000 		.4byte	.LBB486
 22778 0a14 08070000 		.4byte	.LBE486
 22779 0a18 0C070000 		.4byte	.LBB487
 22780 0a1c 40070000 		.4byte	.LBE487
 22781 0a20 42070000 		.4byte	.LBB488
 22782 0a24 46070000 		.4byte	.LBE488
 22783 0a28 48070000 		.4byte	.LBB489
 22784 0a2c 50070000 		.4byte	.LBE489
 22785 0a30 5E070000 		.4byte	.LBB490
 22786 0a34 62070000 		.4byte	.LBE490
 22787 0a38 64070000 		.4byte	.LBB491
 22788 0a3c 68070000 		.4byte	.LBE491
 22789 0a40 6A070000 		.4byte	.LBB492
 22790 0a44 6E070000 		.4byte	.LBE492
 22791 0a48 70070000 		.4byte	.LBB493
 22792 0a4c 74070000 		.4byte	.LBE493
 22793 0a50 76070000 		.4byte	.LBB494
 22794 0a54 78070000 		.4byte	.LBE494
 22795 0a58 7A070000 		.4byte	.LBB495
 22796 0a5c 82070000 		.4byte	.LBE495
 22797 0a60 88070000 		.4byte	.LBB496
 22798 0a64 9A070000 		.4byte	.LBE496
 22799 0a68 9E070000 		.4byte	.LBB497
 22800 0a6c A6070000 		.4byte	.LBE497
 22801 0a70 A8070000 		.4byte	.LBB498
 22802 0a74 AC070000 		.4byte	.LBE498
 22803 0a78 B0070000 		.4byte	.LBB499
 22804 0a7c 38080000 		.4byte	.LBE499
 22805 0a80 3C080000 		.4byte	.LBB500
 22806 0a84 42080000 		.4byte	.LBE500
 22807 0a88 44080000 		.4byte	.LBB501
 22808 0a8c 50080000 		.4byte	.LBE501
 22809 0a90 52080000 		.4byte	.LBB502
 22810 0a94 56080000 		.4byte	.LBE502
 22811 0a98 00000000 		.4byte	0
 22812 0a9c 00000000 		.4byte	0
 22813 0aa0 FA060000 		.4byte	.LBB390
 22814 0aa4 02070000 		.4byte	.LBE390
 22815 0aa8 04070000 		.4byte	.LBB469
 22816 0aac 08070000 		.4byte	.LBE469
 22817 0ab0 0C070000 		.4byte	.LBB470
 22818 0ab4 40070000 		.4byte	.LBE470
 22819 0ab8 42070000 		.4byte	.LBB471
ARM GAS  C:\Users\Mohamad\AppData\Local\Temp\ccDsqi1j.s 			page 402


 22820 0abc 46070000 		.4byte	.LBE471
 22821 0ac0 48070000 		.4byte	.LBB472
 22822 0ac4 50070000 		.4byte	.LBE472
 22823 0ac8 5E070000 		.4byte	.LBB473
 22824 0acc 62070000 		.4byte	.LBE473
 22825 0ad0 64070000 		.4byte	.LBB474
 22826 0ad4 68070000 		.4byte	.LBE474
 22827 0ad8 6A070000 		.4byte	.LBB475
 22828 0adc 6E070000 		.4byte	.LBE475
 22829 0ae0 70070000 		.4byte	.LBB476
 22830 0ae4 74070000 		.4byte	.LBE476
 22831 0ae8 76070000 		.4byte	.LBB477
 22832 0aec 78070000 		.4byte	.LBE477
 22833 0af0 7A070000 		.4byte	.LBB478
 22834 0af4 82070000 		.4byte	.LBE478
 22835 0af8 88070000 		.4byte	.LBB479
 22836 0afc 9A070000 		.4byte	.LBE479
 22837 0b00 9E070000 		.4byte	.LBB480
 22838 0b04 A6070000 		.4byte	.LBE480
 22839 0b08 A8070000 		.4byte	.LBB481
 22840 0b0c AC070000 		.4byte	.LBE481
 22841 0b10 B0070000 		.4byte	.LBB482
 22842 0b14 38080000 		.4byte	.LBE482
 22843 0b18 3C080000 		.4byte	.LBB483
 22844 0b1c 42080000 		.4byte	.LBE483
 22845 0b20 44080000 		.4byte	.LBB484
 22846 0b24 50080000 		.4byte	.LBE484
 22847 0b28 52080000 		.4byte	.LBB485
 22848 0b2c 56080000 		.4byte	.LBE485
 22849 0b30 00000000 		.4byte	0
 22850 0b34 00000000 		.4byte	0
 22851 0b38 FA060000 		.4byte	.LBB391
 22852 0b3c 02070000 		.4byte	.LBE391
 22853 0b40 04070000 		.4byte	.LBB452
 22854 0b44 08070000 		.4byte	.LBE452
 22855 0b48 0C070000 		.4byte	.LBB453
 22856 0b4c 40070000 		.4byte	.LBE453
 22857 0b50 42070000 		.4byte	.LBB454
 22858 0b54 46070000 		.4byte	.LBE454
 22859 0b58 48070000 		.4byte	.LBB455
 22860 0b5c 50070000 		.4byte	.LBE455
 22861 0b60 5E070000 		.4byte	.LBB456
 22862 0b64 62070000 		.4byte	.LBE456
 22863 0b68 64070000 		.4byte	.LBB457
 22864 0b6c 68070000 		.4byte	.LBE457
 22865 0b70 6A070000 		.4byte	.LBB458
 22866 0b74 6E070000 		.4byte	.LBE458
 22867 0b78 70070000 		.4byte	.LBB459
 22868 0b7c 74070000 		.4byte	.LBE459
 22869 0b80 76070000 		.4byte	.LBB460
 22870 0b84 78070000 		.4byte	.LBE460
 22871 0b88 7A070000 		.4byte	.LBB461
 22872 0b8c 82070000 		.4byte	.LBE461
 22873 0b90 88070000 		.4byte	.LBB462
 22874 0b94 9A070000 		.4byte	.LBE462
 22875 0b98 9E070000 		.4byte	.LBB463
 22876 0b9c A6070000 		.4byte	.LBE463
ARM GAS  C:\Users\Mohamad\AppData\Local\Temp\ccDsqi1j.s 			page 403


 22877 0ba0 A8070000 		.4byte	.LBB464
 22878 0ba4 AC070000 		.4byte	.LBE464
 22879 0ba8 B0070000 		.4byte	.LBB465
 22880 0bac 38080000 		.4byte	.LBE465
 22881 0bb0 3C080000 		.4byte	.LBB466
 22882 0bb4 42080000 		.4byte	.LBE466
 22883 0bb8 44080000 		.4byte	.LBB467
 22884 0bbc 50080000 		.4byte	.LBE467
 22885 0bc0 52080000 		.4byte	.LBB468
 22886 0bc4 56080000 		.4byte	.LBE468
 22887 0bc8 00000000 		.4byte	0
 22888 0bcc 00000000 		.4byte	0
 22889 0bd0 0C070000 		.4byte	.LBB392
 22890 0bd4 40070000 		.4byte	.LBE392
 22891 0bd8 42070000 		.4byte	.LBB426
 22892 0bdc 46070000 		.4byte	.LBE426
 22893 0be0 48070000 		.4byte	.LBB427
 22894 0be4 50070000 		.4byte	.LBE427
 22895 0be8 5E070000 		.4byte	.LBB428
 22896 0bec 62070000 		.4byte	.LBE428
 22897 0bf0 64070000 		.4byte	.LBB429
 22898 0bf4 68070000 		.4byte	.LBE429
 22899 0bf8 6A070000 		.4byte	.LBB430
 22900 0bfc 6E070000 		.4byte	.LBE430
 22901 0c00 70070000 		.4byte	.LBB431
 22902 0c04 74070000 		.4byte	.LBE431
 22903 0c08 76070000 		.4byte	.LBB432
 22904 0c0c 78070000 		.4byte	.LBE432
 22905 0c10 7A070000 		.4byte	.LBB433
 22906 0c14 82070000 		.4byte	.LBE433
 22907 0c18 88070000 		.4byte	.LBB434
 22908 0c1c 9A070000 		.4byte	.LBE434
 22909 0c20 9E070000 		.4byte	.LBB435
 22910 0c24 A6070000 		.4byte	.LBE435
 22911 0c28 00000000 		.4byte	0
 22912 0c2c 00000000 		.4byte	0
 22913 0c30 0C070000 		.4byte	.LBB393
 22914 0c34 40070000 		.4byte	.LBE393
 22915 0c38 42070000 		.4byte	.LBB416
 22916 0c3c 46070000 		.4byte	.LBE416
 22917 0c40 48070000 		.4byte	.LBB417
 22918 0c44 50070000 		.4byte	.LBE417
 22919 0c48 5E070000 		.4byte	.LBB418
 22920 0c4c 62070000 		.4byte	.LBE418
 22921 0c50 64070000 		.4byte	.LBB419
 22922 0c54 68070000 		.4byte	.LBE419
 22923 0c58 6A070000 		.4byte	.LBB420
 22924 0c5c 6E070000 		.4byte	.LBE420
 22925 0c60 70070000 		.4byte	.LBB421
 22926 0c64 74070000 		.4byte	.LBE421
 22927 0c68 76070000 		.4byte	.LBB422
 22928 0c6c 78070000 		.4byte	.LBE422
 22929 0c70 7A070000 		.4byte	.LBB423
 22930 0c74 82070000 		.4byte	.LBE423
 22931 0c78 88070000 		.4byte	.LBB424
 22932 0c7c 9A070000 		.4byte	.LBE424
 22933 0c80 9E070000 		.4byte	.LBB425
ARM GAS  C:\Users\Mohamad\AppData\Local\Temp\ccDsqi1j.s 			page 404


 22934 0c84 A6070000 		.4byte	.LBE425
 22935 0c88 00000000 		.4byte	0
 22936 0c8c 00000000 		.4byte	0
 22937 0c90 0C070000 		.4byte	.LBB394
 22938 0c94 40070000 		.4byte	.LBE394
 22939 0c98 42070000 		.4byte	.LBB406
 22940 0c9c 46070000 		.4byte	.LBE406
 22941 0ca0 48070000 		.4byte	.LBB407
 22942 0ca4 50070000 		.4byte	.LBE407
 22943 0ca8 5E070000 		.4byte	.LBB408
 22944 0cac 62070000 		.4byte	.LBE408
 22945 0cb0 64070000 		.4byte	.LBB409
 22946 0cb4 68070000 		.4byte	.LBE409
 22947 0cb8 6A070000 		.4byte	.LBB410
 22948 0cbc 6E070000 		.4byte	.LBE410
 22949 0cc0 70070000 		.4byte	.LBB411
 22950 0cc4 74070000 		.4byte	.LBE411
 22951 0cc8 76070000 		.4byte	.LBB412
 22952 0ccc 78070000 		.4byte	.LBE412
 22953 0cd0 7A070000 		.4byte	.LBB413
 22954 0cd4 82070000 		.4byte	.LBE413
 22955 0cd8 88070000 		.4byte	.LBB414
 22956 0cdc 9A070000 		.4byte	.LBE414
 22957 0ce0 9E070000 		.4byte	.LBB415
 22958 0ce4 A6070000 		.4byte	.LBE415
 22959 0ce8 00000000 		.4byte	0
 22960 0cec 00000000 		.4byte	0
 22961 0cf0 0C070000 		.4byte	.LBB395
 22962 0cf4 40070000 		.4byte	.LBE395
 22963 0cf8 42070000 		.4byte	.LBB396
 22964 0cfc 46070000 		.4byte	.LBE396
 22965 0d00 48070000 		.4byte	.LBB397
 22966 0d04 50070000 		.4byte	.LBE397
 22967 0d08 5E070000 		.4byte	.LBB398
 22968 0d0c 62070000 		.4byte	.LBE398
 22969 0d10 64070000 		.4byte	.LBB399
 22970 0d14 68070000 		.4byte	.LBE399
 22971 0d18 6A070000 		.4byte	.LBB400
 22972 0d1c 6E070000 		.4byte	.LBE400
 22973 0d20 70070000 		.4byte	.LBB401
 22974 0d24 74070000 		.4byte	.LBE401
 22975 0d28 76070000 		.4byte	.LBB402
 22976 0d2c 78070000 		.4byte	.LBE402
 22977 0d30 7A070000 		.4byte	.LBB403
 22978 0d34 82070000 		.4byte	.LBE403
 22979 0d38 88070000 		.4byte	.LBB404
 22980 0d3c 9A070000 		.4byte	.LBE404
 22981 0d40 9E070000 		.4byte	.LBB405
 22982 0d44 A6070000 		.4byte	.LBE405
 22983 0d48 00000000 		.4byte	0
 22984 0d4c 00000000 		.4byte	0
 22985 0d50 DA070000 		.4byte	.LBB438
 22986 0d54 DC070000 		.4byte	.LBE438
 22987 0d58 E0070000 		.4byte	.LBB443
 22988 0d5c FA070000 		.4byte	.LBE443
 22989 0d60 FC070000 		.4byte	.LBB444
 22990 0d64 12080000 		.4byte	.LBE444
ARM GAS  C:\Users\Mohamad\AppData\Local\Temp\ccDsqi1j.s 			page 405


 22991 0d68 1A080000 		.4byte	.LBB445
 22992 0d6c 1E080000 		.4byte	.LBE445
 22993 0d70 00000000 		.4byte	0
 22994 0d74 00000000 		.4byte	0
 22995 0d78 DA070000 		.4byte	.LBB439
 22996 0d7c DC070000 		.4byte	.LBE439
 22997 0d80 E0070000 		.4byte	.LBB440
 22998 0d84 FA070000 		.4byte	.LBE440
 22999 0d88 FC070000 		.4byte	.LBB441
 23000 0d8c 12080000 		.4byte	.LBE441
 23001 0d90 1A080000 		.4byte	.LBB442
 23002 0d94 1E080000 		.4byte	.LBE442
 23003 0d98 00000000 		.4byte	0
 23004 0d9c 00000000 		.4byte	0
 23005 0da0 24080000 		.4byte	.LBB446
 23006 0da4 38080000 		.4byte	.LBE446
 23007 0da8 3C080000 		.4byte	.LBB450
 23008 0dac 42080000 		.4byte	.LBE450
 23009 0db0 48080000 		.4byte	.LBB451
 23010 0db4 4C080000 		.4byte	.LBE451
 23011 0db8 00000000 		.4byte	0
 23012 0dbc 00000000 		.4byte	0
 23013 0dc0 24080000 		.4byte	.LBB447
 23014 0dc4 38080000 		.4byte	.LBE447
 23015 0dc8 3C080000 		.4byte	.LBB448
 23016 0dcc 42080000 		.4byte	.LBE448
 23017 0dd0 48080000 		.4byte	.LBB449
 23018 0dd4 4C080000 		.4byte	.LBE449
 23019 0dd8 00000000 		.4byte	0
 23020 0ddc 00000000 		.4byte	0
 23021 0de0 38080000 		.4byte	.LBB527
 23022 0de4 3C080000 		.4byte	.LBE527
 23023 0de8 42080000 		.4byte	.LBB534
 23024 0dec 44080000 		.4byte	.LBE534
 23025 0df0 50080000 		.4byte	.LBB536
 23026 0df4 52080000 		.4byte	.LBE536
 23027 0df8 56080000 		.4byte	.LBB538
 23028 0dfc 6E080000 		.4byte	.LBE538
 23029 0e00 74080000 		.4byte	.LBB539
 23030 0e04 78080000 		.4byte	.LBE539
 23031 0e08 00000000 		.4byte	0
 23032 0e0c 00000000 		.4byte	0
 23033 0e10 38080000 		.4byte	.LBB528
 23034 0e14 3C080000 		.4byte	.LBE528
 23035 0e18 42080000 		.4byte	.LBB529
 23036 0e1c 44080000 		.4byte	.LBE529
 23037 0e20 50080000 		.4byte	.LBB530
 23038 0e24 52080000 		.4byte	.LBE530
 23039 0e28 56080000 		.4byte	.LBB531
 23040 0e2c 6E080000 		.4byte	.LBE531
 23041 0e30 74080000 		.4byte	.LBB532
 23042 0e34 78080000 		.4byte	.LBE532
 23043 0e38 00000000 		.4byte	0
 23044 0e3c 00000000 		.4byte	0
 23045 0e40 D4080000 		.4byte	.LBB546
 23046 0e44 D6080000 		.4byte	.LBE546
 23047 0e48 DC080000 		.4byte	.LBB687
ARM GAS  C:\Users\Mohamad\AppData\Local\Temp\ccDsqi1j.s 			page 406


 23048 0e4c 960A0000 		.4byte	.LBE687
 23049 0e50 00000000 		.4byte	0
 23050 0e54 00000000 		.4byte	0
 23051 0e58 D4080000 		.4byte	.LBB547
 23052 0e5c D6080000 		.4byte	.LBE547
 23053 0e60 DC080000 		.4byte	.LBB686
 23054 0e64 960A0000 		.4byte	.LBE686
 23055 0e68 00000000 		.4byte	0
 23056 0e6c 00000000 		.4byte	0
 23057 0e70 10090000 		.4byte	.LBB548
 23058 0e74 72090000 		.4byte	.LBE548
 23059 0e78 74090000 		.4byte	.LBB672
 23060 0e7c 7C090000 		.4byte	.LBE672
 23061 0e80 7E090000 		.4byte	.LBB673
 23062 0e84 520A0000 		.4byte	.LBE673
 23063 0e88 560A0000 		.4byte	.LBB680
 23064 0e8c 600A0000 		.4byte	.LBE680
 23065 0e90 620A0000 		.4byte	.LBB682
 23066 0e94 660A0000 		.4byte	.LBE682
 23067 0e98 00000000 		.4byte	0
 23068 0e9c 00000000 		.4byte	0
 23069 0ea0 10090000 		.4byte	.LBB549
 23070 0ea4 72090000 		.4byte	.LBE549
 23071 0ea8 74090000 		.4byte	.LBB668
 23072 0eac 7C090000 		.4byte	.LBE668
 23073 0eb0 7E090000 		.4byte	.LBB669
 23074 0eb4 520A0000 		.4byte	.LBE669
 23075 0eb8 560A0000 		.4byte	.LBB670
 23076 0ebc 600A0000 		.4byte	.LBE670
 23077 0ec0 620A0000 		.4byte	.LBB671
 23078 0ec4 660A0000 		.4byte	.LBE671
 23079 0ec8 00000000 		.4byte	0
 23080 0ecc 00000000 		.4byte	0
 23081 0ed0 10090000 		.4byte	.LBB550
 23082 0ed4 18090000 		.4byte	.LBE550
 23083 0ed8 1A090000 		.4byte	.LBB654
 23084 0edc 1E090000 		.4byte	.LBE654
 23085 0ee0 20090000 		.4byte	.LBB655
 23086 0ee4 4C090000 		.4byte	.LBE655
 23087 0ee8 52090000 		.4byte	.LBB656
 23088 0eec 56090000 		.4byte	.LBE656
 23089 0ef0 5A090000 		.4byte	.LBB657
 23090 0ef4 5E090000 		.4byte	.LBE657
 23091 0ef8 60090000 		.4byte	.LBB658
 23092 0efc 64090000 		.4byte	.LBE658
 23093 0f00 68090000 		.4byte	.LBB659
 23094 0f04 72090000 		.4byte	.LBE659
 23095 0f08 74090000 		.4byte	.LBB660
 23096 0f0c 78090000 		.4byte	.LBE660
 23097 0f10 7E090000 		.4byte	.LBB661
 23098 0f14 82090000 		.4byte	.LBE661
 23099 0f18 96090000 		.4byte	.LBB662
 23100 0f1c A6090000 		.4byte	.LBE662
 23101 0f20 AA090000 		.4byte	.LBB663
 23102 0f24 AE090000 		.4byte	.LBE663
 23103 0f28 B0090000 		.4byte	.LBB664
 23104 0f2c BC090000 		.4byte	.LBE664
ARM GAS  C:\Users\Mohamad\AppData\Local\Temp\ccDsqi1j.s 			page 407


 23105 0f30 C0090000 		.4byte	.LBB665
 23106 0f34 520A0000 		.4byte	.LBE665
 23107 0f38 560A0000 		.4byte	.LBB666
 23108 0f3c 600A0000 		.4byte	.LBE666
 23109 0f40 620A0000 		.4byte	.LBB667
 23110 0f44 660A0000 		.4byte	.LBE667
 23111 0f48 00000000 		.4byte	0
 23112 0f4c 00000000 		.4byte	0
 23113 0f50 10090000 		.4byte	.LBB551
 23114 0f54 18090000 		.4byte	.LBE551
 23115 0f58 1A090000 		.4byte	.LBB640
 23116 0f5c 1E090000 		.4byte	.LBE640
 23117 0f60 20090000 		.4byte	.LBB641
 23118 0f64 4C090000 		.4byte	.LBE641
 23119 0f68 52090000 		.4byte	.LBB642
 23120 0f6c 56090000 		.4byte	.LBE642
 23121 0f70 5A090000 		.4byte	.LBB643
 23122 0f74 5E090000 		.4byte	.LBE643
 23123 0f78 60090000 		.4byte	.LBB644
 23124 0f7c 64090000 		.4byte	.LBE644
 23125 0f80 68090000 		.4byte	.LBB645
 23126 0f84 72090000 		.4byte	.LBE645
 23127 0f88 74090000 		.4byte	.LBB646
 23128 0f8c 78090000 		.4byte	.LBE646
 23129 0f90 7E090000 		.4byte	.LBB647
 23130 0f94 82090000 		.4byte	.LBE647
 23131 0f98 96090000 		.4byte	.LBB648
 23132 0f9c A6090000 		.4byte	.LBE648
 23133 0fa0 AA090000 		.4byte	.LBB649
 23134 0fa4 AE090000 		.4byte	.LBE649
 23135 0fa8 B0090000 		.4byte	.LBB650
 23136 0fac BC090000 		.4byte	.LBE650
 23137 0fb0 C0090000 		.4byte	.LBB651
 23138 0fb4 520A0000 		.4byte	.LBE651
 23139 0fb8 560A0000 		.4byte	.LBB652
 23140 0fbc 600A0000 		.4byte	.LBE652
 23141 0fc0 620A0000 		.4byte	.LBB653
 23142 0fc4 660A0000 		.4byte	.LBE653
 23143 0fc8 00000000 		.4byte	0
 23144 0fcc 00000000 		.4byte	0
 23145 0fd0 10090000 		.4byte	.LBB552
 23146 0fd4 18090000 		.4byte	.LBE552
 23147 0fd8 1A090000 		.4byte	.LBB626
 23148 0fdc 1E090000 		.4byte	.LBE626
 23149 0fe0 20090000 		.4byte	.LBB627
 23150 0fe4 4C090000 		.4byte	.LBE627
 23151 0fe8 52090000 		.4byte	.LBB628
 23152 0fec 56090000 		.4byte	.LBE628
 23153 0ff0 5A090000 		.4byte	.LBB629
 23154 0ff4 5E090000 		.4byte	.LBE629
 23155 0ff8 60090000 		.4byte	.LBB630
 23156 0ffc 64090000 		.4byte	.LBE630
 23157 1000 68090000 		.4byte	.LBB631
 23158 1004 72090000 		.4byte	.LBE631
 23159 1008 74090000 		.4byte	.LBB632
 23160 100c 78090000 		.4byte	.LBE632
 23161 1010 7E090000 		.4byte	.LBB633
ARM GAS  C:\Users\Mohamad\AppData\Local\Temp\ccDsqi1j.s 			page 408


 23162 1014 82090000 		.4byte	.LBE633
 23163 1018 96090000 		.4byte	.LBB634
 23164 101c A6090000 		.4byte	.LBE634
 23165 1020 AA090000 		.4byte	.LBB635
 23166 1024 AE090000 		.4byte	.LBE635
 23167 1028 B0090000 		.4byte	.LBB636
 23168 102c BC090000 		.4byte	.LBE636
 23169 1030 C0090000 		.4byte	.LBB637
 23170 1034 520A0000 		.4byte	.LBE637
 23171 1038 560A0000 		.4byte	.LBB638
 23172 103c 600A0000 		.4byte	.LBE638
 23173 1040 620A0000 		.4byte	.LBB639
 23174 1044 660A0000 		.4byte	.LBE639
 23175 1048 00000000 		.4byte	0
 23176 104c 00000000 		.4byte	0
 23177 1050 10090000 		.4byte	.LBB553
 23178 1054 18090000 		.4byte	.LBE553
 23179 1058 1A090000 		.4byte	.LBB612
 23180 105c 1E090000 		.4byte	.LBE612
 23181 1060 20090000 		.4byte	.LBB613
 23182 1064 4C090000 		.4byte	.LBE613
 23183 1068 52090000 		.4byte	.LBB614
 23184 106c 56090000 		.4byte	.LBE614
 23185 1070 5A090000 		.4byte	.LBB615
 23186 1074 5E090000 		.4byte	.LBE615
 23187 1078 60090000 		.4byte	.LBB616
 23188 107c 64090000 		.4byte	.LBE616
 23189 1080 68090000 		.4byte	.LBB617
 23190 1084 72090000 		.4byte	.LBE617
 23191 1088 74090000 		.4byte	.LBB618
 23192 108c 78090000 		.4byte	.LBE618
 23193 1090 7E090000 		.4byte	.LBB619
 23194 1094 82090000 		.4byte	.LBE619
 23195 1098 96090000 		.4byte	.LBB620
 23196 109c A6090000 		.4byte	.LBE620
 23197 10a0 AA090000 		.4byte	.LBB621
 23198 10a4 AE090000 		.4byte	.LBE621
 23199 10a8 B0090000 		.4byte	.LBB622
 23200 10ac BC090000 		.4byte	.LBE622
 23201 10b0 C0090000 		.4byte	.LBB623
 23202 10b4 520A0000 		.4byte	.LBE623
 23203 10b8 560A0000 		.4byte	.LBB624
 23204 10bc 600A0000 		.4byte	.LBE624
 23205 10c0 620A0000 		.4byte	.LBB625
 23206 10c4 660A0000 		.4byte	.LBE625
 23207 10c8 00000000 		.4byte	0
 23208 10cc 00000000 		.4byte	0
 23209 10d0 20090000 		.4byte	.LBB554
 23210 10d4 4C090000 		.4byte	.LBE554
 23211 10d8 52090000 		.4byte	.LBB588
 23212 10dc 56090000 		.4byte	.LBE588
 23213 10e0 5A090000 		.4byte	.LBB589
 23214 10e4 5E090000 		.4byte	.LBE589
 23215 10e8 60090000 		.4byte	.LBB590
 23216 10ec 64090000 		.4byte	.LBE590
 23217 10f0 68090000 		.4byte	.LBB591
 23218 10f4 72090000 		.4byte	.LBE591
ARM GAS  C:\Users\Mohamad\AppData\Local\Temp\ccDsqi1j.s 			page 409


 23219 10f8 74090000 		.4byte	.LBB592
 23220 10fc 78090000 		.4byte	.LBE592
 23221 1100 7E090000 		.4byte	.LBB593
 23222 1104 82090000 		.4byte	.LBE593
 23223 1108 96090000 		.4byte	.LBB594
 23224 110c A6090000 		.4byte	.LBE594
 23225 1110 AA090000 		.4byte	.LBB595
 23226 1114 AE090000 		.4byte	.LBE595
 23227 1118 B8090000 		.4byte	.LBB596
 23228 111c BC090000 		.4byte	.LBE596
 23229 1120 E0090000 		.4byte	.LBB597
 23230 1124 E4090000 		.4byte	.LBE597
 23231 1128 00000000 		.4byte	0
 23232 112c 00000000 		.4byte	0
 23233 1130 20090000 		.4byte	.LBB555
 23234 1134 4C090000 		.4byte	.LBE555
 23235 1138 52090000 		.4byte	.LBB578
 23236 113c 56090000 		.4byte	.LBE578
 23237 1140 5A090000 		.4byte	.LBB579
 23238 1144 5E090000 		.4byte	.LBE579
 23239 1148 60090000 		.4byte	.LBB580
 23240 114c 64090000 		.4byte	.LBE580
 23241 1150 68090000 		.4byte	.LBB581
 23242 1154 72090000 		.4byte	.LBE581
 23243 1158 74090000 		.4byte	.LBB582
 23244 115c 78090000 		.4byte	.LBE582
 23245 1160 7E090000 		.4byte	.LBB583
 23246 1164 82090000 		.4byte	.LBE583
 23247 1168 96090000 		.4byte	.LBB584
 23248 116c A6090000 		.4byte	.LBE584
 23249 1170 AA090000 		.4byte	.LBB585
 23250 1174 AE090000 		.4byte	.LBE585
 23251 1178 B8090000 		.4byte	.LBB586
 23252 117c BC090000 		.4byte	.LBE586
 23253 1180 E0090000 		.4byte	.LBB587
 23254 1184 E4090000 		.4byte	.LBE587
 23255 1188 00000000 		.4byte	0
 23256 118c 00000000 		.4byte	0
 23257 1190 20090000 		.4byte	.LBB556
 23258 1194 4C090000 		.4byte	.LBE556
 23259 1198 52090000 		.4byte	.LBB568
 23260 119c 56090000 		.4byte	.LBE568
 23261 11a0 5A090000 		.4byte	.LBB569
 23262 11a4 5E090000 		.4byte	.LBE569
 23263 11a8 60090000 		.4byte	.LBB570
 23264 11ac 64090000 		.4byte	.LBE570
 23265 11b0 68090000 		.4byte	.LBB571
 23266 11b4 72090000 		.4byte	.LBE571
 23267 11b8 74090000 		.4byte	.LBB572
 23268 11bc 78090000 		.4byte	.LBE572
 23269 11c0 7E090000 		.4byte	.LBB573
 23270 11c4 82090000 		.4byte	.LBE573
 23271 11c8 96090000 		.4byte	.LBB574
 23272 11cc A6090000 		.4byte	.LBE574
 23273 11d0 AA090000 		.4byte	.LBB575
 23274 11d4 AE090000 		.4byte	.LBE575
 23275 11d8 B8090000 		.4byte	.LBB576
ARM GAS  C:\Users\Mohamad\AppData\Local\Temp\ccDsqi1j.s 			page 410


 23276 11dc BC090000 		.4byte	.LBE576
 23277 11e0 E0090000 		.4byte	.LBB577
 23278 11e4 E4090000 		.4byte	.LBE577
 23279 11e8 00000000 		.4byte	0
 23280 11ec 00000000 		.4byte	0
 23281 11f0 20090000 		.4byte	.LBB557
 23282 11f4 4C090000 		.4byte	.LBE557
 23283 11f8 52090000 		.4byte	.LBB558
 23284 11fc 56090000 		.4byte	.LBE558
 23285 1200 5A090000 		.4byte	.LBB559
 23286 1204 5E090000 		.4byte	.LBE559
 23287 1208 60090000 		.4byte	.LBB560
 23288 120c 64090000 		.4byte	.LBE560
 23289 1210 68090000 		.4byte	.LBB561
 23290 1214 72090000 		.4byte	.LBE561
 23291 1218 74090000 		.4byte	.LBB562
 23292 121c 78090000 		.4byte	.LBE562
 23293 1220 7E090000 		.4byte	.LBB563
 23294 1224 82090000 		.4byte	.LBE563
 23295 1228 96090000 		.4byte	.LBB564
 23296 122c A6090000 		.4byte	.LBE564
 23297 1230 AA090000 		.4byte	.LBB565
 23298 1234 AE090000 		.4byte	.LBE565
 23299 1238 B8090000 		.4byte	.LBB566
 23300 123c BC090000 		.4byte	.LBE566
 23301 1240 E0090000 		.4byte	.LBB567
 23302 1244 E4090000 		.4byte	.LBE567
 23303 1248 00000000 		.4byte	0
 23304 124c 00000000 		.4byte	0
 23305 1250 F0090000 		.4byte	.LBB600
 23306 1254 F2090000 		.4byte	.LBE600
 23307 1258 F6090000 		.4byte	.LBB605
 23308 125c 100A0000 		.4byte	.LBE605
 23309 1260 120A0000 		.4byte	.LBB606
 23310 1264 280A0000 		.4byte	.LBE606
 23311 1268 300A0000 		.4byte	.LBB607
 23312 126c 340A0000 		.4byte	.LBE607
 23313 1270 00000000 		.4byte	0
 23314 1274 00000000 		.4byte	0
 23315 1278 F0090000 		.4byte	.LBB601
 23316 127c F2090000 		.4byte	.LBE601
 23317 1280 F6090000 		.4byte	.LBB602
 23318 1284 100A0000 		.4byte	.LBE602
 23319 1288 120A0000 		.4byte	.LBB603
 23320 128c 280A0000 		.4byte	.LBE603
 23321 1290 300A0000 		.4byte	.LBB604
 23322 1294 340A0000 		.4byte	.LBE604
 23323 1298 00000000 		.4byte	0
 23324 129c 00000000 		.4byte	0
 23325 12a0 3A0A0000 		.4byte	.LBB608
 23326 12a4 520A0000 		.4byte	.LBE608
 23327 12a8 560A0000 		.4byte	.LBB611
 23328 12ac 580A0000 		.4byte	.LBE611
 23329 12b0 00000000 		.4byte	0
 23330 12b4 00000000 		.4byte	0
 23331 12b8 3A0A0000 		.4byte	.LBB609
 23332 12bc 520A0000 		.4byte	.LBE609
ARM GAS  C:\Users\Mohamad\AppData\Local\Temp\ccDsqi1j.s 			page 411


 23333 12c0 560A0000 		.4byte	.LBB610
 23334 12c4 580A0000 		.4byte	.LBE610
 23335 12c8 00000000 		.4byte	0
 23336 12cc 00000000 		.4byte	0
 23337 12d0 520A0000 		.4byte	.LBB674
 23338 12d4 560A0000 		.4byte	.LBE674
 23339 12d8 600A0000 		.4byte	.LBB681
 23340 12dc 620A0000 		.4byte	.LBE681
 23341 12e0 660A0000 		.4byte	.LBB683
 23342 12e4 800A0000 		.4byte	.LBE683
 23343 12e8 880A0000 		.4byte	.LBB684
 23344 12ec 8A0A0000 		.4byte	.LBE684
 23345 12f0 8E0A0000 		.4byte	.LBB685
 23346 12f4 920A0000 		.4byte	.LBE685
 23347 12f8 00000000 		.4byte	0
 23348 12fc 00000000 		.4byte	0
 23349 1300 520A0000 		.4byte	.LBB675
 23350 1304 560A0000 		.4byte	.LBE675
 23351 1308 600A0000 		.4byte	.LBB676
 23352 130c 620A0000 		.4byte	.LBE676
 23353 1310 660A0000 		.4byte	.LBB677
 23354 1314 800A0000 		.4byte	.LBE677
 23355 1318 880A0000 		.4byte	.LBB678
 23356 131c 8A0A0000 		.4byte	.LBE678
 23357 1320 8E0A0000 		.4byte	.LBB679
 23358 1324 920A0000 		.4byte	.LBE679
 23359 1328 00000000 		.4byte	0
 23360 132c 00000000 		.4byte	0
 23361 1330 48000000 		.4byte	.LBB796
 23362 1334 90000000 		.4byte	.LBE796
 23363 1338 94000000 		.4byte	.LBB937
 23364 133c 16010000 		.4byte	.LBE937
 23365 1340 1A010000 		.4byte	.LBB938
 23366 1344 F2020000 		.4byte	.LBE938
 23367 1348 F6020000 		.4byte	.LBB939
 23368 134c 50030000 		.4byte	.LBE939
 23369 1350 00000000 		.4byte	0
 23370 1354 00000000 		.4byte	0
 23371 1358 48000000 		.4byte	.LBB797
 23372 135c 90000000 		.4byte	.LBE797
 23373 1360 94000000 		.4byte	.LBB934
 23374 1364 16010000 		.4byte	.LBE934
 23375 1368 1A010000 		.4byte	.LBB935
 23376 136c F2020000 		.4byte	.LBE935
 23377 1370 F6020000 		.4byte	.LBB936
 23378 1374 50030000 		.4byte	.LBE936
 23379 1378 00000000 		.4byte	0
 23380 137c 00000000 		.4byte	0
 23381 1380 48000000 		.4byte	.LBB798
 23382 1384 56000000 		.4byte	.LBE798
 23383 1388 5A000000 		.4byte	.LBB923
 23384 138c 90000000 		.4byte	.LBE923
 23385 1390 94000000 		.4byte	.LBB924
 23386 1394 16010000 		.4byte	.LBE924
 23387 1398 1A010000 		.4byte	.LBB925
 23388 139c F2020000 		.4byte	.LBE925
 23389 13a0 F6020000 		.4byte	.LBB926
ARM GAS  C:\Users\Mohamad\AppData\Local\Temp\ccDsqi1j.s 			page 412


 23390 13a4 22030000 		.4byte	.LBE926
 23391 13a8 26030000 		.4byte	.LBB928
 23392 13ac 2C030000 		.4byte	.LBE928
 23393 13b0 2E030000 		.4byte	.LBB930
 23394 13b4 3A030000 		.4byte	.LBE930
 23395 13b8 00000000 		.4byte	0
 23396 13bc 00000000 		.4byte	0
 23397 13c0 48000000 		.4byte	.LBB799
 23398 13c4 56000000 		.4byte	.LBE799
 23399 13c8 5A000000 		.4byte	.LBB910
 23400 13cc 90000000 		.4byte	.LBE910
 23401 13d0 94000000 		.4byte	.LBB911
 23402 13d4 16010000 		.4byte	.LBE911
 23403 13d8 1A010000 		.4byte	.LBB912
 23404 13dc F2020000 		.4byte	.LBE912
 23405 13e0 F6020000 		.4byte	.LBB913
 23406 13e4 22030000 		.4byte	.LBE913
 23407 13e8 26030000 		.4byte	.LBB914
 23408 13ec 2C030000 		.4byte	.LBE914
 23409 13f0 2E030000 		.4byte	.LBB915
 23410 13f4 3A030000 		.4byte	.LBE915
 23411 13f8 00000000 		.4byte	0
 23412 13fc 00000000 		.4byte	0
 23413 1400 48000000 		.4byte	.LBB800
 23414 1404 50000000 		.4byte	.LBE800
 23415 1408 52000000 		.4byte	.LBB900
 23416 140c 56000000 		.4byte	.LBE900
 23417 1410 5A000000 		.4byte	.LBB901
 23418 1414 84000000 		.4byte	.LBE901
 23419 1418 8C000000 		.4byte	.LBB902
 23420 141c 90000000 		.4byte	.LBE902
 23421 1420 96000000 		.4byte	.LBB903
 23422 1424 9E000000 		.4byte	.LBE903
 23423 1428 B2000000 		.4byte	.LBB904
 23424 142c C6000000 		.4byte	.LBE904
 23425 1430 CE000000 		.4byte	.LBB905
 23426 1434 16010000 		.4byte	.LBE905
 23427 1438 1A010000 		.4byte	.LBB906
 23428 143c F2020000 		.4byte	.LBE906
 23429 1440 00030000 		.4byte	.LBB907
 23430 1444 22030000 		.4byte	.LBE907
 23431 1448 26030000 		.4byte	.LBB908
 23432 144c 2C030000 		.4byte	.LBE908
 23433 1450 2E030000 		.4byte	.LBB909
 23434 1454 3A030000 		.4byte	.LBE909
 23435 1458 00000000 		.4byte	0
 23436 145c 00000000 		.4byte	0
 23437 1460 48000000 		.4byte	.LBB801
 23438 1464 50000000 		.4byte	.LBE801
 23439 1468 52000000 		.4byte	.LBB890
 23440 146c 56000000 		.4byte	.LBE890
 23441 1470 5A000000 		.4byte	.LBB891
 23442 1474 84000000 		.4byte	.LBE891
 23443 1478 8C000000 		.4byte	.LBB892
 23444 147c 90000000 		.4byte	.LBE892
 23445 1480 96000000 		.4byte	.LBB893
 23446 1484 9E000000 		.4byte	.LBE893
ARM GAS  C:\Users\Mohamad\AppData\Local\Temp\ccDsqi1j.s 			page 413


 23447 1488 B2000000 		.4byte	.LBB894
 23448 148c C6000000 		.4byte	.LBE894
 23449 1490 CE000000 		.4byte	.LBB895
 23450 1494 16010000 		.4byte	.LBE895
 23451 1498 1A010000 		.4byte	.LBB896
 23452 149c F2020000 		.4byte	.LBE896
 23453 14a0 00030000 		.4byte	.LBB897
 23454 14a4 22030000 		.4byte	.LBE897
 23455 14a8 26030000 		.4byte	.LBB898
 23456 14ac 2C030000 		.4byte	.LBE898
 23457 14b0 2E030000 		.4byte	.LBB899
 23458 14b4 3A030000 		.4byte	.LBE899
 23459 14b8 00000000 		.4byte	0
 23460 14bc 00000000 		.4byte	0
 23461 14c0 48000000 		.4byte	.LBB802
 23462 14c4 50000000 		.4byte	.LBE802
 23463 14c8 52000000 		.4byte	.LBB880
 23464 14cc 56000000 		.4byte	.LBE880
 23465 14d0 5A000000 		.4byte	.LBB881
 23466 14d4 84000000 		.4byte	.LBE881
 23467 14d8 8C000000 		.4byte	.LBB882
 23468 14dc 90000000 		.4byte	.LBE882
 23469 14e0 96000000 		.4byte	.LBB883
 23470 14e4 9E000000 		.4byte	.LBE883
 23471 14e8 B2000000 		.4byte	.LBB884
 23472 14ec C6000000 		.4byte	.LBE884
 23473 14f0 CE000000 		.4byte	.LBB885
 23474 14f4 16010000 		.4byte	.LBE885
 23475 14f8 1A010000 		.4byte	.LBB886
 23476 14fc F2020000 		.4byte	.LBE886
 23477 1500 00030000 		.4byte	.LBB887
 23478 1504 22030000 		.4byte	.LBE887
 23479 1508 26030000 		.4byte	.LBB888
 23480 150c 2C030000 		.4byte	.LBE888
 23481 1510 2E030000 		.4byte	.LBB889
 23482 1514 3A030000 		.4byte	.LBE889
 23483 1518 00000000 		.4byte	0
 23484 151c 00000000 		.4byte	0
 23485 1520 48000000 		.4byte	.LBB803
 23486 1524 50000000 		.4byte	.LBE803
 23487 1528 52000000 		.4byte	.LBB870
 23488 152c 56000000 		.4byte	.LBE870
 23489 1530 5A000000 		.4byte	.LBB871
 23490 1534 84000000 		.4byte	.LBE871
 23491 1538 8C000000 		.4byte	.LBB872
 23492 153c 90000000 		.4byte	.LBE872
 23493 1540 96000000 		.4byte	.LBB873
 23494 1544 9E000000 		.4byte	.LBE873
 23495 1548 B2000000 		.4byte	.LBB874
 23496 154c C6000000 		.4byte	.LBE874
 23497 1550 CE000000 		.4byte	.LBB875
 23498 1554 16010000 		.4byte	.LBE875
 23499 1558 1A010000 		.4byte	.LBB876
 23500 155c F2020000 		.4byte	.LBE876
 23501 1560 00030000 		.4byte	.LBB877
 23502 1564 22030000 		.4byte	.LBE877
 23503 1568 26030000 		.4byte	.LBB878
ARM GAS  C:\Users\Mohamad\AppData\Local\Temp\ccDsqi1j.s 			page 414


 23504 156c 2C030000 		.4byte	.LBE878
 23505 1570 2E030000 		.4byte	.LBB879
 23506 1574 3A030000 		.4byte	.LBE879
 23507 1578 00000000 		.4byte	0
 23508 157c 00000000 		.4byte	0
 23509 1580 5E000000 		.4byte	.LBB804
 23510 1584 84000000 		.4byte	.LBE804
 23511 1588 8C000000 		.4byte	.LBB832
 23512 158c 90000000 		.4byte	.LBE832
 23513 1590 96000000 		.4byte	.LBB833
 23514 1594 9E000000 		.4byte	.LBE833
 23515 1598 B2000000 		.4byte	.LBB834
 23516 159c C6000000 		.4byte	.LBE834
 23517 15a0 CE000000 		.4byte	.LBB835
 23518 15a4 DE000000 		.4byte	.LBE835
 23519 15a8 00010000 		.4byte	.LBB855
 23520 15ac 04010000 		.4byte	.LBE855
 23521 15b0 08010000 		.4byte	.LBB857
 23522 15b4 0E010000 		.4byte	.LBE857
 23523 15b8 1E010000 		.4byte	.LBB860
 23524 15bc 22010000 		.4byte	.LBE860
 23525 15c0 26010000 		.4byte	.LBB862
 23526 15c4 2A010000 		.4byte	.LBE862
 23527 15c8 00000000 		.4byte	0
 23528 15cc 00000000 		.4byte	0
 23529 15d0 5E000000 		.4byte	.LBB805
 23530 15d4 84000000 		.4byte	.LBE805
 23531 15d8 8C000000 		.4byte	.LBB824
 23532 15dc 90000000 		.4byte	.LBE824
 23533 15e0 96000000 		.4byte	.LBB825
 23534 15e4 9E000000 		.4byte	.LBE825
 23535 15e8 B2000000 		.4byte	.LBB826
 23536 15ec C6000000 		.4byte	.LBE826
 23537 15f0 CE000000 		.4byte	.LBB827
 23538 15f4 DE000000 		.4byte	.LBE827
 23539 15f8 00010000 		.4byte	.LBB828
 23540 15fc 04010000 		.4byte	.LBE828
 23541 1600 08010000 		.4byte	.LBB829
 23542 1604 0E010000 		.4byte	.LBE829
 23543 1608 1E010000 		.4byte	.LBB830
 23544 160c 22010000 		.4byte	.LBE830
 23545 1610 26010000 		.4byte	.LBB831
 23546 1614 2A010000 		.4byte	.LBE831
 23547 1618 00000000 		.4byte	0
 23548 161c 00000000 		.4byte	0
 23549 1620 5E000000 		.4byte	.LBB806
 23550 1624 84000000 		.4byte	.LBE806
 23551 1628 8C000000 		.4byte	.LBB816
 23552 162c 90000000 		.4byte	.LBE816
 23553 1630 96000000 		.4byte	.LBB817
 23554 1634 9E000000 		.4byte	.LBE817
 23555 1638 B2000000 		.4byte	.LBB818
 23556 163c C6000000 		.4byte	.LBE818
 23557 1640 CE000000 		.4byte	.LBB819
 23558 1644 DE000000 		.4byte	.LBE819
 23559 1648 00010000 		.4byte	.LBB820
 23560 164c 04010000 		.4byte	.LBE820
ARM GAS  C:\Users\Mohamad\AppData\Local\Temp\ccDsqi1j.s 			page 415


 23561 1650 08010000 		.4byte	.LBB821
 23562 1654 0E010000 		.4byte	.LBE821
 23563 1658 1E010000 		.4byte	.LBB822
 23564 165c 22010000 		.4byte	.LBE822
 23565 1660 26010000 		.4byte	.LBB823
 23566 1664 2A010000 		.4byte	.LBE823
 23567 1668 00000000 		.4byte	0
 23568 166c 00000000 		.4byte	0
 23569 1670 5E000000 		.4byte	.LBB807
 23570 1674 84000000 		.4byte	.LBE807
 23571 1678 8C000000 		.4byte	.LBB808
 23572 167c 90000000 		.4byte	.LBE808
 23573 1680 96000000 		.4byte	.LBB809
 23574 1684 9E000000 		.4byte	.LBE809
 23575 1688 B2000000 		.4byte	.LBB810
 23576 168c C6000000 		.4byte	.LBE810
 23577 1690 CE000000 		.4byte	.LBB811
 23578 1694 DE000000 		.4byte	.LBE811
 23579 1698 00010000 		.4byte	.LBB812
 23580 169c 04010000 		.4byte	.LBE812
 23581 16a0 08010000 		.4byte	.LBB813
 23582 16a4 0E010000 		.4byte	.LBE813
 23583 16a8 1E010000 		.4byte	.LBB814
 23584 16ac 22010000 		.4byte	.LBE814
 23585 16b0 26010000 		.4byte	.LBB815
 23586 16b4 2A010000 		.4byte	.LBE815
 23587 16b8 00000000 		.4byte	0
 23588 16bc 00000000 		.4byte	0
 23589 16c0 DE000000 		.4byte	.LBB836
 23590 16c4 00010000 		.4byte	.LBE836
 23591 16c8 04010000 		.4byte	.LBB856
 23592 16cc 08010000 		.4byte	.LBE856
 23593 16d0 0E010000 		.4byte	.LBB858
 23594 16d4 16010000 		.4byte	.LBE858
 23595 16d8 1A010000 		.4byte	.LBB859
 23596 16dc 1E010000 		.4byte	.LBE859
 23597 16e0 22010000 		.4byte	.LBB861
 23598 16e4 26010000 		.4byte	.LBE861
 23599 16e8 2A010000 		.4byte	.LBB863
 23600 16ec DC020000 		.4byte	.LBE863
 23601 16f0 00000000 		.4byte	0
 23602 16f4 00000000 		.4byte	0
 23603 16f8 DE000000 		.4byte	.LBB837
 23604 16fc 00010000 		.4byte	.LBE837
 23605 1700 04010000 		.4byte	.LBB850
 23606 1704 08010000 		.4byte	.LBE850
 23607 1708 0E010000 		.4byte	.LBB851
 23608 170c 16010000 		.4byte	.LBE851
 23609 1710 1A010000 		.4byte	.LBB852
 23610 1714 1E010000 		.4byte	.LBE852
 23611 1718 22010000 		.4byte	.LBB853
 23612 171c 26010000 		.4byte	.LBE853
 23613 1720 2A010000 		.4byte	.LBB854
 23614 1724 DC020000 		.4byte	.LBE854
 23615 1728 00000000 		.4byte	0
 23616 172c 00000000 		.4byte	0
 23617 1730 DE000000 		.4byte	.LBB838
ARM GAS  C:\Users\Mohamad\AppData\Local\Temp\ccDsqi1j.s 			page 416


 23618 1734 00010000 		.4byte	.LBE838
 23619 1738 04010000 		.4byte	.LBB845
 23620 173c 08010000 		.4byte	.LBE845
 23621 1740 0E010000 		.4byte	.LBB846
 23622 1744 16010000 		.4byte	.LBE846
 23623 1748 1A010000 		.4byte	.LBB847
 23624 174c 1E010000 		.4byte	.LBE847
 23625 1750 22010000 		.4byte	.LBB848
 23626 1754 26010000 		.4byte	.LBE848
 23627 1758 2A010000 		.4byte	.LBB849
 23628 175c DC020000 		.4byte	.LBE849
 23629 1760 00000000 		.4byte	0
 23630 1764 00000000 		.4byte	0
 23631 1768 DE000000 		.4byte	.LBB839
 23632 176c 00010000 		.4byte	.LBE839
 23633 1770 04010000 		.4byte	.LBB840
 23634 1774 08010000 		.4byte	.LBE840
 23635 1778 0E010000 		.4byte	.LBB841
 23636 177c 16010000 		.4byte	.LBE841
 23637 1780 1A010000 		.4byte	.LBB842
 23638 1784 1E010000 		.4byte	.LBE842
 23639 1788 22010000 		.4byte	.LBB843
 23640 178c 26010000 		.4byte	.LBE843
 23641 1790 2A010000 		.4byte	.LBB844
 23642 1794 DC020000 		.4byte	.LBE844
 23643 1798 00000000 		.4byte	0
 23644 179c 00000000 		.4byte	0
 23645 17a0 DC020000 		.4byte	.LBB864
 23646 17a4 F2020000 		.4byte	.LBE864
 23647 17a8 14030000 		.4byte	.LBB868
 23648 17ac 18030000 		.4byte	.LBE868
 23649 17b0 2A030000 		.4byte	.LBB869
 23650 17b4 2C030000 		.4byte	.LBE869
 23651 17b8 00000000 		.4byte	0
 23652 17bc 00000000 		.4byte	0
 23653 17c0 DC020000 		.4byte	.LBB865
 23654 17c4 F2020000 		.4byte	.LBE865
 23655 17c8 14030000 		.4byte	.LBB866
 23656 17cc 18030000 		.4byte	.LBE866
 23657 17d0 2A030000 		.4byte	.LBB867
 23658 17d4 2C030000 		.4byte	.LBE867
 23659 17d8 00000000 		.4byte	0
 23660 17dc 00000000 		.4byte	0
 23661 17e0 56000000 		.4byte	.LBB916
 23662 17e4 5A000000 		.4byte	.LBE916
 23663 17e8 22030000 		.4byte	.LBB927
 23664 17ec 26030000 		.4byte	.LBE927
 23665 17f0 2C030000 		.4byte	.LBB929
 23666 17f4 2E030000 		.4byte	.LBE929
 23667 17f8 3A030000 		.4byte	.LBB931
 23668 17fc 3E030000 		.4byte	.LBE931
 23669 1800 40030000 		.4byte	.LBB932
 23670 1804 44030000 		.4byte	.LBE932
 23671 1808 48030000 		.4byte	.LBB933
 23672 180c 4C030000 		.4byte	.LBE933
 23673 1810 00000000 		.4byte	0
 23674 1814 00000000 		.4byte	0
ARM GAS  C:\Users\Mohamad\AppData\Local\Temp\ccDsqi1j.s 			page 417


 23675 1818 56000000 		.4byte	.LBB917
 23676 181c 5A000000 		.4byte	.LBE917
 23677 1820 22030000 		.4byte	.LBB918
 23678 1824 26030000 		.4byte	.LBE918
 23679 1828 2C030000 		.4byte	.LBB919
 23680 182c 2E030000 		.4byte	.LBE919
 23681 1830 3A030000 		.4byte	.LBB920
 23682 1834 3E030000 		.4byte	.LBE920
 23683 1838 40030000 		.4byte	.LBB921
 23684 183c 44030000 		.4byte	.LBE921
 23685 1840 48030000 		.4byte	.LBB922
 23686 1844 4C030000 		.4byte	.LBE922
 23687 1848 00000000 		.4byte	0
 23688 184c 00000000 		.4byte	0
 23689 1850 78030000 		.4byte	.LBB940
 23690 1854 7C030000 		.4byte	.LBE940
 23691 1858 82030000 		.4byte	.LBB1079
 23692 185c 4E050000 		.4byte	.LBE1079
 23693 1860 00000000 		.4byte	0
 23694 1864 00000000 		.4byte	0
 23695 1868 78030000 		.4byte	.LBB941
 23696 186c 7C030000 		.4byte	.LBE941
 23697 1870 82030000 		.4byte	.LBB1078
 23698 1874 4E050000 		.4byte	.LBE1078
 23699 1878 00000000 		.4byte	0
 23700 187c 00000000 		.4byte	0
 23701 1880 88030000 		.4byte	.LBB942
 23702 1884 8C030000 		.4byte	.LBE942
 23703 1888 EA030000 		.4byte	.LBB1060
 23704 188c 3C040000 		.4byte	.LBE1060
 23705 1890 40040000 		.4byte	.LBB1061
 23706 1894 52040000 		.4byte	.LBE1061
 23707 1898 56040000 		.4byte	.LBB1062
 23708 189c 12050000 		.4byte	.LBE1062
 23709 18a0 18050000 		.4byte	.LBB1070
 23710 18a4 24050000 		.4byte	.LBE1070
 23711 18a8 2C050000 		.4byte	.LBB1072
 23712 18ac 2E050000 		.4byte	.LBE1072
 23713 18b0 30050000 		.4byte	.LBB1074
 23714 18b4 34050000 		.4byte	.LBE1074
 23715 18b8 00000000 		.4byte	0
 23716 18bc 00000000 		.4byte	0
 23717 18c0 88030000 		.4byte	.LBB943
 23718 18c4 8C030000 		.4byte	.LBE943
 23719 18c8 EA030000 		.4byte	.LBB1054
 23720 18cc 3C040000 		.4byte	.LBE1054
 23721 18d0 40040000 		.4byte	.LBB1055
 23722 18d4 52040000 		.4byte	.LBE1055
 23723 18d8 56040000 		.4byte	.LBB1056
 23724 18dc 12050000 		.4byte	.LBE1056
 23725 18e0 18050000 		.4byte	.LBB1057
 23726 18e4 24050000 		.4byte	.LBE1057
 23727 18e8 2C050000 		.4byte	.LBB1058
 23728 18ec 2E050000 		.4byte	.LBE1058
 23729 18f0 30050000 		.4byte	.LBB1059
 23730 18f4 34050000 		.4byte	.LBE1059
 23731 18f8 00000000 		.4byte	0
ARM GAS  C:\Users\Mohamad\AppData\Local\Temp\ccDsqi1j.s 			page 418


 23732 18fc 00000000 		.4byte	0
 23733 1900 88030000 		.4byte	.LBB944
 23734 1904 8C030000 		.4byte	.LBE944
 23735 1908 EA030000 		.4byte	.LBB1040
 23736 190c EE030000 		.4byte	.LBE1040
 23737 1910 F0030000 		.4byte	.LBB1041
 23738 1914 18040000 		.4byte	.LBE1041
 23739 1918 1C040000 		.4byte	.LBB1042
 23740 191c 20040000 		.4byte	.LBE1042
 23741 1920 2A040000 		.4byte	.LBB1043
 23742 1924 2E040000 		.4byte	.LBE1043
 23743 1928 32040000 		.4byte	.LBB1044
 23744 192c 3A040000 		.4byte	.LBE1044
 23745 1930 44040000 		.4byte	.LBB1045
 23746 1934 4C040000 		.4byte	.LBE1045
 23747 1938 58040000 		.4byte	.LBB1046
 23748 193c 66040000 		.4byte	.LBE1046
 23749 1940 6C040000 		.4byte	.LBB1047
 23750 1944 8A040000 		.4byte	.LBE1047
 23751 1948 8E040000 		.4byte	.LBB1048
 23752 194c 98040000 		.4byte	.LBE1048
 23753 1950 9A040000 		.4byte	.LBB1049
 23754 1954 9E040000 		.4byte	.LBE1049
 23755 1958 A0040000 		.4byte	.LBB1050
 23756 195c 12050000 		.4byte	.LBE1050
 23757 1960 18050000 		.4byte	.LBB1051
 23758 1964 24050000 		.4byte	.LBE1051
 23759 1968 2C050000 		.4byte	.LBB1052
 23760 196c 2E050000 		.4byte	.LBE1052
 23761 1970 30050000 		.4byte	.LBB1053
 23762 1974 34050000 		.4byte	.LBE1053
 23763 1978 00000000 		.4byte	0
 23764 197c 00000000 		.4byte	0
 23765 1980 88030000 		.4byte	.LBB945
 23766 1984 8C030000 		.4byte	.LBE945
 23767 1988 EA030000 		.4byte	.LBB1026
 23768 198c EE030000 		.4byte	.LBE1026
 23769 1990 F0030000 		.4byte	.LBB1027
 23770 1994 18040000 		.4byte	.LBE1027
 23771 1998 1C040000 		.4byte	.LBB1028
 23772 199c 20040000 		.4byte	.LBE1028
 23773 19a0 2A040000 		.4byte	.LBB1029
 23774 19a4 2E040000 		.4byte	.LBE1029
 23775 19a8 32040000 		.4byte	.LBB1030
 23776 19ac 3A040000 		.4byte	.LBE1030
 23777 19b0 44040000 		.4byte	.LBB1031
 23778 19b4 4C040000 		.4byte	.LBE1031
 23779 19b8 58040000 		.4byte	.LBB1032
 23780 19bc 66040000 		.4byte	.LBE1032
 23781 19c0 6C040000 		.4byte	.LBB1033
 23782 19c4 8A040000 		.4byte	.LBE1033
 23783 19c8 8E040000 		.4byte	.LBB1034
 23784 19cc 98040000 		.4byte	.LBE1034
 23785 19d0 9A040000 		.4byte	.LBB1035
 23786 19d4 9E040000 		.4byte	.LBE1035
 23787 19d8 A0040000 		.4byte	.LBB1036
 23788 19dc 12050000 		.4byte	.LBE1036
ARM GAS  C:\Users\Mohamad\AppData\Local\Temp\ccDsqi1j.s 			page 419


 23789 19e0 18050000 		.4byte	.LBB1037
 23790 19e4 24050000 		.4byte	.LBE1037
 23791 19e8 2C050000 		.4byte	.LBB1038
 23792 19ec 2E050000 		.4byte	.LBE1038
 23793 19f0 30050000 		.4byte	.LBB1039
 23794 19f4 34050000 		.4byte	.LBE1039
 23795 19f8 00000000 		.4byte	0
 23796 19fc 00000000 		.4byte	0
 23797 1a00 88030000 		.4byte	.LBB946
 23798 1a04 8C030000 		.4byte	.LBE946
 23799 1a08 EA030000 		.4byte	.LBB1012
 23800 1a0c EE030000 		.4byte	.LBE1012
 23801 1a10 F0030000 		.4byte	.LBB1013
 23802 1a14 18040000 		.4byte	.LBE1013
 23803 1a18 1C040000 		.4byte	.LBB1014
 23804 1a1c 20040000 		.4byte	.LBE1014
 23805 1a20 2A040000 		.4byte	.LBB1015
 23806 1a24 2E040000 		.4byte	.LBE1015
 23807 1a28 32040000 		.4byte	.LBB1016
 23808 1a2c 3A040000 		.4byte	.LBE1016
 23809 1a30 44040000 		.4byte	.LBB1017
 23810 1a34 4C040000 		.4byte	.LBE1017
 23811 1a38 58040000 		.4byte	.LBB1018
 23812 1a3c 66040000 		.4byte	.LBE1018
 23813 1a40 6C040000 		.4byte	.LBB1019
 23814 1a44 8A040000 		.4byte	.LBE1019
 23815 1a48 8E040000 		.4byte	.LBB1020
 23816 1a4c 98040000 		.4byte	.LBE1020
 23817 1a50 9A040000 		.4byte	.LBB1021
 23818 1a54 9E040000 		.4byte	.LBE1021
 23819 1a58 A0040000 		.4byte	.LBB1022
 23820 1a5c 12050000 		.4byte	.LBE1022
 23821 1a60 18050000 		.4byte	.LBB1023
 23822 1a64 24050000 		.4byte	.LBE1023
 23823 1a68 2C050000 		.4byte	.LBB1024
 23824 1a6c 2E050000 		.4byte	.LBE1024
 23825 1a70 30050000 		.4byte	.LBB1025
 23826 1a74 34050000 		.4byte	.LBE1025
 23827 1a78 00000000 		.4byte	0
 23828 1a7c 00000000 		.4byte	0
 23829 1a80 88030000 		.4byte	.LBB947
 23830 1a84 8C030000 		.4byte	.LBE947
 23831 1a88 EA030000 		.4byte	.LBB998
 23832 1a8c EE030000 		.4byte	.LBE998
 23833 1a90 F0030000 		.4byte	.LBB999
 23834 1a94 18040000 		.4byte	.LBE999
 23835 1a98 1C040000 		.4byte	.LBB1000
 23836 1a9c 20040000 		.4byte	.LBE1000
 23837 1aa0 2A040000 		.4byte	.LBB1001
 23838 1aa4 2E040000 		.4byte	.LBE1001
 23839 1aa8 32040000 		.4byte	.LBB1002
 23840 1aac 3A040000 		.4byte	.LBE1002
 23841 1ab0 44040000 		.4byte	.LBB1003
 23842 1ab4 4C040000 		.4byte	.LBE1003
 23843 1ab8 58040000 		.4byte	.LBB1004
 23844 1abc 66040000 		.4byte	.LBE1004
 23845 1ac0 6C040000 		.4byte	.LBB1005
ARM GAS  C:\Users\Mohamad\AppData\Local\Temp\ccDsqi1j.s 			page 420


 23846 1ac4 8A040000 		.4byte	.LBE1005
 23847 1ac8 8E040000 		.4byte	.LBB1006
 23848 1acc 98040000 		.4byte	.LBE1006
 23849 1ad0 9A040000 		.4byte	.LBB1007
 23850 1ad4 9E040000 		.4byte	.LBE1007
 23851 1ad8 A0040000 		.4byte	.LBB1008
 23852 1adc 12050000 		.4byte	.LBE1008
 23853 1ae0 18050000 		.4byte	.LBB1009
 23854 1ae4 24050000 		.4byte	.LBE1009
 23855 1ae8 2C050000 		.4byte	.LBB1010
 23856 1aec 2E050000 		.4byte	.LBE1010
 23857 1af0 30050000 		.4byte	.LBB1011
 23858 1af4 34050000 		.4byte	.LBE1011
 23859 1af8 00000000 		.4byte	0
 23860 1afc 00000000 		.4byte	0
 23861 1b00 F0030000 		.4byte	.LBB948
 23862 1b04 18040000 		.4byte	.LBE948
 23863 1b08 1C040000 		.4byte	.LBB973
 23864 1b0c 20040000 		.4byte	.LBE973
 23865 1b10 2A040000 		.4byte	.LBB974
 23866 1b14 2E040000 		.4byte	.LBE974
 23867 1b18 32040000 		.4byte	.LBB975
 23868 1b1c 3A040000 		.4byte	.LBE975
 23869 1b20 44040000 		.4byte	.LBB976
 23870 1b24 4C040000 		.4byte	.LBE976
 23871 1b28 5A040000 		.4byte	.LBB977
 23872 1b2c 66040000 		.4byte	.LBE977
 23873 1b30 6C040000 		.4byte	.LBB978
 23874 1b34 84040000 		.4byte	.LBE978
 23875 1b38 86040000 		.4byte	.LBB979
 23876 1b3c 8A040000 		.4byte	.LBE979
 23877 1b40 00000000 		.4byte	0
 23878 1b44 00000000 		.4byte	0
 23879 1b48 F0030000 		.4byte	.LBB949
 23880 1b4c 18040000 		.4byte	.LBE949
 23881 1b50 1C040000 		.4byte	.LBB966
 23882 1b54 20040000 		.4byte	.LBE966
 23883 1b58 2A040000 		.4byte	.LBB967
 23884 1b5c 2E040000 		.4byte	.LBE967
 23885 1b60 32040000 		.4byte	.LBB968
 23886 1b64 3A040000 		.4byte	.LBE968
 23887 1b68 44040000 		.4byte	.LBB969
 23888 1b6c 4C040000 		.4byte	.LBE969
 23889 1b70 5A040000 		.4byte	.LBB970
 23890 1b74 66040000 		.4byte	.LBE970
 23891 1b78 6C040000 		.4byte	.LBB971
 23892 1b7c 84040000 		.4byte	.LBE971
 23893 1b80 86040000 		.4byte	.LBB972
 23894 1b84 8A040000 		.4byte	.LBE972
 23895 1b88 00000000 		.4byte	0
 23896 1b8c 00000000 		.4byte	0
 23897 1b90 F0030000 		.4byte	.LBB950
 23898 1b94 18040000 		.4byte	.LBE950
 23899 1b98 1C040000 		.4byte	.LBB959
 23900 1b9c 20040000 		.4byte	.LBE959
 23901 1ba0 2A040000 		.4byte	.LBB960
 23902 1ba4 2E040000 		.4byte	.LBE960
ARM GAS  C:\Users\Mohamad\AppData\Local\Temp\ccDsqi1j.s 			page 421


 23903 1ba8 32040000 		.4byte	.LBB961
 23904 1bac 3A040000 		.4byte	.LBE961
 23905 1bb0 44040000 		.4byte	.LBB962
 23906 1bb4 4C040000 		.4byte	.LBE962
 23907 1bb8 5A040000 		.4byte	.LBB963
 23908 1bbc 66040000 		.4byte	.LBE963
 23909 1bc0 6C040000 		.4byte	.LBB964
 23910 1bc4 84040000 		.4byte	.LBE964
 23911 1bc8 86040000 		.4byte	.LBB965
 23912 1bcc 8A040000 		.4byte	.LBE965
 23913 1bd0 00000000 		.4byte	0
 23914 1bd4 00000000 		.4byte	0
 23915 1bd8 F0030000 		.4byte	.LBB951
 23916 1bdc 18040000 		.4byte	.LBE951
 23917 1be0 1C040000 		.4byte	.LBB952
 23918 1be4 20040000 		.4byte	.LBE952
 23919 1be8 2A040000 		.4byte	.LBB953
 23920 1bec 2E040000 		.4byte	.LBE953
 23921 1bf0 32040000 		.4byte	.LBB954
 23922 1bf4 3A040000 		.4byte	.LBE954
 23923 1bf8 44040000 		.4byte	.LBB955
 23924 1bfc 4C040000 		.4byte	.LBE955
 23925 1c00 5A040000 		.4byte	.LBB956
 23926 1c04 66040000 		.4byte	.LBE956
 23927 1c08 6C040000 		.4byte	.LBB957
 23928 1c0c 84040000 		.4byte	.LBE957
 23929 1c10 86040000 		.4byte	.LBB958
 23930 1c14 8A040000 		.4byte	.LBE958
 23931 1c18 00000000 		.4byte	0
 23932 1c1c 00000000 		.4byte	0
 23933 1c20 B2040000 		.4byte	.LBB982
 23934 1c24 B4040000 		.4byte	.LBE982
 23935 1c28 B8040000 		.4byte	.LBB988
 23936 1c2c D0040000 		.4byte	.LBE988
 23937 1c30 D4040000 		.4byte	.LBB989
 23938 1c34 E6040000 		.4byte	.LBE989
 23939 1c38 EA040000 		.4byte	.LBB990
 23940 1c3c EE040000 		.4byte	.LBE990
 23941 1c40 F0040000 		.4byte	.LBB991
 23942 1c44 F2040000 		.4byte	.LBE991
 23943 1c48 00000000 		.4byte	0
 23944 1c4c 00000000 		.4byte	0
 23945 1c50 B2040000 		.4byte	.LBB983
 23946 1c54 B4040000 		.4byte	.LBE983
 23947 1c58 B8040000 		.4byte	.LBB984
 23948 1c5c D0040000 		.4byte	.LBE984
 23949 1c60 D4040000 		.4byte	.LBB985
 23950 1c64 E6040000 		.4byte	.LBE985
 23951 1c68 EA040000 		.4byte	.LBB986
 23952 1c6c EE040000 		.4byte	.LBE986
 23953 1c70 F0040000 		.4byte	.LBB987
 23954 1c74 F2040000 		.4byte	.LBE987
 23955 1c78 00000000 		.4byte	0
 23956 1c7c 00000000 		.4byte	0
 23957 1c80 F8040000 		.4byte	.LBB992
 23958 1c84 12050000 		.4byte	.LBE992
 23959 1c88 1C050000 		.4byte	.LBB996
ARM GAS  C:\Users\Mohamad\AppData\Local\Temp\ccDsqi1j.s 			page 422


 23960 1c8c 20050000 		.4byte	.LBE996
 23961 1c90 2C050000 		.4byte	.LBB997
 23962 1c94 2E050000 		.4byte	.LBE997
 23963 1c98 00000000 		.4byte	0
 23964 1c9c 00000000 		.4byte	0
 23965 1ca0 F8040000 		.4byte	.LBB993
 23966 1ca4 12050000 		.4byte	.LBE993
 23967 1ca8 1C050000 		.4byte	.LBB994
 23968 1cac 20050000 		.4byte	.LBE994
 23969 1cb0 2C050000 		.4byte	.LBB995
 23970 1cb4 2E050000 		.4byte	.LBE995
 23971 1cb8 00000000 		.4byte	0
 23972 1cbc 00000000 		.4byte	0
 23973 1cc0 12050000 		.4byte	.LBB1063
 23974 1cc4 18050000 		.4byte	.LBE1063
 23975 1cc8 24050000 		.4byte	.LBB1071
 23976 1ccc 2C050000 		.4byte	.LBE1071
 23977 1cd0 2E050000 		.4byte	.LBB1073
 23978 1cd4 30050000 		.4byte	.LBE1073
 23979 1cd8 34050000 		.4byte	.LBB1075
 23980 1cdc 3A050000 		.4byte	.LBE1075
 23981 1ce0 3C050000 		.4byte	.LBB1076
 23982 1ce4 40050000 		.4byte	.LBE1076
 23983 1ce8 46050000 		.4byte	.LBB1077
 23984 1cec 4A050000 		.4byte	.LBE1077
 23985 1cf0 00000000 		.4byte	0
 23986 1cf4 00000000 		.4byte	0
 23987 1cf8 12050000 		.4byte	.LBB1064
 23988 1cfc 18050000 		.4byte	.LBE1064
 23989 1d00 24050000 		.4byte	.LBB1065
 23990 1d04 2C050000 		.4byte	.LBE1065
 23991 1d08 2E050000 		.4byte	.LBB1066
 23992 1d0c 30050000 		.4byte	.LBE1066
 23993 1d10 34050000 		.4byte	.LBB1067
 23994 1d14 3A050000 		.4byte	.LBE1067
 23995 1d18 3C050000 		.4byte	.LBB1068
 23996 1d1c 40050000 		.4byte	.LBE1068
 23997 1d20 46050000 		.4byte	.LBB1069
 23998 1d24 4A050000 		.4byte	.LBE1069
 23999 1d28 00000000 		.4byte	0
 24000 1d2c 00000000 		.4byte	0
 24001 1d30 9E050000 		.4byte	.LBB1080
 24002 1d34 A0050000 		.4byte	.LBE1080
 24003 1d38 A4050000 		.4byte	.LBB1229
 24004 1d3c 3E070000 		.4byte	.LBE1229
 24005 1d40 00000000 		.4byte	0
 24006 1d44 00000000 		.4byte	0
 24007 1d48 9E050000 		.4byte	.LBB1081
 24008 1d4c A0050000 		.4byte	.LBE1081
 24009 1d50 A4050000 		.4byte	.LBB1228
 24010 1d54 3E070000 		.4byte	.LBE1228
 24011 1d58 00000000 		.4byte	0
 24012 1d5c 00000000 		.4byte	0
 24013 1d60 AC050000 		.4byte	.LBB1082
 24014 1d64 B0050000 		.4byte	.LBE1082
 24015 1d68 DA050000 		.4byte	.LBB1211
 24016 1d6c 2C060000 		.4byte	.LBE1211
ARM GAS  C:\Users\Mohamad\AppData\Local\Temp\ccDsqi1j.s 			page 423


 24017 1d70 30060000 		.4byte	.LBB1212
 24018 1d74 00070000 		.4byte	.LBE1212
 24019 1d78 06070000 		.4byte	.LBB1220
 24020 1d7c 0E070000 		.4byte	.LBE1220
 24021 1d80 16070000 		.4byte	.LBB1222
 24022 1d84 1A070000 		.4byte	.LBE1222
 24023 1d88 1C070000 		.4byte	.LBB1224
 24024 1d8c 24070000 		.4byte	.LBE1224
 24025 1d90 00000000 		.4byte	0
 24026 1d94 00000000 		.4byte	0
 24027 1d98 AC050000 		.4byte	.LBB1083
 24028 1d9c B0050000 		.4byte	.LBE1083
 24029 1da0 DA050000 		.4byte	.LBB1206
 24030 1da4 2C060000 		.4byte	.LBE1206
 24031 1da8 30060000 		.4byte	.LBB1207
 24032 1dac 00070000 		.4byte	.LBE1207
 24033 1db0 06070000 		.4byte	.LBB1208
 24034 1db4 0E070000 		.4byte	.LBE1208
 24035 1db8 16070000 		.4byte	.LBB1209
 24036 1dbc 1A070000 		.4byte	.LBE1209
 24037 1dc0 1C070000 		.4byte	.LBB1210
 24038 1dc4 24070000 		.4byte	.LBE1210
 24039 1dc8 00000000 		.4byte	0
 24040 1dcc 00000000 		.4byte	0
 24041 1dd0 AC050000 		.4byte	.LBB1084
 24042 1dd4 B0050000 		.4byte	.LBE1084
 24043 1dd8 DA050000 		.4byte	.LBB1191
 24044 1ddc DE050000 		.4byte	.LBE1191
 24045 1de0 E0050000 		.4byte	.LBB1192
 24046 1de4 F0050000 		.4byte	.LBE1192
 24047 1de8 F2050000 		.4byte	.LBB1193
 24048 1dec 16060000 		.4byte	.LBE1193
 24049 1df0 1E060000 		.4byte	.LBB1194
 24050 1df4 22060000 		.4byte	.LBE1194
 24051 1df8 24060000 		.4byte	.LBB1195
 24052 1dfc 2C060000 		.4byte	.LBE1195
 24053 1e00 3A060000 		.4byte	.LBB1196
 24054 1e04 3E060000 		.4byte	.LBE1196
 24055 1e08 42060000 		.4byte	.LBB1197
 24056 1e0c 46060000 		.4byte	.LBE1197
 24057 1e10 52060000 		.4byte	.LBB1198
 24058 1e14 56060000 		.4byte	.LBE1198
 24059 1e18 5E060000 		.4byte	.LBB1199
 24060 1e1c 76060000 		.4byte	.LBE1199
 24061 1e20 7A060000 		.4byte	.LBB1200
 24062 1e24 82060000 		.4byte	.LBE1200
 24063 1e28 84060000 		.4byte	.LBB1201
 24064 1e2c 88060000 		.4byte	.LBE1201
 24065 1e30 8A060000 		.4byte	.LBB1202
 24066 1e34 00070000 		.4byte	.LBE1202
 24067 1e38 06070000 		.4byte	.LBB1203
 24068 1e3c 0E070000 		.4byte	.LBE1203
 24069 1e40 16070000 		.4byte	.LBB1204
 24070 1e44 1A070000 		.4byte	.LBE1204
 24071 1e48 1C070000 		.4byte	.LBB1205
 24072 1e4c 24070000 		.4byte	.LBE1205
 24073 1e50 00000000 		.4byte	0
ARM GAS  C:\Users\Mohamad\AppData\Local\Temp\ccDsqi1j.s 			page 424


 24074 1e54 00000000 		.4byte	0
 24075 1e58 AC050000 		.4byte	.LBB1085
 24076 1e5c B0050000 		.4byte	.LBE1085
 24077 1e60 DA050000 		.4byte	.LBB1176
 24078 1e64 DE050000 		.4byte	.LBE1176
 24079 1e68 E0050000 		.4byte	.LBB1177
 24080 1e6c F0050000 		.4byte	.LBE1177
 24081 1e70 F2050000 		.4byte	.LBB1178
 24082 1e74 16060000 		.4byte	.LBE1178
 24083 1e78 1E060000 		.4byte	.LBB1179
 24084 1e7c 22060000 		.4byte	.LBE1179
 24085 1e80 24060000 		.4byte	.LBB1180
 24086 1e84 2C060000 		.4byte	.LBE1180
 24087 1e88 3A060000 		.4byte	.LBB1181
 24088 1e8c 3E060000 		.4byte	.LBE1181
 24089 1e90 42060000 		.4byte	.LBB1182
 24090 1e94 46060000 		.4byte	.LBE1182
 24091 1e98 52060000 		.4byte	.LBB1183
 24092 1e9c 56060000 		.4byte	.LBE1183
 24093 1ea0 5E060000 		.4byte	.LBB1184
 24094 1ea4 76060000 		.4byte	.LBE1184
 24095 1ea8 7A060000 		.4byte	.LBB1185
 24096 1eac 82060000 		.4byte	.LBE1185
 24097 1eb0 84060000 		.4byte	.LBB1186
 24098 1eb4 88060000 		.4byte	.LBE1186
 24099 1eb8 8A060000 		.4byte	.LBB1187
 24100 1ebc 00070000 		.4byte	.LBE1187
 24101 1ec0 06070000 		.4byte	.LBB1188
 24102 1ec4 0E070000 		.4byte	.LBE1188
 24103 1ec8 16070000 		.4byte	.LBB1189
 24104 1ecc 1A070000 		.4byte	.LBE1189
 24105 1ed0 1C070000 		.4byte	.LBB1190
 24106 1ed4 24070000 		.4byte	.LBE1190
 24107 1ed8 00000000 		.4byte	0
 24108 1edc 00000000 		.4byte	0
 24109 1ee0 AC050000 		.4byte	.LBB1086
 24110 1ee4 B0050000 		.4byte	.LBE1086
 24111 1ee8 DA050000 		.4byte	.LBB1161
 24112 1eec DE050000 		.4byte	.LBE1161
 24113 1ef0 E0050000 		.4byte	.LBB1162
 24114 1ef4 F0050000 		.4byte	.LBE1162
 24115 1ef8 F2050000 		.4byte	.LBB1163
 24116 1efc 16060000 		.4byte	.LBE1163
 24117 1f00 1E060000 		.4byte	.LBB1164
 24118 1f04 22060000 		.4byte	.LBE1164
 24119 1f08 24060000 		.4byte	.LBB1165
 24120 1f0c 2C060000 		.4byte	.LBE1165
 24121 1f10 3A060000 		.4byte	.LBB1166
 24122 1f14 3E060000 		.4byte	.LBE1166
 24123 1f18 42060000 		.4byte	.LBB1167
 24124 1f1c 46060000 		.4byte	.LBE1167
 24125 1f20 52060000 		.4byte	.LBB1168
 24126 1f24 56060000 		.4byte	.LBE1168
 24127 1f28 5E060000 		.4byte	.LBB1169
 24128 1f2c 76060000 		.4byte	.LBE1169
 24129 1f30 7A060000 		.4byte	.LBB1170
 24130 1f34 82060000 		.4byte	.LBE1170
ARM GAS  C:\Users\Mohamad\AppData\Local\Temp\ccDsqi1j.s 			page 425


 24131 1f38 84060000 		.4byte	.LBB1171
 24132 1f3c 88060000 		.4byte	.LBE1171
 24133 1f40 8A060000 		.4byte	.LBB1172
 24134 1f44 00070000 		.4byte	.LBE1172
 24135 1f48 06070000 		.4byte	.LBB1173
 24136 1f4c 0E070000 		.4byte	.LBE1173
 24137 1f50 16070000 		.4byte	.LBB1174
 24138 1f54 1A070000 		.4byte	.LBE1174
 24139 1f58 1C070000 		.4byte	.LBB1175
 24140 1f5c 24070000 		.4byte	.LBE1175
 24141 1f60 00000000 		.4byte	0
 24142 1f64 00000000 		.4byte	0
 24143 1f68 AC050000 		.4byte	.LBB1087
 24144 1f6c B0050000 		.4byte	.LBE1087
 24145 1f70 DA050000 		.4byte	.LBB1146
 24146 1f74 DE050000 		.4byte	.LBE1146
 24147 1f78 E0050000 		.4byte	.LBB1147
 24148 1f7c F0050000 		.4byte	.LBE1147
 24149 1f80 F2050000 		.4byte	.LBB1148
 24150 1f84 16060000 		.4byte	.LBE1148
 24151 1f88 1E060000 		.4byte	.LBB1149
 24152 1f8c 22060000 		.4byte	.LBE1149
 24153 1f90 24060000 		.4byte	.LBB1150
 24154 1f94 2C060000 		.4byte	.LBE1150
 24155 1f98 3A060000 		.4byte	.LBB1151
 24156 1f9c 3E060000 		.4byte	.LBE1151
 24157 1fa0 42060000 		.4byte	.LBB1152
 24158 1fa4 46060000 		.4byte	.LBE1152
 24159 1fa8 52060000 		.4byte	.LBB1153
 24160 1fac 56060000 		.4byte	.LBE1153
 24161 1fb0 5E060000 		.4byte	.LBB1154
 24162 1fb4 76060000 		.4byte	.LBE1154
 24163 1fb8 7A060000 		.4byte	.LBB1155
 24164 1fbc 82060000 		.4byte	.LBE1155
 24165 1fc0 84060000 		.4byte	.LBB1156
 24166 1fc4 88060000 		.4byte	.LBE1156
 24167 1fc8 8A060000 		.4byte	.LBB1157
 24168 1fcc 00070000 		.4byte	.LBE1157
 24169 1fd0 06070000 		.4byte	.LBB1158
 24170 1fd4 0E070000 		.4byte	.LBE1158
 24171 1fd8 16070000 		.4byte	.LBB1159
 24172 1fdc 1A070000 		.4byte	.LBE1159
 24173 1fe0 1C070000 		.4byte	.LBB1160
 24174 1fe4 24070000 		.4byte	.LBE1160
 24175 1fe8 00000000 		.4byte	0
 24176 1fec 00000000 		.4byte	0
 24177 1ff0 E0050000 		.4byte	.LBB1088
 24178 1ff4 F0050000 		.4byte	.LBE1088
 24179 1ff8 F2050000 		.4byte	.LBB1119
 24180 1ffc 16060000 		.4byte	.LBE1119
 24181 2000 1E060000 		.4byte	.LBB1120
 24182 2004 22060000 		.4byte	.LBE1120
 24183 2008 24060000 		.4byte	.LBB1121
 24184 200c 2C060000 		.4byte	.LBE1121
 24185 2010 3A060000 		.4byte	.LBB1122
 24186 2014 3E060000 		.4byte	.LBE1122
 24187 2018 42060000 		.4byte	.LBB1123
ARM GAS  C:\Users\Mohamad\AppData\Local\Temp\ccDsqi1j.s 			page 426


 24188 201c 46060000 		.4byte	.LBE1123
 24189 2020 52060000 		.4byte	.LBB1124
 24190 2024 56060000 		.4byte	.LBE1124
 24191 2028 5E060000 		.4byte	.LBB1125
 24192 202c 6C060000 		.4byte	.LBE1125
 24193 2030 70060000 		.4byte	.LBB1126
 24194 2034 74060000 		.4byte	.LBE1126
 24195 2038 7E060000 		.4byte	.LBB1127
 24196 203c 82060000 		.4byte	.LBE1127
 24197 2040 00000000 		.4byte	0
 24198 2044 00000000 		.4byte	0
 24199 2048 E0050000 		.4byte	.LBB1089
 24200 204c F0050000 		.4byte	.LBE1089
 24201 2050 F2050000 		.4byte	.LBB1110
 24202 2054 16060000 		.4byte	.LBE1110
 24203 2058 1E060000 		.4byte	.LBB1111
 24204 205c 22060000 		.4byte	.LBE1111
 24205 2060 24060000 		.4byte	.LBB1112
 24206 2064 2C060000 		.4byte	.LBE1112
 24207 2068 3A060000 		.4byte	.LBB1113
 24208 206c 3E060000 		.4byte	.LBE1113
 24209 2070 42060000 		.4byte	.LBB1114
 24210 2074 46060000 		.4byte	.LBE1114
 24211 2078 52060000 		.4byte	.LBB1115
 24212 207c 56060000 		.4byte	.LBE1115
 24213 2080 5E060000 		.4byte	.LBB1116
 24214 2084 6C060000 		.4byte	.LBE1116
 24215 2088 70060000 		.4byte	.LBB1117
 24216 208c 74060000 		.4byte	.LBE1117
 24217 2090 7E060000 		.4byte	.LBB1118
 24218 2094 82060000 		.4byte	.LBE1118
 24219 2098 00000000 		.4byte	0
 24220 209c 00000000 		.4byte	0
 24221 20a0 E0050000 		.4byte	.LBB1090
 24222 20a4 F0050000 		.4byte	.LBE1090
 24223 20a8 F2050000 		.4byte	.LBB1101
 24224 20ac 16060000 		.4byte	.LBE1101
 24225 20b0 1E060000 		.4byte	.LBB1102
 24226 20b4 22060000 		.4byte	.LBE1102
 24227 20b8 24060000 		.4byte	.LBB1103
 24228 20bc 2C060000 		.4byte	.LBE1103
 24229 20c0 3A060000 		.4byte	.LBB1104
 24230 20c4 3E060000 		.4byte	.LBE1104
 24231 20c8 42060000 		.4byte	.LBB1105
 24232 20cc 46060000 		.4byte	.LBE1105
 24233 20d0 52060000 		.4byte	.LBB1106
 24234 20d4 56060000 		.4byte	.LBE1106
 24235 20d8 5E060000 		.4byte	.LBB1107
 24236 20dc 6C060000 		.4byte	.LBE1107
 24237 20e0 70060000 		.4byte	.LBB1108
 24238 20e4 74060000 		.4byte	.LBE1108
 24239 20e8 7E060000 		.4byte	.LBB1109
 24240 20ec 82060000 		.4byte	.LBE1109
 24241 20f0 00000000 		.4byte	0
 24242 20f4 00000000 		.4byte	0
 24243 20f8 E0050000 		.4byte	.LBB1091
 24244 20fc F0050000 		.4byte	.LBE1091
ARM GAS  C:\Users\Mohamad\AppData\Local\Temp\ccDsqi1j.s 			page 427


 24245 2100 F2050000 		.4byte	.LBB1092
 24246 2104 16060000 		.4byte	.LBE1092
 24247 2108 1E060000 		.4byte	.LBB1093
 24248 210c 22060000 		.4byte	.LBE1093
 24249 2110 24060000 		.4byte	.LBB1094
 24250 2114 2C060000 		.4byte	.LBE1094
 24251 2118 3A060000 		.4byte	.LBB1095
 24252 211c 3E060000 		.4byte	.LBE1095
 24253 2120 42060000 		.4byte	.LBB1096
 24254 2124 46060000 		.4byte	.LBE1096
 24255 2128 52060000 		.4byte	.LBB1097
 24256 212c 56060000 		.4byte	.LBE1097
 24257 2130 5E060000 		.4byte	.LBB1098
 24258 2134 6C060000 		.4byte	.LBE1098
 24259 2138 70060000 		.4byte	.LBB1099
 24260 213c 74060000 		.4byte	.LBE1099
 24261 2140 7E060000 		.4byte	.LBB1100
 24262 2144 82060000 		.4byte	.LBE1100
 24263 2148 00000000 		.4byte	0
 24264 214c 00000000 		.4byte	0
 24265 2150 A8060000 		.4byte	.LBB1130
 24266 2154 AA060000 		.4byte	.LBE1130
 24267 2158 AE060000 		.4byte	.LBB1136
 24268 215c C8060000 		.4byte	.LBE1136
 24269 2160 CA060000 		.4byte	.LBB1137
 24270 2164 DC060000 		.4byte	.LBE1137
 24271 2168 DE060000 		.4byte	.LBB1138
 24272 216c E2060000 		.4byte	.LBE1138
 24273 2170 E4060000 		.4byte	.LBB1139
 24274 2174 E6060000 		.4byte	.LBE1139
 24275 2178 00000000 		.4byte	0
 24276 217c 00000000 		.4byte	0
 24277 2180 A8060000 		.4byte	.LBB1131
 24278 2184 AA060000 		.4byte	.LBE1131
 24279 2188 AE060000 		.4byte	.LBB1132
 24280 218c C8060000 		.4byte	.LBE1132
 24281 2190 CA060000 		.4byte	.LBB1133
 24282 2194 DC060000 		.4byte	.LBE1133
 24283 2198 DE060000 		.4byte	.LBB1134
 24284 219c E2060000 		.4byte	.LBE1134
 24285 21a0 E4060000 		.4byte	.LBB1135
 24286 21a4 E6060000 		.4byte	.LBE1135
 24287 21a8 00000000 		.4byte	0
 24288 21ac 00000000 		.4byte	0
 24289 21b0 EC060000 		.4byte	.LBB1140
 24290 21b4 00070000 		.4byte	.LBE1140
 24291 21b8 06070000 		.4byte	.LBB1144
 24292 21bc 0A070000 		.4byte	.LBE1144
 24293 21c0 16070000 		.4byte	.LBB1145
 24294 21c4 1A070000 		.4byte	.LBE1145
 24295 21c8 00000000 		.4byte	0
 24296 21cc 00000000 		.4byte	0
 24297 21d0 EC060000 		.4byte	.LBB1141
 24298 21d4 00070000 		.4byte	.LBE1141
 24299 21d8 06070000 		.4byte	.LBB1142
 24300 21dc 0A070000 		.4byte	.LBE1142
 24301 21e0 16070000 		.4byte	.LBB1143
ARM GAS  C:\Users\Mohamad\AppData\Local\Temp\ccDsqi1j.s 			page 428


 24302 21e4 1A070000 		.4byte	.LBE1143
 24303 21e8 00000000 		.4byte	0
 24304 21ec 00000000 		.4byte	0
 24305 21f0 00070000 		.4byte	.LBB1213
 24306 21f4 06070000 		.4byte	.LBE1213
 24307 21f8 0E070000 		.4byte	.LBB1221
 24308 21fc 16070000 		.4byte	.LBE1221
 24309 2200 1A070000 		.4byte	.LBB1223
 24310 2204 1C070000 		.4byte	.LBE1223
 24311 2208 24070000 		.4byte	.LBB1225
 24312 220c 2C070000 		.4byte	.LBE1225
 24313 2210 2E070000 		.4byte	.LBB1226
 24314 2214 30070000 		.4byte	.LBE1226
 24315 2218 36070000 		.4byte	.LBB1227
 24316 221c 3A070000 		.4byte	.LBE1227
 24317 2220 00000000 		.4byte	0
 24318 2224 00000000 		.4byte	0
 24319 2228 00070000 		.4byte	.LBB1214
 24320 222c 06070000 		.4byte	.LBE1214
 24321 2230 0E070000 		.4byte	.LBB1215
 24322 2234 16070000 		.4byte	.LBE1215
 24323 2238 1A070000 		.4byte	.LBB1216
 24324 223c 1C070000 		.4byte	.LBE1216
 24325 2240 24070000 		.4byte	.LBB1217
 24326 2244 2C070000 		.4byte	.LBE1217
 24327 2248 2E070000 		.4byte	.LBB1218
 24328 224c 30070000 		.4byte	.LBE1218
 24329 2250 36070000 		.4byte	.LBB1219
 24330 2254 3A070000 		.4byte	.LBE1219
 24331 2258 00000000 		.4byte	0
 24332 225c 00000000 		.4byte	0
 24333 2260 9A070000 		.4byte	.LBB1232
 24334 2264 9E070000 		.4byte	.LBE1232
 24335 2268 A2070000 		.4byte	.LBB1290
 24336 226c C2080000 		.4byte	.LBE1290
 24337 2270 C8080000 		.4byte	.LBB1298
 24338 2274 D4080000 		.4byte	.LBE1298
 24339 2278 DC080000 		.4byte	.LBB1300
 24340 227c DE080000 		.4byte	.LBE1300
 24341 2280 E0080000 		.4byte	.LBB1302
 24342 2284 E4080000 		.4byte	.LBE1302
 24343 2288 00000000 		.4byte	0
 24344 228c 00000000 		.4byte	0
 24345 2290 9A070000 		.4byte	.LBB1233
 24346 2294 9E070000 		.4byte	.LBE1233
 24347 2298 A2070000 		.4byte	.LBB1286
 24348 229c C2080000 		.4byte	.LBE1286
 24349 22a0 C8080000 		.4byte	.LBB1287
 24350 22a4 D4080000 		.4byte	.LBE1287
 24351 22a8 DC080000 		.4byte	.LBB1288
 24352 22ac DE080000 		.4byte	.LBE1288
 24353 22b0 E0080000 		.4byte	.LBB1289
 24354 22b4 E4080000 		.4byte	.LBE1289
 24355 22b8 00000000 		.4byte	0
 24356 22bc 00000000 		.4byte	0
 24357 22c0 CE070000 		.4byte	.LBB1234
 24358 22c4 D0070000 		.4byte	.LBE1234
ARM GAS  C:\Users\Mohamad\AppData\Local\Temp\ccDsqi1j.s 			page 429


 24359 22c8 D2070000 		.4byte	.LBB1280
 24360 22cc 3A080000 		.4byte	.LBE1280
 24361 22d0 3E080000 		.4byte	.LBB1281
 24362 22d4 4C080000 		.4byte	.LBE1281
 24363 22d8 50080000 		.4byte	.LBB1282
 24364 22dc C2080000 		.4byte	.LBE1282
 24365 22e0 C8080000 		.4byte	.LBB1283
 24366 22e4 D4080000 		.4byte	.LBE1283
 24367 22e8 DC080000 		.4byte	.LBB1284
 24368 22ec DE080000 		.4byte	.LBE1284
 24369 22f0 E0080000 		.4byte	.LBB1285
 24370 22f4 E4080000 		.4byte	.LBE1285
 24371 22f8 00000000 		.4byte	0
 24372 22fc 00000000 		.4byte	0
 24373 2300 CE070000 		.4byte	.LBB1235
 24374 2304 D0070000 		.4byte	.LBE1235
 24375 2308 D2070000 		.4byte	.LBB1274
 24376 230c 3A080000 		.4byte	.LBE1274
 24377 2310 3E080000 		.4byte	.LBB1275
 24378 2314 4C080000 		.4byte	.LBE1275
 24379 2318 50080000 		.4byte	.LBB1276
 24380 231c C2080000 		.4byte	.LBE1276
 24381 2320 C8080000 		.4byte	.LBB1277
 24382 2324 D4080000 		.4byte	.LBE1277
 24383 2328 DC080000 		.4byte	.LBB1278
 24384 232c DE080000 		.4byte	.LBE1278
 24385 2330 E0080000 		.4byte	.LBB1279
 24386 2334 E4080000 		.4byte	.LBE1279
 24387 2338 00000000 		.4byte	0
 24388 233c 00000000 		.4byte	0
 24389 2340 CE070000 		.4byte	.LBB1236
 24390 2344 D0070000 		.4byte	.LBE1236
 24391 2348 D2070000 		.4byte	.LBB1268
 24392 234c 3A080000 		.4byte	.LBE1268
 24393 2350 3E080000 		.4byte	.LBB1269
 24394 2354 4C080000 		.4byte	.LBE1269
 24395 2358 50080000 		.4byte	.LBB1270
 24396 235c C2080000 		.4byte	.LBE1270
 24397 2360 C8080000 		.4byte	.LBB1271
 24398 2364 D4080000 		.4byte	.LBE1271
 24399 2368 DC080000 		.4byte	.LBB1272
 24400 236c DE080000 		.4byte	.LBE1272
 24401 2370 E0080000 		.4byte	.LBB1273
 24402 2374 E4080000 		.4byte	.LBE1273
 24403 2378 00000000 		.4byte	0
 24404 237c 00000000 		.4byte	0
 24405 2380 CE070000 		.4byte	.LBB1237
 24406 2384 D0070000 		.4byte	.LBE1237
 24407 2388 D2070000 		.4byte	.LBB1262
 24408 238c 3A080000 		.4byte	.LBE1262
 24409 2390 3E080000 		.4byte	.LBB1263
 24410 2394 4C080000 		.4byte	.LBE1263
 24411 2398 50080000 		.4byte	.LBB1264
 24412 239c C2080000 		.4byte	.LBE1264
 24413 23a0 C8080000 		.4byte	.LBB1265
 24414 23a4 D4080000 		.4byte	.LBE1265
 24415 23a8 DC080000 		.4byte	.LBB1266
ARM GAS  C:\Users\Mohamad\AppData\Local\Temp\ccDsqi1j.s 			page 430


 24416 23ac DE080000 		.4byte	.LBE1266
 24417 23b0 E0080000 		.4byte	.LBB1267
 24418 23b4 E4080000 		.4byte	.LBE1267
 24419 23b8 00000000 		.4byte	0
 24420 23bc 00000000 		.4byte	0
 24421 23c0 D4070000 		.4byte	.LBB1238
 24422 23c4 30080000 		.4byte	.LBE1238
 24423 23c8 32080000 		.4byte	.LBB1245
 24424 23cc 36080000 		.4byte	.LBE1245
 24425 23d0 00000000 		.4byte	0
 24426 23d4 00000000 		.4byte	0
 24427 23d8 D4070000 		.4byte	.LBB1239
 24428 23dc 30080000 		.4byte	.LBE1239
 24429 23e0 32080000 		.4byte	.LBB1244
 24430 23e4 36080000 		.4byte	.LBE1244
 24431 23e8 00000000 		.4byte	0
 24432 23ec 00000000 		.4byte	0
 24433 23f0 D4070000 		.4byte	.LBB1240
 24434 23f4 30080000 		.4byte	.LBE1240
 24435 23f8 32080000 		.4byte	.LBB1243
 24436 23fc 36080000 		.4byte	.LBE1243
 24437 2400 00000000 		.4byte	0
 24438 2404 00000000 		.4byte	0
 24439 2408 D4070000 		.4byte	.LBB1241
 24440 240c 30080000 		.4byte	.LBE1241
 24441 2410 32080000 		.4byte	.LBB1242
 24442 2414 36080000 		.4byte	.LBE1242
 24443 2418 00000000 		.4byte	0
 24444 241c 00000000 		.4byte	0
 24445 2420 64080000 		.4byte	.LBB1248
 24446 2424 66080000 		.4byte	.LBE1248
 24447 2428 6A080000 		.4byte	.LBB1253
 24448 242c 84080000 		.4byte	.LBE1253
 24449 2430 86080000 		.4byte	.LBB1254
 24450 2434 9C080000 		.4byte	.LBE1254
 24451 2438 A0080000 		.4byte	.LBB1255
 24452 243c A2080000 		.4byte	.LBE1255
 24453 2440 00000000 		.4byte	0
 24454 2444 00000000 		.4byte	0
 24455 2448 64080000 		.4byte	.LBB1249
 24456 244c 66080000 		.4byte	.LBE1249
 24457 2450 6A080000 		.4byte	.LBB1250
 24458 2454 84080000 		.4byte	.LBE1250
 24459 2458 86080000 		.4byte	.LBB1251
 24460 245c 9C080000 		.4byte	.LBE1251
 24461 2460 A0080000 		.4byte	.LBB1252
 24462 2464 A2080000 		.4byte	.LBE1252
 24463 2468 00000000 		.4byte	0
 24464 246c 00000000 		.4byte	0
 24465 2470 A8080000 		.4byte	.LBB1256
 24466 2474 C2080000 		.4byte	.LBE1256
 24467 2478 CC080000 		.4byte	.LBB1260
 24468 247c D0080000 		.4byte	.LBE1260
 24469 2480 DC080000 		.4byte	.LBB1261
 24470 2484 DE080000 		.4byte	.LBE1261
 24471 2488 00000000 		.4byte	0
 24472 248c 00000000 		.4byte	0
ARM GAS  C:\Users\Mohamad\AppData\Local\Temp\ccDsqi1j.s 			page 431


 24473 2490 A8080000 		.4byte	.LBB1257
 24474 2494 C2080000 		.4byte	.LBE1257
 24475 2498 CC080000 		.4byte	.LBB1258
 24476 249c D0080000 		.4byte	.LBE1258
 24477 24a0 DC080000 		.4byte	.LBB1259
 24478 24a4 DE080000 		.4byte	.LBE1259
 24479 24a8 00000000 		.4byte	0
 24480 24ac 00000000 		.4byte	0
 24481 24b0 C2080000 		.4byte	.LBB1291
 24482 24b4 C8080000 		.4byte	.LBE1291
 24483 24b8 D4080000 		.4byte	.LBB1299
 24484 24bc DC080000 		.4byte	.LBE1299
 24485 24c0 DE080000 		.4byte	.LBB1301
 24486 24c4 E0080000 		.4byte	.LBE1301
 24487 24c8 E4080000 		.4byte	.LBB1303
 24488 24cc EA080000 		.4byte	.LBE1303
 24489 24d0 EC080000 		.4byte	.LBB1304
 24490 24d4 F0080000 		.4byte	.LBE1304
 24491 24d8 F6080000 		.4byte	.LBB1305
 24492 24dc FA080000 		.4byte	.LBE1305
 24493 24e0 00000000 		.4byte	0
 24494 24e4 00000000 		.4byte	0
 24495 24e8 C2080000 		.4byte	.LBB1292
 24496 24ec C8080000 		.4byte	.LBE1292
 24497 24f0 D4080000 		.4byte	.LBB1293
 24498 24f4 DC080000 		.4byte	.LBE1293
 24499 24f8 DE080000 		.4byte	.LBB1294
 24500 24fc E0080000 		.4byte	.LBE1294
 24501 2500 E4080000 		.4byte	.LBB1295
 24502 2504 EA080000 		.4byte	.LBE1295
 24503 2508 EC080000 		.4byte	.LBB1296
 24504 250c F0080000 		.4byte	.LBE1296
 24505 2510 F6080000 		.4byte	.LBB1297
 24506 2514 FA080000 		.4byte	.LBE1297
 24507 2518 00000000 		.4byte	0
 24508 251c 00000000 		.4byte	0
 24509 2520 10000000 		.4byte	.LBB1330
 24510 2524 14000000 		.4byte	.LBE1330
 24511 2528 3A000000 		.4byte	.LBB1467
 24512 252c 8C000000 		.4byte	.LBE1467
 24513 2530 90000000 		.4byte	.LBB1468
 24514 2534 56010000 		.4byte	.LBE1468
 24515 2538 5C010000 		.4byte	.LBB1476
 24516 253c 64010000 		.4byte	.LBE1476
 24517 2540 6C010000 		.4byte	.LBB1478
 24518 2544 6E010000 		.4byte	.LBE1478
 24519 2548 70010000 		.4byte	.LBB1480
 24520 254c 78010000 		.4byte	.LBE1480
 24521 2550 00000000 		.4byte	0
 24522 2554 00000000 		.4byte	0
 24523 2558 10000000 		.4byte	.LBB1331
 24524 255c 14000000 		.4byte	.LBE1331
 24525 2560 3A000000 		.4byte	.LBB1462
 24526 2564 8C000000 		.4byte	.LBE1462
 24527 2568 90000000 		.4byte	.LBB1463
 24528 256c 56010000 		.4byte	.LBE1463
 24529 2570 5C010000 		.4byte	.LBB1464
ARM GAS  C:\Users\Mohamad\AppData\Local\Temp\ccDsqi1j.s 			page 432


 24530 2574 64010000 		.4byte	.LBE1464
 24531 2578 6C010000 		.4byte	.LBB1465
 24532 257c 6E010000 		.4byte	.LBE1465
 24533 2580 70010000 		.4byte	.LBB1466
 24534 2584 78010000 		.4byte	.LBE1466
 24535 2588 00000000 		.4byte	0
 24536 258c 00000000 		.4byte	0
 24537 2590 10000000 		.4byte	.LBB1332
 24538 2594 14000000 		.4byte	.LBE1332
 24539 2598 3A000000 		.4byte	.LBB1446
 24540 259c 3E000000 		.4byte	.LBE1446
 24541 25a0 40000000 		.4byte	.LBB1447
 24542 25a4 50000000 		.4byte	.LBE1447
 24543 25a8 52000000 		.4byte	.LBB1448
 24544 25ac 72000000 		.4byte	.LBE1448
 24545 25b0 74000000 		.4byte	.LBB1449
 24546 25b4 78000000 		.4byte	.LBE1449
 24547 25b8 7E000000 		.4byte	.LBB1450
 24548 25bc 82000000 		.4byte	.LBE1450
 24549 25c0 84000000 		.4byte	.LBB1451
 24550 25c4 8C000000 		.4byte	.LBE1451
 24551 25c8 98000000 		.4byte	.LBB1452
 24552 25cc 9C000000 		.4byte	.LBE1452
 24553 25d0 9E000000 		.4byte	.LBB1453
 24554 25d4 A2000000 		.4byte	.LBE1453
 24555 25d8 AC000000 		.4byte	.LBB1454
 24556 25dc B0000000 		.4byte	.LBE1454
 24557 25e0 B6000000 		.4byte	.LBB1455
 24558 25e4 CE000000 		.4byte	.LBE1455
 24559 25e8 D2000000 		.4byte	.LBB1456
 24560 25ec DC000000 		.4byte	.LBE1456
 24561 25f0 DE000000 		.4byte	.LBB1457
 24562 25f4 E2000000 		.4byte	.LBE1457
 24563 25f8 E4000000 		.4byte	.LBB1458
 24564 25fc 56010000 		.4byte	.LBE1458
 24565 2600 5C010000 		.4byte	.LBB1459
 24566 2604 64010000 		.4byte	.LBE1459
 24567 2608 6C010000 		.4byte	.LBB1460
 24568 260c 6E010000 		.4byte	.LBE1460
 24569 2610 70010000 		.4byte	.LBB1461
 24570 2614 78010000 		.4byte	.LBE1461
 24571 2618 00000000 		.4byte	0
 24572 261c 00000000 		.4byte	0
 24573 2620 10000000 		.4byte	.LBB1333
 24574 2624 14000000 		.4byte	.LBE1333
 24575 2628 3A000000 		.4byte	.LBB1430
 24576 262c 3E000000 		.4byte	.LBE1430
 24577 2630 40000000 		.4byte	.LBB1431
 24578 2634 50000000 		.4byte	.LBE1431
 24579 2638 52000000 		.4byte	.LBB1432
 24580 263c 72000000 		.4byte	.LBE1432
 24581 2640 74000000 		.4byte	.LBB1433
 24582 2644 78000000 		.4byte	.LBE1433
 24583 2648 7E000000 		.4byte	.LBB1434
 24584 264c 82000000 		.4byte	.LBE1434
 24585 2650 84000000 		.4byte	.LBB1435
 24586 2654 8C000000 		.4byte	.LBE1435
ARM GAS  C:\Users\Mohamad\AppData\Local\Temp\ccDsqi1j.s 			page 433


 24587 2658 98000000 		.4byte	.LBB1436
 24588 265c 9C000000 		.4byte	.LBE1436
 24589 2660 9E000000 		.4byte	.LBB1437
 24590 2664 A2000000 		.4byte	.LBE1437
 24591 2668 AC000000 		.4byte	.LBB1438
 24592 266c B0000000 		.4byte	.LBE1438
 24593 2670 B6000000 		.4byte	.LBB1439
 24594 2674 CE000000 		.4byte	.LBE1439
 24595 2678 D2000000 		.4byte	.LBB1440
 24596 267c DC000000 		.4byte	.LBE1440
 24597 2680 DE000000 		.4byte	.LBB1441
 24598 2684 E2000000 		.4byte	.LBE1441
 24599 2688 E4000000 		.4byte	.LBB1442
 24600 268c 56010000 		.4byte	.LBE1442
 24601 2690 5C010000 		.4byte	.LBB1443
 24602 2694 64010000 		.4byte	.LBE1443
 24603 2698 6C010000 		.4byte	.LBB1444
 24604 269c 6E010000 		.4byte	.LBE1444
 24605 26a0 70010000 		.4byte	.LBB1445
 24606 26a4 78010000 		.4byte	.LBE1445
 24607 26a8 00000000 		.4byte	0
 24608 26ac 00000000 		.4byte	0
 24609 26b0 10000000 		.4byte	.LBB1334
 24610 26b4 14000000 		.4byte	.LBE1334
 24611 26b8 3A000000 		.4byte	.LBB1414
 24612 26bc 3E000000 		.4byte	.LBE1414
 24613 26c0 40000000 		.4byte	.LBB1415
 24614 26c4 50000000 		.4byte	.LBE1415
 24615 26c8 52000000 		.4byte	.LBB1416
 24616 26cc 72000000 		.4byte	.LBE1416
 24617 26d0 74000000 		.4byte	.LBB1417
 24618 26d4 78000000 		.4byte	.LBE1417
 24619 26d8 7E000000 		.4byte	.LBB1418
 24620 26dc 82000000 		.4byte	.LBE1418
 24621 26e0 84000000 		.4byte	.LBB1419
 24622 26e4 8C000000 		.4byte	.LBE1419
 24623 26e8 98000000 		.4byte	.LBB1420
 24624 26ec 9C000000 		.4byte	.LBE1420
 24625 26f0 9E000000 		.4byte	.LBB1421
 24626 26f4 A2000000 		.4byte	.LBE1421
 24627 26f8 AC000000 		.4byte	.LBB1422
 24628 26fc B0000000 		.4byte	.LBE1422
 24629 2700 B6000000 		.4byte	.LBB1423
 24630 2704 CE000000 		.4byte	.LBE1423
 24631 2708 D2000000 		.4byte	.LBB1424
 24632 270c DC000000 		.4byte	.LBE1424
 24633 2710 DE000000 		.4byte	.LBB1425
 24634 2714 E2000000 		.4byte	.LBE1425
 24635 2718 E4000000 		.4byte	.LBB1426
 24636 271c 56010000 		.4byte	.LBE1426
 24637 2720 5C010000 		.4byte	.LBB1427
 24638 2724 64010000 		.4byte	.LBE1427
 24639 2728 6C010000 		.4byte	.LBB1428
 24640 272c 6E010000 		.4byte	.LBE1428
 24641 2730 70010000 		.4byte	.LBB1429
 24642 2734 78010000 		.4byte	.LBE1429
 24643 2738 00000000 		.4byte	0
ARM GAS  C:\Users\Mohamad\AppData\Local\Temp\ccDsqi1j.s 			page 434


 24644 273c 00000000 		.4byte	0
 24645 2740 10000000 		.4byte	.LBB1335
 24646 2744 14000000 		.4byte	.LBE1335
 24647 2748 3A000000 		.4byte	.LBB1398
 24648 274c 3E000000 		.4byte	.LBE1398
 24649 2750 40000000 		.4byte	.LBB1399
 24650 2754 50000000 		.4byte	.LBE1399
 24651 2758 52000000 		.4byte	.LBB1400
 24652 275c 72000000 		.4byte	.LBE1400
 24653 2760 74000000 		.4byte	.LBB1401
 24654 2764 78000000 		.4byte	.LBE1401
 24655 2768 7E000000 		.4byte	.LBB1402
 24656 276c 82000000 		.4byte	.LBE1402
 24657 2770 84000000 		.4byte	.LBB1403
 24658 2774 8C000000 		.4byte	.LBE1403
 24659 2778 98000000 		.4byte	.LBB1404
 24660 277c 9C000000 		.4byte	.LBE1404
 24661 2780 9E000000 		.4byte	.LBB1405
 24662 2784 A2000000 		.4byte	.LBE1405
 24663 2788 AC000000 		.4byte	.LBB1406
 24664 278c B0000000 		.4byte	.LBE1406
 24665 2790 B6000000 		.4byte	.LBB1407
 24666 2794 CE000000 		.4byte	.LBE1407
 24667 2798 D2000000 		.4byte	.LBB1408
 24668 279c DC000000 		.4byte	.LBE1408
 24669 27a0 DE000000 		.4byte	.LBB1409
 24670 27a4 E2000000 		.4byte	.LBE1409
 24671 27a8 E4000000 		.4byte	.LBB1410
 24672 27ac 56010000 		.4byte	.LBE1410
 24673 27b0 5C010000 		.4byte	.LBB1411
 24674 27b4 64010000 		.4byte	.LBE1411
 24675 27b8 6C010000 		.4byte	.LBB1412
 24676 27bc 6E010000 		.4byte	.LBE1412
 24677 27c0 70010000 		.4byte	.LBB1413
 24678 27c4 78010000 		.4byte	.LBE1413
 24679 27c8 00000000 		.4byte	0
 24680 27cc 00000000 		.4byte	0
 24681 27d0 40000000 		.4byte	.LBB1336
 24682 27d4 50000000 		.4byte	.LBE1336
 24683 27d8 52000000 		.4byte	.LBB1370
 24684 27dc 72000000 		.4byte	.LBE1370
 24685 27e0 74000000 		.4byte	.LBB1371
 24686 27e4 78000000 		.4byte	.LBE1371
 24687 27e8 7E000000 		.4byte	.LBB1372
 24688 27ec 82000000 		.4byte	.LBE1372
 24689 27f0 84000000 		.4byte	.LBB1373
 24690 27f4 8C000000 		.4byte	.LBE1373
 24691 27f8 98000000 		.4byte	.LBB1374
 24692 27fc 9C000000 		.4byte	.LBE1374
 24693 2800 9E000000 		.4byte	.LBB1375
 24694 2804 A2000000 		.4byte	.LBE1375
 24695 2808 AC000000 		.4byte	.LBB1376
 24696 280c B0000000 		.4byte	.LBE1376
 24697 2810 B6000000 		.4byte	.LBB1377
 24698 2814 C4000000 		.4byte	.LBE1377
 24699 2818 C8000000 		.4byte	.LBB1378
 24700 281c CC000000 		.4byte	.LBE1378
ARM GAS  C:\Users\Mohamad\AppData\Local\Temp\ccDsqi1j.s 			page 435


 24701 2820 D8000000 		.4byte	.LBB1379
 24702 2824 DC000000 		.4byte	.LBE1379
 24703 2828 00000000 		.4byte	0
 24704 282c 00000000 		.4byte	0
 24705 2830 40000000 		.4byte	.LBB1337
 24706 2834 50000000 		.4byte	.LBE1337
 24707 2838 52000000 		.4byte	.LBB1360
 24708 283c 72000000 		.4byte	.LBE1360
 24709 2840 74000000 		.4byte	.LBB1361
 24710 2844 78000000 		.4byte	.LBE1361
 24711 2848 7E000000 		.4byte	.LBB1362
 24712 284c 82000000 		.4byte	.LBE1362
 24713 2850 84000000 		.4byte	.LBB1363
 24714 2854 8C000000 		.4byte	.LBE1363
 24715 2858 98000000 		.4byte	.LBB1364
 24716 285c 9C000000 		.4byte	.LBE1364
 24717 2860 9E000000 		.4byte	.LBB1365
 24718 2864 A2000000 		.4byte	.LBE1365
 24719 2868 AC000000 		.4byte	.LBB1366
 24720 286c B0000000 		.4byte	.LBE1366
 24721 2870 B6000000 		.4byte	.LBB1367
 24722 2874 C4000000 		.4byte	.LBE1367
 24723 2878 C8000000 		.4byte	.LBB1368
 24724 287c CC000000 		.4byte	.LBE1368
 24725 2880 D8000000 		.4byte	.LBB1369
 24726 2884 DC000000 		.4byte	.LBE1369
 24727 2888 00000000 		.4byte	0
 24728 288c 00000000 		.4byte	0
 24729 2890 40000000 		.4byte	.LBB1338
 24730 2894 50000000 		.4byte	.LBE1338
 24731 2898 52000000 		.4byte	.LBB1350
 24732 289c 72000000 		.4byte	.LBE1350
 24733 28a0 74000000 		.4byte	.LBB1351
 24734 28a4 78000000 		.4byte	.LBE1351
 24735 28a8 7E000000 		.4byte	.LBB1352
 24736 28ac 82000000 		.4byte	.LBE1352
 24737 28b0 84000000 		.4byte	.LBB1353
 24738 28b4 8C000000 		.4byte	.LBE1353
 24739 28b8 98000000 		.4byte	.LBB1354
 24740 28bc 9C000000 		.4byte	.LBE1354
 24741 28c0 9E000000 		.4byte	.LBB1355
 24742 28c4 A2000000 		.4byte	.LBE1355
 24743 28c8 AC000000 		.4byte	.LBB1356
 24744 28cc B0000000 		.4byte	.LBE1356
 24745 28d0 B6000000 		.4byte	.LBB1357
 24746 28d4 C4000000 		.4byte	.LBE1357
 24747 28d8 C8000000 		.4byte	.LBB1358
 24748 28dc CC000000 		.4byte	.LBE1358
 24749 28e0 D8000000 		.4byte	.LBB1359
 24750 28e4 DC000000 		.4byte	.LBE1359
 24751 28e8 00000000 		.4byte	0
 24752 28ec 00000000 		.4byte	0
 24753 28f0 40000000 		.4byte	.LBB1339
 24754 28f4 50000000 		.4byte	.LBE1339
 24755 28f8 52000000 		.4byte	.LBB1340
 24756 28fc 72000000 		.4byte	.LBE1340
 24757 2900 74000000 		.4byte	.LBB1341
ARM GAS  C:\Users\Mohamad\AppData\Local\Temp\ccDsqi1j.s 			page 436


 24758 2904 78000000 		.4byte	.LBE1341
 24759 2908 7E000000 		.4byte	.LBB1342
 24760 290c 82000000 		.4byte	.LBE1342
 24761 2910 84000000 		.4byte	.LBB1343
 24762 2914 8C000000 		.4byte	.LBE1343
 24763 2918 98000000 		.4byte	.LBB1344
 24764 291c 9C000000 		.4byte	.LBE1344
 24765 2920 9E000000 		.4byte	.LBB1345
 24766 2924 A2000000 		.4byte	.LBE1345
 24767 2928 AC000000 		.4byte	.LBB1346
 24768 292c B0000000 		.4byte	.LBE1346
 24769 2930 B6000000 		.4byte	.LBB1347
 24770 2934 C4000000 		.4byte	.LBE1347
 24771 2938 C8000000 		.4byte	.LBB1348
 24772 293c CC000000 		.4byte	.LBE1348
 24773 2940 D8000000 		.4byte	.LBB1349
 24774 2944 DC000000 		.4byte	.LBE1349
 24775 2948 00000000 		.4byte	0
 24776 294c 00000000 		.4byte	0
 24777 2950 00010000 		.4byte	.LBB1382
 24778 2954 02010000 		.4byte	.LBE1382
 24779 2958 06010000 		.4byte	.LBB1388
 24780 295c 1E010000 		.4byte	.LBE1388
 24781 2960 20010000 		.4byte	.LBB1389
 24782 2964 32010000 		.4byte	.LBE1389
 24783 2968 34010000 		.4byte	.LBB1390
 24784 296c 38010000 		.4byte	.LBE1390
 24785 2970 3A010000 		.4byte	.LBB1391
 24786 2974 3C010000 		.4byte	.LBE1391
 24787 2978 00000000 		.4byte	0
 24788 297c 00000000 		.4byte	0
 24789 2980 00010000 		.4byte	.LBB1383
 24790 2984 02010000 		.4byte	.LBE1383
 24791 2988 06010000 		.4byte	.LBB1384
 24792 298c 1E010000 		.4byte	.LBE1384
 24793 2990 20010000 		.4byte	.LBB1385
 24794 2994 32010000 		.4byte	.LBE1385
 24795 2998 34010000 		.4byte	.LBB1386
 24796 299c 38010000 		.4byte	.LBE1386
 24797 29a0 3A010000 		.4byte	.LBB1387
 24798 29a4 3C010000 		.4byte	.LBE1387
 24799 29a8 00000000 		.4byte	0
 24800 29ac 00000000 		.4byte	0
 24801 29b0 42010000 		.4byte	.LBB1392
 24802 29b4 56010000 		.4byte	.LBE1392
 24803 29b8 5C010000 		.4byte	.LBB1396
 24804 29bc 60010000 		.4byte	.LBE1396
 24805 29c0 6C010000 		.4byte	.LBB1397
 24806 29c4 6E010000 		.4byte	.LBE1397
 24807 29c8 00000000 		.4byte	0
 24808 29cc 00000000 		.4byte	0
 24809 29d0 42010000 		.4byte	.LBB1393
 24810 29d4 56010000 		.4byte	.LBE1393
 24811 29d8 5C010000 		.4byte	.LBB1394
 24812 29dc 60010000 		.4byte	.LBE1394
 24813 29e0 6C010000 		.4byte	.LBB1395
 24814 29e4 6E010000 		.4byte	.LBE1395
ARM GAS  C:\Users\Mohamad\AppData\Local\Temp\ccDsqi1j.s 			page 437


 24815 29e8 00000000 		.4byte	0
 24816 29ec 00000000 		.4byte	0
 24817 29f0 56010000 		.4byte	.LBB1469
 24818 29f4 5C010000 		.4byte	.LBE1469
 24819 29f8 64010000 		.4byte	.LBB1477
 24820 29fc 6C010000 		.4byte	.LBE1477
 24821 2a00 6E010000 		.4byte	.LBB1479
 24822 2a04 70010000 		.4byte	.LBE1479
 24823 2a08 78010000 		.4byte	.LBB1481
 24824 2a0c 7E010000 		.4byte	.LBE1481
 24825 2a10 80010000 		.4byte	.LBB1482
 24826 2a14 82010000 		.4byte	.LBE1482
 24827 2a18 88010000 		.4byte	.LBB1483
 24828 2a1c 8C010000 		.4byte	.LBE1483
 24829 2a20 00000000 		.4byte	0
 24830 2a24 00000000 		.4byte	0
 24831 2a28 56010000 		.4byte	.LBB1470
 24832 2a2c 5C010000 		.4byte	.LBE1470
 24833 2a30 64010000 		.4byte	.LBB1471
 24834 2a34 6C010000 		.4byte	.LBE1471
 24835 2a38 6E010000 		.4byte	.LBB1472
 24836 2a3c 70010000 		.4byte	.LBE1472
 24837 2a40 78010000 		.4byte	.LBB1473
 24838 2a44 7E010000 		.4byte	.LBE1473
 24839 2a48 80010000 		.4byte	.LBB1474
 24840 2a4c 82010000 		.4byte	.LBE1474
 24841 2a50 88010000 		.4byte	.LBB1475
 24842 2a54 8C010000 		.4byte	.LBE1475
 24843 2a58 00000000 		.4byte	0
 24844 2a5c 00000000 		.4byte	0
 24845 2a60 0C000000 		.4byte	.LBB1508
 24846 2a64 10000000 		.4byte	.LBE1508
 24847 2a68 70000000 		.4byte	.LBB1625
 24848 2a6c C8000000 		.4byte	.LBE1625
 24849 2a70 CC000000 		.4byte	.LBB1626
 24850 2a74 88010000 		.4byte	.LBE1626
 24851 2a78 8E010000 		.4byte	.LBB1634
 24852 2a7c 98010000 		.4byte	.LBE1634
 24853 2a80 A0010000 		.4byte	.LBB1636
 24854 2a84 A2010000 		.4byte	.LBE1636
 24855 2a88 A4010000 		.4byte	.LBB1638
 24856 2a8c A8010000 		.4byte	.LBE1638
 24857 2a90 00000000 		.4byte	0
 24858 2a94 00000000 		.4byte	0
 24859 2a98 0C000000 		.4byte	.LBB1509
 24860 2a9c 10000000 		.4byte	.LBE1509
 24861 2aa0 70000000 		.4byte	.LBB1620
 24862 2aa4 C8000000 		.4byte	.LBE1620
 24863 2aa8 CC000000 		.4byte	.LBB1621
 24864 2aac 88010000 		.4byte	.LBE1621
 24865 2ab0 8E010000 		.4byte	.LBB1622
 24866 2ab4 98010000 		.4byte	.LBE1622
 24867 2ab8 A0010000 		.4byte	.LBB1623
 24868 2abc A2010000 		.4byte	.LBE1623
 24869 2ac0 A4010000 		.4byte	.LBB1624
 24870 2ac4 A8010000 		.4byte	.LBE1624
 24871 2ac8 00000000 		.4byte	0
ARM GAS  C:\Users\Mohamad\AppData\Local\Temp\ccDsqi1j.s 			page 438


 24872 2acc 00000000 		.4byte	0
 24873 2ad0 0C000000 		.4byte	.LBB1510
 24874 2ad4 10000000 		.4byte	.LBE1510
 24875 2ad8 70000000 		.4byte	.LBB1606
 24876 2adc 74000000 		.4byte	.LBE1606
 24877 2ae0 76000000 		.4byte	.LBB1607
 24878 2ae4 A6000000 		.4byte	.LBE1607
 24879 2ae8 B2000000 		.4byte	.LBB1608
 24880 2aec BA000000 		.4byte	.LBE1608
 24881 2af0 C0000000 		.4byte	.LBB1609
 24882 2af4 C8000000 		.4byte	.LBE1609
 24883 2af8 D0000000 		.4byte	.LBB1610
 24884 2afc D4000000 		.4byte	.LBE1610
 24885 2b00 D8000000 		.4byte	.LBB1611
 24886 2b04 DC000000 		.4byte	.LBE1611
 24887 2b08 E2000000 		.4byte	.LBB1612
 24888 2b0c E6000000 		.4byte	.LBE1612
 24889 2b10 EA000000 		.4byte	.LBB1613
 24890 2b14 04010000 		.4byte	.LBE1613
 24891 2b18 08010000 		.4byte	.LBB1614
 24892 2b1c 0E010000 		.4byte	.LBE1614
 24893 2b20 10010000 		.4byte	.LBB1615
 24894 2b24 12010000 		.4byte	.LBE1615
 24895 2b28 14010000 		.4byte	.LBB1616
 24896 2b2c 88010000 		.4byte	.LBE1616
 24897 2b30 8E010000 		.4byte	.LBB1617
 24898 2b34 98010000 		.4byte	.LBE1617
 24899 2b38 A0010000 		.4byte	.LBB1618
 24900 2b3c A2010000 		.4byte	.LBE1618
 24901 2b40 A4010000 		.4byte	.LBB1619
 24902 2b44 A8010000 		.4byte	.LBE1619
 24903 2b48 00000000 		.4byte	0
 24904 2b4c 00000000 		.4byte	0
 24905 2b50 0C000000 		.4byte	.LBB1511
 24906 2b54 10000000 		.4byte	.LBE1511
 24907 2b58 70000000 		.4byte	.LBB1592
 24908 2b5c 74000000 		.4byte	.LBE1592
 24909 2b60 76000000 		.4byte	.LBB1593
 24910 2b64 A6000000 		.4byte	.LBE1593
 24911 2b68 B2000000 		.4byte	.LBB1594
 24912 2b6c BA000000 		.4byte	.LBE1594
 24913 2b70 C0000000 		.4byte	.LBB1595
 24914 2b74 C8000000 		.4byte	.LBE1595
 24915 2b78 D0000000 		.4byte	.LBB1596
 24916 2b7c D4000000 		.4byte	.LBE1596
 24917 2b80 D8000000 		.4byte	.LBB1597
 24918 2b84 DC000000 		.4byte	.LBE1597
 24919 2b88 E2000000 		.4byte	.LBB1598
 24920 2b8c E6000000 		.4byte	.LBE1598
 24921 2b90 EA000000 		.4byte	.LBB1599
 24922 2b94 04010000 		.4byte	.LBE1599
 24923 2b98 08010000 		.4byte	.LBB1600
 24924 2b9c 0E010000 		.4byte	.LBE1600
 24925 2ba0 10010000 		.4byte	.LBB1601
 24926 2ba4 12010000 		.4byte	.LBE1601
 24927 2ba8 14010000 		.4byte	.LBB1602
 24928 2bac 88010000 		.4byte	.LBE1602
ARM GAS  C:\Users\Mohamad\AppData\Local\Temp\ccDsqi1j.s 			page 439


 24929 2bb0 8E010000 		.4byte	.LBB1603
 24930 2bb4 98010000 		.4byte	.LBE1603
 24931 2bb8 A0010000 		.4byte	.LBB1604
 24932 2bbc A2010000 		.4byte	.LBE1604
 24933 2bc0 A4010000 		.4byte	.LBB1605
 24934 2bc4 A8010000 		.4byte	.LBE1605
 24935 2bc8 00000000 		.4byte	0
 24936 2bcc 00000000 		.4byte	0
 24937 2bd0 0C000000 		.4byte	.LBB1512
 24938 2bd4 10000000 		.4byte	.LBE1512
 24939 2bd8 70000000 		.4byte	.LBB1578
 24940 2bdc 74000000 		.4byte	.LBE1578
 24941 2be0 76000000 		.4byte	.LBB1579
 24942 2be4 A6000000 		.4byte	.LBE1579
 24943 2be8 B2000000 		.4byte	.LBB1580
 24944 2bec BA000000 		.4byte	.LBE1580
 24945 2bf0 C0000000 		.4byte	.LBB1581
 24946 2bf4 C8000000 		.4byte	.LBE1581
 24947 2bf8 D0000000 		.4byte	.LBB1582
 24948 2bfc D4000000 		.4byte	.LBE1582
 24949 2c00 D8000000 		.4byte	.LBB1583
 24950 2c04 DC000000 		.4byte	.LBE1583
 24951 2c08 E2000000 		.4byte	.LBB1584
 24952 2c0c E6000000 		.4byte	.LBE1584
 24953 2c10 EA000000 		.4byte	.LBB1585
 24954 2c14 04010000 		.4byte	.LBE1585
 24955 2c18 08010000 		.4byte	.LBB1586
 24956 2c1c 0E010000 		.4byte	.LBE1586
 24957 2c20 10010000 		.4byte	.LBB1587
 24958 2c24 12010000 		.4byte	.LBE1587
 24959 2c28 14010000 		.4byte	.LBB1588
 24960 2c2c 88010000 		.4byte	.LBE1588
 24961 2c30 8E010000 		.4byte	.LBB1589
 24962 2c34 98010000 		.4byte	.LBE1589
 24963 2c38 A0010000 		.4byte	.LBB1590
 24964 2c3c A2010000 		.4byte	.LBE1590
 24965 2c40 A4010000 		.4byte	.LBB1591
 24966 2c44 A8010000 		.4byte	.LBE1591
 24967 2c48 00000000 		.4byte	0
 24968 2c4c 00000000 		.4byte	0
 24969 2c50 0C000000 		.4byte	.LBB1513
 24970 2c54 10000000 		.4byte	.LBE1513
 24971 2c58 70000000 		.4byte	.LBB1564
 24972 2c5c 74000000 		.4byte	.LBE1564
 24973 2c60 76000000 		.4byte	.LBB1565
 24974 2c64 A6000000 		.4byte	.LBE1565
 24975 2c68 B2000000 		.4byte	.LBB1566
 24976 2c6c BA000000 		.4byte	.LBE1566
 24977 2c70 C0000000 		.4byte	.LBB1567
 24978 2c74 C8000000 		.4byte	.LBE1567
 24979 2c78 D0000000 		.4byte	.LBB1568
 24980 2c7c D4000000 		.4byte	.LBE1568
 24981 2c80 D8000000 		.4byte	.LBB1569
 24982 2c84 DC000000 		.4byte	.LBE1569
 24983 2c88 E2000000 		.4byte	.LBB1570
 24984 2c8c E6000000 		.4byte	.LBE1570
 24985 2c90 EA000000 		.4byte	.LBB1571
ARM GAS  C:\Users\Mohamad\AppData\Local\Temp\ccDsqi1j.s 			page 440


 24986 2c94 04010000 		.4byte	.LBE1571
 24987 2c98 08010000 		.4byte	.LBB1572
 24988 2c9c 0E010000 		.4byte	.LBE1572
 24989 2ca0 10010000 		.4byte	.LBB1573
 24990 2ca4 12010000 		.4byte	.LBE1573
 24991 2ca8 14010000 		.4byte	.LBB1574
 24992 2cac 88010000 		.4byte	.LBE1574
 24993 2cb0 8E010000 		.4byte	.LBB1575
 24994 2cb4 98010000 		.4byte	.LBE1575
 24995 2cb8 A0010000 		.4byte	.LBB1576
 24996 2cbc A2010000 		.4byte	.LBE1576
 24997 2cc0 A4010000 		.4byte	.LBB1577
 24998 2cc4 A8010000 		.4byte	.LBE1577
 24999 2cc8 00000000 		.4byte	0
 25000 2ccc 00000000 		.4byte	0
 25001 2cd0 76000000 		.4byte	.LBB1514
 25002 2cd4 A6000000 		.4byte	.LBE1514
 25003 2cd8 B2000000 		.4byte	.LBB1539
 25004 2cdc BA000000 		.4byte	.LBE1539
 25005 2ce0 C0000000 		.4byte	.LBB1540
 25006 2ce4 C8000000 		.4byte	.LBE1540
 25007 2ce8 D0000000 		.4byte	.LBB1541
 25008 2cec D4000000 		.4byte	.LBE1541
 25009 2cf0 D8000000 		.4byte	.LBB1542
 25010 2cf4 DC000000 		.4byte	.LBE1542
 25011 2cf8 E2000000 		.4byte	.LBB1543
 25012 2cfc E6000000 		.4byte	.LBE1543
 25013 2d00 EA000000 		.4byte	.LBB1544
 25014 2d04 02010000 		.4byte	.LBE1544
 25015 2d08 08010000 		.4byte	.LBB1545
 25016 2d0c 0C010000 		.4byte	.LBE1545
 25017 2d10 00000000 		.4byte	0
 25018 2d14 00000000 		.4byte	0
 25019 2d18 76000000 		.4byte	.LBB1515
 25020 2d1c A6000000 		.4byte	.LBE1515
 25021 2d20 B2000000 		.4byte	.LBB1532
 25022 2d24 BA000000 		.4byte	.LBE1532
 25023 2d28 C0000000 		.4byte	.LBB1533
 25024 2d2c C8000000 		.4byte	.LBE1533
 25025 2d30 D0000000 		.4byte	.LBB1534
 25026 2d34 D4000000 		.4byte	.LBE1534
 25027 2d38 D8000000 		.4byte	.LBB1535
 25028 2d3c DC000000 		.4byte	.LBE1535
 25029 2d40 E2000000 		.4byte	.LBB1536
 25030 2d44 E6000000 		.4byte	.LBE1536
 25031 2d48 EA000000 		.4byte	.LBB1537
 25032 2d4c 02010000 		.4byte	.LBE1537
 25033 2d50 08010000 		.4byte	.LBB1538
 25034 2d54 0C010000 		.4byte	.LBE1538
 25035 2d58 00000000 		.4byte	0
 25036 2d5c 00000000 		.4byte	0
 25037 2d60 76000000 		.4byte	.LBB1516
 25038 2d64 A6000000 		.4byte	.LBE1516
 25039 2d68 B2000000 		.4byte	.LBB1525
 25040 2d6c BA000000 		.4byte	.LBE1525
 25041 2d70 C0000000 		.4byte	.LBB1526
 25042 2d74 C8000000 		.4byte	.LBE1526
ARM GAS  C:\Users\Mohamad\AppData\Local\Temp\ccDsqi1j.s 			page 441


 25043 2d78 D0000000 		.4byte	.LBB1527
 25044 2d7c D4000000 		.4byte	.LBE1527
 25045 2d80 D8000000 		.4byte	.LBB1528
 25046 2d84 DC000000 		.4byte	.LBE1528
 25047 2d88 E2000000 		.4byte	.LBB1529
 25048 2d8c E6000000 		.4byte	.LBE1529
 25049 2d90 EA000000 		.4byte	.LBB1530
 25050 2d94 02010000 		.4byte	.LBE1530
 25051 2d98 08010000 		.4byte	.LBB1531
 25052 2d9c 0C010000 		.4byte	.LBE1531
 25053 2da0 00000000 		.4byte	0
 25054 2da4 00000000 		.4byte	0
 25055 2da8 76000000 		.4byte	.LBB1517
 25056 2dac A6000000 		.4byte	.LBE1517
 25057 2db0 B2000000 		.4byte	.LBB1518
 25058 2db4 BA000000 		.4byte	.LBE1518
 25059 2db8 C0000000 		.4byte	.LBB1519
 25060 2dbc C8000000 		.4byte	.LBE1519
 25061 2dc0 D0000000 		.4byte	.LBB1520
 25062 2dc4 D4000000 		.4byte	.LBE1520
 25063 2dc8 D8000000 		.4byte	.LBB1521
 25064 2dcc DC000000 		.4byte	.LBE1521
 25065 2dd0 E2000000 		.4byte	.LBB1522
 25066 2dd4 E6000000 		.4byte	.LBE1522
 25067 2dd8 EA000000 		.4byte	.LBB1523
 25068 2ddc 02010000 		.4byte	.LBE1523
 25069 2de0 08010000 		.4byte	.LBB1524
 25070 2de4 0C010000 		.4byte	.LBE1524
 25071 2de8 00000000 		.4byte	0
 25072 2dec 00000000 		.4byte	0
 25073 2df0 30010000 		.4byte	.LBB1548
 25074 2df4 32010000 		.4byte	.LBE1548
 25075 2df8 36010000 		.4byte	.LBB1554
 25076 2dfc 4E010000 		.4byte	.LBE1554
 25077 2e00 50010000 		.4byte	.LBB1555
 25078 2e04 62010000 		.4byte	.LBE1555
 25079 2e08 64010000 		.4byte	.LBB1556
 25080 2e0c 68010000 		.4byte	.LBE1556
 25081 2e10 6A010000 		.4byte	.LBB1557
 25082 2e14 6C010000 		.4byte	.LBE1557
 25083 2e18 00000000 		.4byte	0
 25084 2e1c 00000000 		.4byte	0
 25085 2e20 30010000 		.4byte	.LBB1549
 25086 2e24 32010000 		.4byte	.LBE1549
 25087 2e28 36010000 		.4byte	.LBB1550
 25088 2e2c 4E010000 		.4byte	.LBE1550
 25089 2e30 50010000 		.4byte	.LBB1551
 25090 2e34 62010000 		.4byte	.LBE1551
 25091 2e38 64010000 		.4byte	.LBB1552
 25092 2e3c 68010000 		.4byte	.LBE1552
 25093 2e40 6A010000 		.4byte	.LBB1553
 25094 2e44 6C010000 		.4byte	.LBE1553
 25095 2e48 00000000 		.4byte	0
 25096 2e4c 00000000 		.4byte	0
 25097 2e50 72010000 		.4byte	.LBB1558
 25098 2e54 88010000 		.4byte	.LBE1558
 25099 2e58 92010000 		.4byte	.LBB1562
ARM GAS  C:\Users\Mohamad\AppData\Local\Temp\ccDsqi1j.s 			page 442


 25100 2e5c 94010000 		.4byte	.LBE1562
 25101 2e60 A0010000 		.4byte	.LBB1563
 25102 2e64 A2010000 		.4byte	.LBE1563
 25103 2e68 00000000 		.4byte	0
 25104 2e6c 00000000 		.4byte	0
 25105 2e70 72010000 		.4byte	.LBB1559
 25106 2e74 88010000 		.4byte	.LBE1559
 25107 2e78 92010000 		.4byte	.LBB1560
 25108 2e7c 94010000 		.4byte	.LBE1560
 25109 2e80 A0010000 		.4byte	.LBB1561
 25110 2e84 A2010000 		.4byte	.LBE1561
 25111 2e88 00000000 		.4byte	0
 25112 2e8c 00000000 		.4byte	0
 25113 2e90 88010000 		.4byte	.LBB1627
 25114 2e94 8E010000 		.4byte	.LBE1627
 25115 2e98 98010000 		.4byte	.LBB1635
 25116 2e9c A0010000 		.4byte	.LBE1635
 25117 2ea0 A2010000 		.4byte	.LBB1637
 25118 2ea4 A4010000 		.4byte	.LBE1637
 25119 2ea8 A8010000 		.4byte	.LBB1639
 25120 2eac AE010000 		.4byte	.LBE1639
 25121 2eb0 B0010000 		.4byte	.LBB1640
 25122 2eb4 B2010000 		.4byte	.LBE1640
 25123 2eb8 B8010000 		.4byte	.LBB1641
 25124 2ebc BC010000 		.4byte	.LBE1641
 25125 2ec0 00000000 		.4byte	0
 25126 2ec4 00000000 		.4byte	0
 25127 2ec8 88010000 		.4byte	.LBB1628
 25128 2ecc 8E010000 		.4byte	.LBE1628
 25129 2ed0 98010000 		.4byte	.LBB1629
 25130 2ed4 A0010000 		.4byte	.LBE1629
 25131 2ed8 A2010000 		.4byte	.LBB1630
 25132 2edc A4010000 		.4byte	.LBE1630
 25133 2ee0 A8010000 		.4byte	.LBB1631
 25134 2ee4 AE010000 		.4byte	.LBE1631
 25135 2ee8 B0010000 		.4byte	.LBB1632
 25136 2eec B2010000 		.4byte	.LBE1632
 25137 2ef0 B8010000 		.4byte	.LBB1633
 25138 2ef4 BC010000 		.4byte	.LBE1633
 25139 2ef8 00000000 		.4byte	0
 25140 2efc 00000000 		.4byte	0
 25141 2f00 34000000 		.4byte	.LBB1666
 25142 2f04 46010000 		.4byte	.LBE1666
 25143 2f08 4C010000 		.4byte	.LBB1732
 25144 2f0c 56010000 		.4byte	.LBE1732
 25145 2f10 5E010000 		.4byte	.LBB1734
 25146 2f14 60010000 		.4byte	.LBE1734
 25147 2f18 62010000 		.4byte	.LBB1736
 25148 2f1c 66010000 		.4byte	.LBE1736
 25149 2f20 00000000 		.4byte	0
 25150 2f24 00000000 		.4byte	0
 25151 2f28 34000000 		.4byte	.LBB1667
 25152 2f2c 46010000 		.4byte	.LBE1667
 25153 2f30 4C010000 		.4byte	.LBB1722
 25154 2f34 56010000 		.4byte	.LBE1722
 25155 2f38 5E010000 		.4byte	.LBB1723
 25156 2f3c 60010000 		.4byte	.LBE1723
ARM GAS  C:\Users\Mohamad\AppData\Local\Temp\ccDsqi1j.s 			page 443


 25157 2f40 62010000 		.4byte	.LBB1724
 25158 2f44 66010000 		.4byte	.LBE1724
 25159 2f48 00000000 		.4byte	0
 25160 2f4c 00000000 		.4byte	0
 25161 2f50 64000000 		.4byte	.LBB1668
 25162 2f54 66000000 		.4byte	.LBE1668
 25163 2f58 68000000 		.4byte	.LBB1716
 25164 2f5c C6000000 		.4byte	.LBE1716
 25165 2f60 C8000000 		.4byte	.LBB1717
 25166 2f64 CE000000 		.4byte	.LBE1717
 25167 2f68 D0000000 		.4byte	.LBB1718
 25168 2f6c 46010000 		.4byte	.LBE1718
 25169 2f70 4C010000 		.4byte	.LBB1719
 25170 2f74 56010000 		.4byte	.LBE1719
 25171 2f78 5E010000 		.4byte	.LBB1720
 25172 2f7c 60010000 		.4byte	.LBE1720
 25173 2f80 62010000 		.4byte	.LBB1721
 25174 2f84 66010000 		.4byte	.LBE1721
 25175 2f88 00000000 		.4byte	0
 25176 2f8c 00000000 		.4byte	0
 25177 2f90 64000000 		.4byte	.LBB1669
 25178 2f94 66000000 		.4byte	.LBE1669
 25179 2f98 68000000 		.4byte	.LBB1710
 25180 2f9c C6000000 		.4byte	.LBE1710
 25181 2fa0 C8000000 		.4byte	.LBB1711
 25182 2fa4 CE000000 		.4byte	.LBE1711
 25183 2fa8 D0000000 		.4byte	.LBB1712
 25184 2fac 46010000 		.4byte	.LBE1712
 25185 2fb0 4C010000 		.4byte	.LBB1713
 25186 2fb4 56010000 		.4byte	.LBE1713
 25187 2fb8 5E010000 		.4byte	.LBB1714
 25188 2fbc 60010000 		.4byte	.LBE1714
 25189 2fc0 62010000 		.4byte	.LBB1715
 25190 2fc4 66010000 		.4byte	.LBE1715
 25191 2fc8 00000000 		.4byte	0
 25192 2fcc 00000000 		.4byte	0
 25193 2fd0 64000000 		.4byte	.LBB1670
 25194 2fd4 66000000 		.4byte	.LBE1670
 25195 2fd8 68000000 		.4byte	.LBB1704
 25196 2fdc C6000000 		.4byte	.LBE1704
 25197 2fe0 C8000000 		.4byte	.LBB1705
 25198 2fe4 CE000000 		.4byte	.LBE1705
 25199 2fe8 D0000000 		.4byte	.LBB1706
 25200 2fec 46010000 		.4byte	.LBE1706
 25201 2ff0 4C010000 		.4byte	.LBB1707
 25202 2ff4 56010000 		.4byte	.LBE1707
 25203 2ff8 5E010000 		.4byte	.LBB1708
 25204 2ffc 60010000 		.4byte	.LBE1708
 25205 3000 62010000 		.4byte	.LBB1709
 25206 3004 66010000 		.4byte	.LBE1709
 25207 3008 00000000 		.4byte	0
 25208 300c 00000000 		.4byte	0
 25209 3010 64000000 		.4byte	.LBB1671
 25210 3014 66000000 		.4byte	.LBE1671
 25211 3018 68000000 		.4byte	.LBB1698
 25212 301c C6000000 		.4byte	.LBE1698
 25213 3020 C8000000 		.4byte	.LBB1699
ARM GAS  C:\Users\Mohamad\AppData\Local\Temp\ccDsqi1j.s 			page 444


 25214 3024 CE000000 		.4byte	.LBE1699
 25215 3028 D0000000 		.4byte	.LBB1700
 25216 302c 46010000 		.4byte	.LBE1700
 25217 3030 4C010000 		.4byte	.LBB1701
 25218 3034 56010000 		.4byte	.LBE1701
 25219 3038 5E010000 		.4byte	.LBB1702
 25220 303c 60010000 		.4byte	.LBE1702
 25221 3040 62010000 		.4byte	.LBB1703
 25222 3044 66010000 		.4byte	.LBE1703
 25223 3048 00000000 		.4byte	0
 25224 304c 00000000 		.4byte	0
 25225 3050 6A000000 		.4byte	.LBB1672
 25226 3054 C6000000 		.4byte	.LBE1672
 25227 3058 CA000000 		.4byte	.LBB1679
 25228 305c CE000000 		.4byte	.LBE1679
 25229 3060 00000000 		.4byte	0
 25230 3064 00000000 		.4byte	0
 25231 3068 6A000000 		.4byte	.LBB1673
 25232 306c C6000000 		.4byte	.LBE1673
 25233 3070 CA000000 		.4byte	.LBB1678
 25234 3074 CE000000 		.4byte	.LBE1678
 25235 3078 00000000 		.4byte	0
 25236 307c 00000000 		.4byte	0
 25237 3080 6A000000 		.4byte	.LBB1674
 25238 3084 C6000000 		.4byte	.LBE1674
 25239 3088 CA000000 		.4byte	.LBB1677
 25240 308c CE000000 		.4byte	.LBE1677
 25241 3090 00000000 		.4byte	0
 25242 3094 00000000 		.4byte	0
 25243 3098 6A000000 		.4byte	.LBB1675
 25244 309c C6000000 		.4byte	.LBE1675
 25245 30a0 CA000000 		.4byte	.LBB1676
 25246 30a4 CE000000 		.4byte	.LBE1676
 25247 30a8 00000000 		.4byte	0
 25248 30ac 00000000 		.4byte	0
 25249 30b0 EE000000 		.4byte	.LBB1682
 25250 30b4 F0000000 		.4byte	.LBE1682
 25251 30b8 F4000000 		.4byte	.LBB1688
 25252 30bc 0C010000 		.4byte	.LBE1688
 25253 30c0 0E010000 		.4byte	.LBB1689
 25254 30c4 20010000 		.4byte	.LBE1689
 25255 30c8 22010000 		.4byte	.LBB1690
 25256 30cc 26010000 		.4byte	.LBE1690
 25257 30d0 28010000 		.4byte	.LBB1691
 25258 30d4 2A010000 		.4byte	.LBE1691
 25259 30d8 00000000 		.4byte	0
 25260 30dc 00000000 		.4byte	0
 25261 30e0 EE000000 		.4byte	.LBB1683
 25262 30e4 F0000000 		.4byte	.LBE1683
 25263 30e8 F4000000 		.4byte	.LBB1684
 25264 30ec 0C010000 		.4byte	.LBE1684
 25265 30f0 0E010000 		.4byte	.LBB1685
 25266 30f4 20010000 		.4byte	.LBE1685
 25267 30f8 22010000 		.4byte	.LBB1686
 25268 30fc 26010000 		.4byte	.LBE1686
 25269 3100 28010000 		.4byte	.LBB1687
 25270 3104 2A010000 		.4byte	.LBE1687
ARM GAS  C:\Users\Mohamad\AppData\Local\Temp\ccDsqi1j.s 			page 445


 25271 3108 00000000 		.4byte	0
 25272 310c 00000000 		.4byte	0
 25273 3110 30010000 		.4byte	.LBB1692
 25274 3114 46010000 		.4byte	.LBE1692
 25275 3118 50010000 		.4byte	.LBB1696
 25276 311c 52010000 		.4byte	.LBE1696
 25277 3120 5E010000 		.4byte	.LBB1697
 25278 3124 60010000 		.4byte	.LBE1697
 25279 3128 00000000 		.4byte	0
 25280 312c 00000000 		.4byte	0
 25281 3130 30010000 		.4byte	.LBB1693
 25282 3134 46010000 		.4byte	.LBE1693
 25283 3138 50010000 		.4byte	.LBB1694
 25284 313c 52010000 		.4byte	.LBE1694
 25285 3140 5E010000 		.4byte	.LBB1695
 25286 3144 60010000 		.4byte	.LBE1695
 25287 3148 00000000 		.4byte	0
 25288 314c 00000000 		.4byte	0
 25289 3150 46010000 		.4byte	.LBB1725
 25290 3154 4C010000 		.4byte	.LBE1725
 25291 3158 56010000 		.4byte	.LBB1733
 25292 315c 5E010000 		.4byte	.LBE1733
 25293 3160 60010000 		.4byte	.LBB1735
 25294 3164 62010000 		.4byte	.LBE1735
 25295 3168 66010000 		.4byte	.LBB1737
 25296 316c 6C010000 		.4byte	.LBE1737
 25297 3170 6E010000 		.4byte	.LBB1738
 25298 3174 70010000 		.4byte	.LBE1738
 25299 3178 76010000 		.4byte	.LBB1739
 25300 317c 7A010000 		.4byte	.LBE1739
 25301 3180 00000000 		.4byte	0
 25302 3184 00000000 		.4byte	0
 25303 3188 46010000 		.4byte	.LBB1726
 25304 318c 4C010000 		.4byte	.LBE1726
 25305 3190 56010000 		.4byte	.LBB1727
 25306 3194 5E010000 		.4byte	.LBE1727
 25307 3198 60010000 		.4byte	.LBB1728
 25308 319c 62010000 		.4byte	.LBE1728
 25309 31a0 66010000 		.4byte	.LBB1729
 25310 31a4 6C010000 		.4byte	.LBE1729
 25311 31a8 6E010000 		.4byte	.LBB1730
 25312 31ac 70010000 		.4byte	.LBE1730
 25313 31b0 76010000 		.4byte	.LBB1731
 25314 31b4 7A010000 		.4byte	.LBE1731
 25315 31b8 00000000 		.4byte	0
 25316 31bc 00000000 		.4byte	0
 25317 31c0 04000000 		.4byte	.LBB1764
 25318 31c4 0C000000 		.4byte	.LBE1764
 25319 31c8 0E000000 		.4byte	.LBB1858
 25320 31cc A8020000 		.4byte	.LBE1858
 25321 31d0 B0020000 		.4byte	.LBB1865
 25322 31d4 C2020000 		.4byte	.LBE1865
 25323 31d8 C6020000 		.4byte	.LBB1867
 25324 31dc CA020000 		.4byte	.LBE1867
 25325 31e0 CC020000 		.4byte	.LBB1869
 25326 31e4 E8020000 		.4byte	.LBE1869
 25327 31e8 00000000 		.4byte	0
ARM GAS  C:\Users\Mohamad\AppData\Local\Temp\ccDsqi1j.s 			page 446


 25328 31ec 00000000 		.4byte	0
 25329 31f0 04000000 		.4byte	.LBB1765
 25330 31f4 0C000000 		.4byte	.LBE1765
 25331 31f8 0E000000 		.4byte	.LBB1854
 25332 31fc A8020000 		.4byte	.LBE1854
 25333 3200 B0020000 		.4byte	.LBB1855
 25334 3204 C2020000 		.4byte	.LBE1855
 25335 3208 C6020000 		.4byte	.LBB1856
 25336 320c CA020000 		.4byte	.LBE1856
 25337 3210 CC020000 		.4byte	.LBB1857
 25338 3214 E8020000 		.4byte	.LBE1857
 25339 3218 00000000 		.4byte	0
 25340 321c 00000000 		.4byte	0
 25341 3220 04000000 		.4byte	.LBB1766
 25342 3224 0C000000 		.4byte	.LBE1766
 25343 3228 0E000000 		.4byte	.LBB1844
 25344 322c 34000000 		.4byte	.LBE1844
 25345 3230 3C000000 		.4byte	.LBB1845
 25346 3234 40000000 		.4byte	.LBE1845
 25347 3238 44000000 		.4byte	.LBB1846
 25348 323c 4C000000 		.4byte	.LBE1846
 25349 3240 62000000 		.4byte	.LBB1847
 25350 3244 72000000 		.4byte	.LBE1847
 25351 3248 7A000000 		.4byte	.LBB1848
 25352 324c 82000000 		.4byte	.LBE1848
 25353 3250 8A000000 		.4byte	.LBB1849
 25354 3254 A4020000 		.4byte	.LBE1849
 25355 3258 B0020000 		.4byte	.LBB1850
 25356 325c B8020000 		.4byte	.LBE1850
 25357 3260 BC020000 		.4byte	.LBB1851
 25358 3264 C2020000 		.4byte	.LBE1851
 25359 3268 C6020000 		.4byte	.LBB1852
 25360 326c CA020000 		.4byte	.LBE1852
 25361 3270 CC020000 		.4byte	.LBB1853
 25362 3274 E8020000 		.4byte	.LBE1853
 25363 3278 00000000 		.4byte	0
 25364 327c 00000000 		.4byte	0
 25365 3280 04000000 		.4byte	.LBB1767
 25366 3284 0C000000 		.4byte	.LBE1767
 25367 3288 0E000000 		.4byte	.LBB1834
 25368 328c 34000000 		.4byte	.LBE1834
 25369 3290 3C000000 		.4byte	.LBB1835
 25370 3294 40000000 		.4byte	.LBE1835
 25371 3298 44000000 		.4byte	.LBB1836
 25372 329c 4C000000 		.4byte	.LBE1836
 25373 32a0 62000000 		.4byte	.LBB1837
 25374 32a4 72000000 		.4byte	.LBE1837
 25375 32a8 7A000000 		.4byte	.LBB1838
 25376 32ac 82000000 		.4byte	.LBE1838
 25377 32b0 8A000000 		.4byte	.LBB1839
 25378 32b4 A4020000 		.4byte	.LBE1839
 25379 32b8 B0020000 		.4byte	.LBB1840
 25380 32bc B8020000 		.4byte	.LBE1840
 25381 32c0 BC020000 		.4byte	.LBB1841
 25382 32c4 C2020000 		.4byte	.LBE1841
 25383 32c8 C6020000 		.4byte	.LBB1842
 25384 32cc CA020000 		.4byte	.LBE1842
ARM GAS  C:\Users\Mohamad\AppData\Local\Temp\ccDsqi1j.s 			page 447


 25385 32d0 CC020000 		.4byte	.LBB1843
 25386 32d4 E8020000 		.4byte	.LBE1843
 25387 32d8 00000000 		.4byte	0
 25388 32dc 00000000 		.4byte	0
 25389 32e0 04000000 		.4byte	.LBB1768
 25390 32e4 0C000000 		.4byte	.LBE1768
 25391 32e8 0E000000 		.4byte	.LBB1824
 25392 32ec 34000000 		.4byte	.LBE1824
 25393 32f0 3C000000 		.4byte	.LBB1825
 25394 32f4 40000000 		.4byte	.LBE1825
 25395 32f8 44000000 		.4byte	.LBB1826
 25396 32fc 4C000000 		.4byte	.LBE1826
 25397 3300 62000000 		.4byte	.LBB1827
 25398 3304 72000000 		.4byte	.LBE1827
 25399 3308 7A000000 		.4byte	.LBB1828
 25400 330c 82000000 		.4byte	.LBE1828
 25401 3310 8A000000 		.4byte	.LBB1829
 25402 3314 A4020000 		.4byte	.LBE1829
 25403 3318 B0020000 		.4byte	.LBB1830
 25404 331c B8020000 		.4byte	.LBE1830
 25405 3320 BC020000 		.4byte	.LBB1831
 25406 3324 C2020000 		.4byte	.LBE1831
 25407 3328 C6020000 		.4byte	.LBB1832
 25408 332c CA020000 		.4byte	.LBE1832
 25409 3330 CC020000 		.4byte	.LBB1833
 25410 3334 E8020000 		.4byte	.LBE1833
 25411 3338 00000000 		.4byte	0
 25412 333c 00000000 		.4byte	0
 25413 3340 04000000 		.4byte	.LBB1769
 25414 3344 0C000000 		.4byte	.LBE1769
 25415 3348 0E000000 		.4byte	.LBB1814
 25416 334c 34000000 		.4byte	.LBE1814
 25417 3350 3C000000 		.4byte	.LBB1815
 25418 3354 40000000 		.4byte	.LBE1815
 25419 3358 44000000 		.4byte	.LBB1816
 25420 335c 4C000000 		.4byte	.LBE1816
 25421 3360 62000000 		.4byte	.LBB1817
 25422 3364 72000000 		.4byte	.LBE1817
 25423 3368 7A000000 		.4byte	.LBB1818
 25424 336c 82000000 		.4byte	.LBE1818
 25425 3370 8A000000 		.4byte	.LBB1819
 25426 3374 A4020000 		.4byte	.LBE1819
 25427 3378 B0020000 		.4byte	.LBB1820
 25428 337c B8020000 		.4byte	.LBE1820
 25429 3380 BC020000 		.4byte	.LBB1821
 25430 3384 C2020000 		.4byte	.LBE1821
 25431 3388 C6020000 		.4byte	.LBB1822
 25432 338c CA020000 		.4byte	.LBE1822
 25433 3390 CC020000 		.4byte	.LBB1823
 25434 3394 E8020000 		.4byte	.LBE1823
 25435 3398 00000000 		.4byte	0
 25436 339c 00000000 		.4byte	0
 25437 33a0 10000000 		.4byte	.LBB1770
 25438 33a4 34000000 		.4byte	.LBE1770
 25439 33a8 3C000000 		.4byte	.LBB1792
 25440 33ac 40000000 		.4byte	.LBE1792
 25441 33b0 44000000 		.4byte	.LBB1793
ARM GAS  C:\Users\Mohamad\AppData\Local\Temp\ccDsqi1j.s 			page 448


 25442 33b4 4C000000 		.4byte	.LBE1793
 25443 33b8 62000000 		.4byte	.LBB1794
 25444 33bc 72000000 		.4byte	.LBE1794
 25445 33c0 7A000000 		.4byte	.LBB1795
 25446 33c4 82000000 		.4byte	.LBE1795
 25447 33c8 8A000000 		.4byte	.LBB1796
 25448 33cc A0000000 		.4byte	.LBE1796
 25449 33d0 BE000000 		.4byte	.LBB1807
 25450 33d4 C6000000 		.4byte	.LBE1807
 25451 33d8 00000000 		.4byte	0
 25452 33dc 00000000 		.4byte	0
 25453 33e0 10000000 		.4byte	.LBB1771
 25454 33e4 34000000 		.4byte	.LBE1771
 25455 33e8 3C000000 		.4byte	.LBB1786
 25456 33ec 40000000 		.4byte	.LBE1786
 25457 33f0 44000000 		.4byte	.LBB1787
 25458 33f4 4C000000 		.4byte	.LBE1787
 25459 33f8 62000000 		.4byte	.LBB1788
 25460 33fc 72000000 		.4byte	.LBE1788
 25461 3400 7A000000 		.4byte	.LBB1789
 25462 3404 82000000 		.4byte	.LBE1789
 25463 3408 8A000000 		.4byte	.LBB1790
 25464 340c A0000000 		.4byte	.LBE1790
 25465 3410 BE000000 		.4byte	.LBB1791
 25466 3414 C6000000 		.4byte	.LBE1791
 25467 3418 00000000 		.4byte	0
 25468 341c 00000000 		.4byte	0
 25469 3420 10000000 		.4byte	.LBB1772
 25470 3424 34000000 		.4byte	.LBE1772
 25471 3428 3C000000 		.4byte	.LBB1780
 25472 342c 40000000 		.4byte	.LBE1780
 25473 3430 44000000 		.4byte	.LBB1781
 25474 3434 4C000000 		.4byte	.LBE1781
 25475 3438 62000000 		.4byte	.LBB1782
 25476 343c 72000000 		.4byte	.LBE1782
 25477 3440 7A000000 		.4byte	.LBB1783
 25478 3444 82000000 		.4byte	.LBE1783
 25479 3448 8A000000 		.4byte	.LBB1784
 25480 344c A0000000 		.4byte	.LBE1784
 25481 3450 BE000000 		.4byte	.LBB1785
 25482 3454 C6000000 		.4byte	.LBE1785
 25483 3458 00000000 		.4byte	0
 25484 345c 00000000 		.4byte	0
 25485 3460 10000000 		.4byte	.LBB1773
 25486 3464 34000000 		.4byte	.LBE1773
 25487 3468 3C000000 		.4byte	.LBB1774
 25488 346c 40000000 		.4byte	.LBE1774
 25489 3470 44000000 		.4byte	.LBB1775
 25490 3474 4C000000 		.4byte	.LBE1775
 25491 3478 62000000 		.4byte	.LBB1776
 25492 347c 72000000 		.4byte	.LBE1776
 25493 3480 7A000000 		.4byte	.LBB1777
 25494 3484 82000000 		.4byte	.LBE1777
 25495 3488 8A000000 		.4byte	.LBB1778
 25496 348c A0000000 		.4byte	.LBE1778
 25497 3490 BE000000 		.4byte	.LBB1779
 25498 3494 C6000000 		.4byte	.LBE1779
ARM GAS  C:\Users\Mohamad\AppData\Local\Temp\ccDsqi1j.s 			page 449


 25499 3498 00000000 		.4byte	0
 25500 349c 00000000 		.4byte	0
 25501 34a0 A0000000 		.4byte	.LBB1797
 25502 34a4 BE000000 		.4byte	.LBE1797
 25503 34a8 C6000000 		.4byte	.LBB1808
 25504 34ac DA010000 		.4byte	.LBE1808
 25505 34b0 DC010000 		.4byte	.LBB1809
 25506 34b4 8C020000 		.4byte	.LBE1809
 25507 34b8 00000000 		.4byte	0
 25508 34bc 00000000 		.4byte	0
 25509 34c0 A0000000 		.4byte	.LBB1798
 25510 34c4 BE000000 		.4byte	.LBE1798
 25511 34c8 C6000000 		.4byte	.LBB1805
 25512 34cc DA010000 		.4byte	.LBE1805
 25513 34d0 DC010000 		.4byte	.LBB1806
 25514 34d4 8C020000 		.4byte	.LBE1806
 25515 34d8 00000000 		.4byte	0
 25516 34dc 00000000 		.4byte	0
 25517 34e0 A0000000 		.4byte	.LBB1799
 25518 34e4 BE000000 		.4byte	.LBE1799
 25519 34e8 C6000000 		.4byte	.LBB1803
 25520 34ec DA010000 		.4byte	.LBE1803
 25521 34f0 DC010000 		.4byte	.LBB1804
 25522 34f4 8C020000 		.4byte	.LBE1804
 25523 34f8 00000000 		.4byte	0
 25524 34fc 00000000 		.4byte	0
 25525 3500 A0000000 		.4byte	.LBB1800
 25526 3504 BE000000 		.4byte	.LBE1800
 25527 3508 C6000000 		.4byte	.LBB1801
 25528 350c DA010000 		.4byte	.LBE1801
 25529 3510 DC010000 		.4byte	.LBB1802
 25530 3514 8C020000 		.4byte	.LBE1802
 25531 3518 00000000 		.4byte	0
 25532 351c 00000000 		.4byte	0
 25533 3520 8C020000 		.4byte	.LBB1810
 25534 3524 A4020000 		.4byte	.LBE1810
 25535 3528 D0020000 		.4byte	.LBB1813
 25536 352c D2020000 		.4byte	.LBE1813
 25537 3530 00000000 		.4byte	0
 25538 3534 00000000 		.4byte	0
 25539 3538 8C020000 		.4byte	.LBB1811
 25540 353c A4020000 		.4byte	.LBE1811
 25541 3540 D0020000 		.4byte	.LBB1812
 25542 3544 D2020000 		.4byte	.LBE1812
 25543 3548 00000000 		.4byte	0
 25544 354c 00000000 		.4byte	0
 25545 3550 A8020000 		.4byte	.LBB1859
 25546 3554 B0020000 		.4byte	.LBE1859
 25547 3558 C2020000 		.4byte	.LBB1866
 25548 355c C6020000 		.4byte	.LBE1866
 25549 3560 CA020000 		.4byte	.LBB1868
 25550 3564 CC020000 		.4byte	.LBE1868
 25551 3568 E8020000 		.4byte	.LBB1870
 25552 356c EC020000 		.4byte	.LBE1870
 25553 3570 F8020000 		.4byte	.LBB1871
 25554 3574 00030000 		.4byte	.LBE1871
 25555 3578 00000000 		.4byte	0
ARM GAS  C:\Users\Mohamad\AppData\Local\Temp\ccDsqi1j.s 			page 450


 25556 357c 00000000 		.4byte	0
 25557 3580 A8020000 		.4byte	.LBB1860
 25558 3584 B0020000 		.4byte	.LBE1860
 25559 3588 C2020000 		.4byte	.LBB1861
 25560 358c C6020000 		.4byte	.LBE1861
 25561 3590 CA020000 		.4byte	.LBB1862
 25562 3594 CC020000 		.4byte	.LBE1862
 25563 3598 E8020000 		.4byte	.LBB1863
 25564 359c EC020000 		.4byte	.LBE1863
 25565 35a0 F8020000 		.4byte	.LBB1864
 25566 35a4 00030000 		.4byte	.LBE1864
 25567 35a8 00000000 		.4byte	0
 25568 35ac 00000000 		.4byte	0
 25569 35b0 00000000 		.4byte	.LFB1532
 25570 35b4 02000000 		.4byte	.LFE1532
 25571 35b8 00000000 		.4byte	.LFB1533
 25572 35bc 1A000000 		.4byte	.LFE1533
 25573 35c0 00000000 		.4byte	.LFB1534
 25574 35c4 14000000 		.4byte	.LFE1534
 25575 35c8 00000000 		.4byte	.LFB1535
 25576 35cc 08000000 		.4byte	.LFE1535
 25577 35d0 00000000 		.4byte	.LFB1536
 25578 35d4 C40A0000 		.4byte	.LFE1536
 25579 35d8 00000000 		.4byte	.LFB1537
 25580 35dc 30090000 		.4byte	.LFE1537
 25581 35e0 00000000 		.4byte	.LFB1538
 25582 35e4 A8010000 		.4byte	.LFE1538
 25583 35e8 00000000 		.4byte	.LFB1539
 25584 35ec F0010000 		.4byte	.LFE1539
 25585 35f0 00000000 		.4byte	.LFB1540
 25586 35f4 A4010000 		.4byte	.LFE1540
 25587 35f8 00000000 		.4byte	.LFB1541
 25588 35fc 0A030000 		.4byte	.LFE1541
 25589 3600 00000000 		.4byte	0
 25590 3604 00000000 		.4byte	0
 25591              		.section	.debug_line,"",%progbits
 25592              	.Ldebug_line0:
 25593 0000 6D120000 		.section	.debug_str,"MS",%progbits,1
 25593      02005304 
 25593      00000201 
 25593      FB0E0D00 
 25593      01010101 
 25594              	.LASF146:
 25595 0000 55415254 		.ascii	"UART_TX_IDLE\000"
 25595      5F54585F 
 25595      49444C45 
 25595      00
 25596              	.LASF307:
 25597 000d 6368436F 		.ascii	"chCoreStatus\000"
 25597      72655374 
 25597      61747573 
 25597      00
 25598              	.LASF47:
 25599 001a 54687265 		.ascii	"ThreadsList\000"
 25599      6164734C 
 25599      69737400 
 25600              	.LASF53:
ARM GAS  C:\Users\Mohamad\AppData\Local\Temp\ccDsqi1j.s 			page 451


 25601 0026 76746675 		.ascii	"vtfunc_t\000"
 25601      6E635F74 
 25601      00
 25602              	.LASF272:
 25603 002f 69326366 		.ascii	"i2cfg2\000"
 25603      673200
 25604              	.LASF323:
 25605 0036 6D61696E 		.ascii	"main.c\000"
 25605      2E6300
 25606              	.LASF165:
 25607 003d 7478656E 		.ascii	"txend2_cb\000"
 25607      64325F63 
 25607      6200
 25608              	.LASF298:
 25609 0047 72656164 		.ascii	"reading\000"
 25609      696E6700 
 25610              	.LASF38:
 25611 004f 705F7469 		.ascii	"p_time\000"
 25611      6D6500
 25612              	.LASF104:
 25613 0056 42535252 		.ascii	"BSRR\000"
 25613      00
 25614              	.LASF207:
 25615 005b 7061636B 		.ascii	"packet_rx_success_count\000"
 25615      65745F72 
 25615      785F7375 
 25615      63636573 
 25615      735F636F 
 25616              	.LASF48:
 25617 0073 72656761 		.ascii	"regarm_t\000"
 25617      726D5F74 
 25617      00
 25618              	.LASF29:
 25619 007c 705F7072 		.ascii	"p_prio\000"
 25619      696F00
 25620              	.LASF222:
 25621 0083 74696D65 		.ascii	"time_boot_ms\000"
 25621      5F626F6F 
 25621      745F6D73 
 25621      00
 25622              	.LASF219:
 25623 0090 74656D70 		.ascii	"temperature\000"
 25623      65726174 
 25623      75726500 
 25624              	.LASF159:
 25625 009c 646D616D 		.ascii	"dmamode\000"
 25625      6F646500 
 25626              	.LASF319:
 25627 00a4 64636D5F 		.ascii	"dcm_init\000"
 25627      696E6974 
 25627      00
 25628              	.LASF180:
 25629 00ad 636F6D70 		.ascii	"compid\000"
 25629      696400
 25630              	.LASF195:
 25631 00b4 4D41564C 		.ascii	"MAVLINK_PARSE_STATE_GOT_MSGID\000"
 25631      494E4B5F 
ARM GAS  C:\Users\Mohamad\AppData\Local\Temp\ccDsqi1j.s 			page 452


 25631      50415253 
 25631      455F5354 
 25631      4154455F 
 25632              	.LASF140:
 25633 00d2 646D6172 		.ascii	"dmarx\000"
 25633      7800
 25634              	.LASF250:
 25635 00d8 62756666 		.ascii	"buffer\000"
 25635      657200
 25636              	.LASF233:
 25637 00df 6372635F 		.ascii	"crc_init\000"
 25637      696E6974 
 25637      00
 25638              	.LASF204:
 25639 00e8 7061636B 		.ascii	"packet_idx\000"
 25639      65745F69 
 25639      647800
 25640              	.LASF60:
 25641 00f3 76745F73 		.ascii	"vt_systime\000"
 25641      79737469 
 25641      6D6500
 25642              	.LASF114:
 25643 00fe 4932435F 		.ascii	"I2C_ACTIVE_RX\000"
 25643      41435449 
 25643      56455F52 
 25643      5800
 25644              	.LASF214:
 25645 010c 6D61766C 		.ascii	"mavlink_gps_raw_int_t\000"
 25645      696E6B5F 
 25645      6770735F 
 25645      7261775F 
 25645      696E745F 
 25646              	.LASF166:
 25647 0122 7278656E 		.ascii	"rxend_cb\000"
 25647      645F6362 
 25647      00
 25648              	.LASF131:
 25649 012b 49324344 		.ascii	"I2CDriver\000"
 25649      72697665 
 25649      7200
 25650              	.LASF215:
 25651 0135 5F5F6D61 		.ascii	"__mavlink_raw_pressure_t\000"
 25651      766C696E 
 25651      6B5F7261 
 25651      775F7072 
 25651      65737375 
 25652              	.LASF153:
 25653 014e 75617274 		.ascii	"uartrxstate_t\000"
 25653      72787374 
 25653      6174655F 
 25653      7400
 25654              	.LASF303:
 25655 015c 52656164 		.ascii	"ReadMPU\000"
 25655      4D505500 
 25656              	.LASF39:
 25657 0164 705F7761 		.ascii	"p_waiting\000"
 25657      6974696E 
ARM GAS  C:\Users\Mohamad\AppData\Local\Temp\ccDsqi1j.s 			page 453


 25657      6700
 25658              	.LASF123:
 25659 016e 5354445F 		.ascii	"STD_DUTY_CYCLE\000"
 25659      44555459 
 25659      5F435943 
 25659      4C4500
 25660              	.LASF224:
 25661 017d 70697463 		.ascii	"pitch\000"
 25661      6800
 25662              	.LASF157:
 25663 0183 72787374 		.ascii	"rxstate\000"
 25663      61746500 
 25664              	.LASF292:
 25665 018b 61747469 		.ascii	"attitude_send_enabled\000"
 25665      74756465 
 25665      5F73656E 
 25665      645F656E 
 25665      61626C65 
 25666              	.LASF68:
 25667 01a1 77746F62 		.ascii	"wtobjp\000"
 25667      6A7000
 25668              	.LASF274:
 25669 01a8 76746C69 		.ascii	"vtlist\000"
 25669      737400
 25670              	.LASF241:
 25671 01af 70427566 		.ascii	"pBuffer\000"
 25671      66657200 
 25672              	.LASF7:
 25673 01b7 73686F72 		.ascii	"short int\000"
 25673      7420696E 
 25673      7400
 25674              	.LASF189:
 25675 01c1 4D41564C 		.ascii	"MAVLINK_PARSE_STATE_IDLE\000"
 25675      494E4B5F 
 25675      50415253 
 25675      455F5354 
 25675      4154455F 
 25676              	.LASF72:
 25677 01da 4E445452 		.ascii	"NDTR\000"
 25677      00
 25678              	.LASF69:
 25679 01df 65776D61 		.ascii	"ewmask\000"
 25679      736B00
 25680              	.LASF322:
 25681 01e6 474E5520 		.ascii	"GNU C 4.7.4 20140401 (release) [ARM/embedded-4_7-br"
 25681      4320342E 
 25681      372E3420 
 25681      32303134 
 25681      30343031 
 25682 0219 616E6368 		.ascii	"anch revision 209195]\000"
 25682      20726576 
 25682      6973696F 
 25682      6E203230 
 25682      39313935 
 25683              	.LASF115:
 25684 022f 4932435F 		.ascii	"I2C_LOCKED\000"
 25684      4C4F434B 
ARM GAS  C:\Users\Mohamad\AppData\Local\Temp\ccDsqi1j.s 			page 454


 25684      454400
 25685              	.LASF181:
 25686 023a 6D736769 		.ascii	"msgid\000"
 25686      6400
 25687              	.LASF211:
 25688 0240 74696D65 		.ascii	"time_usec\000"
 25688      5F757365 
 25688      6300
 25689              	.LASF209:
 25690 024a 6D61766C 		.ascii	"mavlink_status_t\000"
 25690      696E6B5F 
 25690      73746174 
 25690      75735F74 
 25690      00
 25691              	.LASF260:
 25692 025b 6372635F 		.ascii	"crc_accumulate_buffer\000"
 25692      61636375 
 25692      6D756C61 
 25692      74655F62 
 25692      75666665 
 25693              	.LASF240:
 25694 0271 6372635F 		.ascii	"crc_calculate\000"
 25694      63616C63 
 25694      756C6174 
 25694      6500
 25695              	.LASF129:
 25696 027f 64757479 		.ascii	"duty_cycle\000"
 25696      5F637963 
 25696      6C6500
 25697              	.LASF169:
 25698 028a 73706565 		.ascii	"speed\000"
 25698      6400
 25699              	.LASF247:
 25700 0290 6372635F 		.ascii	"crc_extra\000"
 25700      65787472 
 25700      6100
 25701              	.LASF278:
 25702 029a 65616368 		.ascii	"eachLoopTime\000"
 25702      4C6F6F70 
 25702      54696D65 
 25702      00
 25703              	.LASF179:
 25704 02a7 73797369 		.ascii	"sysid\000"
 25704      6400
 25705              	.LASF258:
 25706 02ad 75617274 		.ascii	"uart3_txend2\000"
 25706      335F7478 
 25706      656E6432 
 25706      00
 25707              	.LASF193:
 25708 02ba 4D41564C 		.ascii	"MAVLINK_PARSE_STATE_GOT_SYSID\000"
 25708      494E4B5F 
 25708      50415253 
 25708      455F5354 
 25708      4154455F 
 25709              	.LASF216:
 25710 02d8 70726573 		.ascii	"press_abs\000"
ARM GAS  C:\Users\Mohamad\AppData\Local\Temp\ccDsqi1j.s 			page 455


 25710      735F6162 
 25710      7300
 25711              	.LASF141:
 25712 02e2 646D6174 		.ascii	"dmatx\000"
 25712      7800
 25713              	.LASF57:
 25714 02e8 76745F74 		.ascii	"vt_time\000"
 25714      696D6500 
 25715              	.LASF188:
 25716 02f0 4D41564C 		.ascii	"MAVLINK_PARSE_STATE_UNINIT\000"
 25716      494E4B5F 
 25716      50415253 
 25716      455F5354 
 25716      4154455F 
 25717              	.LASF155:
 25718 030b 55415254 		.ascii	"UARTDriver\000"
 25718      44726976 
 25718      657200
 25719              	.LASF119:
 25720 0316 4F504D4F 		.ascii	"OPMODE_I2C\000"
 25720      44455F49 
 25720      324300
 25721              	.LASF113:
 25722 0321 4932435F 		.ascii	"I2C_ACTIVE_TX\000"
 25722      41435449 
 25722      56455F54 
 25722      5800
 25723              	.LASF91:
 25724 032f 47545052 		.ascii	"GTPR\000"
 25724      00
 25725              	.LASF24:
 25726 0334 6576656E 		.ascii	"eventmask_t\000"
 25726      746D6173 
 25726      6B5F7400 
 25727              	.LASF94:
 25728 0340 69666372 		.ascii	"ifcr\000"
 25728      00
 25729              	.LASF59:
 25730 0345 76745F70 		.ascii	"vt_par\000"
 25730      617200
 25731              	.LASF239:
 25732 034c 6D61766C 		.ascii	"mavlink_get_channel_status\000"
 25732      696E6B5F 
 25732      6765745F 
 25732      6368616E 
 25732      6E656C5F 
 25733              	.LASF220:
 25734 0367 6D61766C 		.ascii	"mavlink_raw_pressure_t\000"
 25734      696E6B5F 
 25734      7261775F 
 25734      70726573 
 25734      73757265 
 25735              	.LASF135:
 25736 037e 6D757465 		.ascii	"mutex\000"
 25736      7800
 25737              	.LASF177:
 25738 0384 63686563 		.ascii	"checksum\000"
ARM GAS  C:\Users\Mohamad\AppData\Local\Temp\ccDsqi1j.s 			page 456


 25738      6B73756D 
 25738      00
 25739              	.LASF22:
 25740 038d 74707269 		.ascii	"tprio_t\000"
 25740      6F5F7400 
 25741              	.LASF248:
 25742 0395 6D61766C 		.ascii	"mavlink_finalize_message\000"
 25742      696E6B5F 
 25742      66696E61 
 25742      6C697A65 
 25742      5F6D6573 
 25743              	.LASF175:
 25744 03ae 56656374 		.ascii	"Vector3f\000"
 25744      6F723366 
 25744      00
 25745              	.LASF71:
 25746 03b7 7466756E 		.ascii	"tfunc_t\000"
 25746      635F7400 
 25747              	.LASF0:
 25748 03bf 6C6F6E67 		.ascii	"long long unsigned int\000"
 25748      206C6F6E 
 25748      6720756E 
 25748      7369676E 
 25748      65642069 
 25749              	.LASF184:
 25750 03d6 4D41564C 		.ascii	"MAVLINK_COMM_0\000"
 25750      494E4B5F 
 25750      434F4D4D 
 25750      5F3000
 25751              	.LASF97:
 25752 03e5 76656374 		.ascii	"vector\000"
 25752      6F7200
 25753              	.LASF185:
 25754 03ec 4D41564C 		.ascii	"MAVLINK_COMM_1\000"
 25754      494E4B5F 
 25754      434F4D4D 
 25754      5F3100
 25755              	.LASF237:
 25756 03fb 6368616E 		.ascii	"chan\000"
 25756      00
 25757              	.LASF134:
 25758 0400 6572726F 		.ascii	"errors\000"
 25758      727300
 25759              	.LASF116:
 25760 0407 69326373 		.ascii	"i2cstate_t\000"
 25760      74617465 
 25760      5F7400
 25761              	.LASF197:
 25762 0412 4D41564C 		.ascii	"MAVLINK_PARSE_STATE_GOT_CRC1\000"
 25762      494E4B5F 
 25762      50415253 
 25762      455F5354 
 25762      4154455F 
 25763              	.LASF130:
 25764 042f 49324343 		.ascii	"I2CConfig\000"
 25764      6F6E6669 
 25764      6700
ARM GAS  C:\Users\Mohamad\AppData\Local\Temp\ccDsqi1j.s 			page 457


 25765              	.LASF100:
 25766 0439 4D4F4445 		.ascii	"MODER\000"
 25766      5200
 25767              	.LASF253:
 25768 043f 6D61766C 		.ascii	"mavlink_msg_raw_pressure_pack\000"
 25768      696E6B5F 
 25768      6D73675F 
 25768      7261775F 
 25768      70726573 
 25769              	.LASF107:
 25770 045d 41465248 		.ascii	"AFRH\000"
 25770      00
 25771              	.LASF210:
 25772 0462 5F5F6D61 		.ascii	"__mavlink_gps_raw_int_t\000"
 25772      766C696E 
 25772      6B5F6770 
 25772      735F7261 
 25772      775F696E 
 25773              	.LASF106:
 25774 047a 4146524C 		.ascii	"AFRL\000"
 25774      00
 25775              	.LASF31:
 25776 047f 705F6E65 		.ascii	"p_newer\000"
 25776      77657200 
 25777              	.LASF99:
 25778 0487 636C6561 		.ascii	"clear\000"
 25778      7200
 25779              	.LASF313:
 25780 048d 68616C49 		.ascii	"halInit\000"
 25780      6E697400 
 25781              	.LASF126:
 25782 0495 69326364 		.ascii	"i2cdutycycle_t\000"
 25782      75747963 
 25782      79636C65 
 25782      5F7400
 25783              	.LASF118:
 25784 04a4 69326366 		.ascii	"i2cflags_t\000"
 25784      6C616773 
 25784      5F7400
 25785              	.LASF302:
 25786 04af 62756666 		.ascii	"buff\000"
 25786      00
 25787              	.LASF145:
 25788 04b4 75617274 		.ascii	"uartstate_t\000"
 25788      73746174 
 25788      655F7400 
 25789              	.LASF256:
 25790 04c0 75617274 		.ascii	"uartp\000"
 25790      7000
 25791              	.LASF3:
 25792 04c6 73697A65 		.ascii	"size_t\000"
 25792      5F7400
 25793              	.LASF66:
 25794 04cd 7264796D 		.ascii	"rdymsg\000"
 25794      736700
 25795              	.LASF320:
 25796 04d4 6D707536 		.ascii	"mpu6050_gyro_calibration\000"
ARM GAS  C:\Users\Mohamad\AppData\Local\Temp\ccDsqi1j.s 			page 458


 25796      3035305F 
 25796      6779726F 
 25796      5F63616C 
 25796      69627261 
 25797              	.LASF311:
 25798 04ed 696E735F 		.ascii	"ins_get_gyro\000"
 25798      6765745F 
 25798      6779726F 
 25798      00
 25799              	.LASF287:
 25800 04fa 75696E74 		.ascii	"uint16ToByte\000"
 25800      3136546F 
 25800      42797465 
 25800      00
 25801              	.LASF16:
 25802 0507 626F6F6C 		.ascii	"bool_t\000"
 25802      5F7400
 25803              	.LASF246:
 25804 050e 636F6D70 		.ascii	"component_id\000"
 25804      6F6E656E 
 25804      745F6964 
 25804      00
 25805              	.LASF249:
 25806 051b 6D61766C 		.ascii	"mavlink_msg_to_send_buffer\000"
 25806      696E6B5F 
 25806      6D73675F 
 25806      746F5F73 
 25806      656E645F 
 25807              	.LASF151:
 25808 0536 55415254 		.ascii	"UART_RX_ACTIVE\000"
 25808      5F52585F 
 25808      41435449 
 25808      564500
 25809              	.LASF17:
 25810 0545 5F426F6F 		.ascii	"_Bool\000"
 25810      6C00
 25811              	.LASF300:
 25812 054b 41636365 		.ascii	"AccelData\000"
 25812      6C446174 
 25812      6100
 25813              	.LASF230:
 25814 0555 6D61766C 		.ascii	"mavlink_attitude_quaternion_t\000"
 25814      696E6B5F 
 25814      61747469 
 25814      74756465 
 25814      5F717561 
 25815              	.LASF103:
 25816 0573 50555044 		.ascii	"PUPDR\000"
 25816      5200
 25817              	.LASF196:
 25818 0579 4D41564C 		.ascii	"MAVLINK_PARSE_STATE_GOT_PAYLOAD\000"
 25818      494E4B5F 
 25818      50415253 
 25818      455F5354 
 25818      4154455F 
 25819              	.LASF64:
 25820 0599 6D5F6F77 		.ascii	"m_owner\000"
ARM GAS  C:\Users\Mohamad\AppData\Local\Temp\ccDsqi1j.s 			page 459


 25820      6E657200 
 25821              	.LASF80:
 25822 05a1 4F415232 		.ascii	"OAR2\000"
 25822      00
 25823              	.LASF282:
 25824 05a6 6C617469 		.ascii	"latitude\000"
 25824      74756465 
 25824      00
 25825              	.LASF238:
 25826 05af 6D5F6D61 		.ascii	"m_mavlink_status\000"
 25826      766C696E 
 25826      6B5F7374 
 25826      61747573 
 25826      00
 25827              	.LASF301:
 25828 05c0 74696D65 		.ascii	"timeNow\000"
 25828      4E6F7700 
 25829              	.LASF92:
 25830 05c8 55534152 		.ascii	"USART_TypeDef\000"
 25830      545F5479 
 25830      70654465 
 25830      6600
 25831              	.LASF200:
 25832 05d6 6D73675F 		.ascii	"msg_received\000"
 25832      72656365 
 25832      69766564 
 25832      00
 25833              	.LASF73:
 25834 05e3 4D304152 		.ascii	"M0AR\000"
 25834      00
 25835              	.LASF62:
 25836 05e8 4D757465 		.ascii	"Mutex\000"
 25836      7800
 25837              	.LASF186:
 25838 05ee 4D41564C 		.ascii	"MAVLINK_COMM_2\000"
 25838      494E4B5F 
 25838      434F4D4D 
 25838      5F3200
 25839              	.LASF187:
 25840 05fd 4D41564C 		.ascii	"MAVLINK_COMM_3\000"
 25840      494E4B5F 
 25840      434F4D4D 
 25840      5F3300
 25841              	.LASF281:
 25842 060c 43757272 		.ascii	"CurrentAlt\000"
 25842      656E7441 
 25842      6C7400
 25843              	.LASF25:
 25844 0617 73797374 		.ascii	"systime_t\000"
 25844      696D655F 
 25844      7400
 25845              	.LASF310:
 25846 0621 696E735F 		.ascii	"ins_get_Accel\000"
 25846      6765745F 
 25846      41636365 
 25846      6C00
 25847              	.LASF270:
ARM GAS  C:\Users\Mohamad\AppData\Local\Temp\ccDsqi1j.s 			page 460


 25848 062f 656E6452 		.ascii	"endReadingLoop\000"
 25848      65616469 
 25848      6E674C6F 
 25848      6F7000
 25849              	.LASF33:
 25850 063e 705F6E61 		.ascii	"p_name\000"
 25850      6D6500
 25851              	.LASF317:
 25852 0645 6D707536 		.ascii	"mpu6050_init\000"
 25852      3035305F 
 25852      696E6974 
 25852      00
 25853              	.LASF243:
 25854 0652 63726354 		.ascii	"crcTmp\000"
 25854      6D7000
 25855              	.LASF283:
 25856 0659 6C6F6E67 		.ascii	"longitude\000"
 25856      69747564 
 25856      6500
 25857              	.LASF46:
 25858 0663 54687265 		.ascii	"ThreadsQueue\000"
 25858      61647351 
 25858      75657565 
 25858      00
 25859              	.LASF162:
 25860 0670 75617274 		.ascii	"uartccb_t\000"
 25860      6363625F 
 25860      7400
 25861              	.LASF70:
 25862 067a 63686172 		.ascii	"char\000"
 25862      00
 25863              	.LASF139:
 25864 067f 7478646D 		.ascii	"txdmamode\000"
 25864      616D6F64 
 25864      6500
 25865              	.LASF95:
 25866 0689 69736869 		.ascii	"ishift\000"
 25866      667400
 25867              	.LASF26:
 25868 0690 54687265 		.ascii	"Thread\000"
 25868      616400
 25869              	.LASF19:
 25870 0697 74737461 		.ascii	"tstate_t\000"
 25870      74655F74 
 25870      00
 25871              	.LASF284:
 25872 06a0 666C6F61 		.ascii	"floatToByte\000"
 25872      74546F42 
 25872      79746500 
 25873              	.LASF61:
 25874 06ac 56544C69 		.ascii	"VTList\000"
 25874      737400
 25875              	.LASF269:
 25876 06b3 62656769 		.ascii	"beginReadingLoop\000"
 25876      6E526561 
 25876      64696E67 
 25876      4C6F6F70 
ARM GAS  C:\Users\Mohamad\AppData\Local\Temp\ccDsqi1j.s 			page 461


 25876      00
 25877              	.LASF236:
 25878 06c4 64617461 		.ascii	"data\000"
 25878      00
 25879              	.LASF98:
 25880 06c9 73746D33 		.ascii	"stm32_dma_stream_t\000"
 25880      325F646D 
 25880      615F7374 
 25880      7265616D 
 25880      5F7400
 25881              	.LASF234:
 25882 06dc 6372635F 		.ascii	"crc_accumulate\000"
 25882      61636375 
 25882      6D756C61 
 25882      746500
 25883              	.LASF164:
 25884 06eb 7478656E 		.ascii	"txend1_cb\000"
 25884      64315F63 
 25884      6200
 25885              	.LASF125:
 25886 06f5 46415354 		.ascii	"FAST_DUTY_CYCLE_16_9\000"
 25886      5F445554 
 25886      595F4359 
 25886      434C455F 
 25886      31365F39 
 25887              	.LASF223:
 25888 070a 726F6C6C 		.ascii	"roll\000"
 25888      00
 25889              	.LASF4:
 25890 070f 75696E74 		.ascii	"uint8_t\000"
 25890      385F7400 
 25891              	.LASF324:
 25892 0717 433A5C43 		.ascii	"C:\\ChibiStudio\\workspace\\DCM_test_3\000"
 25892      68696269 
 25892      53747564 
 25892      696F5C77 
 25892      6F726B73 
 25893              	.LASF86:
 25894 073b 54524953 		.ascii	"TRISE\000"
 25894      4500
 25895              	.LASF262:
 25896 0741 53656E64 		.ascii	"Send_mavlink_rawImu\000"
 25896      5F6D6176 
 25896      6C696E6B 
 25896      5F726177 
 25896      496D7500 
 25897              	.LASF45:
 25898 0755 705F6D70 		.ascii	"p_mpool\000"
 25898      6F6F6C00 
 25899              	.LASF43:
 25900 075d 705F6D74 		.ascii	"p_mtxlist\000"
 25900      786C6973 
 25900      7400
 25901              	.LASF34:
 25902 0767 705F7374 		.ascii	"p_state\000"
 25902      61746500 
 25903              	.LASF170:
ARM GAS  C:\Users\Mohamad\AppData\Local\Temp\ccDsqi1j.s 			page 462


 25904 076f 55415254 		.ascii	"UARTConfig\000"
 25904      436F6E66 
 25904      696700
 25905              	.LASF276:
 25906 077a 49324344 		.ascii	"I2CD2\000"
 25906      3200
 25907              	.LASF273:
 25908 0780 54687265 		.ascii	"Thread_Unit\000"
 25908      61645F55 
 25908      6E697400 
 25909              	.LASF235:
 25910 078c 63726341 		.ascii	"crcAccum\000"
 25910      6363756D 
 25910      00
 25911              	.LASF158:
 25912 0795 75736172 		.ascii	"usart\000"
 25912      7400
 25913              	.LASF229:
 25914 079b 5F5F6D61 		.ascii	"__mavlink_attitude_quaternion_t\000"
 25914      766C696E 
 25914      6B5F6174 
 25914      74697475 
 25914      64655F71 
 25915              	.LASF315:
 25916 07bb 69326353 		.ascii	"i2cStart\000"
 25916      74617274 
 25916      00
 25917              	.LASF14:
 25918 07c4 6C6F6E67 		.ascii	"long long int\000"
 25918      206C6F6E 
 25918      6720696E 
 25918      7400
 25919              	.LASF299:
 25920 07d2 4779726F 		.ascii	"GyroData\000"
 25920      44617461 
 25920      00
 25921              	.LASF121:
 25922 07db 4F504D4F 		.ascii	"OPMODE_SMBUS_HOST\000"
 25922      44455F53 
 25922      4D425553 
 25922      5F484F53 
 25922      5400
 25923              	.LASF257:
 25924 07ed 72786368 		.ascii	"rxchar\000"
 25924      617200
 25925              	.LASF110:
 25926 07f4 4932435F 		.ascii	"I2C_UNINIT\000"
 25926      554E494E 
 25926      495400
 25927              	.LASF198:
 25928 07ff 6D61766C 		.ascii	"mavlink_parse_state_t\000"
 25928      696E6B5F 
 25928      70617273 
 25928      655F7374 
 25928      6174655F 
 25929              	.LASF23:
 25930 0815 6D73675F 		.ascii	"msg_t\000"
ARM GAS  C:\Users\Mohamad\AppData\Local\Temp\ccDsqi1j.s 			page 463


 25930      7400
 25931              	.LASF277:
 25932 081b 55415254 		.ascii	"UARTD3\000"
 25932      443300
 25933              	.LASF51:
 25934 0822 636F6E74 		.ascii	"context\000"
 25934      65787400 
 25935              	.LASF154:
 25936 082a 75617274 		.ascii	"uartflags_t\000"
 25936      666C6167 
 25936      735F7400 
 25937              	.LASF183:
 25938 0836 6D61766C 		.ascii	"mavlink_message_t\000"
 25938      696E6B5F 
 25938      6D657373 
 25938      6167655F 
 25938      7400
 25939              	.LASF35:
 25940 0848 705F666C 		.ascii	"p_flags\000"
 25940      61677300 
 25941              	.LASF109:
 25942 0850 696F706F 		.ascii	"ioportmask_t\000"
 25942      72746D61 
 25942      736B5F74 
 25942      00
 25943              	.LASF152:
 25944 085d 55415254 		.ascii	"UART_RX_COMPLETE\000"
 25944      5F52585F 
 25944      434F4D50 
 25944      4C455445 
 25944      00
 25945              	.LASF148:
 25946 086e 55415254 		.ascii	"UART_TX_COMPLETE\000"
 25946      5F54585F 
 25946      434F4D50 
 25946      4C455445 
 25946      00
 25947              	.LASF226:
 25948 087f 70697463 		.ascii	"pitchspeed\000"
 25948      68737065 
 25948      656400
 25949              	.LASF75:
 25950 088a 444D415F 		.ascii	"DMA_Stream_TypeDef\000"
 25950      53747265 
 25950      616D5F54 
 25950      79706544 
 25950      656600
 25951              	.LASF128:
 25952 089d 636C6F63 		.ascii	"clock_speed\000"
 25952      6B5F7370 
 25952      65656400 
 25953              	.LASF21:
 25954 08a9 74736C69 		.ascii	"tslices_t\000"
 25954      6365735F 
 25954      7400
 25955              	.LASF88:
 25956 08b3 464C5452 		.ascii	"FLTR\000"
ARM GAS  C:\Users\Mohamad\AppData\Local\Temp\ccDsqi1j.s 			page 464


 25956      00
 25957              	.LASF190:
 25958 08b8 4D41564C 		.ascii	"MAVLINK_PARSE_STATE_GOT_STX\000"
 25958      494E4B5F 
 25958      50415253 
 25958      455F5354 
 25958      4154455F 
 25959              	.LASF255:
 25960 08d4 6D61766C 		.ascii	"mavlink_msg_attitude_quaternion_pack\000"
 25960      696E6B5F 
 25960      6D73675F 
 25960      61747469 
 25960      74756465 
 25961              	.LASF124:
 25962 08f9 46415354 		.ascii	"FAST_DUTY_CYCLE_2\000"
 25962      5F445554 
 25962      595F4359 
 25962      434C455F 
 25962      3200
 25963              	.LASF191:
 25964 090b 4D41564C 		.ascii	"MAVLINK_PARSE_STATE_GOT_SEQ\000"
 25964      494E4B5F 
 25964      50415253 
 25964      455F5354 
 25964      4154455F 
 25965              	.LASF326:
 25966 0927 63685468 		.ascii	"chThdCreateStatic\000"
 25966      64437265 
 25966      61746553 
 25966      74617469 
 25966      6300
 25967              	.LASF41:
 25968 0939 705F6D73 		.ascii	"p_msg\000"
 25968      6700
 25969              	.LASF205:
 25970 093f 63757272 		.ascii	"current_rx_seq\000"
 25970      656E745F 
 25970      72785F73 
 25970      657100
 25971              	.LASF18:
 25972 094e 746D6F64 		.ascii	"tmode_t\000"
 25972      655F7400 
 25973              	.LASF44:
 25974 0956 705F7265 		.ascii	"p_realprio\000"
 25974      616C7072 
 25974      696F00
 25975              	.LASF321:
 25976 0961 64636D5F 		.ascii	"dcm_update\000"
 25976      75706461 
 25976      746500
 25977              	.LASF102:
 25978 096c 4F535045 		.ascii	"OSPEEDR\000"
 25978      45445200 
 25979              	.LASF173:
 25980 0974 6C6F6E67 		.ascii	"long double\000"
 25980      20646F75 
 25980      626C6500 
ARM GAS  C:\Users\Mohamad\AppData\Local\Temp\ccDsqi1j.s 			page 465


 25981              	.LASF8:
 25982 0980 75696E74 		.ascii	"uint16_t\000"
 25982      31365F74 
 25982      00
 25983              	.LASF50:
 25984 0989 696E7463 		.ascii	"intctx\000"
 25984      747800
 25985              	.LASF297:
 25986 0990 6D794D50 		.ascii	"myMPU\000"
 25986      5500
 25987              	.LASF127:
 25988 0996 6F705F6D 		.ascii	"op_mode\000"
 25988      6F646500 
 25989              	.LASF112:
 25990 099e 4932435F 		.ascii	"I2C_READY\000"
 25990      52454144 
 25990      5900
 25991              	.LASF133:
 25992 09a8 636F6E66 		.ascii	"config\000"
 25992      696700
 25993              	.LASF149:
 25994 09af 75617274 		.ascii	"uarttxstate_t\000"
 25994      74787374 
 25994      6174655F 
 25994      7400
 25995              	.LASF20:
 25996 09bd 74726566 		.ascii	"trefs_t\000"
 25996      735F7400 
 25997              	.LASF192:
 25998 09c5 4D41564C 		.ascii	"MAVLINK_PARSE_STATE_GOT_LENGTH\000"
 25998      494E4B5F 
 25998      50415253 
 25998      455F5354 
 25998      4154455F 
 25999              	.LASF167:
 26000 09e4 72786368 		.ascii	"rxchar_cb\000"
 26000      61725F63 
 26000      6200
 26001              	.LASF79:
 26002 09ee 52455345 		.ascii	"RESERVED2\000"
 26002      52564544 
 26002      3200
 26003              	.LASF81:
 26004 09f8 52455345 		.ascii	"RESERVED3\000"
 26004      52564544 
 26004      3300
 26005              	.LASF82:
 26006 0a02 52455345 		.ascii	"RESERVED4\000"
 26006      52564544 
 26006      3400
 26007              	.LASF83:
 26008 0a0c 52455345 		.ascii	"RESERVED5\000"
 26008      52564544 
 26008      3500
 26009              	.LASF84:
 26010 0a16 52455345 		.ascii	"RESERVED6\000"
 26010      52564544 
ARM GAS  C:\Users\Mohamad\AppData\Local\Temp\ccDsqi1j.s 			page 466


 26010      3600
 26011              	.LASF85:
 26012 0a20 52455345 		.ascii	"RESERVED7\000"
 26012      52564544 
 26012      3700
 26013              	.LASF87:
 26014 0a2a 52455345 		.ascii	"RESERVED8\000"
 26014      52564544 
 26014      3800
 26015              	.LASF89:
 26016 0a34 52455345 		.ascii	"RESERVED9\000"
 26016      52564544 
 26016      3900
 26017              	.LASF42:
 26018 0a3e 705F6570 		.ascii	"p_epending\000"
 26018      656E6469 
 26018      6E6700
 26019              	.LASF78:
 26020 0a49 4F415231 		.ascii	"OAR1\000"
 26020      00
 26021              	.LASF63:
 26022 0a4e 6D5F7175 		.ascii	"m_queue\000"
 26022      65756500 
 26023              	.LASF11:
 26024 0a56 6C6F6E67 		.ascii	"long int\000"
 26024      20696E74 
 26024      00
 26025              	.LASF279:
 26026 0a5f 77686F6C 		.ascii	"wholeLoopTime\000"
 26026      654C6F6F 
 26026      7054696D 
 26026      6500
 26027              	.LASF117:
 26028 0a6d 69326361 		.ascii	"i2caddr_t\000"
 26028      6464725F 
 26028      7400
 26029              	.LASF275:
 26030 0a77 49544D5F 		.ascii	"ITM_RxBuffer\000"
 26030      52784275 
 26030      66666572 
 26030      00
 26031              	.LASF242:
 26032 0a84 6C656E67 		.ascii	"length\000"
 26032      746800
 26033              	.LASF228:
 26034 0a8b 6D61766C 		.ascii	"mavlink_attitude_t\000"
 26034      696E6B5F 
 26034      61747469 
 26034      74756465 
 26034      5F7400
 26035              	.LASF264:
 26036 0a9e 53656E64 		.ascii	"Send_mavlink_rawPressure\000"
 26036      5F6D6176 
 26036      6C696E6B 
 26036      5F726177 
 26036      50726573 
 26037              	.LASF6:
ARM GAS  C:\Users\Mohamad\AppData\Local\Temp\ccDsqi1j.s 			page 467


 26038 0ab7 696E7431 		.ascii	"int16_t\000"
 26038      365F7400 
 26039              	.LASF221:
 26040 0abf 5F5F6D61 		.ascii	"__mavlink_attitude_t\000"
 26040      766C696E 
 26040      6B5F6174 
 26040      74697475 
 26040      64655F74 
 26041              	.LASF259:
 26042 0ad4 74656D70 		.ascii	"temp\000"
 26042      00
 26043              	.LASF101:
 26044 0ad9 4F545950 		.ascii	"OTYPER\000"
 26044      455200
 26045              	.LASF163:
 26046 0ae0 75617274 		.ascii	"uartecb_t\000"
 26046      6563625F 
 26046      7400
 26047              	.LASF245:
 26048 0aea 73797374 		.ascii	"system_id\000"
 26048      656D5F69 
 26048      6400
 26049              	.LASF217:
 26050 0af4 70726573 		.ascii	"press_diff1\000"
 26050      735F6469 
 26050      66663100 
 26051              	.LASF218:
 26052 0b00 70726573 		.ascii	"press_diff2\000"
 26052      735F6469 
 26052      66663200 
 26053              	.LASF27:
 26054 0b0c 705F6E65 		.ascii	"p_next\000"
 26054      787400
 26055              	.LASF290:
 26056 0b13 74786275 		.ascii	"txbuf\000"
 26056      6600
 26057              	.LASF15:
 26058 0b19 75696E74 		.ascii	"uint64_t\000"
 26058      36345F74 
 26058      00
 26059              	.LASF30:
 26060 0b22 705F6374 		.ascii	"p_ctx\000"
 26060      7800
 26061              	.LASF261:
 26062 0b28 53656E64 		.ascii	"Send_mavlink_Attitude\000"
 26062      5F6D6176 
 26062      6C696E6B 
 26062      5F417474 
 26062      69747564 
 26063              	.LASF182:
 26064 0b3e 7061796C 		.ascii	"payload64\000"
 26064      6F616436 
 26064      3400
 26065              	.LASF168:
 26066 0b48 72786572 		.ascii	"rxerr_cb\000"
 26066      725F6362 
 26066      00
ARM GAS  C:\Users\Mohamad\AppData\Local\Temp\ccDsqi1j.s 			page 468


 26067              	.LASF244:
 26068 0b51 6D61766C 		.ascii	"mavlink_finalize_message_chan\000"
 26068      696E6B5F 
 26068      66696E61 
 26068      6C697A65 
 26068      5F6D6573 
 26069              	.LASF280:
 26070 0b6f 486F6D65 		.ascii	"Home_Altitude\000"
 26070      5F416C74 
 26070      69747564 
 26070      6500
 26071              	.LASF208:
 26072 0b7d 7061636B 		.ascii	"packet_rx_drop_count\000"
 26072      65745F72 
 26072      785F6472 
 26072      6F705F63 
 26072      6F756E74 
 26073              	.LASF144:
 26074 0b92 55415254 		.ascii	"UART_READY\000"
 26074      5F524541 
 26074      445900
 26075              	.LASF174:
 26076 0b9d 56454354 		.ascii	"VECTOR\000"
 26076      4F5200
 26077              	.LASF285:
 26078 0ba4 696E7454 		.ascii	"intToByte\000"
 26078      6F427974 
 26078      6500
 26079              	.LASF176:
 26080 0bae 5F5F6D61 		.ascii	"__mavlink_message\000"
 26080      766C696E 
 26080      6B5F6D65 
 26080      73736167 
 26080      6500
 26081              	.LASF312:
 26082 0bc0 63686563 		.ascii	"check_ready_to_send_params\000"
 26082      6B5F7265 
 26082      6164795F 
 26082      746F5F73 
 26082      656E645F 
 26083              	.LASF108:
 26084 0bdb 4750494F 		.ascii	"GPIO_TypeDef\000"
 26084      5F547970 
 26084      65446566 
 26084      00
 26085              	.LASF293:
 26086 0be8 4750535F 		.ascii	"GPS_send_enabled\000"
 26086      73656E64 
 26086      5F656E61 
 26086      626C6564 
 26086      00
 26087              	.LASF178:
 26088 0bf9 6D616769 		.ascii	"magic\000"
 26088      6300
 26089              	.LASF74:
 26090 0bff 4D314152 		.ascii	"M1AR\000"
 26090      00
ARM GAS  C:\Users\Mohamad\AppData\Local\Temp\ccDsqi1j.s 			page 469


 26091              	.LASF309:
 26092 0c04 75617274 		.ascii	"uartStartSend\000"
 26092      53746172 
 26092      7453656E 
 26092      6400
 26093              	.LASF206:
 26094 0c12 63757272 		.ascii	"current_tx_seq\000"
 26094      656E745F 
 26094      74785F73 
 26094      657100
 26095              	.LASF28:
 26096 0c21 705F7072 		.ascii	"p_prev\000"
 26096      657600
 26097              	.LASF52:
 26098 0c28 73697A65 		.ascii	"sizetype\000"
 26098      74797065 
 26098      00
 26099              	.LASF203:
 26100 0c31 70617273 		.ascii	"parse_state\000"
 26100      655F7374 
 26100      61746500 
 26101              	.LASF306:
 26102 0c3d 75617274 		.ascii	"uartStartSendI\000"
 26102      53746172 
 26102      7453656E 
 26102      644900
 26103              	.LASF288:
 26104 0c4c 75696E74 		.ascii	"uint32ToByte\000"
 26104      3332546F 
 26104      42797465 
 26104      00
 26105              	.LASF13:
 26106 0c59 6C6F6E67 		.ascii	"long unsigned int\000"
 26106      20756E73 
 26106      69676E65 
 26106      6420696E 
 26106      7400
 26107              	.LASF308:
 26108 0c6b 696E735F 		.ascii	"ins_get_Gyro_drift\000"
 26108      6765745F 
 26108      4779726F 
 26108      5F647269 
 26108      667400
 26109              	.LASF251:
 26110 0c7e 6D61766C 		.ascii	"mavlink_msg_gps_raw_int_pack\000"
 26110      696E6B5F 
 26110      6D73675F 
 26110      6770735F 
 26110      7261775F 
 26111              	.LASF172:
 26112 0c9b 666C6F61 		.ascii	"float\000"
 26112      7400
 26113              	.LASF10:
 26114 0ca1 696E7433 		.ascii	"int32_t\000"
 26114      325F7400 
 26115              	.LASF267:
 26116 0ca9 6D794C6F 		.ascii	"myLoopTime\000"
ARM GAS  C:\Users\Mohamad\AppData\Local\Temp\ccDsqi1j.s 			page 470


 26116      6F705469 
 26116      6D6500
 26117              	.LASF252:
 26118 0cb4 7061636B 		.ascii	"packet\000"
 26118      657400
 26119              	.LASF120:
 26120 0cbb 4F504D4F 		.ascii	"OPMODE_SMBUS_DEVICE\000"
 26120      44455F53 
 26120      4D425553 
 26120      5F444556 
 26120      49434500 
 26121              	.LASF136:
 26122 0ccf 74687265 		.ascii	"thread\000"
 26122      616400
 26123              	.LASF231:
 26124 0cd6 62797465 		.ascii	"byte\000"
 26124      00
 26125              	.LASF1:
 26126 0cdb 756E7369 		.ascii	"unsigned int\000"
 26126      676E6564 
 26126      20696E74 
 26126      00
 26127              	.LASF111:
 26128 0ce8 4932435F 		.ascii	"I2C_STOP\000"
 26128      53544F50 
 26128      00
 26129              	.LASF156:
 26130 0cf1 74787374 		.ascii	"txstate\000"
 26130      61746500 
 26131              	.LASF316:
 26132 0cf9 75617274 		.ascii	"uartStart\000"
 26132      53746172 
 26132      7400
 26133              	.LASF5:
 26134 0d03 756E7369 		.ascii	"unsigned char\000"
 26134      676E6564 
 26134      20636861 
 26134      7200
 26135              	.LASF142:
 26136 0d11 55415254 		.ascii	"UART_UNINIT\000"
 26136      5F554E49 
 26136      4E495400 
 26137              	.LASF263:
 26138 0d1d 53656E64 		.ascii	"Send_mavlink_GPS\000"
 26138      5F6D6176 
 26138      6C696E6B 
 26138      5F475053 
 26138      00
 26139              	.LASF36:
 26140 0d2e 705F7265 		.ascii	"p_refs\000"
 26140      667300
 26141              	.LASF213:
 26142 0d35 73617465 		.ascii	"satellites_visible\000"
 26142      6C6C6974 
 26142      65735F76 
 26142      69736962 
 26142      6C6500
ARM GAS  C:\Users\Mohamad\AppData\Local\Temp\ccDsqi1j.s 			page 471


 26143              	.LASF138:
 26144 0d48 7278646D 		.ascii	"rxdmamode\000"
 26144      616D6F64 
 26144      6500
 26145              	.LASF271:
 26146 0d52 75617274 		.ascii	"uart_cfg_1\000"
 26146      5F636667 
 26146      5F3100
 26147              	.LASF90:
 26148 0d5d 4932435F 		.ascii	"I2C_TypeDef\000"
 26148      54797065 
 26148      44656600 
 26149              	.LASF304:
 26150 0d69 63685468 		.ascii	"chThdSleep\000"
 26150      64536C65 
 26150      657000
 26151              	.LASF296:
 26152 0d74 73746172 		.ascii	"startMessageCounet\000"
 26152      744D6573 
 26152      73616765 
 26152      436F756E 
 26152      657400
 26153              	.LASF37:
 26154 0d87 705F7072 		.ascii	"p_preempt\000"
 26154      65656D70 
 26154      7400
 26155              	.LASF122:
 26156 0d91 6932636F 		.ascii	"i2copmode_t\000"
 26156      706D6F64 
 26156      655F7400 
 26157              	.LASF265:
 26158 0d9d 62797465 		.ascii	"byteToInt16\000"
 26158      546F496E 
 26158      74313600 
 26159              	.LASF227:
 26160 0da9 79617773 		.ascii	"yawspeed\000"
 26160      70656564 
 26160      00
 26161              	.LASF137:
 26162 0db2 61646472 		.ascii	"addr\000"
 26162      00
 26163              	.LASF289:
 26164 0db7 6C617374 		.ascii	"lastLoopTime\000"
 26164      4C6F6F70 
 26164      54696D65 
 26164      00
 26165              	.LASF132:
 26166 0dc4 73746174 		.ascii	"state\000"
 26166      6500
 26167              	.LASF150:
 26168 0dca 55415254 		.ascii	"UART_RX_IDLE\000"
 26168      5F52585F 
 26168      49444C45 
 26168      00
 26169              	.LASF55:
 26170 0dd7 76745F6E 		.ascii	"vt_next\000"
 26170      65787400 
ARM GAS  C:\Users\Mohamad\AppData\Local\Temp\ccDsqi1j.s 			page 472


 26171              	.LASF286:
 26172 0ddf 696E7431 		.ascii	"int16ToByte\000"
 26172      36546F42 
 26172      79746500 
 26173              	.LASF318:
 26174 0deb 484D4335 		.ascii	"HMC5883_Init\000"
 26174      3838335F 
 26174      496E6974 
 26174      00
 26175              	.LASF325:
 26176 0df8 54687265 		.ascii	"Thread1\000"
 26176      61643100 
 26177              	.LASF65:
 26178 0e00 6D5F6E65 		.ascii	"m_next\000"
 26178      787400
 26179              	.LASF254:
 26180 0e07 6D61766C 		.ascii	"mavlink_msg_attitude_pack\000"
 26180      696E6B5F 
 26180      6D73675F 
 26180      61747469 
 26180      74756465 
 26181              	.LASF2:
 26182 0e21 7369676E 		.ascii	"signed char\000"
 26182      65642063 
 26182      68617200 
 26183              	.LASF147:
 26184 0e2d 55415254 		.ascii	"UART_TX_ACTIVE\000"
 26184      5F54585F 
 26184      41435449 
 26184      564500
 26185              	.LASF32:
 26186 0e3c 705F6F6C 		.ascii	"p_older\000"
 26186      64657200 
 26187              	.LASF9:
 26188 0e44 73686F72 		.ascii	"short unsigned int\000"
 26188      7420756E 
 26188      7369676E 
 26188      65642069 
 26188      6E7400
 26189              	.LASF49:
 26190 0e57 73746B61 		.ascii	"stkalign_t\000"
 26190      6C69676E 
 26190      5F7400
 26191              	.LASF305:
 26192 0e62 6D656D63 		.ascii	"memcpy\000"
 26192      707900
 26193              	.LASF266:
 26194 0e69 6D61696E 		.ascii	"main\000"
 26194      00
 26195              	.LASF199:
 26196 0e6e 5F5F6D61 		.ascii	"__mavlink_status\000"
 26196      766C696E 
 26196      6B5F7374 
 26196      61747573 
 26196      00
 26197              	.LASF268:
 26198 0e7f 6D797469 		.ascii	"mytime\000"
ARM GAS  C:\Users\Mohamad\AppData\Local\Temp\ccDsqi1j.s 			page 473


 26198      6D6500
 26199              	.LASF40:
 26200 0e86 705F6D73 		.ascii	"p_msgqueue\000"
 26200      67717565 
 26200      756500
 26201              	.LASF212:
 26202 0e91 6669785F 		.ascii	"fix_type\000"
 26202      74797065 
 26202      00
 26203              	.LASF54:
 26204 0e9a 56697274 		.ascii	"VirtualTimer\000"
 26204      75616C54 
 26204      696D6572 
 26204      00
 26205              	.LASF58:
 26206 0ea7 76745F66 		.ascii	"vt_func\000"
 26206      756E6300 
 26207              	.LASF202:
 26208 0eaf 70617273 		.ascii	"parse_error\000"
 26208      655F6572 
 26208      726F7200 
 26209              	.LASF171:
 26210 0ebb 646F7562 		.ascii	"double\000"
 26210      6C6500
 26211              	.LASF56:
 26212 0ec2 76745F70 		.ascii	"vt_prev\000"
 26212      72657600 
 26213              	.LASF76:
 26214 0eca 52455345 		.ascii	"RESERVED0\000"
 26214      52564544 
 26214      3000
 26215              	.LASF77:
 26216 0ed4 52455345 		.ascii	"RESERVED1\000"
 26216      52564544 
 26216      3100
 26217              	.LASF143:
 26218 0ede 55415254 		.ascii	"UART_STOP\000"
 26218      5F53544F 
 26218      5000
 26219              	.LASF291:
 26220 0ee8 52647954 		.ascii	"RdyToSend\000"
 26220      6F53656E 
 26220      6400
 26221              	.LASF294:
 26222 0ef2 52617750 		.ascii	"RawPress_send_enable\000"
 26222      72657373 
 26222      5F73656E 
 26222      645F656E 
 26222      61626C65 
 26223              	.LASF12:
 26224 0f07 75696E74 		.ascii	"uint32_t\000"
 26224      33325F74 
 26224      00
 26225              	.LASF161:
 26226 0f10 75617274 		.ascii	"uartcb_t\000"
 26226      63625F74 
 26226      00
ARM GAS  C:\Users\Mohamad\AppData\Local\Temp\ccDsqi1j.s 			page 474


 26227              	.LASF314:
 26228 0f19 63685379 		.ascii	"chSysInit\000"
 26228      73496E69 
 26228      7400
 26229              	.LASF232:
 26230 0f23 76616C75 		.ascii	"value\000"
 26230      6500
 26231              	.LASF67:
 26232 0f29 65786974 		.ascii	"exitcode\000"
 26232      636F6465 
 26232      00
 26233              	.LASF96:
 26234 0f32 73656C66 		.ascii	"selfindex\000"
 26234      696E6465 
 26234      7800
 26235              	.LASF194:
 26236 0f3c 4D41564C 		.ascii	"MAVLINK_PARSE_STATE_GOT_COMPID\000"
 26236      494E4B5F 
 26236      50415253 
 26236      455F5354 
 26236      4154455F 
 26237              	.LASF225:
 26238 0f5b 726F6C6C 		.ascii	"rollspeed\000"
 26238      73706565 
 26238      6400
 26239              	.LASF105:
 26240 0f65 4C434B52 		.ascii	"LCKR\000"
 26240      00
 26241              	.LASF160:
 26242 0f6a 72786275 		.ascii	"rxbuf\000"
 26242      6600
 26243              	.LASF93:
 26244 0f70 73747265 		.ascii	"stream\000"
 26244      616D00
 26245              	.LASF295:
 26246 0f77 52617749 		.ascii	"RawImu_send_enable\000"
 26246      6D755F73 
 26246      656E645F 
 26246      656E6162 
 26246      6C6500
 26247              	.LASF201:
 26248 0f8a 62756666 		.ascii	"buffer_overrun\000"
 26248      65725F6F 
 26248      76657272 
 26248      756E00
 26249              		.ident	"GCC: (GNU Tools for ARM Embedded Processors) 4.7.4 20140401 (release) [ARM/embedded-4_7-br
ARM GAS  C:\Users\Mohamad\AppData\Local\Temp\ccDsqi1j.s 			page 475


DEFINED SYMBOLS
                            *ABS*:00000000 main.c
C:\Users\Mohamad\AppData\Local\Temp\ccDsqi1j.s:19     .text.rxchar:00000000 $t
C:\Users\Mohamad\AppData\Local\Temp\ccDsqi1j.s:24     .text.rxchar:00000000 rxchar
C:\Users\Mohamad\AppData\Local\Temp\ccDsqi1j.s:38     .text.uart3_txend2:00000000 $t
C:\Users\Mohamad\AppData\Local\Temp\ccDsqi1j.s:43     .text.uart3_txend2:00000000 uart3_txend2
C:\Users\Mohamad\AppData\Local\Temp\ccDsqi1j.s:7367   .data.RdyToSend:00000000 .LANCHOR0
C:\Users\Mohamad\AppData\Local\Temp\ccDsqi1j.s:82     .text.Thread1:00000000 $t
C:\Users\Mohamad\AppData\Local\Temp\ccDsqi1j.s:87     .text.Thread1:00000000 Thread1
C:\Users\Mohamad\AppData\Local\Temp\ccDsqi1j.s:114    .text.Thread1:00000010 $d
C:\Users\Mohamad\AppData\Local\Temp\ccDsqi1j.s:119    .text.byteToInt16:00000000 $t
C:\Users\Mohamad\AppData\Local\Temp\ccDsqi1j.s:125    .text.byteToInt16:00000000 byteToInt16
C:\Users\Mohamad\AppData\Local\Temp\ccDsqi1j.s:149    .text.startup.main:00000000 $t
C:\Users\Mohamad\AppData\Local\Temp\ccDsqi1j.s:155    .text.startup.main:00000000 main
C:\Users\Mohamad\AppData\Local\Temp\ccDsqi1j.s:7380   .bss.timeNow:00000000 .LANCHOR6
C:\Users\Mohamad\AppData\Local\Temp\ccDsqi1j.s:7405   .data.startMessageCounet:00000000 .LANCHOR7
C:\Users\Mohamad\AppData\Local\Temp\ccDsqi1j.s:7460   .bss.GPS_send_enabled:00000000 .LANCHOR12
C:\Users\Mohamad\AppData\Local\Temp\ccDsqi1j.s:7349   .bss.m_mavlink_status.8046:00000000 .LANCHOR9
C:\Users\Mohamad\AppData\Local\Temp\ccDsqi1j.s:7393   .bss.buff:00000000 .LANCHOR10
C:\Users\Mohamad\AppData\Local\Temp\ccDsqi1j.s:7361   .bss.RawPress_send_enable:00000000 .LANCHOR13
C:\Users\Mohamad\AppData\Local\Temp\ccDsqi1j.s:749    .text.startup.main:000002cc $d
C:\Users\Mohamad\AppData\Local\Temp\ccDsqi1j.s:765    .text.startup.main:00000300 $t
C:\Users\Mohamad\AppData\Local\Temp\ccDsqi1j.s:7423   .data.attitude_send_enabled:00000000 .LANCHOR8
C:\Users\Mohamad\AppData\Local\Temp\ccDsqi1j.s:1489   .text.startup.main:00000648 $d
C:\Users\Mohamad\AppData\Local\Temp\ccDsqi1j.s:1497   .text.startup.main:0000065c $t
C:\Users\Mohamad\AppData\Local\Temp\ccDsqi1j.s:7436   .bss.RawImu_send_enable:00000000 .LANCHOR11
C:\Users\Mohamad\AppData\Local\Temp\ccDsqi1j.s:2142   .text.startup.main:000008a0 $d
C:\Users\Mohamad\AppData\Local\Temp\ccDsqi1j.s:2151   .text.startup.main:000008b8 $t
C:\Users\Mohamad\AppData\Local\Temp\ccDsqi1j.s:2731   .text.startup.main:00000ab4 $d
C:\Users\Mohamad\AppData\Local\Temp\ccDsqi1j.s:2741   .text.check_ready_to_send_params:00000000 $t
C:\Users\Mohamad\AppData\Local\Temp\ccDsqi1j.s:2747   .text.check_ready_to_send_params:00000000 check_ready_to_send_params
C:\Users\Mohamad\AppData\Local\Temp\ccDsqi1j.s:2796   .text.check_ready_to_send_params:00000030 $d
C:\Users\Mohamad\AppData\Local\Temp\ccDsqi1j.s:2801   .text.check_ready_to_send_params:0000003c $t
C:\Users\Mohamad\AppData\Local\Temp\ccDsqi1j.s:3466   .text.check_ready_to_send_params:00000358 $d
C:\Users\Mohamad\AppData\Local\Temp\ccDsqi1j.s:3474   .text.check_ready_to_send_params:0000036c $t
C:\Users\Mohamad\AppData\Local\Temp\ccDsqi1j.s:4047   .text.check_ready_to_send_params:00000560 $d
C:\Users\Mohamad\AppData\Local\Temp\ccDsqi1j.s:4062   .text.check_ready_to_send_params:00000590 $t
C:\Users\Mohamad\AppData\Local\Temp\ccDsqi1j.s:4637   .text.check_ready_to_send_params:0000074c $d
C:\Users\Mohamad\AppData\Local\Temp\ccDsqi1j.s:4646   .text.check_ready_to_send_params:00000764 $t
C:\Users\Mohamad\AppData\Local\Temp\ccDsqi1j.s:5059   .text.check_ready_to_send_params:0000090c $d
C:\Users\Mohamad\AppData\Local\Temp\ccDsqi1j.s:5072   .text.Send_mavlink_rawImu:00000000 $t
C:\Users\Mohamad\AppData\Local\Temp\ccDsqi1j.s:5078   .text.Send_mavlink_rawImu:00000000 Send_mavlink_rawImu
C:\Users\Mohamad\AppData\Local\Temp\ccDsqi1j.s:5663   .text.Send_mavlink_rawImu:00000198 $d
C:\Users\Mohamad\AppData\Local\Temp\ccDsqi1j.s:5671   .text.Send_mavlink_Attitude:00000000 $t
C:\Users\Mohamad\AppData\Local\Temp\ccDsqi1j.s:5677   .text.Send_mavlink_Attitude:00000000 Send_mavlink_Attitude
C:\Users\Mohamad\AppData\Local\Temp\ccDsqi1j.s:6240   .text.Send_mavlink_Attitude:000001c8 $d
C:\Users\Mohamad\AppData\Local\Temp\ccDsqi1j.s:6254   .text.Send_mavlink_GPS:00000000 $t
C:\Users\Mohamad\AppData\Local\Temp\ccDsqi1j.s:6260   .text.Send_mavlink_GPS:00000000 Send_mavlink_GPS
C:\Users\Mohamad\AppData\Local\Temp\ccDsqi1j.s:6671   .text.Send_mavlink_GPS:00000184 $d
C:\Users\Mohamad\AppData\Local\Temp\ccDsqi1j.s:6683   .text.Send_mavlink_rawPressure:00000000 $t
C:\Users\Mohamad\AppData\Local\Temp\ccDsqi1j.s:6689   .text.Send_mavlink_rawPressure:00000000 Send_mavlink_rawPressure
C:\Users\Mohamad\AppData\Local\Temp\ccDsqi1j.s:7304   .bss.msg:00000000 .LANCHOR2
C:\Users\Mohamad\AppData\Local\Temp\ccDsqi1j.s:7396   .bss.buff:00000000 buff
C:\Users\Mohamad\AppData\Local\Temp\ccDsqi1j.s:7307   .bss.msg:00000000 msg
C:\Users\Mohamad\AppData\Local\Temp\ccDsqi1j.s:7383   .bss.timeNow:00000000 timeNow
C:\Users\Mohamad\AppData\Local\Temp\ccDsqi1j.s:7457   .bss.AccelData:00000000 AccelData
C:\Users\Mohamad\AppData\Local\Temp\ccDsqi1j.s:7420   .bss.GyroData:00000000 GyroData
ARM GAS  C:\Users\Mohamad\AppData\Local\Temp\ccDsqi1j.s 			page 476


C:\Users\Mohamad\AppData\Local\Temp\ccDsqi1j.s:7312   .bss.reading:00000000 reading
C:\Users\Mohamad\AppData\Local\Temp\ccDsqi1j.s:7470   .bss.myMPU:00000000 myMPU
C:\Users\Mohamad\AppData\Local\Temp\ccDsqi1j.s:7408   .data.startMessageCounet:00000000 startMessageCounet
C:\Users\Mohamad\AppData\Local\Temp\ccDsqi1j.s:7439   .bss.RawImu_send_enable:00000000 RawImu_send_enable
C:\Users\Mohamad\AppData\Local\Temp\ccDsqi1j.s:7364   .bss.RawPress_send_enable:00000000 RawPress_send_enable
C:\Users\Mohamad\AppData\Local\Temp\ccDsqi1j.s:7463   .bss.GPS_send_enabled:00000000 GPS_send_enabled
C:\Users\Mohamad\AppData\Local\Temp\ccDsqi1j.s:7426   .data.attitude_send_enabled:00000000 attitude_send_enabled
C:\Users\Mohamad\AppData\Local\Temp\ccDsqi1j.s:7370   .data.RdyToSend:00000000 RdyToSend
C:\Users\Mohamad\AppData\Local\Temp\ccDsqi1j.s:7389   .bss.txbuf:00000000 txbuf
C:\Users\Mohamad\AppData\Local\Temp\ccDsqi1j.s:7482   .bss.rxbuf:00000000 rxbuf
C:\Users\Mohamad\AppData\Local\Temp\ccDsqi1j.s:7402   .bss.wholeLoopTime:00000000 wholeLoopTime
C:\Users\Mohamad\AppData\Local\Temp\ccDsqi1j.s:7476   .bss.eachLoopTime:00000000 eachLoopTime
C:\Users\Mohamad\AppData\Local\Temp\ccDsqi1j.s:7318   .bss.lastLoopTime:00000000 lastLoopTime
C:\Users\Mohamad\AppData\Local\Temp\ccDsqi1j.s:7414   .bss.uint32ToByte:00000000 uint32ToByte
C:\Users\Mohamad\AppData\Local\Temp\ccDsqi1j.s:7358   .bss.uint16ToByte:00000000 uint16ToByte
C:\Users\Mohamad\AppData\Local\Temp\ccDsqi1j.s:7445   .bss.int16ToByte:00000000 int16ToByte
C:\Users\Mohamad\AppData\Local\Temp\ccDsqi1j.s:7451   .bss.intToByte:00000000 intToByte
C:\Users\Mohamad\AppData\Local\Temp\ccDsqi1j.s:7376   .bss.floatToByte:00000000 floatToByte
C:\Users\Mohamad\AppData\Local\Temp\ccDsqi1j.s:7303   .bss.msg:00000000 $d
C:\Users\Mohamad\AppData\Local\Temp\ccDsqi1j.s:7313   .bss.reading:00000000 $d
C:\Users\Mohamad\AppData\Local\Temp\ccDsqi1j.s:7315   .bss.lastLoopTime:00000000 $d
C:\Users\Mohamad\AppData\Local\Temp\ccDsqi1j.s:7321   .rodata.i2cfg2:00000000 $d
C:\Users\Mohamad\AppData\Local\Temp\ccDsqi1j.s:7325   .rodata.i2cfg2:00000000 i2cfg2
C:\Users\Mohamad\AppData\Local\Temp\ccDsqi1j.s:7332   .data.uart_cfg_1:00000000 $d
C:\Users\Mohamad\AppData\Local\Temp\ccDsqi1j.s:7336   .data.uart_cfg_1:00000000 uart_cfg_1
C:\Users\Mohamad\AppData\Local\Temp\ccDsqi1j.s:7348   .bss.m_mavlink_status.8046:00000000 $d
C:\Users\Mohamad\AppData\Local\Temp\ccDsqi1j.s:7352   .bss.m_mavlink_status.8046:00000000 m_mavlink_status.8046
C:\Users\Mohamad\AppData\Local\Temp\ccDsqi1j.s:7355   .bss.uint16ToByte:00000000 $d
C:\Users\Mohamad\AppData\Local\Temp\ccDsqi1j.s:7365   .bss.RawPress_send_enable:00000000 $d
C:\Users\Mohamad\AppData\Local\Temp\ccDsqi1j.s:7373   .bss.floatToByte:00000000 $d
C:\Users\Mohamad\AppData\Local\Temp\ccDsqi1j.s:7379   .bss.timeNow:00000000 $d
C:\Users\Mohamad\AppData\Local\Temp\ccDsqi1j.s:7386   .bss.txbuf:00000000 $d
C:\Users\Mohamad\AppData\Local\Temp\ccDsqi1j.s:7392   .bss.buff:00000000 $d
C:\Users\Mohamad\AppData\Local\Temp\ccDsqi1j.s:7399   .bss.wholeLoopTime:00000000 $d
C:\Users\Mohamad\AppData\Local\Temp\ccDsqi1j.s:7411   .bss.uint32ToByte:00000000 $d
C:\Users\Mohamad\AppData\Local\Temp\ccDsqi1j.s:7417   .bss.GyroData:00000000 $d
C:\Users\Mohamad\AppData\Local\Temp\ccDsqi1j.s:7429   .bss.Thread_Unit:00000000 $d
C:\Users\Mohamad\AppData\Local\Temp\ccDsqi1j.s:7433   .bss.Thread_Unit:00000000 Thread_Unit
C:\Users\Mohamad\AppData\Local\Temp\ccDsqi1j.s:7440   .bss.RawImu_send_enable:00000000 $d
C:\Users\Mohamad\AppData\Local\Temp\ccDsqi1j.s:7442   .bss.int16ToByte:00000000 $d
C:\Users\Mohamad\AppData\Local\Temp\ccDsqi1j.s:7448   .bss.intToByte:00000000 $d
C:\Users\Mohamad\AppData\Local\Temp\ccDsqi1j.s:7454   .bss.AccelData:00000000 $d
C:\Users\Mohamad\AppData\Local\Temp\ccDsqi1j.s:7464   .bss.GPS_send_enabled:00000000 $d
C:\Users\Mohamad\AppData\Local\Temp\ccDsqi1j.s:7466   .bss.myMPU:00000000 $d
C:\Users\Mohamad\AppData\Local\Temp\ccDsqi1j.s:7473   .bss.eachLoopTime:00000000 $d
C:\Users\Mohamad\AppData\Local\Temp\ccDsqi1j.s:7479   .bss.rxbuf:00000000 $d
                     .debug_frame:00000010 $d
C:\Users\Mohamad\AppData\Local\Temp\ccDsqi1j.s:118    .text.Thread1:00000014 $t
C:\Users\Mohamad\AppData\Local\Temp\ccDsqi1j.s:2740   .text.startup.main:00000ac4 $t
C:\Users\Mohamad\AppData\Local\Temp\ccDsqi1j.s:5670   .text.Send_mavlink_rawImu:000001a8 $t
C:\Users\Mohamad\AppData\Local\Temp\ccDsqi1j.s:6682   .text.Send_mavlink_GPS:000001a4 $t

UNDEFINED SYMBOLS
ReadMPU
chThdSleep
__aeabi_f2d
__aeabi_dmul
ARM GAS  C:\Users\Mohamad\AppData\Local\Temp\ccDsqi1j.s 			page 477


__aeabi_d2f
__aeabi_fsub
__aeabi_fmul
__aeabi_f2iz
halInit
chSysInit
i2cStart
uartStart
mpu6050_init
HMC5883_Init
dcm_init
chThdCreateStatic
mpu6050_gyro_calibration
dcm_update
chCoreStatus
Home_Altitude
CurrentAlt
latitude
longitude
memcpy
uartStartSendI
I2CD2
UARTD3
vtlist
roll
pitch
yaw
ins_get_Gyro_drift
uartStartSend
ins_get_Accel
ins_get_gyro
