ARM GAS  C:\Users\Mohamad\AppData\Local\Temp\ccDsqi1j.s 			page 1


   1              		.syntax unified
   2              		.cpu cortex-m4
   3              		.fpu softvfp
   4              		.eabi_attribute 20, 1
   5              		.eabi_attribute 21, 1
   6              		.eabi_attribute 23, 3
   7              		.eabi_attribute 24, 1
   8              		.eabi_attribute 25, 1
   9              		.eabi_attribute 26, 1
  10              		.eabi_attribute 30, 2
  11              		.eabi_attribute 34, 1
  12              		.eabi_attribute 18, 4
  13              		.thumb
  14              		.file	"main.c"
  15              		.text
  16              	.Ltext0:
  17              		.cfi_sections	.debug_frame
  18              		.section	.text.rxchar,"ax",%progbits
  19              		.align	2
  20              		.p2align 4,,15
  21              		.thumb
  22              		.thumb_func
  23              		.type	rxchar, %function
  24              	rxchar:
  25              	.LFB1532:
  26              		.file 1 "main.c"
  27              		.loc 1 58 0
  28              		.cfi_startproc
  29              		@ args = 0, pretend = 0, frame = 0
  30              		@ frame_needed = 0, uses_anonymous_args = 0
  31              		@ link register save eliminated.
  32              	.LVL0:
  33 0000 7047     		bx	lr
  34              		.cfi_endproc
  35              	.LFE1532:
  36              		.size	rxchar, .-rxchar
  37 0002 00BFAFF3 		.section	.text.uart3_txend2,"ax",%progbits
  37      0080AFF3 
  37      0080AFF3 
  37      0080
  38              		.align	2
  39              		.p2align 4,,15
  40              		.thumb
  41              		.thumb_func
  42              		.type	uart3_txend2, %function
  43              	uart3_txend2:
  44              	.LFB1533:
  45              		.loc 1 63 0
  46              		.cfi_startproc
  47              		@ args = 0, pretend = 0, frame = 0
  48              		@ frame_needed = 0, uses_anonymous_args = 0
  49              		@ link register save eliminated.
  50              	.LVL1:
  51              	.LBB32:
  52              		.loc 1 66 0
  53 0000 2023     		movs	r3, #32
  54              	.LVL2:
ARM GAS  C:\Users\Mohamad\AppData\Local\Temp\ccDsqi1j.s 			page 2


  55              	@ 66 "main.c" 1
  56 0002 83F31188 		msr     BASEPRI, r3
  57              	@ 0 "" 2
  58              	.LVL3:
  59              		.thumb
  60              	.LBE32:
  61              		.loc 1 67 0
  62 0006 40F20003 		movw	r3, #:lower16:.LANCHOR0
  63              	.LVL4:
  64 000a C0F20003 		movt	r3, #:upper16:.LANCHOR0
  65 000e 0122     		movs	r2, #1
  66 0010 1A70     		strb	r2, [r3, #0]
  67              	.LBB33:
  68              		.loc 1 68 0
  69 0012 0023     		movs	r3, #0
  70              	.LVL5:
  71              	@ 68 "main.c" 1
  72 0014 83F31188 		msr     BASEPRI, r3
  73              	@ 0 "" 2
  74              	.LVL6:
  75              		.thumb
  76 0018 7047     		bx	lr
  77              	.LBE33:
  78              		.cfi_endproc
  79              	.LFE1533:
  80              		.size	uart3_txend2, .-uart3_txend2
  81 001a 00BFAFF3 		.section	.text.Thread1,"ax",%progbits
  81      0080
  82              		.align	2
  83              		.p2align 4,,15
  84              		.thumb
  85              		.thumb_func
  86              		.type	Thread1, %function
  87              	Thread1:
  88              	.LFB1534:
  89              		.loc 1 99 0
  90              		.cfi_startproc
  91              		@ Volatile: function does not return.
  92              		@ args = 0, pretend = 0, frame = 0
  93              		@ frame_needed = 0, uses_anonymous_args = 0
  94              	.LVL7:
  95 0000 08B5     		push	{r3, lr}
  96              	.LCFI0:
  97              		.cfi_def_cfa_offset 8
  98              		.cfi_offset 3, -8
  99              		.cfi_offset 14, -4
 100              	.LVL8:
 101              	.L4:
 102              		.loc 1 105 0 discriminator 1
 103 0002 0348     		ldr	r0, .L6
 104 0004 FFF7FEFF 		bl	ReadMPU
 105              	.LVL9:
 106              		.loc 1 107 0 discriminator 1
 107 0008 0120     		movs	r0, #1
 108 000a FFF7FEFF 		bl	chThdSleep
 109              	.LVL10:
 110 000e F8E7     		b	.L4
ARM GAS  C:\Users\Mohamad\AppData\Local\Temp\ccDsqi1j.s 			page 3


 111              	.L7:
 112              		.align	2
 113              	.L6:
 114 0010 00000000 		.word	.LANCHOR1
 115              		.cfi_endproc
 116              	.LFE1534:
 117              		.size	Thread1, .-Thread1
 118 0014 AFF30080 		.section	.text.byteToInt16,"ax",%progbits
 118      AFF30080 
 118      AFF30080 
 119              		.align	2
 120              		.p2align 4,,15
 121              		.global	byteToInt16
 122              		.thumb
 123              		.thumb_func
 124              		.type	byteToInt16, %function
 125              	byteToInt16:
 126              	.LFB1535:
 127              		.loc 1 113 0
 128              		.cfi_startproc
 129              		@ args = 0, pretend = 0, frame = 0
 130              		@ frame_needed = 0, uses_anonymous_args = 0
 131              		@ link register save eliminated.
 132              	.LVL11:
 133              		.loc 1 114 0
 134 0000 41EA0020 		orr	r0, r1, r0, lsl #8
 135              	.LVL12:
 136              		.loc 1 116 0
 137 0004 00B2     		sxth	r0, r0
 138 0006 7047     		bx	lr
 139              		.cfi_endproc
 140              	.LFE1535:
 141              		.size	byteToInt16, .-byteToInt16
 142              		.global	__aeabi_f2d
 143              		.global	__aeabi_dmul
 144              		.global	__aeabi_d2f
 145              		.global	__aeabi_fsub
 146              		.global	__aeabi_fmul
 147              		.global	__aeabi_f2iz
 148 0008 AFF30080 		.section	.text.startup.main,"ax",%progbits
 148      AFF30080 
 149              		.align	2
 150              		.p2align 4,,15
 151              		.global	main
 152              		.thumb
 153              		.thumb_func
 154              		.type	main, %function
 155              	main:
 156              	.LFB1536:
 157              		.loc 1 137 0
 158              		.cfi_startproc
 159              		@ args = 0, pretend = 0, frame = 296
 160              		@ frame_needed = 0, uses_anonymous_args = 0
 161 0000 2DE9F04F 		push	{r4, r5, r6, r7, r8, r9, sl, fp, lr}
 162              	.LCFI1:
 163              		.cfi_def_cfa_offset 36
 164              		.cfi_offset 4, -36
ARM GAS  C:\Users\Mohamad\AppData\Local\Temp\ccDsqi1j.s 			page 4


 165              		.cfi_offset 5, -32
 166              		.cfi_offset 6, -28
 167              		.cfi_offset 7, -24
 168              		.cfi_offset 8, -20
 169              		.cfi_offset 9, -16
 170              		.cfi_offset 10, -12
 171              		.cfi_offset 11, -8
 172              		.cfi_offset 14, -4
 173 0004 CDB0     		sub	sp, sp, #308
 174              	.LCFI2:
 175              		.cfi_def_cfa_offset 344
 176              		.loc 1 139 0
 177 0006 FFF7FEFF 		bl	halInit
 178              	.LVL13:
 179              		.loc 1 140 0
 180 000a FFF7FEFF 		bl	chSysInit
 181              	.LVL14:
 182              		.loc 1 142 0
 183 000e 4FF44062 		mov	r2, #3072
 184              		.loc 1 143 0
 185 0012 4FF48053 		mov	r3, #4096
 186 0016 C4F20203 		movt	r3, 16386
 187              		.loc 1 142 0
 188 001a C4F20202 		movt	r2, 16386
 189 001e 4FF40051 		mov	r1, #8192
 190              		.loc 1 143 0
 191 0022 4FF40064 		mov	r4, #2048
 192              		.loc 1 144 0
 193 0026 4FF48055 		mov	r5, #4096
 194              		.loc 1 142 0
 195 002a 1183     		strh	r1, [r2, #24]	@ movhi
 196              		.loc 1 148 0
 197 002c A748     		ldr	r0, .L45
 198              		.loc 1 143 0
 199 002e 1C83     		strh	r4, [r3, #24]	@ movhi
 200              		.loc 1 148 0
 201 0030 A749     		ldr	r1, .L45+4
 202              		.loc 1 144 0
 203 0032 1D83     		strh	r5, [r3, #24]	@ movhi
 204              		.loc 1 148 0
 205 0034 FFF7FEFF 		bl	i2cStart
 206              	.LVL15:
 207              		.loc 1 155 0
 208 0038 A649     		ldr	r1, .L45+8
 209 003a A748     		ldr	r0, .L45+12
 210              		.loc 1 177 0
 211 003c A74E     		ldr	r6, .L45+16
 212 003e DFF8B092 		ldr	r9, .L45+36
 213 0042 DFF8B4B2 		ldr	fp, .L45+44
 214              		.loc 1 155 0
 215 0046 FFF7FEFF 		bl	uartStart
 216              	.LVL16:
 217              		.loc 1 159 0
 218 004a FFF7FEFF 		bl	mpu6050_init
 219              	.LVL17:
 220              		.loc 1 160 0
 221 004e 6420     		movs	r0, #100
ARM GAS  C:\Users\Mohamad\AppData\Local\Temp\ccDsqi1j.s 			page 5


 222 0050 FFF7FEFF 		bl	chThdSleep
 223              	.LVL18:
 224              		.loc 1 161 0
 225 0054 0120     		movs	r0, #1
 226 0056 FFF7FEFF 		bl	HMC5883_Init
 227              	.LVL19:
 228              		.loc 1 163 0
 229 005a 0A20     		movs	r0, #10
 230 005c FFF7FEFF 		bl	chThdSleep
 231              	.LVL20:
 232              		.loc 1 164 0
 233 0060 9F48     		ldr	r0, .L45+20
 234 0062 FFF7FEFF 		bl	ReadMPU
 235              	.LVL21:
 236              		.loc 1 165 0
 237 0066 FFF7FEFF 		bl	dcm_init
 238              	.LVL22:
 239              		.loc 1 166 0
 240 006a 0020     		movs	r0, #0
 241 006c 9D4B     		ldr	r3, .L45+24
 242 006e 0090     		str	r0, [sp, #0]
 243 0070 4FF4A871 		mov	r1, #336
 244 0074 4022     		movs	r2, #64
 245 0076 9C48     		ldr	r0, .L45+28
 246 0078 FFF7FEFF 		bl	chThdCreateStatic
 247              	.LVL23:
 248 007c 30AF     		add	r7, sp, #192
 249              		.loc 1 169 0
 250 007e FFF7FEFF 		bl	mpu6050_gyro_calibration
 251              	.LVL24:
 252              		.loc 1 177 0
 253 0082 F368     		ldr	r3, [r6, #12]
 254              	.LVL25:
 255 0084 0797     		str	r7, [sp, #28]
 256              		.loc 1 186 0
 257 0086 B246     		mov	sl, r6
 258              	.LVL26:
 259              	.L42:
 260              		.loc 1 185 0
 261 0088 FFF7FEFF 		bl	dcm_update
 262              	.LVL27:
 263              		.loc 1 186 0
 264 008c F368     		ldr	r3, [r6, #12]
 265              		.loc 1 195 0
 266 008e DBF80030 		ldr	r3, [fp, #0]
 267              		.loc 1 187 0
 268 0092 F268     		ldr	r2, [r6, #12]
 269              		.loc 1 195 0
 270 0094 F268     		ldr	r2, [r6, #12]
 271 0096 D11A     		subs	r1, r2, r3
 272 0098 1829     		cmp	r1, #24
 273 009a F5D9     		bls	.L42
 274              	.LBB140:
 275              	.LBB141:
 276              		.loc 1 206 0
 277 009c 40F20005 		movw	r5, #:lower16:.LANCHOR0
 278 00a0 C0F20005 		movt	r5, #:upper16:.LANCHOR0
ARM GAS  C:\Users\Mohamad\AppData\Local\Temp\ccDsqi1j.s 			page 6


 279              	.LBE141:
 280              	.LBE140:
 281              		.loc 1 196 0
 282 00a4 40F20007 		movw	r7, #:lower16:.LANCHOR6
 283 00a8 DAF80C40 		ldr	r4, [sl, #12]
 284              	.LBB690:
 285              	.LBB688:
 286              		.loc 1 206 0
 287 00ac 2878     		ldrb	r0, [r5, #0]	@ zero_extendqisi2
 288              	.LBE688:
 289              	.LBE690:
 290              		.loc 1 196 0
 291 00ae C0F20007 		movt	r7, #:upper16:.LANCHOR6
 292 00b2 3C60     		str	r4, [r7, #0]
 293              	.LBB691:
 294              	.LBB689:
 295              		.loc 1 206 0
 296 00b4 0028     		cmp	r0, #0
 297 00b6 E7D0     		beq	.L42
 298 00b8 40F20008 		movw	r8, #:lower16:.LANCHOR7
 299 00bc C0F20008 		movt	r8, #:upper16:.LANCHOR7
 300 00c0 98F80040 		ldrb	r4, [r8, #0]	@ zero_extendqisi2
 301 00c4 DFF83482 		ldr	r8, .L45+48
 302 00c8 012C     		cmp	r4, #1
 303 00ca 00F0C782 		beq	.L43
 304              		.loc 1 214 0
 305 00ce 022C     		cmp	r4, #2
 306 00d0 00F0F283 		beq	.L44
 307              		.loc 1 222 0
 308 00d4 032C     		cmp	r4, #3
 309 00d6 40F01381 		bne	.L17
 310 00da 40F20002 		movw	r2, #:lower16:.LANCHOR12
 311 00de C0F20002 		movt	r2, #:upper16:.LANCHOR12
 312 00e2 1578     		ldrb	r5, [r2, #0]	@ zero_extendqisi2
 313 00e4 002D     		cmp	r5, #0
 314 00e6 CFD0     		beq	.L42
 315              		.loc 1 224 0
 316 00e8 40F20003 		movw	r3, #:lower16:.LANCHOR0
 317 00ec C0F20003 		movt	r3, #:upper16:.LANCHOR0
 318 00f0 0027     		movs	r7, #0
 319              		.loc 1 225 0
 320 00f2 0424     		movs	r4, #4
 321              		.loc 1 224 0
 322 00f4 1F70     		strb	r7, [r3, #0]
 323              		.loc 1 225 0
 324 00f6 88F80040 		strb	r4, [r8, #0]
 325              	.LBB142:
 326              	.LBB143:
 327              		.loc 1 258 0
 328 00fa FFF7FEFF 		bl	chCoreStatus
 329              	.LVL28:
 330 00fe 40F20001 		movw	r1, #:lower16:Home_Altitude
 331 0102 8046     		mov	r8, r0
 332 0104 40F20000 		movw	r0, #:lower16:CurrentAlt
 333 0108 C0F20001 		movt	r1, #:upper16:Home_Altitude
 334 010c C0F20000 		movt	r0, #:upper16:CurrentAlt
 335 0110 40F2000C 		movw	ip, #:lower16:latitude
ARM GAS  C:\Users\Mohamad\AppData\Local\Temp\ccDsqi1j.s 			page 7


 336 0114 40F20002 		movw	r2, #:lower16:longitude
 337 0118 C0F20002 		movt	r2, #:upper16:longitude
 338 011c C0F2000C 		movt	ip, #:upper16:latitude
 339 0120 0968     		ldr	r1, [r1, #0]	@ float
 340 0122 0068     		ldr	r0, [r0, #0]	@ float
 341 0124 1468     		ldr	r4, [r2, #0]
 342 0126 DCF80050 		ldr	r5, [ip, #0]
 343 012a FFF7FEFF 		bl	__aeabi_fsub
 344              	.LVL29:
 345 012e 0021     		movs	r1, #0
 346 0130 C4F27A41 		movt	r1, 17530
 347 0134 FFF7FEFF 		bl	__aeabi_fmul
 348              	.LVL30:
 349 0138 FFF7FEFF 		bl	__aeabi_f2iz
 350              	.LVL31:
 351 013c 3D97     		str	r7, [sp, #244]
 352              	.LBB144:
 353              	.LBB145:
 354              		.file 2 "MAVLink/common/./mavlink_msg_gps_raw_int.h"
 355              		.loc 2 82 0
 356 013e 3E95     		str	r5, [sp, #248]
 357              		.loc 2 83 0
 358 0140 3F94     		str	r4, [sp, #252]
 359              	.LBE145:
 360              	.LBE144:
 361              		.loc 1 258 0
 362 0142 CDF8F080 		str	r8, [sp, #240]
 363              	.LBB206:
 364              	.LBB202:
 365              		.loc 2 92 0
 366 0146 3CAD     		add	r5, sp, #240
 367              	.LVL32:
 368              		.loc 2 84 0
 369 0148 4090     		str	r0, [sp, #256]
 370              		.loc 2 92 0
 371 014a 0FCD     		ldmia	r5!, {r0, r1, r2, r3}
 372              	.LVL33:
 373 014c 674C     		ldr	r4, .L45+32
 374              	.LVL34:
 375              		.loc 2 85 0
 376 014e ADF80471 		strh	r7, [sp, #260]	@ movhi
 377              		.loc 2 86 0
 378 0152 ADF80671 		strh	r7, [sp, #262]	@ movhi
 379              		.loc 2 87 0
 380 0156 ADF80871 		strh	r7, [sp, #264]	@ movhi
 381              		.loc 2 88 0
 382 015a ADF80A71 		strh	r7, [sp, #266]	@ movhi
 383              		.loc 2 89 0
 384 015e 8DF80C71 		strb	r7, [sp, #268]
 385              		.loc 2 90 0
 386 0162 8DF80D71 		strb	r7, [sp, #269]
 387              		.loc 2 92 0
 388 0166 0FC4     		stmia	r4!, {r0, r1, r2, r3}
 389 0168 95E80F00 		ldmia	r5, {r0, r1, r2, r3}
 390 016c 07C4     		stmia	r4!, {r0, r1, r2}
 391 016e 2246     		mov	r2, r4
 392              	.LBB146:
ARM GAS  C:\Users\Mohamad\AppData\Local\Temp\ccDsqi1j.s 			page 8


 393              	.LBB147:
 394              	.LBB148:
 395              	.LBB149:
 396              		.file 3 "MAVLink/common/../mavlink_helpers.h"
 397              		.loc 3 78 0
 398 0170 0127     		movs	r7, #1
 399              	.LBE149:
 400              	.LBE148:
 401              	.LBE147:
 402              	.LBE146:
 403              		.loc 2 92 0
 404 0172 22F81C39 		strh	r3, [r2], #-28	@ movhi
 405              	.LBB196:
 406              	.LBB190:
 407              	.LBB184:
 408              	.LBB178:
 409              		.loc 3 81 0
 410 0176 40F20003 		movw	r3, #:lower16:.LANCHOR9
 411 017a C0F20003 		movt	r3, #:upper16:.LANCHOR9
 412              		.loc 3 78 0
 413 017e 89F80570 		strb	r7, [r9, #5]
 414              		.loc 3 81 0
 415 0182 9979     		ldrb	r1, [r3, #6]	@ zero_extendqisi2
 416              		.loc 3 79 0
 417 0184 89F80670 		strb	r7, [r9, #6]
 418              	.LBB150:
 419              	.LBB151:
 420              	.LBB152:
 421              	.LBB153:
 422              		.file 4 "MAVLink/common/../checksum.h"
 423              		.loc 4 33 0
 424 0188 81F07800 		eor	r0, r1, #120
 425              		.loc 4 34 0
 426 018c 80EA0015 		eor	r5, r0, r0, lsl #4
 427 0190 EBB2     		uxtb	r3, r5
 428              		.loc 4 35 0
 429 0192 1C09     		lsrs	r4, r3, #4
 430 0194 84F0F600 		eor	r0, r4, #246
 431 0198 40EA0325 		orr	r5, r0, r3, lsl #8
 432 019c 85EAC304 		eor	r4, r5, r3, lsl #3
 433              		.loc 4 33 0
 434 01a0 84EA0703 		eor	r3, r4, r7
 435              		.loc 4 34 0
 436 01a4 83EA0310 		eor	r0, r3, r3, lsl #4
 437 01a8 C5B2     		uxtb	r5, r0
 438              		.loc 4 35 0
 439 01aa 240A     		lsrs	r4, r4, #8
 440 01ac 84EA1513 		eor	r3, r4, r5, lsr #4
 441 01b0 43EA0520 		orr	r0, r3, r5, lsl #8
 442 01b4 80EAC505 		eor	r5, r0, r5, lsl #3
 443              		.loc 4 33 0
 444 01b8 85EA0704 		eor	r4, r5, r7
 445              		.loc 4 34 0
 446 01bc 84EA0413 		eor	r3, r4, r4, lsl #4
 447 01c0 D8B2     		uxtb	r0, r3
 448              		.loc 4 35 0
 449 01c2 2D0A     		lsrs	r5, r5, #8
ARM GAS  C:\Users\Mohamad\AppData\Local\Temp\ccDsqi1j.s 			page 9


 450 01c4 85EA1014 		eor	r4, r5, r0, lsr #4
 451 01c8 44EA0023 		orr	r3, r4, r0, lsl #8
 452 01cc 83EAC000 		eor	r0, r3, r0, lsl #3
 453              		.loc 4 33 0
 454 01d0 80F01805 		eor	r5, r0, #24
 455              		.loc 4 34 0
 456 01d4 85EA0514 		eor	r4, r5, r5, lsl #4
 457 01d8 E3B2     		uxtb	r3, r4
 458              		.loc 4 35 0
 459 01da 000A     		lsrs	r0, r0, #8
 460 01dc 80EA1315 		eor	r5, r0, r3, lsr #4
 461              	.LBE153:
 462              	.LBE152:
 463              	.LBE151:
 464              	.LBE150:
 465              		.loc 3 82 0
 466 01e0 CC19     		adds	r4, r1, r7
 467 01e2 40F20007 		movw	r7, #:lower16:.LANCHOR9
 468              	.LBB160:
 469              	.LBB158:
 470              	.LBB156:
 471              	.LBB154:
 472              		.loc 4 35 0
 473 01e6 45EA0320 		orr	r0, r5, r3, lsl #8
 474              	.LBE154:
 475              	.LBE156:
 476              	.LBE158:
 477              	.LBE160:
 478              		.loc 3 82 0
 479 01ea C0F20007 		movt	r7, #:upper16:.LANCHOR9
 480              	.LBE178:
 481              	.LBE184:
 482              	.LBE190:
 483              	.LBE196:
 484              		.loc 2 95 0
 485 01ee 1825     		movs	r5, #24
 486              	.LBB197:
 487              	.LBB191:
 488              	.LBB185:
 489              	.LBB179:
 490              	.LBB161:
 491              	.LBB159:
 492              	.LBB157:
 493              	.LBB155:
 494              		.loc 4 35 0
 495 01f0 80EAC303 		eor	r3, r0, r3, lsl #3
 496              	.LBE155:
 497              	.LBE157:
 498              	.LBE159:
 499              	.LBE161:
 500              	.LBE179:
 501              	.LBE185:
 502              	.LBE191:
 503              	.LBE197:
 504              		.loc 2 95 0
 505 01f4 89F80750 		strb	r5, [r9, #7]
 506              	.LVL35:
ARM GAS  C:\Users\Mohamad\AppData\Local\Temp\ccDsqi1j.s 			page 10


 507              	.LBB198:
 508              	.LBB192:
 509              	.LBB186:
 510              	.LBB180:
 511              		.loc 3 76 0
 512 01f8 FE20     		movs	r0, #254
 513              		.loc 3 77 0
 514 01fa 1E25     		movs	r5, #30
 515              		.loc 3 76 0
 516 01fc 89F80200 		strb	r0, [r9, #2]
 517              		.loc 3 77 0
 518 0200 89F80350 		strb	r5, [r9, #3]
 519              		.loc 3 81 0
 520 0204 89F80410 		strb	r1, [r9, #4]
 521              	.LVL36:
 522              		.loc 3 82 0
 523 0208 BC71     		strb	r4, [r7, #6]
 524              	.LVL37:
 525              		.loc 3 83 0
 526 020a A9F80030 		strh	r3, [r9, #0]	@ movhi
 527              	.LVL38:
 528              	.L18:
 529              	.LBB162:
 530              	.LBB163:
 531              		.loc 4 82 0
 532 020e 1146     		mov	r1, r2
 533              	.LBB164:
 534              	.LBB165:
 535              		.loc 4 35 0
 536 0210 180A     		lsrs	r0, r3, #8
 537              	.LBE165:
 538              	.LBE164:
 539              		.loc 4 82 0
 540 0212 11F8015B 		ldrb	r5, [r1], #1	@ zero_extendqisi2
 541              	.LVL39:
 542              	.LBB169:
 543              	.LBB166:
 544              		.loc 4 35 0
 545 0216 364C     		ldr	r4, .L45+36
 546              		.loc 4 33 0
 547 0218 6B40     		eors	r3, r3, r5
 548              	.LVL40:
 549              		.loc 4 34 0
 550 021a 83EA0317 		eor	r7, r3, r3, lsl #4
 551 021e FDB2     		uxtb	r5, r7
 552              	.LVL41:
 553              		.loc 4 35 0
 554 0220 80EA1510 		eor	r0, r0, r5, lsr #4
 555 0224 40EA0523 		orr	r3, r0, r5, lsl #8
 556 0228 83EAC507 		eor	r7, r3, r5, lsl #3
 557              	.LVL42:
 558 022c A9F80070 		strh	r7, [r9, #0]	@ movhi
 559              	.LBE166:
 560              	.LBE169:
 561              		.loc 4 82 0
 562 0230 5278     		ldrb	r2, [r2, #1]	@ zero_extendqisi2
 563              	.LVL43:
ARM GAS  C:\Users\Mohamad\AppData\Local\Temp\ccDsqi1j.s 			page 11


 564              	.LBB170:
 565              	.LBB167:
 566              		.loc 4 33 0
 567 0232 7A40     		eors	r2, r2, r7
 568              		.loc 4 34 0
 569 0234 82EA0215 		eor	r5, r2, r2, lsl #4
 570              	.LVL44:
 571 0238 E8B2     		uxtb	r0, r5
 572              		.loc 4 35 0
 573 023a 3B0A     		lsrs	r3, r7, #8
 574 023c 83EA1017 		eor	r7, r3, r0, lsr #4
 575 0240 47EA0022 		orr	r2, r7, r0, lsl #8
 576 0244 82EAC003 		eor	r3, r2, r0, lsl #3
 577              	.LBE167:
 578              	.LBE170:
 579              		.loc 4 82 0
 580 0248 4A1C     		adds	r2, r1, #1
 581              	.LVL45:
 582              		.loc 4 81 0
 583 024a 04F12601 		add	r1, r4, #38
 584              	.LVL46:
 585 024e 8A42     		cmp	r2, r1
 586              	.LBB171:
 587              	.LBB168:
 588              		.loc 4 35 0
 589 0250 A9F80030 		strh	r3, [r9, #0]	@ movhi
 590              	.LBE168:
 591              	.LBE171:
 592              		.loc 4 81 0
 593 0254 DBD1     		bne	.L18
 594              	.LVL47:
 595              		.loc 4 33 0
 596 0256 83F01805 		eor	r5, r3, #24
 597              	.LVL48:
 598              	.LBE163:
 599              	.LBE162:
 600              	.LBB172:
 601              	.LBB173:
 602              		.loc 4 34 0
 603 025a 85EA0510 		eor	r0, r5, r5, lsl #4
 604 025e C7B2     		uxtb	r7, r0
 605              	.LVL49:
 606              		.loc 4 35 0
 607 0260 1B0A     		lsrs	r3, r3, #8
 608 0262 83EA1712 		eor	r2, r3, r7, lsr #4
 609              	.LVL50:
 610 0266 82EA0721 		eor	r1, r2, r7, lsl #8
 611 026a 81EAC705 		eor	r5, r1, r7, lsl #3
 612              	.LBE173:
 613              	.LBE172:
 614              	.LBE180:
 615              	.LBE186:
 616              	.LBE192:
 617              	.LBE198:
 618              	.LBE202:
 619              	.LBE206:
 620              	.LBB207:
ARM GAS  C:\Users\Mohamad\AppData\Local\Temp\ccDsqi1j.s 			page 12


 621              	.LBB208:
 622              		.loc 3 176 0
 623 026e E378     		ldrb	r3, [r4, #3]	@ zero_extendqisi2
 624 0270 2048     		ldr	r0, .L45+40
 625              	.LVL51:
 626              	.LBE208:
 627              	.LBE207:
 628              	.LBB213:
 629              	.LBB203:
 630              	.LBB199:
 631              	.LBB193:
 632              	.LBB187:
 633              	.LBB181:
 634              	.LBB176:
 635              	.LBB174:
 636              		.loc 4 35 0
 637 0272 AFB2     		uxth	r7, r5
 638              	.LVL52:
 639 0274 1FFA87FC 		uxth	ip, r7
 640              	.LBE174:
 641              	.LBE176:
 642              	.LBE181:
 643              	.LBE187:
 644              	.LBE193:
 645              	.LBE199:
 646              	.LBE203:
 647              	.LBE213:
 648              	.LBB214:
 649              	.LBB209:
 650              		.loc 3 176 0
 651 0278 9D1D     		adds	r5, r3, #6
 652              	.LBE209:
 653              	.LBE214:
 654              	.LBB215:
 655              	.LBB204:
 656              	.LBB200:
 657              	.LBB194:
 658              	.LBB188:
 659              	.LBB182:
 660              		.loc 3 89 0
 661 027a 4FEA1C28 		lsr	r8, ip, #8
 662              	.LVL53:
 663              	.LBB177:
 664              	.LBB175:
 665              		.loc 4 35 0
 666 027e A4F800C0 		strh	ip, [r4, #0]	@ movhi
 667              	.LBE175:
 668              	.LBE177:
 669              		.loc 3 88 0
 670 0282 84F82670 		strb	r7, [r4, #38]
 671              	.LBE182:
 672              	.LBE188:
 673              	.LBE194:
 674              	.LBE200:
 675              	.LBE204:
 676              	.LBE215:
 677              	.LBB216:
ARM GAS  C:\Users\Mohamad\AppData\Local\Temp\ccDsqi1j.s 			page 13


 678              	.LBB210:
 679              		.loc 3 176 0
 680 0286 A11C     		adds	r1, r4, #2
 681 0288 2A46     		mov	r2, r5
 682              	.LBE210:
 683              	.LBE216:
 684              	.LBB217:
 685              	.LBB205:
 686              	.LBB201:
 687              	.LBB195:
 688              	.LBB189:
 689              	.LBB183:
 690              		.loc 3 89 0
 691 028a 84F82780 		strb	r8, [r4, #39]
 692              	.LVL54:
 693              	.LBE183:
 694              	.LBE189:
 695              	.LBE195:
 696              	.LBE201:
 697              	.LBE205:
 698              	.LBE217:
 699              	.LBB218:
 700              	.LBB211:
 701              		.loc 3 176 0
 702 028e 0693     		str	r3, [sp, #24]
 703 0290 FFF7FEFF 		bl	memcpy
 704              	.LVL55:
 705              		.loc 3 178 0
 706 0294 40F20001 		movw	r1, #:lower16:.LANCHOR10
 707 0298 C0F20001 		movt	r1, #:upper16:.LANCHOR10
 708 029c 4C19     		adds	r4, r1, r5
 709              	.LVL56:
 710              		.loc 3 180 0
 711 029e 4F55     		strb	r7, [r1, r5]
 712              	.LBE211:
 713              	.LBE218:
 714              		.loc 1 260 0
 715 02a0 069B     		ldr	r3, [sp, #24]
 716 02a2 0D48     		ldr	r0, .L45+12
 717 02a4 134A     		ldr	r2, .L45+40
 718              	.LBB219:
 719              	.LBB212:
 720              		.loc 3 181 0
 721 02a6 84F80180 		strb	r8, [r4, #1]
 722              	.LBE212:
 723              	.LBE219:
 724              		.loc 1 260 0
 725 02aa 03F10801 		add	r1, r3, #8
 726 02ae FFF7FEFF 		bl	uartStartSendI
 727              	.LVL57:
 728              	.LBE143:
 729              	.LBE142:
 730              		.loc 1 228 0
 731 02b2 40F20005 		movw	r5, #:lower16:.LANCHOR13
 732              		.loc 1 227 0
 733 02b6 40F20002 		movw	r2, #:lower16:.LANCHOR12
 734 02ba C0F20002 		movt	r2, #:upper16:.LANCHOR12
ARM GAS  C:\Users\Mohamad\AppData\Local\Temp\ccDsqi1j.s 			page 14


 735              		.loc 1 228 0
 736 02be C0F20005 		movt	r5, #:upper16:.LANCHOR13
 737              		.loc 1 227 0
 738 02c2 0020     		movs	r0, #0
 739              		.loc 1 228 0
 740 02c4 0127     		movs	r7, #1
 741              		.loc 1 227 0
 742 02c6 1070     		strb	r0, [r2, #0]
 743              		.loc 1 228 0
 744 02c8 2F70     		strb	r7, [r5, #0]
 745 02ca DDE6     		b	.L42
 746              	.L46:
 747              		.align	2
 748              	.L45:
 749 02cc 00000000 		.word	I2CD2
 750 02d0 00000000 		.word	.LANCHOR3
 751 02d4 00000000 		.word	.LANCHOR4
 752 02d8 00000000 		.word	UARTD3
 753 02dc 00000000 		.word	vtlist
 754 02e0 00000000 		.word	.LANCHOR1
 755 02e4 00000000 		.word	Thread1
 756 02e8 00000000 		.word	.LANCHOR5
 757 02ec 08000000 		.word	.LANCHOR2+8
 758 02f0 00000000 		.word	.LANCHOR2
 759 02f4 00000000 		.word	.LANCHOR10
 760 02f8 00000000 		.word	.LANCHOR6
 761 02fc 00000000 		.word	.LANCHOR7
 762              	.LVL58:
 763              	.L17:
 764              		.loc 1 230 0
 765 0300 042C     		cmp	r4, #4
 766 0302 7FF4C1AE 		bne	.L42
 767 0306 40F20003 		movw	r3, #:lower16:.LANCHOR13
 768 030a C0F20003 		movt	r3, #:upper16:.LANCHOR13
 769 030e 1A78     		ldrb	r2, [r3, #0]	@ zero_extendqisi2
 770 0310 002A     		cmp	r2, #0
 771 0312 3FF4B9AE 		beq	.L42
 772              	.LBB220:
 773              	.LBB221:
 774              	.LBB222:
 775              	.LBB223:
 776              	.LBB224:
 777              	.LBB225:
 778              	.LBB226:
 779              	.LBB227:
 780              		.loc 3 81 0
 781 0316 40F20001 		movw	r1, #:lower16:.LANCHOR9
 782 031a C0F20001 		movt	r1, #:upper16:.LANCHOR9
 783              	.LBE227:
 784              	.LBE226:
 785              	.LBE225:
 786              	.LBE224:
 787              		.file 5 "MAVLink/common/./mavlink_msg_raw_pressure.h"
 788              		.loc 5 67 0
 789 031e DDF81CC0 		ldr	ip, [sp, #28]
 790              	.LBB342:
 791              	.LBB330:
ARM GAS  C:\Users\Mohamad\AppData\Local\Temp\ccDsqi1j.s 			page 15


 792              	.LBB318:
 793              	.LBB306:
 794              		.loc 3 81 0
 795 0322 8D79     		ldrb	r5, [r1, #6]	@ zero_extendqisi2
 796              	.LBB228:
 797              	.LBB229:
 798              	.LBB230:
 799              	.LBB231:
 800              		.loc 4 33 0
 801 0324 85F00600 		eor	r0, r5, #6
 802              		.loc 4 34 0
 803 0328 80EA0017 		eor	r7, r0, r0, lsl #4
 804 032c FCB2     		uxtb	r4, r7
 805              		.loc 4 35 0
 806 032e 2309     		lsrs	r3, r4, #4
 807 0330 83F01F02 		eor	r2, r3, #31
 808 0334 42EA0421 		orr	r1, r2, r4, lsl #8
 809              	.LBE231:
 810              	.LBE230:
 811              	.LBE229:
 812              	.LBE228:
 813              		.loc 3 81 0
 814 0338 0895     		str	r5, [sp, #32]
 815              	.LBB262:
 816              	.LBB252:
 817              	.LBB242:
 818              	.LBB232:
 819              		.loc 4 35 0
 820 033a 81EAC405 		eor	r5, r1, r4, lsl #3
 821              		.loc 4 33 0
 822 033e 85F00100 		eor	r0, r5, #1
 823              		.loc 4 34 0
 824 0342 80EA0017 		eor	r7, r0, r0, lsl #4
 825 0346 FCB2     		uxtb	r4, r7
 826              		.loc 4 35 0
 827 0348 290A     		lsrs	r1, r5, #8
 828              	.LBE232:
 829              	.LBE242:
 830              	.LBE252:
 831              	.LBE262:
 832              	.LBE306:
 833              	.LBE318:
 834              	.LBE330:
 835              	.LBE342:
 836              		.loc 5 61 0
 837 034a 0022     		movs	r2, #0
 838 034c 0023     		movs	r3, #0
 839 034e CDE93023 		strd	r2, [sp, #192]
 840              	.LBB343:
 841              	.LBB331:
 842              	.LBB319:
 843              	.LBB307:
 844              	.LBB263:
 845              	.LBB253:
 846              	.LBB243:
 847              	.LBB233:
 848              		.loc 4 35 0
ARM GAS  C:\Users\Mohamad\AppData\Local\Temp\ccDsqi1j.s 			page 16


 849 0352 81EA1412 		eor	r2, r1, r4, lsr #4
 850 0356 42EA0425 		orr	r5, r2, r4, lsl #8
 851              	.LBE233:
 852              	.LBE243:
 853              	.LBE253:
 854              	.LBE263:
 855              	.LBE307:
 856              	.LBE319:
 857              	.LBE331:
 858              	.LBE343:
 859              		.loc 5 63 0
 860 035a 0C23     		movs	r3, #12
 861              		.loc 5 62 0
 862 035c 0020     		movs	r0, #0
 863              	.LBB344:
 864              	.LBB332:
 865              	.LBB320:
 866              	.LBB308:
 867              	.LBB264:
 868              	.LBB254:
 869              	.LBB244:
 870              	.LBB234:
 871              		.loc 4 35 0
 872 035e 85EAC407 		eor	r7, r5, r4, lsl #3
 873              	.LBE234:
 874              	.LBE244:
 875              	.LBE254:
 876              	.LBE264:
 877              	.LBE308:
 878              	.LBE320:
 879              	.LBE332:
 880              	.LBE344:
 881              		.loc 5 62 0
 882 0362 ADF8C800 		strh	r0, [sp, #200]	@ movhi
 883              		.loc 5 63 0
 884 0366 ADF8CA30 		strh	r3, [sp, #202]	@ movhi
 885              		.loc 5 64 0
 886 036a ADF8CC00 		strh	r0, [sp, #204]	@ movhi
 887              		.loc 5 65 0
 888 036e ADF8CE30 		strh	r3, [sp, #206]	@ movhi
 889              		.loc 5 67 0
 890 0372 9CE80F00 		ldmia	ip, {r0, r1, r2, r3}
 891              	.LBB345:
 892              	.LBB333:
 893              	.LBB321:
 894              	.LBB309:
 895              	.LBB265:
 896              	.LBB255:
 897              	.LBB245:
 898              	.LBB235:
 899              		.loc 4 33 0
 900 0376 87F00104 		eor	r4, r7, #1
 901              		.loc 4 34 0
 902 037a 84EA0415 		eor	r5, r4, r4, lsl #4
 903 037e ECB2     		uxtb	r4, r5
 904              		.loc 4 35 0
 905 0380 3F0A     		lsrs	r7, r7, #8
ARM GAS  C:\Users\Mohamad\AppData\Local\Temp\ccDsqi1j.s 			page 17


 906 0382 87EA1415 		eor	r5, r7, r4, lsr #4
 907              	.LBE235:
 908              	.LBE245:
 909              	.LBE255:
 910              	.LBE265:
 911              	.LBE309:
 912              	.LBE321:
 913              	.LBE333:
 914              	.LBE345:
 915              		.loc 5 67 0
 916 0386 B04F     		ldr	r7, .L47
 917              	.LBB346:
 918              	.LBB334:
 919              	.LBB322:
 920              	.LBB310:
 921              	.LBB266:
 922              	.LBB256:
 923              	.LBB246:
 924              	.LBB236:
 925              		.loc 4 35 0
 926 0388 45EA0425 		orr	r5, r5, r4, lsl #8
 927              	.LBE236:
 928              	.LBE246:
 929              	.LBE256:
 930              	.LBE266:
 931              	.LBE310:
 932              	.LBE322:
 933              	.LBE334:
 934              	.LBE346:
 935              		.loc 5 67 0
 936 038c 87E80F00 		stmia	r7, {r0, r1, r2, r3}
 937              	.LBB347:
 938              	.LBB335:
 939              	.LBB323:
 940              	.LBB311:
 941              	.LBB267:
 942              	.LBB257:
 943              	.LBB247:
 944              	.LBB237:
 945              		.loc 4 35 0
 946 0390 85EAC401 		eor	r1, r5, r4, lsl #3
 947              		.loc 4 33 0
 948 0394 81F01C02 		eor	r2, r1, #28
 949              		.loc 4 34 0
 950 0398 82EA0213 		eor	r3, r2, r2, lsl #4
 951 039c DBB2     		uxtb	r3, r3
 952              		.loc 4 35 0
 953 039e 080A     		lsrs	r0, r1, #8
 954 03a0 80EA1314 		eor	r4, r0, r3, lsr #4
 955              	.LBE237:
 956              	.LBE247:
 957              	.LBE257:
 958              	.LBE267:
 959              	.LBB268:
 960              	.LBB269:
 961              	.LBB270:
 962              	.LBB271:
ARM GAS  C:\Users\Mohamad\AppData\Local\Temp\ccDsqi1j.s 			page 18


 963              		.loc 4 33 0
 964 03a4 99F80C10 		ldrb	r1, [r9, #12]	@ zero_extendqisi2
 965 03a8 99F80D20 		ldrb	r2, [r9, #13]	@ zero_extendqisi2
 966 03ac 99F80E00 		ldrb	r0, [r9, #14]	@ zero_extendqisi2
 967 03b0 0491     		str	r1, [sp, #16]
 968              	.LBE271:
 969              	.LBE270:
 970              	.LBE269:
 971              	.LBE268:
 972              	.LBB290:
 973              	.LBB258:
 974              	.LBB248:
 975              	.LBB238:
 976              		.loc 4 35 0
 977 03b2 44EA0325 		orr	r5, r4, r3, lsl #8
 978              	.LBE238:
 979              	.LBE248:
 980              	.LBE258:
 981              	.LBE290:
 982              	.LBB291:
 983              	.LBB284:
 984              	.LBB278:
 985              	.LBB272:
 986              		.loc 4 33 0
 987 03b6 99F81010 		ldrb	r1, [r9, #16]	@ zero_extendqisi2
 988 03ba 99F80F40 		ldrb	r4, [r9, #15]	@ zero_extendqisi2
 989 03be 0392     		str	r2, [sp, #12]
 990 03c0 0A90     		str	r0, [sp, #40]
 991 03c2 99F81120 		ldrb	r2, [r9, #17]	@ zero_extendqisi2
 992 03c6 99F81200 		ldrb	r0, [r9, #18]	@ zero_extendqisi2
 993              	.LBE272:
 994              	.LBE278:
 995              	.LBE284:
 996              	.LBE291:
 997              	.LBB292:
 998              	.LBB259:
 999              	.LBB249:
 1000              	.LBB239:
 1001              		.loc 4 35 0
 1002 03ca 0995     		str	r5, [sp, #36]
 1003              	.LBE239:
 1004              	.LBE249:
 1005              	.LBE259:
 1006              	.LBE292:
 1007              	.LBB293:
 1008              	.LBB285:
 1009              	.LBB279:
 1010              	.LBB273:
 1011              		.loc 4 33 0
 1012 03cc 99F808C0 		ldrb	ip, [r9, #8]	@ zero_extendqisi2
 1013 03d0 99F809E0 		ldrb	lr, [r9, #9]	@ zero_extendqisi2
 1014 03d4 99F80A70 		ldrb	r7, [r9, #10]	@ zero_extendqisi2
 1015 03d8 99F80B50 		ldrb	r5, [r9, #11]	@ zero_extendqisi2
 1016 03dc 0B94     		str	r4, [sp, #44]
 1017 03de 0C91     		str	r1, [sp, #48]
 1018 03e0 0D92     		str	r2, [sp, #52]
 1019 03e2 0E90     		str	r0, [sp, #56]
ARM GAS  C:\Users\Mohamad\AppData\Local\Temp\ccDsqi1j.s 			page 19


 1020 03e4 99F81340 		ldrb	r4, [r9, #19]	@ zero_extendqisi2
 1021 03e8 99F81520 		ldrb	r2, [r9, #21]	@ zero_extendqisi2
 1022 03ec 0F94     		str	r4, [sp, #60]
 1023 03ee 99F81740 		ldrb	r4, [r9, #23]	@ zero_extendqisi2
 1024 03f2 1192     		str	r2, [sp, #68]
 1025 03f4 1394     		str	r4, [sp, #76]
 1026              	.LBE273:
 1027              	.LBE279:
 1028              	.LBE285:
 1029              	.LBE293:
 1030              	.LBE311:
 1031              	.LBE323:
 1032              	.LBE335:
 1033              	.LBE347:
 1034              	.LBE223:
 1035              	.LBE222:
 1036              	.LBE221:
 1037              	.LBE220:
 1038              		.loc 1 232 0
 1039 03f6 40F20004 		movw	r4, #:lower16:.LANCHOR0
 1040 03fa C0F20004 		movt	r4, #:upper16:.LANCHOR0
 1041 03fe 0022     		movs	r2, #0
 1042 0400 2270     		strb	r2, [r4, #0]
 1043              	.LBB380:
 1044              	.LBB376:
 1045              	.LBB360:
 1046              	.LBB354:
 1047              	.LBB348:
 1048              	.LBB336:
 1049              	.LBB324:
 1050              	.LBB312:
 1051              	.LBB294:
 1052              	.LBB260:
 1053              	.LBB250:
 1054              	.LBB240:
 1055              		.loc 4 35 0
 1056 0402 099A     		ldr	r2, [sp, #36]
 1057              	.LBE240:
 1058              	.LBE250:
 1059              	.LBE260:
 1060              	.LBE294:
 1061              	.LBB295:
 1062              	.LBB286:
 1063              	.LBB280:
 1064              	.LBB274:
 1065              		.loc 4 33 0
 1066 0404 99F81410 		ldrb	r1, [r9, #20]	@ zero_extendqisi2
 1067 0408 99F81600 		ldrb	r0, [r9, #22]	@ zero_extendqisi2
 1068 040c 1091     		str	r1, [sp, #64]
 1069              	.LBE274:
 1070              	.LBE280:
 1071              	.LBE286:
 1072              	.LBE295:
 1073              	.LBB296:
 1074              	.LBB261:
 1075              	.LBB251:
 1076              	.LBB241:
ARM GAS  C:\Users\Mohamad\AppData\Local\Temp\ccDsqi1j.s 			page 20


 1077              		.loc 4 35 0
 1078 040e 82EAC303 		eor	r3, r2, r3, lsl #3
 1079              	.LBE241:
 1080              	.LBE251:
 1081              	.LBE261:
 1082              	.LBE296:
 1083              	.LBB297:
 1084              	.LBB287:
 1085              	.LBB281:
 1086              	.LBB275:
 1087              		.loc 4 33 0
 1088 0412 83EA0C0C 		eor	ip, r3, ip
 1089              		.loc 4 34 0
 1090 0416 8CEA0C14 		eor	r4, ip, ip, lsl #4
 1091 041a E2B2     		uxtb	r2, r4
 1092              		.loc 4 35 0
 1093 041c 1B0A     		lsrs	r3, r3, #8
 1094 041e 83EA1214 		eor	r4, r3, r2, lsr #4
 1095 0422 44EA0223 		orr	r3, r4, r2, lsl #8
 1096 0426 83EAC202 		eor	r2, r3, r2, lsl #3
 1097              		.loc 4 33 0
 1098 042a 82EA0E0E 		eor	lr, r2, lr
 1099              		.loc 4 34 0
 1100 042e 8EEA0E14 		eor	r4, lr, lr, lsl #4
 1101 0432 5FFA84FC 		uxtb	ip, r4
 1102              		.loc 4 35 0
 1103 0436 130A     		lsrs	r3, r2, #8
 1104 0438 83EA1C12 		eor	r2, r3, ip, lsr #4
 1105 043c 42EA0C24 		orr	r4, r2, ip, lsl #8
 1106 0440 84EACC03 		eor	r3, r4, ip, lsl #3
 1107              		.loc 4 33 0
 1108 0444 5F40     		eors	r7, r7, r3
 1109              		.loc 4 34 0
 1110 0446 87EA0712 		eor	r2, r7, r7, lsl #4
 1111 044a D4B2     		uxtb	r4, r2
 1112              		.loc 4 35 0
 1113 044c 1B0A     		lsrs	r3, r3, #8
 1114 044e 83EA1417 		eor	r7, r3, r4, lsr #4
 1115 0452 47EA0422 		orr	r2, r7, r4, lsl #8
 1116 0456 82EAC404 		eor	r4, r2, r4, lsl #3
 1117              		.loc 4 33 0
 1118 045a 6540     		eors	r5, r5, r4
 1119              		.loc 4 34 0
 1120 045c 85EA0513 		eor	r3, r5, r5, lsl #4
 1121 0460 DFB2     		uxtb	r7, r3
 1122              		.loc 4 35 0
 1123 0462 220A     		lsrs	r2, r4, #8
 1124 0464 82EA1714 		eor	r4, r2, r7, lsr #4
 1125 0468 44EA0725 		orr	r5, r4, r7, lsl #8
 1126 046c 85EAC703 		eor	r3, r5, r7, lsl #3
 1127              		.loc 4 33 0
 1128 0470 049F     		ldr	r7, [sp, #16]
 1129 0472 DDF828E0 		ldr	lr, [sp, #40]
 1130 0476 DDF838C0 		ldr	ip, [sp, #56]
 1131 047a 1290     		str	r0, [sp, #72]
 1132 047c 83EA0702 		eor	r2, r3, r7
 1133              		.loc 4 34 0
ARM GAS  C:\Users\Mohamad\AppData\Local\Temp\ccDsqi1j.s 			page 21


 1134 0480 82EA0214 		eor	r4, r2, r2, lsl #4
 1135 0484 E5B2     		uxtb	r5, r4
 1136              		.loc 4 35 0
 1137 0486 1B0A     		lsrs	r3, r3, #8
 1138 0488 83EA1517 		eor	r7, r3, r5, lsr #4
 1139 048c 47EA0522 		orr	r2, r7, r5, lsl #8
 1140 0490 82EAC504 		eor	r4, r2, r5, lsl #3
 1141              		.loc 4 33 0
 1142 0494 039D     		ldr	r5, [sp, #12]
 1143              	.LBE275:
 1144              	.LBE281:
 1145              	.LBE287:
 1146              	.LBE297:
 1147              	.LBE312:
 1148              	.LBE324:
 1149              	.LBE336:
 1150              	.LBE348:
 1151              	.LBE354:
 1152              	.LBE360:
 1153              	.LBB361:
 1154              	.LBB362:
 1155              		.loc 3 176 0
 1156 0496 6D49     		ldr	r1, .L47+4
 1157 0498 6D48     		ldr	r0, .L47+8
 1158              	.LBE362:
 1159              	.LBE361:
 1160              	.LBB367:
 1161              	.LBB355:
 1162              	.LBB349:
 1163              	.LBB337:
 1164              	.LBB325:
 1165              	.LBB313:
 1166              	.LBB298:
 1167              	.LBB288:
 1168              	.LBB282:
 1169              	.LBB276:
 1170              		.loc 4 33 0
 1171 049a 84EA0503 		eor	r3, r4, r5
 1172              		.loc 4 34 0
 1173 049e 83EA0317 		eor	r7, r3, r3, lsl #4
 1174 04a2 FAB2     		uxtb	r2, r7
 1175              		.loc 4 35 0
 1176 04a4 240A     		lsrs	r4, r4, #8
 1177 04a6 84EA1215 		eor	r5, r4, r2, lsr #4
 1178 04aa 45EA0223 		orr	r3, r5, r2, lsl #8
 1179 04ae 83EAC207 		eor	r7, r3, r2, lsl #3
 1180              		.loc 4 33 0
 1181 04b2 87EA0E02 		eor	r2, r7, lr
 1182              		.loc 4 34 0
 1183 04b6 82EA0214 		eor	r4, r2, r2, lsl #4
 1184 04ba E5B2     		uxtb	r5, r4
 1185              		.loc 4 35 0
 1186 04bc 3B0A     		lsrs	r3, r7, #8
 1187 04be 83EA1517 		eor	r7, r3, r5, lsr #4
 1188 04c2 47EA0522 		orr	r2, r7, r5, lsl #8
 1189              		.loc 4 33 0
 1190 04c6 0B9C     		ldr	r4, [sp, #44]
ARM GAS  C:\Users\Mohamad\AppData\Local\Temp\ccDsqi1j.s 			page 22


 1191 04c8 DDF848E0 		ldr	lr, [sp, #72]
 1192              		.loc 4 35 0
 1193 04cc 82EAC505 		eor	r5, r2, r5, lsl #3
 1194              		.loc 4 33 0
 1195 04d0 85EA0403 		eor	r3, r5, r4
 1196              		.loc 4 34 0
 1197 04d4 83EA0317 		eor	r7, r3, r3, lsl #4
 1198 04d8 FAB2     		uxtb	r2, r7
 1199              		.loc 4 35 0
 1200 04da 2D0A     		lsrs	r5, r5, #8
 1201 04dc 85EA1214 		eor	r4, r5, r2, lsr #4
 1202 04e0 44EA0223 		orr	r3, r4, r2, lsl #8
 1203 04e4 83EAC207 		eor	r7, r3, r2, lsl #3
 1204              		.loc 4 33 0
 1205 04e8 0C9A     		ldr	r2, [sp, #48]
 1206 04ea 87EA0205 		eor	r5, r7, r2
 1207              		.loc 4 34 0
 1208 04ee 85EA0514 		eor	r4, r5, r5, lsl #4
 1209 04f2 E2B2     		uxtb	r2, r4
 1210              		.loc 4 35 0
 1211 04f4 3B0A     		lsrs	r3, r7, #8
 1212 04f6 83EA1217 		eor	r7, r3, r2, lsr #4
 1213 04fa 47EA0225 		orr	r5, r7, r2, lsl #8
 1214 04fe 85EAC204 		eor	r4, r5, r2, lsl #3
 1215              		.loc 4 33 0
 1216 0502 0D9A     		ldr	r2, [sp, #52]
 1217 0504 84EA0203 		eor	r3, r4, r2
 1218              		.loc 4 34 0
 1219 0508 83EA0317 		eor	r7, r3, r3, lsl #4
 1220 050c FDB2     		uxtb	r5, r7
 1221              		.loc 4 35 0
 1222 050e 240A     		lsrs	r4, r4, #8
 1223 0510 84EA1512 		eor	r2, r4, r5, lsr #4
 1224 0514 42EA0523 		orr	r3, r2, r5, lsl #8
 1225 0518 83EAC507 		eor	r7, r3, r5, lsl #3
 1226              		.loc 4 33 0
 1227 051c 87EA0C05 		eor	r5, r7, ip
 1228              		.loc 4 34 0
 1229 0520 85EA0514 		eor	r4, r5, r5, lsl #4
 1230 0524 E2B2     		uxtb	r2, r4
 1231              		.loc 4 35 0
 1232 0526 3B0A     		lsrs	r3, r7, #8
 1233 0528 83EA1217 		eor	r7, r3, r2, lsr #4
 1234 052c 47EA0225 		orr	r5, r7, r2, lsl #8
 1235              		.loc 4 33 0
 1236 0530 0F9C     		ldr	r4, [sp, #60]
 1237              	.LBE276:
 1238              	.LBE282:
 1239              	.LBE288:
 1240              	.LBE298:
 1241              		.loc 3 82 0
 1242 0532 DDF820C0 		ldr	ip, [sp, #32]
 1243              	.LBB299:
 1244              	.LBB289:
 1245              	.LBB283:
 1246              	.LBB277:
 1247              		.loc 4 35 0
ARM GAS  C:\Users\Mohamad\AppData\Local\Temp\ccDsqi1j.s 			page 23


 1248 0536 85EAC203 		eor	r3, r5, r2, lsl #3
 1249              		.loc 4 33 0
 1250 053a 83EA0402 		eor	r2, r3, r4
 1251              		.loc 4 34 0
 1252 053e 82EA0217 		eor	r7, r2, r2, lsl #4
 1253 0542 FDB2     		uxtb	r5, r7
 1254              		.loc 4 35 0
 1255 0544 1B0A     		lsrs	r3, r3, #8
 1256 0546 83EA1514 		eor	r4, r3, r5, lsr #4
 1257 054a 44EA0522 		orr	r2, r4, r5, lsl #8
 1258 054e 82EAC507 		eor	r7, r2, r5, lsl #3
 1259              		.loc 4 33 0
 1260 0552 109D     		ldr	r5, [sp, #64]
 1261 0554 87EA0503 		eor	r3, r7, r5
 1262              		.loc 4 34 0
 1263 0558 83EA0314 		eor	r4, r3, r3, lsl #4
 1264 055c E2B2     		uxtb	r2, r4
 1265              		.loc 4 35 0
 1266 055e 3F0A     		lsrs	r7, r7, #8
 1267 0560 87EA1215 		eor	r5, r7, r2, lsr #4
 1268 0564 45EA0223 		orr	r3, r5, r2, lsl #8
 1269 0568 83EAC204 		eor	r4, r3, r2, lsl #3
 1270              		.loc 4 33 0
 1271 056c 119A     		ldr	r2, [sp, #68]
 1272 056e 84EA0207 		eor	r7, r4, r2
 1273              		.loc 4 34 0
 1274 0572 87EA0715 		eor	r5, r7, r7, lsl #4
 1275 0576 EBB2     		uxtb	r3, r5
 1276              		.loc 4 35 0
 1277 0578 240A     		lsrs	r4, r4, #8
 1278 057a 84EA1312 		eor	r2, r4, r3, lsr #4
 1279 057e 42EA0327 		orr	r7, r2, r3, lsl #8
 1280 0582 87EAC305 		eor	r5, r7, r3, lsl #3
 1281              		.loc 4 33 0
 1282 0586 85EA0E03 		eor	r3, r5, lr
 1283              		.loc 4 34 0
 1284 058a 83EA0314 		eor	r4, r3, r3, lsl #4
 1285 058e E7B2     		uxtb	r7, r4
 1286              		.loc 4 35 0
 1287 0590 2A0A     		lsrs	r2, r5, #8
 1288 0592 82EA1715 		eor	r5, r2, r7, lsr #4
 1289 0596 45EA0723 		orr	r3, r5, r7, lsl #8
 1290              		.loc 4 33 0
 1291 059a 139C     		ldr	r4, [sp, #76]
 1292              		.loc 4 35 0
 1293 059c 83EAC707 		eor	r7, r3, r7, lsl #3
 1294              		.loc 4 33 0
 1295 05a0 87EA0402 		eor	r2, r7, r4
 1296              		.loc 4 34 0
 1297 05a4 82EA0215 		eor	r5, r2, r2, lsl #4
 1298 05a8 EBB2     		uxtb	r3, r5
 1299              		.loc 4 35 0
 1300 05aa 3F0A     		lsrs	r7, r7, #8
 1301 05ac 87EA1314 		eor	r4, r7, r3, lsr #4
 1302 05b0 44EA0322 		orr	r2, r4, r3, lsl #8
 1303 05b4 82EAC305 		eor	r5, r2, r3, lsl #3
 1304              		.loc 4 33 0
ARM GAS  C:\Users\Mohamad\AppData\Local\Temp\ccDsqi1j.s 			page 24


 1305 05b8 85F04303 		eor	r3, r5, #67
 1306              	.LBE277:
 1307              	.LBE283:
 1308              	.LBE289:
 1309              	.LBE299:
 1310              	.LBB300:
 1311              	.LBB301:
 1312              		.loc 4 34 0
 1313 05bc 83EA0317 		eor	r7, r3, r3, lsl #4
 1314 05c0 FCB2     		uxtb	r4, r7
 1315              		.loc 4 35 0
 1316 05c2 2A0A     		lsrs	r2, r5, #8
 1317 05c4 82EA1415 		eor	r5, r2, r4, lsr #4
 1318 05c8 45EA0423 		orr	r3, r5, r4, lsl #8
 1319 05cc 83EAC405 		eor	r5, r3, r4, lsl #3
 1320              	.LBE301:
 1321              	.LBE300:
 1322              	.LBE313:
 1323              	.LBE325:
 1324              	.LBE337:
 1325              	.LBE349:
 1326              	.LBE355:
 1327              	.LBE367:
 1328              	.LBE376:
 1329              	.LBE380:
 1330              		.loc 1 233 0
 1331 05d0 0124     		movs	r4, #1
 1332              	.LBB381:
 1333              	.LBB377:
 1334              	.LBB368:
 1335              	.LBB356:
 1336              	.LBB350:
 1337              	.LBB338:
 1338              	.LBB326:
 1339              	.LBB314:
 1340              		.loc 3 82 0
 1341 05d2 0CEB040E 		add	lr, ip, r4
 1342              	.LBE314:
 1343              	.LBE326:
 1344              	.LBE338:
 1345              	.LBE350:
 1346              		.loc 5 70 0
 1347 05d6 4FF01C0C 		mov	ip, #28
 1348 05da 89F807C0 		strb	ip, [r9, #7]
 1349              	.LBB351:
 1350              	.LBB339:
 1351              	.LBB327:
 1352              	.LBB315:
 1353              		.loc 3 76 0
 1354 05de 4FF0FE0C 		mov	ip, #254
 1355 05e2 89F802C0 		strb	ip, [r9, #2]
 1356              		.loc 3 77 0
 1357 05e6 4FF0100C 		mov	ip, #16
 1358 05ea 89F803C0 		strb	ip, [r9, #3]
 1359              		.loc 3 81 0
 1360 05ee DDF820C0 		ldr	ip, [sp, #32]
 1361              	.LBE315:
ARM GAS  C:\Users\Mohamad\AppData\Local\Temp\ccDsqi1j.s 			page 25


 1362              	.LBE327:
 1363              	.LBE339:
 1364              	.LBE351:
 1365              	.LBE356:
 1366              	.LBE368:
 1367              	.LBE377:
 1368              	.LBE381:
 1369              		.loc 1 233 0
 1370 05f2 88F80040 		strb	r4, [r8, #0]
 1371              	.LVL59:
 1372              	.LBB382:
 1373              	.LBB378:
 1374              	.LBB369:
 1375              	.LBB357:
 1376              	.LBB352:
 1377              	.LBB340:
 1378              	.LBB328:
 1379              	.LBB316:
 1380              		.loc 3 81 0
 1381 05f6 89F804C0 		strb	ip, [r9, #4]
 1382              		.loc 3 82 0
 1383 05fa 40F2000C 		movw	ip, #:lower16:.LANCHOR9
 1384              	.LBB304:
 1385              	.LBB302:
 1386              		.loc 4 35 0
 1387 05fe ABB2     		uxth	r3, r5
 1388              	.LBE302:
 1389              	.LBE304:
 1390              		.loc 3 82 0
 1391 0600 C0F2000C 		movt	ip, #:upper16:.LANCHOR9
 1392              		.loc 3 89 0
 1393 0604 1F0A     		lsrs	r7, r3, #8
 1394              	.LBE316:
 1395              	.LBE328:
 1396              	.LBE340:
 1397              	.LBE352:
 1398              	.LBE357:
 1399              	.LBE369:
 1400              	.LBB370:
 1401              	.LBB363:
 1402              		.loc 3 176 0
 1403 0606 1622     		movs	r2, #22
 1404              	.LBE363:
 1405              	.LBE370:
 1406              	.LBB371:
 1407              	.LBB358:
 1408              	.LBB353:
 1409              	.LBB341:
 1410              	.LBB329:
 1411              	.LBB317:
 1412              		.loc 3 82 0
 1413 0608 8CF806E0 		strb	lr, [ip, #6]
 1414              		.loc 3 78 0
 1415 060c 89F80540 		strb	r4, [r9, #5]
 1416              		.loc 3 79 0
 1417 0610 89F80640 		strb	r4, [r9, #6]
 1418              	.LVL60:
ARM GAS  C:\Users\Mohamad\AppData\Local\Temp\ccDsqi1j.s 			page 26


 1419              	.LBB305:
 1420              	.LBB303:
 1421              		.loc 4 35 0
 1422 0614 A9F80030 		strh	r3, [r9, #0]	@ movhi
 1423              	.LBE303:
 1424              	.LBE305:
 1425              		.loc 3 88 0
 1426 0618 89F81850 		strb	r5, [r9, #24]
 1427              		.loc 3 89 0
 1428 061c 89F81970 		strb	r7, [r9, #25]
 1429              	.LVL61:
 1430              	.LBE317:
 1431              	.LBE329:
 1432              	.LBE341:
 1433              	.LBE353:
 1434              	.LBE358:
 1435              	.LBE371:
 1436              	.LBB372:
 1437              	.LBB364:
 1438              		.loc 3 176 0
 1439 0620 FFF7FEFF 		bl	memcpy
 1440              	.LVL62:
 1441              	.LBE364:
 1442              	.LBE372:
 1443              		.loc 1 268 0
 1444 0624 0A4A     		ldr	r2, .L47+8
 1445 0626 0B48     		ldr	r0, .L47+12
 1446              	.LBB373:
 1447              	.LBB365:
 1448              		.loc 3 180 0
 1449 0628 9575     		strb	r5, [r2, #22]
 1450              	.LBE365:
 1451              	.LBE373:
 1452              		.loc 1 268 0
 1453 062a 1821     		movs	r1, #24
 1454              	.LBB374:
 1455              	.LBB366:
 1456              		.loc 3 181 0
 1457 062c D775     		strb	r7, [r2, #23]
 1458              	.LBE366:
 1459              	.LBE374:
 1460              		.loc 1 268 0
 1461 062e FFF7FEFF 		bl	uartStartSendI
 1462              	.LVL63:
 1463              	.LBE378:
 1464              	.LBE382:
 1465              		.loc 1 236 0
 1466 0632 40F20000 		movw	r0, #:lower16:.LANCHOR8
 1467              		.loc 1 235 0
 1468 0636 0849     		ldr	r1, .L47+16
 1469              		.loc 1 236 0
 1470 0638 C0F20000 		movt	r0, #:upper16:.LANCHOR8
 1471              	.LBB383:
 1472              	.LBB379:
 1473              	.LBB375:
 1474              	.LBB359:
 1475              		.loc 5 62 0
ARM GAS  C:\Users\Mohamad\AppData\Local\Temp\ccDsqi1j.s 			page 27


 1476 063c 4FF00008 		mov	r8, #0	@ movhi
 1477              	.LBE359:
 1478              	.LBE375:
 1479              	.LBE379:
 1480              	.LBE383:
 1481              		.loc 1 235 0
 1482 0640 81F80080 		strb	r8, [r1, #0]
 1483              		.loc 1 236 0
 1484 0644 0470     		strb	r4, [r0, #0]
 1485 0646 1FE5     		b	.L42
 1486              	.L48:
 1487              		.align	2
 1488              	.L47:
 1489 0648 08000000 		.word	.LANCHOR2+8
 1490 064c 02000000 		.word	.LANCHOR2+2
 1491 0650 00000000 		.word	.LANCHOR10
 1492 0654 00000000 		.word	UARTD3
 1493 0658 00000000 		.word	.LANCHOR13
 1494              	.LVL64:
 1495              	.L43:
 1496              		.loc 1 206 0
 1497 065c 40F20007 		movw	r7, #:lower16:.LANCHOR8
 1498 0660 C0F20007 		movt	r7, #:upper16:.LANCHOR8
 1499 0664 3B78     		ldrb	r3, [r7, #0]	@ zero_extendqisi2
 1500 0666 002B     		cmp	r3, #0
 1501 0668 3FF40EAD 		beq	.L42
 1502              	.LBB384:
 1503              	.LBB385:
 1504              		.loc 1 251 0
 1505 066c 40F20000 		movw	r0, #:lower16:roll
 1506              	.LBE385:
 1507              	.LBE384:
 1508              		.loc 1 208 0
 1509 0670 40F20002 		movw	r2, #:lower16:.LANCHOR0
 1510 0674 C0F20002 		movt	r2, #:upper16:.LANCHOR0
 1511              	.LBB543:
 1512              	.LBB540:
 1513              		.loc 1 251 0
 1514 0678 C0F20000 		movt	r0, #:upper16:roll
 1515              	.LBE540:
 1516              	.LBE543:
 1517              		.loc 1 208 0
 1518 067c 0021     		movs	r1, #0
 1519              		.loc 1 209 0
 1520 067e 0227     		movs	r7, #2
 1521              	.LBB544:
 1522              	.LBB541:
 1523              		.loc 1 251 0
 1524 0680 0068     		ldr	r0, [r0, #0]	@ float
 1525              	.LBE541:
 1526              	.LBE544:
 1527              		.loc 1 209 0
 1528 0682 88F80070 		strb	r7, [r8, #0]
 1529              		.loc 1 208 0
 1530 0686 1170     		strb	r1, [r2, #0]
 1531              	.LBB545:
 1532              	.LBB542:
ARM GAS  C:\Users\Mohamad\AppData\Local\Temp\ccDsqi1j.s 			page 28


 1533              		.loc 1 251 0
 1534 0688 FFF7FEFF 		bl	__aeabi_f2d
 1535              	.LVL65:
 1536 068c 84A3     		adr	r3, .L49
 1537 068e D3E90023 		ldrd	r2, [r3]
 1538 0692 FFF7FEFF 		bl	__aeabi_dmul
 1539              	.LVL66:
 1540 0696 FFF7FEFF 		bl	__aeabi_d2f
 1541              	.LVL67:
 1542 069a 40F20003 		movw	r3, #:lower16:pitch
 1543 069e C0F20003 		movt	r3, #:upper16:pitch
 1544 06a2 8046     		mov	r8, r0
 1545 06a4 1868     		ldr	r0, [r3, #0]	@ float
 1546 06a6 DAF80C50 		ldr	r5, [sl, #12]
 1547 06aa FFF7FEFF 		bl	__aeabi_f2d
 1548              	.LVL68:
 1549 06ae 7CA3     		adr	r3, .L49
 1550 06b0 D3E90023 		ldrd	r2, [r3]
 1551 06b4 FFF7FEFF 		bl	__aeabi_dmul
 1552              	.LVL69:
 1553 06b8 FFF7FEFF 		bl	__aeabi_d2f
 1554              	.LVL70:
 1555 06bc 40F2000C 		movw	ip, #:lower16:yaw
 1556 06c0 C0F2000C 		movt	ip, #:upper16:yaw
 1557 06c4 0746     		mov	r7, r0
 1558 06c6 DCF80000 		ldr	r0, [ip, #0]	@ float
 1559 06ca FFF7FEFF 		bl	__aeabi_f2d
 1560              	.LVL71:
 1561 06ce 74A3     		adr	r3, .L49
 1562 06d0 D3E90023 		ldrd	r2, [r3]
 1563 06d4 FFF7FEFF 		bl	__aeabi_dmul
 1564              	.LVL72:
 1565 06d8 FFF7FEFF 		bl	__aeabi_d2f
 1566              	.LVL73:
 1567 06dc 0146     		mov	r1, r0
 1568 06de 1BA8     		add	r0, sp, #108
 1569 06e0 0591     		str	r1, [sp, #20]
 1570 06e2 FFF7FEFF 		bl	ins_get_Gyro_drift
 1571              	.LVL74:
 1572 06e6 1B9A     		ldr	r2, [sp, #108]	@ float
 1573 06e8 18A8     		add	r0, sp, #96
 1574 06ea 0892     		str	r2, [sp, #32]	@ float
 1575 06ec FFF7FEFF 		bl	ins_get_Gyro_drift
 1576              	.LVL75:
 1577 06f0 199B     		ldr	r3, [sp, #100]	@ float
 1578 06f2 15A8     		add	r0, sp, #84
 1579 06f4 0993     		str	r3, [sp, #36]	@ float
 1580 06f6 FFF7FEFF 		bl	ins_get_Gyro_drift
 1581              	.LVL76:
 1582              	.LBB386:
 1583              	.LBB387:
 1584              	.LBB388:
 1585              	.LBB389:
 1586              	.LBB390:
 1587              	.LBB391:
 1588              		.loc 3 81 0
 1589 06fa 40F20000 		movw	r0, #:lower16:.LANCHOR9
ARM GAS  C:\Users\Mohamad\AppData\Local\Temp\ccDsqi1j.s 			page 29


 1590 06fe C0F20000 		movt	r0, #:upper16:.LANCHOR9
 1591              	.LBE391:
 1592              	.LBE390:
 1593              	.LBE389:
 1594              	.LBE388:
 1595              		.file 6 "MAVLink/common/./mavlink_msg_attitude.h"
 1596              		.loc 6 69 0
 1597 0702 3595     		str	r5, [sp, #212]
 1598              	.LBB503:
 1599              	.LBB486:
 1600              	.LBB469:
 1601              	.LBB452:
 1602              		.loc 3 81 0
 1603 0704 90F806E0 		ldrb	lr, [r0, #6]	@ zero_extendqisi2
 1604              	.LBE452:
 1605              	.LBE469:
 1606              	.LBE486:
 1607              	.LBE503:
 1608              		.loc 6 70 0
 1609 0708 CDF8D880 		str	r8, [sp, #216]	@ float
 1610              	.LBB504:
 1611              	.LBB487:
 1612              	.LBB470:
 1613              	.LBB453:
 1614              	.LBB392:
 1615              	.LBB393:
 1616              	.LBB394:
 1617              	.LBB395:
 1618              		.loc 4 33 0
 1619 070c 8EF06A05 		eor	r5, lr, #106
 1620              		.loc 4 34 0
 1621 0710 85EA0511 		eor	r1, r5, r5, lsl #4
 1622 0714 CAB2     		uxtb	r2, r1
 1623              		.loc 4 35 0
 1624 0716 1309     		lsrs	r3, r2, #4
 1625 0718 83F0D500 		eor	r0, r3, #213
 1626 071c 40EA0225 		orr	r5, r0, r2, lsl #8
 1627 0720 85EAC201 		eor	r1, r5, r2, lsl #3
 1628              		.loc 4 33 0
 1629 0724 81F00102 		eor	r2, r1, #1
 1630              		.loc 4 34 0
 1631 0728 82EA0213 		eor	r3, r2, r2, lsl #4
 1632 072c DDB2     		uxtb	r5, r3
 1633              		.loc 4 35 0
 1634 072e 080A     		lsrs	r0, r1, #8
 1635 0730 80EA1511 		eor	r1, r0, r5, lsr #4
 1636 0734 41EA0528 		orr	r8, r1, r5, lsl #8
 1637 0738 88EAC50C 		eor	ip, r8, r5, lsl #3
 1638              		.loc 4 33 0
 1639 073c 8CF00105 		eor	r5, ip, #1
 1640              	.LBE395:
 1641              	.LBE394:
 1642              	.LBE393:
 1643              	.LBE392:
 1644              	.LBE453:
 1645              	.LBE470:
 1646              	.LBE487:
ARM GAS  C:\Users\Mohamad\AppData\Local\Temp\ccDsqi1j.s 			page 30


 1647              	.LBE504:
 1648              		.loc 6 71 0
 1649 0740 3797     		str	r7, [sp, #220]	@ float
 1650              	.LBB505:
 1651              	.LBB488:
 1652              	.LBB471:
 1653              	.LBB454:
 1654              	.LBB426:
 1655              	.LBB416:
 1656              	.LBB406:
 1657              	.LBB396:
 1658              		.loc 4 34 0
 1659 0742 85EA0518 		eor	r8, r5, r5, lsl #4
 1660              	.LBE396:
 1661              	.LBE406:
 1662              	.LBE416:
 1663              	.LBE426:
 1664              	.LBE454:
 1665              	.LBE471:
 1666              	.LBE488:
 1667              	.LBE505:
 1668              		.loc 6 72 0
 1669 0746 059F     		ldr	r7, [sp, #20]
 1670              	.LBB506:
 1671              	.LBB489:
 1672              	.LBB472:
 1673              	.LBB455:
 1674              	.LBB427:
 1675              	.LBB417:
 1676              	.LBB407:
 1677              	.LBB397:
 1678              		.loc 4 35 0
 1679 0748 CDF828C0 		str	ip, [sp, #40]
 1680              		.loc 4 34 0
 1681 074c 5FFA88FC 		uxtb	ip, r8
 1682              	.LBE397:
 1683              	.LBE407:
 1684              	.LBE417:
 1685              	.LBE427:
 1686              	.LBE455:
 1687              	.LBE472:
 1688              	.LBE489:
 1689              	.LBE506:
 1690              		.loc 6 73 0
 1691 0750 DDF82080 		ldr	r8, [sp, #32]	@ float
 1692              		.loc 6 72 0
 1693 0754 3897     		str	r7, [sp, #224]	@ float
 1694              		.loc 6 77 0
 1695 0756 35AF     		add	r7, sp, #212
 1696 0758 0FCF     		ldmia	r7!, {r0, r1, r2, r3}
 1697              		.loc 6 73 0
 1698 075a CDF8E480 		str	r8, [sp, #228]	@ float
 1699              	.LBB507:
 1700              	.LBB490:
 1701              	.LBB473:
 1702              	.LBB456:
 1703              	.LBB428:
ARM GAS  C:\Users\Mohamad\AppData\Local\Temp\ccDsqi1j.s 			page 31


 1704              	.LBB418:
 1705              	.LBB408:
 1706              	.LBB398:
 1707              		.loc 4 35 0
 1708 075e DDF82880 		ldr	r8, [sp, #40]
 1709              	.LBE398:
 1710              	.LBE408:
 1711              	.LBE418:
 1712              	.LBE428:
 1713              	.LBE456:
 1714              	.LBE473:
 1715              	.LBE490:
 1716              	.LBE507:
 1717              	.LBE387:
 1718              	.LBE386:
 1719              		.loc 1 251 0
 1720 0762 179D     		ldr	r5, [sp, #92]	@ float
 1721              	.LBB525:
 1722              	.LBB520:
 1723              	.LBB508:
 1724              	.LBB491:
 1725              	.LBB474:
 1726              	.LBB457:
 1727              	.LBB429:
 1728              	.LBB419:
 1729              	.LBB409:
 1730              	.LBB399:
 1731              		.loc 4 35 0
 1732 0764 4FEA1828 		lsr	r8, r8, #8
 1733              	.LBE399:
 1734              	.LBE409:
 1735              	.LBE419:
 1736              	.LBE429:
 1737              	.LBE457:
 1738              	.LBE474:
 1739              	.LBE491:
 1740              	.LBE508:
 1741              	.LBE520:
 1742              	.LBE525:
 1743              		.loc 1 251 0
 1744 0768 3B95     		str	r5, [sp, #236]	@ float
 1745              	.LVL77:
 1746              	.LBB526:
 1747              	.LBB521:
 1748              	.LBB509:
 1749              	.LBB492:
 1750              	.LBB475:
 1751              	.LBB458:
 1752              	.LBB430:
 1753              	.LBB420:
 1754              	.LBB410:
 1755              	.LBB400:
 1756              		.loc 4 35 0
 1757 076a 88EA1C18 		eor	r8, r8, ip, lsr #4
 1758              	.LBE400:
 1759              	.LBE410:
 1760              	.LBE420:
ARM GAS  C:\Users\Mohamad\AppData\Local\Temp\ccDsqi1j.s 			page 32


 1761              	.LBE430:
 1762              	.LBE458:
 1763              	.LBE475:
 1764              	.LBE492:
 1765              	.LBE509:
 1766              		.loc 6 77 0
 1767 076e 4E4D     		ldr	r5, .L49+8
 1768              	.LVL78:
 1769              	.LBB510:
 1770              	.LBB493:
 1771              	.LBB476:
 1772              	.LBB459:
 1773              	.LBB431:
 1774              	.LBB421:
 1775              	.LBB411:
 1776              	.LBB401:
 1777              		.loc 4 35 0
 1778 0770 CDF82080 		str	r8, [sp, #32]
 1779              	.LBE401:
 1780              	.LBE411:
 1781              	.LBE421:
 1782              	.LBE431:
 1783              	.LBE459:
 1784              	.LBE476:
 1785              	.LBE493:
 1786              	.LBE510:
 1787              		.loc 6 77 0
 1788 0774 0FC5     		stmia	r5!, {r0, r1, r2, r3}
 1789              	.LBB511:
 1790              	.LBB494:
 1791              	.LBB477:
 1792              	.LBB460:
 1793              	.LBB432:
 1794              	.LBB422:
 1795              	.LBB412:
 1796              	.LBB402:
 1797              		.loc 4 35 0
 1798 0776 089B     		ldr	r3, [sp, #32]
 1799              	.LBE402:
 1800              	.LBE412:
 1801              	.LBE422:
 1802              	.LBE432:
 1803              	.LBE460:
 1804              	.LBE477:
 1805              	.LBE494:
 1806              	.LBE511:
 1807              		.loc 6 74 0
 1808 0778 099A     		ldr	r2, [sp, #36]	@ float
 1809              	.LBB512:
 1810              	.LBB495:
 1811              	.LBB478:
 1812              	.LBB461:
 1813              	.LBB433:
 1814              	.LBB423:
 1815              	.LBB413:
 1816              	.LBB403:
 1817              		.loc 4 35 0
ARM GAS  C:\Users\Mohamad\AppData\Local\Temp\ccDsqi1j.s 			page 33


 1818 077a 43EA0C20 		orr	r0, r3, ip, lsl #8
 1819              	.LVL79:
 1820 077e 80EACC0C 		eor	ip, r0, ip, lsl #3
 1821              	.LBE403:
 1822              	.LBE413:
 1823              	.LBE423:
 1824              	.LBE433:
 1825              	.LBE461:
 1826              	.LBE478:
 1827              	.LBE495:
 1828              	.LBE512:
 1829              		.loc 6 74 0
 1830 0782 3A92     		str	r2, [sp, #232]	@ float
 1831              		.loc 6 77 0
 1832 0784 97E80700 		ldmia	r7, {r0, r1, r2}
 1833              	.LBB513:
 1834              	.LBB496:
 1835              	.LBB479:
 1836              	.LBB462:
 1837              	.LBB434:
 1838              	.LBB424:
 1839              	.LBB414:
 1840              	.LBB404:
 1841              		.loc 4 33 0
 1842 0788 8CF01E07 		eor	r7, ip, #30
 1843              		.loc 4 34 0
 1844 078c 87EA0713 		eor	r3, r7, r7, lsl #4
 1845 0790 DBB2     		uxtb	r3, r3
 1846              		.loc 4 35 0
 1847 0792 4FEA1C27 		lsr	r7, ip, #8
 1848 0796 87EA1317 		eor	r7, r7, r3, lsr #4
 1849              	.LBE404:
 1850              	.LBE414:
 1851              	.LBE424:
 1852              	.LBE434:
 1853              	.LBE462:
 1854              	.LBE479:
 1855              	.LBE496:
 1856              	.LBE513:
 1857              		.loc 6 77 0
 1858 079a 85E80700 		stmia	r5, {r0, r1, r2}
 1859              	.LBB514:
 1860              	.LBB497:
 1861              	.LBB480:
 1862              	.LBB463:
 1863              	.LBB435:
 1864              	.LBB425:
 1865              	.LBB415:
 1866              	.LBB405:
 1867              		.loc 4 35 0
 1868 079e 47EA0321 		orr	r1, r7, r3, lsl #8
 1869 07a2 81EAC303 		eor	r3, r1, r3, lsl #3
 1870              	.LBE405:
 1871              	.LBE415:
 1872              	.LBE425:
 1873              	.LBE435:
 1874              	.LBE463:
ARM GAS  C:\Users\Mohamad\AppData\Local\Temp\ccDsqi1j.s 			page 34


 1875              	.LBE480:
 1876              	.LBE497:
 1877              	.LBE514:
 1878              		.loc 6 80 0
 1879 07a6 1E20     		movs	r0, #30
 1880              	.LBB515:
 1881              	.LBB498:
 1882              	.LBB481:
 1883              	.LBB464:
 1884              		.loc 3 76 0
 1885 07a8 FE27     		movs	r7, #254
 1886              		.loc 3 77 0
 1887 07aa 1C21     		movs	r1, #28
 1888              	.LBE464:
 1889              	.LBE481:
 1890              	.LBE498:
 1891              	.LBE515:
 1892              		.loc 6 80 0
 1893 07ac 89F80700 		strb	r0, [r9, #7]
 1894              	.LBB516:
 1895              	.LBB499:
 1896              	.LBB482:
 1897              	.LBB465:
 1898              		.loc 3 76 0
 1899 07b0 89F80270 		strb	r7, [r9, #2]
 1900              		.loc 3 77 0
 1901 07b4 89F80310 		strb	r1, [r9, #3]
 1902              		.loc 3 78 0
 1903 07b8 89F80540 		strb	r4, [r9, #5]
 1904              		.loc 3 79 0
 1905 07bc 89F80640 		strb	r4, [r9, #6]
 1906              		.loc 3 82 0
 1907 07c0 40F20004 		movw	r4, #:lower16:.LANCHOR9
 1908 07c4 C0F20004 		movt	r4, #:upper16:.LANCHOR9
 1909 07c8 0EF10102 		add	r2, lr, #1
 1910              	.LVL80:
 1911              		.loc 3 81 0
 1912 07cc 89F804E0 		strb	lr, [r9, #4]
 1913              	.LVL81:
 1914              		.loc 3 82 0
 1915 07d0 A271     		strb	r2, [r4, #6]
 1916              	.LVL82:
 1917              		.loc 3 83 0
 1918 07d2 A9F80030 		strh	r3, [r9, #0]	@ movhi
 1919              	.LVL83:
 1920              		.loc 3 84 0
 1921 07d6 103D     		subs	r5, r5, #16
 1922              	.LVL84:
 1923              	.L14:
 1924              	.LBB436:
 1925              	.LBB437:
 1926              		.loc 4 82 0
 1927 07d8 2A46     		mov	r2, r5
 1928              	.LBB438:
 1929              	.LBB439:
 1930              		.loc 4 35 0
 1931 07da 180A     		lsrs	r0, r3, #8
ARM GAS  C:\Users\Mohamad\AppData\Local\Temp\ccDsqi1j.s 			page 35


 1932              	.LBE439:
 1933              	.LBE438:
 1934              		.loc 4 82 0
 1935 07dc 12F8017B 		ldrb	r7, [r2], #1	@ zero_extendqisi2
 1936              	.LVL85:
 1937              	.LBB443:
 1938              	.LBB440:
 1939              		.loc 4 35 0
 1940 07e0 324C     		ldr	r4, .L49+12
 1941              		.loc 4 33 0
 1942 07e2 7B40     		eors	r3, r3, r7
 1943              	.LVL86:
 1944              		.loc 4 34 0
 1945 07e4 83EA0311 		eor	r1, r3, r3, lsl #4
 1946 07e8 CFB2     		uxtb	r7, r1
 1947              	.LVL87:
 1948              		.loc 4 35 0
 1949 07ea 80EA1710 		eor	r0, r0, r7, lsr #4
 1950 07ee 40EA0723 		orr	r3, r0, r7, lsl #8
 1951 07f2 83EAC707 		eor	r7, r3, r7, lsl #3
 1952 07f6 A9F80070 		strh	r7, [r9, #0]	@ movhi
 1953              	.LBE440:
 1954              	.LBE443:
 1955              		.loc 4 82 0
 1956 07fa 6D78     		ldrb	r5, [r5, #1]	@ zero_extendqisi2
 1957              	.LVL88:
 1958              	.LBB444:
 1959              	.LBB441:
 1960              		.loc 4 33 0
 1961 07fc 7D40     		eors	r5, r5, r7
 1962              		.loc 4 34 0
 1963 07fe 85EA0511 		eor	r1, r5, r5, lsl #4
 1964              	.LVL89:
 1965 0802 C8B2     		uxtb	r0, r1
 1966              		.loc 4 35 0
 1967 0804 3B0A     		lsrs	r3, r7, #8
 1968 0806 83EA1017 		eor	r7, r3, r0, lsr #4
 1969 080a 47EA0025 		orr	r5, r7, r0, lsl #8
 1970 080e 85EAC003 		eor	r3, r5, r0, lsl #3
 1971              	.LBE441:
 1972              	.LBE444:
 1973              		.loc 4 82 0
 1974 0812 551C     		adds	r5, r2, #1
 1975              	.LVL90:
 1976              		.loc 4 81 0
 1977 0814 04F12402 		add	r2, r4, #36
 1978              	.LVL91:
 1979 0818 9542     		cmp	r5, r2
 1980              	.LBB445:
 1981              	.LBB442:
 1982              		.loc 4 35 0
 1983 081a A9F80030 		strh	r3, [r9, #0]	@ movhi
 1984              	.LBE442:
 1985              	.LBE445:
 1986              		.loc 4 81 0
 1987 081e DBD1     		bne	.L14
 1988              	.LVL92:
ARM GAS  C:\Users\Mohamad\AppData\Local\Temp\ccDsqi1j.s 			page 36


 1989              		.loc 4 33 0
 1990 0820 83F02701 		eor	r1, r3, #39
 1991              	.LVL93:
 1992              	.LBE437:
 1993              	.LBE436:
 1994              	.LBB446:
 1995              	.LBB447:
 1996              		.loc 4 34 0
 1997 0824 81EA0110 		eor	r0, r1, r1, lsl #4
 1998 0828 C7B2     		uxtb	r7, r0
 1999              	.LVL94:
 2000              		.loc 4 35 0
 2001 082a 1B0A     		lsrs	r3, r3, #8
 2002 082c 83EA1715 		eor	r5, r3, r7, lsr #4
 2003              	.LVL95:
 2004 0830 85EA0722 		eor	r2, r5, r7, lsl #8
 2005 0834 82EAC701 		eor	r1, r2, r7, lsl #3
 2006              	.LBE447:
 2007              	.LBE446:
 2008              	.LBE465:
 2009              	.LBE482:
 2010              	.LBE499:
 2011              	.LBE516:
 2012              	.LBE521:
 2013              	.LBE526:
 2014              	.LBB527:
 2015              	.LBB528:
 2016              		.loc 3 176 0
 2017 0838 E378     		ldrb	r3, [r4, #3]	@ zero_extendqisi2
 2018 083a 1D48     		ldr	r0, .L49+16
 2019              	.LVL96:
 2020              	.LBE528:
 2021              	.LBE527:
 2022              	.LBB533:
 2023              	.LBB522:
 2024              	.LBB517:
 2025              	.LBB500:
 2026              	.LBB483:
 2027              	.LBB466:
 2028              	.LBB450:
 2029              	.LBB448:
 2030              		.loc 4 35 0
 2031 083c 8FB2     		uxth	r7, r1
 2032              	.LVL97:
 2033 083e 1FFA87FE 		uxth	lr, r7
 2034              	.LBE448:
 2035              	.LBE450:
 2036              	.LBE466:
 2037              	.LBE483:
 2038              	.LBE500:
 2039              	.LBE517:
 2040              	.LBE522:
 2041              	.LBE533:
 2042              	.LBB534:
 2043              	.LBB529:
 2044              		.loc 3 176 0
 2045 0842 9D1D     		adds	r5, r3, #6
ARM GAS  C:\Users\Mohamad\AppData\Local\Temp\ccDsqi1j.s 			page 37


 2046              	.LBE529:
 2047              	.LBE534:
 2048              	.LBB535:
 2049              	.LBB523:
 2050              	.LBB518:
 2051              	.LBB501:
 2052              	.LBB484:
 2053              	.LBB467:
 2054              		.loc 3 89 0
 2055 0844 4FEA1E28 		lsr	r8, lr, #8
 2056              	.LBB451:
 2057              	.LBB449:
 2058              		.loc 4 35 0
 2059 0848 A4F800E0 		strh	lr, [r4, #0]	@ movhi
 2060              	.LBE449:
 2061              	.LBE451:
 2062              		.loc 3 88 0
 2063 084c 84F82470 		strb	r7, [r4, #36]
 2064              	.LBE467:
 2065              	.LBE484:
 2066              	.LBE501:
 2067              	.LBE518:
 2068              	.LBE523:
 2069              	.LBE535:
 2070              	.LBB536:
 2071              	.LBB530:
 2072              		.loc 3 176 0
 2073 0850 A11C     		adds	r1, r4, #2
 2074              	.LBE530:
 2075              	.LBE536:
 2076              	.LBB537:
 2077              	.LBB524:
 2078              	.LBB519:
 2079              	.LBB502:
 2080              	.LBB485:
 2081              	.LBB468:
 2082              		.loc 3 89 0
 2083 0852 84F82580 		strb	r8, [r4, #37]
 2084              	.LVL98:
 2085              	.LBE468:
 2086              	.LBE485:
 2087              	.LBE502:
 2088              	.LBE519:
 2089              	.LBE524:
 2090              	.LBE537:
 2091              	.LBB538:
 2092              	.LBB531:
 2093              		.loc 3 176 0
 2094 0856 2A46     		mov	r2, r5
 2095 0858 0693     		str	r3, [sp, #24]
 2096 085a FFF7FEFF 		bl	memcpy
 2097              	.LVL99:
 2098              		.loc 3 178 0
 2099 085e 40F2000C 		movw	ip, #:lower16:.LANCHOR10
 2100 0862 C0F2000C 		movt	ip, #:upper16:.LANCHOR10
 2101 0866 0CEB0504 		add	r4, ip, r5
 2102              	.LVL100:
ARM GAS  C:\Users\Mohamad\AppData\Local\Temp\ccDsqi1j.s 			page 38


 2103              		.loc 3 180 0
 2104 086a 0CF80570 		strb	r7, [ip, r5]
 2105              	.LBE531:
 2106              	.LBE538:
 2107              		.loc 1 253 0
 2108 086e 069B     		ldr	r3, [sp, #24]
 2109 0870 1048     		ldr	r0, .L49+20
 2110 0872 0F4A     		ldr	r2, .L49+16
 2111              	.LBB539:
 2112              	.LBB532:
 2113              		.loc 3 181 0
 2114 0874 84F80180 		strb	r8, [r4, #1]
 2115              	.LBE532:
 2116              	.LBE539:
 2117              		.loc 1 253 0
 2118 0878 03F10801 		add	r1, r3, #8
 2119 087c FFF7FEFF 		bl	uartStartSend
 2120              	.LVL101:
 2121              	.LBE542:
 2122              	.LBE545:
 2123              		.loc 1 212 0
 2124 0880 40F20007 		movw	r7, #:lower16:.LANCHOR11
 2125              		.loc 1 211 0
 2126 0884 40F20002 		movw	r2, #:lower16:.LANCHOR8
 2127 0888 C0F20002 		movt	r2, #:upper16:.LANCHOR8
 2128              		.loc 1 212 0
 2129 088c C0F20007 		movt	r7, #:upper16:.LANCHOR11
 2130              		.loc 1 211 0
 2131 0890 0020     		movs	r0, #0
 2132              		.loc 1 212 0
 2133 0892 0121     		movs	r1, #1
 2134              		.loc 1 211 0
 2135 0894 1070     		strb	r0, [r2, #0]
 2136              		.loc 1 212 0
 2137 0896 3970     		strb	r1, [r7, #0]
 2138 0898 FFF7F6BB 		b	.L42
 2139              	.L50:
 2140 089c AFF30080 		.align	3
 2141              	.L49:
 2142 08a0 E79AD561 		.word	1641388775
 2143 08a4 94A94C40 		.word	1078765972
 2144 08a8 08000000 		.word	.LANCHOR2+8
 2145 08ac 00000000 		.word	.LANCHOR2
 2146 08b0 00000000 		.word	.LANCHOR10
 2147 08b4 00000000 		.word	UARTD3
 2148              	.LVL102:
 2149              	.L44:
 2150              		.loc 1 214 0
 2151 08b8 40F20001 		movw	r1, #:lower16:.LANCHOR11
 2152 08bc C0F20001 		movt	r1, #:upper16:.LANCHOR11
 2153 08c0 0C78     		ldrb	r4, [r1, #0]	@ zero_extendqisi2
 2154 08c2 002C     		cmp	r4, #0
 2155 08c4 3FF4E0AB 		beq	.L42
 2156              		.loc 1 216 0
 2157 08c8 40F20003 		movw	r3, #:lower16:.LANCHOR0
 2158 08cc C0F20003 		movt	r3, #:upper16:.LANCHOR0
 2159              		.loc 1 217 0
ARM GAS  C:\Users\Mohamad\AppData\Local\Temp\ccDsqi1j.s 			page 39


 2160 08d0 0322     		movs	r2, #3
 2161              		.loc 1 216 0
 2162 08d2 0024     		movs	r4, #0
 2163              	.LBB546:
 2164              	.LBB547:
 2165              		.loc 1 243 0
 2166 08d4 2DA8     		add	r0, sp, #180
 2167              	.LBE547:
 2168              	.LBE546:
 2169              		.loc 1 216 0
 2170 08d6 1C70     		strb	r4, [r3, #0]
 2171              		.loc 1 217 0
 2172 08d8 88F80020 		strb	r2, [r8, #0]
 2173              	.LBB687:
 2174              	.LBB686:
 2175              		.loc 1 243 0
 2176 08dc FFF7FEFF 		bl	ins_get_Accel
 2177              	.LVL103:
 2178 08e0 2D9F     		ldr	r7, [sp, #180]	@ float
 2179 08e2 2AA8     		add	r0, sp, #168
 2180 08e4 0697     		str	r7, [sp, #24]
 2181 08e6 FFF7FEFF 		bl	ins_get_Accel
 2182              	.LVL104:
 2183 08ea 2B9D     		ldr	r5, [sp, #172]	@ float
 2184 08ec 27A8     		add	r0, sp, #156
 2185 08ee 0595     		str	r5, [sp, #20]
 2186 08f0 FFF7FEFF 		bl	ins_get_Accel
 2187              	.LVL105:
 2188 08f4 24A8     		add	r0, sp, #144
 2189 08f6 299D     		ldr	r5, [sp, #164]	@ float
 2190 08f8 FFF7FEFF 		bl	ins_get_gyro
 2191              	.LVL106:
 2192 08fc 21A8     		add	r0, sp, #132
 2193 08fe DDF89080 		ldr	r8, [sp, #144]	@ float
 2194 0902 FFF7FEFF 		bl	ins_get_gyro
 2195              	.LVL107:
 2196 0906 2299     		ldr	r1, [sp, #136]	@ float
 2197 0908 1EA8     		add	r0, sp, #120
 2198 090a 0891     		str	r1, [sp, #32]	@ float
 2199 090c FFF7FEFF 		bl	ins_get_gyro
 2200              	.LVL108:
 2201              	.LBB548:
 2202              	.LBB549:
 2203              	.LBB550:
 2204              	.LBB551:
 2205              	.LBB552:
 2206              	.LBB553:
 2207              		.loc 3 81 0
 2208 0910 40F2000C 		movw	ip, #:lower16:.LANCHOR9
 2209 0914 C0F2000C 		movt	ip, #:upper16:.LANCHOR9
 2210              	.LBE553:
 2211              	.LBE552:
 2212              	.LBE551:
 2213              	.LBE550:
 2214              		.file 7 "MAVLink/common/./mavlink_msg_attitude_quaternion.h"
 2215              		.loc 7 73 0
 2216 0918 4494     		str	r4, [sp, #272]
ARM GAS  C:\Users\Mohamad\AppData\Local\Temp\ccDsqi1j.s 			page 40


 2217              	.LBB654:
 2218              	.LBB640:
 2219              	.LBB626:
 2220              	.LBB612:
 2221              		.loc 3 81 0
 2222 091a 9CF80670 		ldrb	r7, [ip, #6]	@ zero_extendqisi2
 2223              	.LBE612:
 2224              	.LBE626:
 2225              	.LBE640:
 2226              	.LBE654:
 2227              		.loc 7 76 0
 2228 091e 4795     		str	r5, [sp, #284]	@ float
 2229              	.LBB655:
 2230              	.LBB641:
 2231              	.LBB627:
 2232              	.LBB613:
 2233              	.LBB554:
 2234              	.LBB555:
 2235              	.LBB556:
 2236              	.LBB557:
 2237              		.loc 4 33 0
 2238 0920 87F08500 		eor	r0, r7, #133
 2239              		.loc 4 34 0
 2240 0924 80EA0014 		eor	r4, r0, r0, lsl #4
 2241 0928 E3B2     		uxtb	r3, r4
 2242              		.loc 4 35 0
 2243 092a 1A09     		lsrs	r2, r3, #4
 2244 092c 82F02E01 		eor	r1, r2, #46
 2245 0930 81EAC300 		eor	r0, r1, r3, lsl #3
 2246 0934 80EA0324 		eor	r4, r0, r3, lsl #8
 2247              		.loc 4 33 0
 2248 0938 84F00103 		eor	r3, r4, #1
 2249              		.loc 4 34 0
 2250 093c 83EA0312 		eor	r2, r3, r3, lsl #4
 2251 0940 D1B2     		uxtb	r1, r2
 2252              		.loc 4 35 0
 2253 0942 200A     		lsrs	r0, r4, #8
 2254 0944 80EA1114 		eor	r4, r0, r1, lsr #4
 2255 0948 84EAC103 		eor	r3, r4, r1, lsl #3
 2256              	.LBE557:
 2257              	.LBE556:
 2258              	.LBE555:
 2259              	.LBE554:
 2260              	.LBE613:
 2261              	.LBE627:
 2262              	.LBE641:
 2263              	.LBE655:
 2264              		.loc 7 74 0
 2265 094c 069A     		ldr	r2, [sp, #24]
 2266              		.loc 7 77 0
 2267 094e CDF82081 		str	r8, [sp, #288]	@ float
 2268              	.LBB656:
 2269              	.LBB642:
 2270              	.LBB628:
 2271              	.LBB614:
 2272              	.LBB588:
 2273              	.LBB578:
ARM GAS  C:\Users\Mohamad\AppData\Local\Temp\ccDsqi1j.s 			page 41


 2274              	.LBB568:
 2275              	.LBB558:
 2276              		.loc 4 35 0
 2277 0952 83EA0124 		eor	r4, r3, r1, lsl #8
 2278              	.LBE558:
 2279              	.LBE568:
 2280              	.LBE578:
 2281              	.LBE588:
 2282              	.LBE614:
 2283              	.LBE628:
 2284              	.LBE642:
 2285              	.LBE656:
 2286              		.loc 7 75 0
 2287 0956 0599     		ldr	r1, [sp, #20]
 2288              		.loc 7 74 0
 2289 0958 4592     		str	r2, [sp, #276]	@ float
 2290              	.LBB657:
 2291              	.LBB643:
 2292              	.LBB629:
 2293              	.LBB615:
 2294              	.LBB589:
 2295              	.LBB579:
 2296              	.LBB569:
 2297              	.LBB559:
 2298              		.loc 4 33 0
 2299 095a 84F0010E 		eor	lr, r4, #1
 2300              	.LBE559:
 2301              	.LBE569:
 2302              	.LBE579:
 2303              	.LBE589:
 2304              	.LBE615:
 2305              	.LBE629:
 2306              	.LBE643:
 2307              	.LBE657:
 2308              		.loc 7 75 0
 2309 095e 4691     		str	r1, [sp, #280]	@ float
 2310              	.LBB658:
 2311              	.LBB644:
 2312              	.LBB630:
 2313              	.LBB616:
 2314              	.LBB590:
 2315              	.LBB580:
 2316              	.LBB570:
 2317              	.LBB560:
 2318              		.loc 4 34 0
 2319 0960 8EEA0E1C 		eor	ip, lr, lr, lsl #4
 2320              	.LBE560:
 2321              	.LBE570:
 2322              	.LBE580:
 2323              	.LBE590:
 2324              	.LBE616:
 2325              	.LBE630:
 2326              	.LBE644:
 2327              	.LBE658:
 2328              		.loc 7 82 0
 2329 0964 44AD     		add	r5, sp, #272
 2330 0966 0FCD     		ldmia	r5!, {r0, r1, r2, r3}
ARM GAS  C:\Users\Mohamad\AppData\Local\Temp\ccDsqi1j.s 			page 42


 2331              	.LBB659:
 2332              	.LBB645:
 2333              	.LBB631:
 2334              	.LBB617:
 2335              	.LBB591:
 2336              	.LBB581:
 2337              	.LBB571:
 2338              	.LBB561:
 2339              		.loc 4 34 0
 2340 0968 5FFA8CFE 		uxtb	lr, ip
 2341              		.loc 4 35 0
 2342 096c 240A     		lsrs	r4, r4, #8
 2343 096e 84EA1E1C 		eor	ip, r4, lr, lsr #4
 2344              	.LBE561:
 2345              	.LBE571:
 2346              	.LBE581:
 2347              	.LBE591:
 2348              	.LBE617:
 2349              	.LBE631:
 2350              	.LBE645:
 2351              	.LBE659:
 2352              	.LBE549:
 2353              	.LBE548:
 2354              		.loc 1 243 0
 2355 0972 209C     		ldr	r4, [sp, #128]	@ float
 2356              	.LBB672:
 2357              	.LBB668:
 2358              	.LBB660:
 2359              	.LBB646:
 2360              	.LBB632:
 2361              	.LBB618:
 2362              	.LBB592:
 2363              	.LBB582:
 2364              	.LBB572:
 2365              	.LBB562:
 2366              		.loc 4 35 0
 2367 0974 8CEACE08 		eor	r8, ip, lr, lsl #3
 2368              	.LBE562:
 2369              	.LBE572:
 2370              	.LBE582:
 2371              	.LBE592:
 2372              	.LBE618:
 2373              	.LBE632:
 2374              	.LBE646:
 2375              	.LBE660:
 2376              		.loc 7 78 0
 2377 0978 DDF820C0 		ldr	ip, [sp, #32]	@ float
 2378              	.LBE668:
 2379              	.LBE672:
 2380              		.loc 1 243 0
 2381 097c 4A94     		str	r4, [sp, #296]	@ float
 2382              	.LVL109:
 2383              	.LBB673:
 2384              	.LBB669:
 2385              	.LBB661:
 2386              	.LBB647:
 2387              	.LBB633:
ARM GAS  C:\Users\Mohamad\AppData\Local\Temp\ccDsqi1j.s 			page 43


 2388              	.LBB619:
 2389              	.LBB593:
 2390              	.LBB583:
 2391              	.LBB573:
 2392              	.LBB563:
 2393              		.loc 4 35 0
 2394 097e 88EA0E2E 		eor	lr, r8, lr, lsl #8
 2395              	.LBE563:
 2396              	.LBE573:
 2397              	.LBE583:
 2398              	.LBE593:
 2399              	.LBE619:
 2400              	.LBE633:
 2401              	.LBE647:
 2402              	.LBE661:
 2403              		.loc 7 82 0
 2404 0982 4C4C     		ldr	r4, .L51
 2405              	.LVL110:
 2406              		.loc 7 78 0
 2407 0984 CDF824C1 		str	ip, [sp, #292]	@ float
 2408              		.loc 7 80 0
 2409 0988 4FF00008 		mov	r8, #0
 2410 098c CDF82C81 		str	r8, [sp, #300]	@ float
 2411              		.loc 7 82 0
 2412 0990 0FC4     		stmia	r4!, {r0, r1, r2, r3}
 2413 0992 95E80F00 		ldmia	r5, {r0, r1, r2, r3}
 2414              	.LBB662:
 2415              	.LBB648:
 2416              	.LBB634:
 2417              	.LBB620:
 2418              	.LBB594:
 2419              	.LBB584:
 2420              	.LBB574:
 2421              	.LBB564:
 2422              		.loc 4 33 0
 2423 0996 8EF01F0C 		eor	ip, lr, #31
 2424              	.LVL111:
 2425              		.loc 4 34 0
 2426 099a 8CEA0C18 		eor	r8, ip, ip, lsl #4
 2427 099e 5FFA88F5 		uxtb	r5, r8
 2428              		.loc 4 35 0
 2429 09a2 4FEA1E2E 		lsr	lr, lr, #8
 2430              	.LBE564:
 2431              	.LBE574:
 2432              	.LBE584:
 2433              	.LBE594:
 2434              	.LBE620:
 2435              	.LBE634:
 2436              	.LBE648:
 2437              	.LBE662:
 2438              		.loc 7 82 0
 2439 09a6 84E80F00 		stmia	r4, {r0, r1, r2, r3}
 2440              	.LBB663:
 2441              	.LBB649:
 2442              	.LBB635:
 2443              	.LBB621:
 2444              	.LBB595:
ARM GAS  C:\Users\Mohamad\AppData\Local\Temp\ccDsqi1j.s 			page 44


 2445              	.LBB585:
 2446              	.LBB575:
 2447              	.LBB565:
 2448              		.loc 4 35 0
 2449 09aa 8EEA151C 		eor	ip, lr, r5, lsr #4
 2450              	.LBE565:
 2451              	.LBE575:
 2452              	.LBE585:
 2453              	.LBE595:
 2454              	.LBE621:
 2455              	.LBE635:
 2456              	.LBE649:
 2457              	.LBE663:
 2458              		.loc 7 85 0
 2459 09ae 1F20     		movs	r0, #31
 2460              	.LBB664:
 2461              	.LBB650:
 2462              	.LBB636:
 2463              	.LBB622:
 2464              		.loc 3 78 0
 2465 09b0 4FF0010E 		mov	lr, #1
 2466              		.loc 3 76 0
 2467 09b4 FE23     		movs	r3, #254
 2468              		.loc 3 77 0
 2469 09b6 2022     		movs	r2, #32
 2470              	.LBB596:
 2471              	.LBB586:
 2472              	.LBB576:
 2473              	.LBB566:
 2474              		.loc 4 35 0
 2475 09b8 4CEA0528 		orr	r8, ip, r5, lsl #8
 2476              	.LBE566:
 2477              	.LBE576:
 2478              	.LBE586:
 2479              	.LBE596:
 2480              	.LBE622:
 2481              	.LBE636:
 2482              	.LBE650:
 2483              	.LBE664:
 2484              		.loc 7 85 0
 2485 09bc 89F80700 		strb	r0, [r9, #7]
 2486              	.LBB665:
 2487              	.LBB651:
 2488              	.LBB637:
 2489              	.LBB623:
 2490              		.loc 3 82 0
 2491 09c0 07EB0E0C 		add	ip, r7, lr
 2492              	.LVL112:
 2493              		.loc 3 76 0
 2494 09c4 89F80230 		strb	r3, [r9, #2]
 2495              		.loc 3 77 0
 2496 09c8 89F80320 		strb	r2, [r9, #3]
 2497              		.loc 3 78 0
 2498 09cc 89F805E0 		strb	lr, [r9, #5]
 2499              		.loc 3 79 0
 2500 09d0 89F806E0 		strb	lr, [r9, #6]
 2501              	.LVL113:
ARM GAS  C:\Users\Mohamad\AppData\Local\Temp\ccDsqi1j.s 			page 45


 2502              		.loc 3 81 0
 2503 09d4 89F80470 		strb	r7, [r9, #4]
 2504              	.LVL114:
 2505              		.loc 3 82 0
 2506 09d8 40F20007 		movw	r7, #:lower16:.LANCHOR9
 2507 09dc C0F20007 		movt	r7, #:upper16:.LANCHOR9
 2508              	.LBB597:
 2509              	.LBB587:
 2510              	.LBB577:
 2511              	.LBB567:
 2512              		.loc 4 35 0
 2513 09e0 88EAC505 		eor	r5, r8, r5, lsl #3
 2514              	.LBE567:
 2515              	.LBE577:
 2516              	.LBE587:
 2517              	.LBE597:
 2518              		.loc 3 82 0
 2519 09e4 87F806C0 		strb	ip, [r7, #6]
 2520              	.LVL115:
 2521              		.loc 3 84 0
 2522 09e8 103C     		subs	r4, r4, #16
 2523              		.loc 3 83 0
 2524 09ea A9F80050 		strh	r5, [r9, #0]	@ movhi
 2525              	.LVL116:
 2526              	.L16:
 2527              	.LBB598:
 2528              	.LBB599:
 2529              		.loc 4 82 0
 2530 09ee 2046     		mov	r0, r4
 2531              	.LBB600:
 2532              	.LBB601:
 2533              		.loc 4 35 0
 2534 09f0 290A     		lsrs	r1, r5, #8
 2535              	.LBE601:
 2536              	.LBE600:
 2537              		.loc 4 82 0
 2538 09f2 10F8013B 		ldrb	r3, [r0], #1	@ zero_extendqisi2
 2539              	.LVL117:
 2540              	.LBB605:
 2541              	.LBB602:
 2542              		.loc 4 35 0
 2543 09f6 304F     		ldr	r7, .L51+4
 2544              		.loc 4 33 0
 2545 09f8 5D40     		eors	r5, r5, r3
 2546              	.LVL118:
 2547              		.loc 4 34 0
 2548 09fa 85EA0512 		eor	r2, r5, r5, lsl #4
 2549 09fe D3B2     		uxtb	r3, r2
 2550              	.LVL119:
 2551              		.loc 4 35 0
 2552 0a00 81EA1311 		eor	r1, r1, r3, lsr #4
 2553 0a04 41EA0325 		orr	r5, r1, r3, lsl #8
 2554 0a08 85EAC303 		eor	r3, r5, r3, lsl #3
 2555 0a0c A9F80030 		strh	r3, [r9, #0]	@ movhi
 2556              	.LBE602:
 2557              	.LBE605:
 2558              		.loc 4 82 0
ARM GAS  C:\Users\Mohamad\AppData\Local\Temp\ccDsqi1j.s 			page 46


 2559 0a10 6478     		ldrb	r4, [r4, #1]	@ zero_extendqisi2
 2560              	.LVL120:
 2561              	.LBB606:
 2562              	.LBB603:
 2563              		.loc 4 33 0
 2564 0a12 5C40     		eors	r4, r4, r3
 2565              		.loc 4 34 0
 2566 0a14 84EA0412 		eor	r2, r4, r4, lsl #4
 2567              	.LVL121:
 2568 0a18 D1B2     		uxtb	r1, r2
 2569              		.loc 4 35 0
 2570 0a1a 1D0A     		lsrs	r5, r3, #8
 2571 0a1c 85EA1113 		eor	r3, r5, r1, lsr #4
 2572 0a20 43EA0124 		orr	r4, r3, r1, lsl #8
 2573 0a24 84EAC105 		eor	r5, r4, r1, lsl #3
 2574              	.LBE603:
 2575              	.LBE606:
 2576              		.loc 4 82 0
 2577 0a28 441C     		adds	r4, r0, #1
 2578              	.LVL122:
 2579              		.loc 4 81 0
 2580 0a2a 07F12800 		add	r0, r7, #40
 2581              	.LVL123:
 2582 0a2e 8442     		cmp	r4, r0
 2583              	.LBB607:
 2584              	.LBB604:
 2585              		.loc 4 35 0
 2586 0a30 A9F80050 		strh	r5, [r9, #0]	@ movhi
 2587              	.LBE604:
 2588              	.LBE607:
 2589              		.loc 4 81 0
 2590 0a34 DBD1     		bne	.L16
 2591              	.LVL124:
 2592              		.loc 4 33 0
 2593 0a36 85F0F602 		eor	r2, r5, #246
 2594              	.LVL125:
 2595              	.LBE599:
 2596              	.LBE598:
 2597              	.LBB608:
 2598              	.LBB609:
 2599              		.loc 4 34 0
 2600 0a3a 82EA0211 		eor	r1, r2, r2, lsl #4
 2601 0a3e CBB2     		uxtb	r3, r1
 2602              	.LVL126:
 2603              		.loc 4 35 0
 2604 0a40 2D0A     		lsrs	r5, r5, #8
 2605 0a42 85EA1314 		eor	r4, r5, r3, lsr #4
 2606              	.LVL127:
 2607 0a46 84EA0322 		eor	r2, r4, r3, lsl #8
 2608 0a4a 82EAC301 		eor	r1, r2, r3, lsl #3
 2609              	.LVL128:
 2610 0a4e 8DB2     		uxth	r5, r1
 2611 0a50 ABB2     		uxth	r3, r5
 2612              	.LVL129:
 2613              	.LBE609:
 2614              	.LBE608:
 2615              	.LBE623:
ARM GAS  C:\Users\Mohamad\AppData\Local\Temp\ccDsqi1j.s 			page 47


 2616              	.LBE637:
 2617              	.LBE651:
 2618              	.LBE665:
 2619              	.LBE669:
 2620              	.LBE673:
 2621              	.LBB674:
 2622              	.LBB675:
 2623              		.loc 3 176 0
 2624 0a52 97F803E0 		ldrb	lr, [r7, #3]	@ zero_extendqisi2
 2625              	.LBE675:
 2626              	.LBE674:
 2627              	.LBB680:
 2628              	.LBB670:
 2629              	.LBB666:
 2630              	.LBB652:
 2631              	.LBB638:
 2632              	.LBB624:
 2633              	.LBB611:
 2634              	.LBB610:
 2635              		.loc 4 35 0
 2636 0a56 3B80     		strh	r3, [r7, #0]	@ movhi
 2637              	.LBE610:
 2638              	.LBE611:
 2639              		.loc 3 89 0
 2640 0a58 4FEA1328 		lsr	r8, r3, #8
 2641              		.loc 3 88 0
 2642 0a5c 87F82850 		strb	r5, [r7, #40]
 2643              	.LBE624:
 2644              	.LBE638:
 2645              	.LBE652:
 2646              	.LBE666:
 2647              	.LBE670:
 2648              	.LBE680:
 2649              	.LBB681:
 2650              	.LBB676:
 2651              		.loc 3 176 0
 2652 0a60 B91C     		adds	r1, r7, #2
 2653              	.LBE676:
 2654              	.LBE681:
 2655              	.LBB682:
 2656              	.LBB671:
 2657              	.LBB667:
 2658              	.LBB653:
 2659              	.LBB639:
 2660              	.LBB625:
 2661              		.loc 3 89 0
 2662 0a62 87F82980 		strb	r8, [r7, #41]
 2663              	.LVL130:
 2664              	.LBE625:
 2665              	.LBE639:
 2666              	.LBE653:
 2667              	.LBE667:
 2668              	.LBE671:
 2669              	.LBE682:
 2670              	.LBB683:
 2671              	.LBB677:
 2672              		.loc 3 178 0
ARM GAS  C:\Users\Mohamad\AppData\Local\Temp\ccDsqi1j.s 			page 48


 2673 0a66 40F20007 		movw	r7, #:lower16:.LANCHOR10
 2674              		.loc 3 176 0
 2675 0a6a 0EF10604 		add	r4, lr, #6
 2676              		.loc 3 178 0
 2677 0a6e C0F20007 		movt	r7, #:upper16:.LANCHOR10
 2678              		.loc 3 176 0
 2679 0a72 2246     		mov	r2, r4
 2680 0a74 1148     		ldr	r0, .L51+8
 2681 0a76 CDF818E0 		str	lr, [sp, #24]
 2682 0a7a FFF7FEFF 		bl	memcpy
 2683              	.LVL131:
 2684              		.loc 3 180 0
 2685 0a7e 3D55     		strb	r5, [r7, r4]
 2686              	.LBE677:
 2687              	.LBE683:
 2688              		.loc 1 245 0
 2689 0a80 DDF818C0 		ldr	ip, [sp, #24]
 2690 0a84 0E48     		ldr	r0, .L51+12
 2691 0a86 0D4A     		ldr	r2, .L51+8
 2692              	.LBB684:
 2693              	.LBB678:
 2694              		.loc 3 178 0
 2695 0a88 3B19     		adds	r3, r7, r4
 2696              	.LVL132:
 2697              	.LBE678:
 2698              	.LBE684:
 2699              		.loc 1 245 0
 2700 0a8a 0CF10801 		add	r1, ip, #8
 2701              	.LBB685:
 2702              	.LBB679:
 2703              		.loc 3 181 0
 2704 0a8e 83F80180 		strb	r8, [r3, #1]
 2705              	.LBE679:
 2706              	.LBE685:
 2707              		.loc 1 245 0
 2708 0a92 FFF7FEFF 		bl	uartStartSendI
 2709              	.LVL133:
 2710              	.LBE686:
 2711              	.LBE687:
 2712              		.loc 1 220 0
 2713 0a96 40F20005 		movw	r5, #:lower16:.LANCHOR12
 2714              		.loc 1 219 0
 2715 0a9a 40F20002 		movw	r2, #:lower16:.LANCHOR11
 2716 0a9e C0F20002 		movt	r2, #:upper16:.LANCHOR11
 2717              		.loc 1 220 0
 2718 0aa2 C0F20005 		movt	r5, #:upper16:.LANCHOR12
 2719              		.loc 1 219 0
 2720 0aa6 0020     		movs	r0, #0
 2721              		.loc 1 220 0
 2722 0aa8 0121     		movs	r1, #1
 2723              		.loc 1 219 0
 2724 0aaa 1070     		strb	r0, [r2, #0]
 2725              		.loc 1 220 0
 2726 0aac 2970     		strb	r1, [r5, #0]
 2727 0aae FFF7EBBA 		b	.L42
 2728              	.L52:
 2729 0ab2 00BF     		.align	2
ARM GAS  C:\Users\Mohamad\AppData\Local\Temp\ccDsqi1j.s 			page 49


 2730              	.L51:
 2731 0ab4 08000000 		.word	.LANCHOR2+8
 2732 0ab8 00000000 		.word	.LANCHOR2
 2733 0abc 00000000 		.word	.LANCHOR10
 2734 0ac0 00000000 		.word	UARTD3
 2735              	.LBE689:
 2736              	.LBE691:
 2737              		.cfi_endproc
 2738              	.LFE1536:
 2739              		.size	main, .-main
 2740 0ac4 AFF30080 		.section	.text.check_ready_to_send_params,"ax",%progbits
 2740      AFF30080 
 2740      AFF30080 
 2741              		.align	2
 2742              		.p2align 4,,15
 2743              		.global	check_ready_to_send_params
 2744              		.thumb
 2745              		.thumb_func
 2746              		.type	check_ready_to_send_params, %function
 2747              	check_ready_to_send_params:
 2748              	.LFB1537:
 2749              		.loc 1 205 0
 2750              		.cfi_startproc
 2751              		@ args = 0, pretend = 0, frame = 272
 2752              		@ frame_needed = 0, uses_anonymous_args = 0
 2753 0000 2DE9F04F 		push	{r4, r5, r6, r7, r8, r9, sl, fp, lr}
 2754              	.LCFI3:
 2755              		.cfi_def_cfa_offset 36
 2756              		.cfi_offset 4, -36
 2757              		.cfi_offset 5, -32
 2758              		.cfi_offset 6, -28
 2759              		.cfi_offset 7, -24
 2760              		.cfi_offset 8, -20
 2761              		.cfi_offset 9, -16
 2762              		.cfi_offset 10, -12
 2763              		.cfi_offset 11, -8
 2764              		.cfi_offset 14, -4
 2765              		.loc 1 206 0
 2766 0004 0A4D     		ldr	r5, .L85
 2767 0006 2B78     		ldrb	r3, [r5, #0]	@ zero_extendqisi2
 2768              		.loc 1 205 0
 2769 0008 C5B0     		sub	sp, sp, #276
 2770              	.LCFI4:
 2771              		.cfi_def_cfa_offset 312
 2772              		.loc 1 206 0
 2773 000a 73B1     		cbz	r3, .L53
 2774              		.loc 1 206 0 is_stmt 0 discriminator 1
 2775 000c 094E     		ldr	r6, .L85+4
 2776 000e 3478     		ldrb	r4, [r6, #0]	@ zero_extendqisi2
 2777 0010 012C     		cmp	r4, #1
 2778 0012 00F0AB81 		beq	.L82
 2779              		.loc 1 214 0 is_stmt 1 discriminator 1
 2780 0016 022C     		cmp	r4, #2
 2781 0018 00F0BA82 		beq	.L83
 2782              		.loc 1 222 0 discriminator 1
 2783 001c 032C     		cmp	r4, #3
 2784 001e 0DD1     		bne	.L59
ARM GAS  C:\Users\Mohamad\AppData\Local\Temp\ccDsqi1j.s 			page 50


 2785 0020 054C     		ldr	r4, .L85+8
 2786 0022 2278     		ldrb	r2, [r4, #0]	@ zero_extendqisi2
 2787 0024 002A     		cmp	r2, #0
 2788 0026 40F09D83 		bne	.L84
 2789              	.L53:
 2790              		.loc 1 239 0
 2791 002a 45B0     		add	sp, sp, #276
 2792 002c BDE8F08F 		pop	{r4, r5, r6, r7, r8, r9, sl, fp, pc}
 2793              	.L86:
 2794              		.align	2
 2795              	.L85:
 2796 0030 00000000 		.word	.LANCHOR0
 2797 0034 00000000 		.word	.LANCHOR7
 2798 0038 00000000 		.word	.LANCHOR12
 2799              	.L59:
 2800              		.loc 1 230 0 discriminator 1
 2801 003c 042C     		cmp	r4, #4
 2802 003e F4D1     		bne	.L53
 2803 0040 C54F     		ldr	r7, .L87
 2804 0042 3878     		ldrb	r0, [r7, #0]	@ zero_extendqisi2
 2805 0044 0028     		cmp	r0, #0
 2806 0046 F0D0     		beq	.L53
 2807              	.LBB796:
 2808              	.LBB797:
 2809              	.LBB798:
 2810              	.LBB799:
 2811              	.LBB800:
 2812              	.LBB801:
 2813              	.LBB802:
 2814              	.LBB803:
 2815              		.loc 3 81 0
 2816 0048 40F2000E 		movw	lr, #:lower16:.LANCHOR9
 2817 004c C0F2000E 		movt	lr, #:upper16:.LANCHOR9
 2818              	.LBE803:
 2819              	.LBE802:
 2820              	.LBE801:
 2821              	.LBE800:
 2822              		.loc 5 67 0
 2823 0050 C24C     		ldr	r4, .L87+4
 2824              	.LBB900:
 2825              	.LBB890:
 2826              	.LBB880:
 2827              	.LBB870:
 2828              		.loc 3 81 0
 2829 0052 9EF806C0 		ldrb	ip, [lr, #6]	@ zero_extendqisi2
 2830              	.LBE870:
 2831              	.LBE880:
 2832              	.LBE890:
 2833              	.LBE900:
 2834              	.LBE799:
 2835              	.LBE798:
 2836              	.LBB916:
 2837              	.LBB917:
 2838              		.loc 1 252 0
 2839 0056 DFF81083 		ldr	r8, .L87+16
 2840              	.LBE917:
 2841              	.LBE916:
ARM GAS  C:\Users\Mohamad\AppData\Local\Temp\ccDsqi1j.s 			page 51


 2842              	.LBB923:
 2843              	.LBB910:
 2844              	.LBB901:
 2845              	.LBB891:
 2846              	.LBB881:
 2847              	.LBB871:
 2848              		.loc 3 81 0
 2849 005a 84F804C0 		strb	ip, [r4, #4]
 2850              	.LBB804:
 2851              	.LBB805:
 2852              	.LBB806:
 2853              	.LBB807:
 2854              		.loc 4 33 0
 2855 005e 8CF00601 		eor	r1, ip, #6
 2856              		.loc 4 34 0
 2857 0062 81EA0112 		eor	r2, r1, r1, lsl #4
 2858 0066 D3B2     		uxtb	r3, r2
 2859              		.loc 4 35 0
 2860 0068 1809     		lsrs	r0, r3, #4
 2861 006a 80F01F01 		eor	r1, r0, #31
 2862 006e 41EA0322 		orr	r2, r1, r3, lsl #8
 2863 0072 82EAC303 		eor	r3, r2, r3, lsl #3
 2864              		.loc 4 33 0
 2865 0076 83F00100 		eor	r0, r3, #1
 2866              		.loc 4 34 0
 2867 007a 80EA0011 		eor	r1, r0, r0, lsl #4
 2868 007e C8B2     		uxtb	r0, r1
 2869              		.loc 4 35 0
 2870 0080 4FEA132B 		lsr	fp, r3, #8
 2871              	.LBE807:
 2872              	.LBE806:
 2873              	.LBE805:
 2874              	.LBE804:
 2875              	.LBE871:
 2876              	.LBE881:
 2877              	.LBE891:
 2878              	.LBE901:
 2879              		.loc 5 61 0
 2880 0084 0022     		movs	r2, #0
 2881 0086 0023     		movs	r3, #0
 2882 0088 CDE92823 		strd	r2, [sp, #160]
 2883              	.LBB902:
 2884              	.LBB892:
 2885              	.LBB882:
 2886              	.LBB872:
 2887              	.LBB832:
 2888              	.LBB824:
 2889              	.LBB816:
 2890              	.LBB808:
 2891              		.loc 4 35 0
 2892 008c 8BEA1013 		eor	r3, fp, r0, lsr #4
 2893              	.LBE808:
 2894              	.LBE816:
 2895              	.LBE824:
 2896              	.LBE832:
 2897              	.LBE872:
 2898              	.LBE882:
ARM GAS  C:\Users\Mohamad\AppData\Local\Temp\ccDsqi1j.s 			page 52


 2899              	.LBE892:
 2900              	.LBE902:
 2901              	.LBE910:
 2902              	.LBE923:
 2903              	.LBE797:
 2904              	.LBE796:
 2905              		.loc 1 232 0
 2906 0090 4FF0000E 		mov	lr, #0
 2907              	.LBB937:
 2908              	.LBB934:
 2909              	.LBB924:
 2910              	.LBB911:
 2911              		.loc 5 63 0
 2912 0094 0C22     		movs	r2, #12
 2913              	.LBB903:
 2914              	.LBB893:
 2915              	.LBB883:
 2916              	.LBB873:
 2917              	.LBB833:
 2918              	.LBB825:
 2919              	.LBB817:
 2920              	.LBB809:
 2921              		.loc 4 35 0
 2922 0096 43EA0021 		orr	r1, r3, r0, lsl #8
 2923 009a 81EAC009 		eor	r9, r1, r0, lsl #3
 2924              	.LBE809:
 2925              	.LBE817:
 2926              	.LBE825:
 2927              	.LBE833:
 2928              	.LBE873:
 2929              	.LBE883:
 2930              	.LBE893:
 2931              	.LBE903:
 2932              		.loc 5 62 0
 2933 009e ADF8A8E0 		strh	lr, [sp, #168]	@ movhi
 2934              		.loc 5 64 0
 2935 00a2 ADF8ACE0 		strh	lr, [sp, #172]	@ movhi
 2936              		.loc 5 63 0
 2937 00a6 ADF8AA20 		strh	r2, [sp, #170]	@ movhi
 2938              		.loc 5 65 0
 2939 00aa ADF8AE20 		strh	r2, [sp, #174]	@ movhi
 2940              		.loc 5 67 0
 2941 00ae 28A8     		add	r0, sp, #160
 2942 00b0 0FC8     		ldmia	r0, {r0, r1, r2, r3}
 2943              	.LBB904:
 2944              	.LBB894:
 2945              	.LBB884:
 2946              	.LBB874:
 2947              	.LBB834:
 2948              	.LBB826:
 2949              	.LBB818:
 2950              	.LBB810:
 2951              		.loc 4 33 0
 2952 00b2 89F0010A 		eor	sl, r9, #1
 2953              		.loc 4 34 0
 2954 00b6 8AEA0A1B 		eor	fp, sl, sl, lsl #4
 2955 00ba 5FFA8BFA 		uxtb	sl, fp
ARM GAS  C:\Users\Mohamad\AppData\Local\Temp\ccDsqi1j.s 			page 53


 2956              		.loc 4 35 0
 2957 00be 4FEA1929 		lsr	r9, r9, #8
 2958 00c2 89EA1A1B 		eor	fp, r9, sl, lsr #4
 2959              	.LBE810:
 2960              	.LBE818:
 2961              	.LBE826:
 2962              	.LBE834:
 2963              	.LBE874:
 2964              	.LBE884:
 2965              	.LBE894:
 2966              	.LBE904:
 2967              		.loc 5 67 0
 2968 00c6 04F10809 		add	r9, r4, #8
 2969 00ca 89E80F00 		stmia	r9, {r0, r1, r2, r3}
 2970              	.LBB905:
 2971              	.LBB895:
 2972              	.LBB885:
 2973              	.LBB875:
 2974              	.LBB835:
 2975              	.LBB827:
 2976              	.LBB819:
 2977              	.LBB811:
 2978              		.loc 4 35 0
 2979 00ce 4BEA0A2B 		orr	fp, fp, sl, lsl #8
 2980 00d2 8BEACA02 		eor	r2, fp, sl, lsl #3
 2981              		.loc 4 33 0
 2982 00d6 82F01C03 		eor	r3, r2, #28
 2983              		.loc 4 35 0
 2984 00da 4FEA1220 		lsr	r0, r2, #8
 2985              	.LBE811:
 2986              	.LBE819:
 2987              	.LBE827:
 2988              	.LBE835:
 2989              	.LBB836:
 2990              	.LBB837:
 2991              	.LBB838:
 2992              	.LBB839:
 2993              		.loc 4 33 0
 2994 00de 227B     		ldrb	r2, [r4, #12]	@ zero_extendqisi2
 2995 00e0 94F808A0 		ldrb	sl, [r4, #8]	@ zero_extendqisi2
 2996 00e4 0092     		str	r2, [sp, #0]
 2997 00e6 627B     		ldrb	r2, [r4, #13]	@ zero_extendqisi2
 2998 00e8 94F80990 		ldrb	r9, [r4, #9]	@ zero_extendqisi2
 2999 00ec 0192     		str	r2, [sp, #4]
 3000 00ee A27B     		ldrb	r2, [r4, #14]	@ zero_extendqisi2
 3001 00f0 0292     		str	r2, [sp, #8]
 3002 00f2 E27B     		ldrb	r2, [r4, #15]	@ zero_extendqisi2
 3003 00f4 0392     		str	r2, [sp, #12]
 3004 00f6 227C     		ldrb	r2, [r4, #16]	@ zero_extendqisi2
 3005 00f8 0492     		str	r2, [sp, #16]
 3006 00fa 627C     		ldrb	r2, [r4, #17]	@ zero_extendqisi2
 3007 00fc 0592     		str	r2, [sp, #20]
 3008 00fe A27C     		ldrb	r2, [r4, #18]	@ zero_extendqisi2
 3009              	.LBE839:
 3010              	.LBE838:
 3011              	.LBE837:
 3012              	.LBE836:
ARM GAS  C:\Users\Mohamad\AppData\Local\Temp\ccDsqi1j.s 			page 54


 3013              	.LBB855:
 3014              	.LBB828:
 3015              	.LBB820:
 3016              	.LBB812:
 3017              		.loc 4 34 0
 3018 0100 83EA0311 		eor	r1, r3, r3, lsl #4
 3019              	.LBE812:
 3020              	.LBE820:
 3021              	.LBE828:
 3022              	.LBE855:
 3023              	.LBB856:
 3024              	.LBB850:
 3025              	.LBB845:
 3026              	.LBB840:
 3027              		.loc 4 33 0
 3028 0104 0692     		str	r2, [sp, #24]
 3029 0106 E27C     		ldrb	r2, [r4, #19]	@ zero_extendqisi2
 3030              	.LBE840:
 3031              	.LBE845:
 3032              	.LBE850:
 3033              	.LBE856:
 3034              	.LBB857:
 3035              	.LBB829:
 3036              	.LBB821:
 3037              	.LBB813:
 3038              		.loc 4 34 0
 3039 0108 CBB2     		uxtb	r3, r1
 3040              		.loc 4 35 0
 3041 010a 80EA131B 		eor	fp, r0, r3, lsr #4
 3042              	.LBE813:
 3043              	.LBE821:
 3044              	.LBE829:
 3045              	.LBE857:
 3046              	.LBB858:
 3047              	.LBB851:
 3048              	.LBB846:
 3049              	.LBB841:
 3050              		.loc 4 33 0
 3051 010e E17A     		ldrb	r1, [r4, #11]	@ zero_extendqisi2
 3052 0110 A07A     		ldrb	r0, [r4, #10]	@ zero_extendqisi2
 3053 0112 0792     		str	r2, [sp, #28]
 3054 0114 227D     		ldrb	r2, [r4, #20]	@ zero_extendqisi2
 3055              	.LBE841:
 3056              	.LBE846:
 3057              	.LBE851:
 3058              	.LBE858:
 3059              	.LBE875:
 3060              	.LBE885:
 3061              	.LBE895:
 3062              	.LBE905:
 3063              	.LBE911:
 3064              	.LBE924:
 3065              	.LBE934:
 3066              	.LBE937:
 3067              		.loc 1 232 0
 3068 0116 85F800E0 		strb	lr, [r5, #0]
 3069              	.LBB938:
ARM GAS  C:\Users\Mohamad\AppData\Local\Temp\ccDsqi1j.s 			page 55


 3070              	.LBB935:
 3071              	.LBB925:
 3072              	.LBB912:
 3073              	.LBB906:
 3074              	.LBB896:
 3075              	.LBB886:
 3076              	.LBB876:
 3077              	.LBB859:
 3078              	.LBB852:
 3079              	.LBB847:
 3080              	.LBB842:
 3081              		.loc 4 33 0
 3082 011a 0892     		str	r2, [sp, #32]
 3083 011c 627D     		ldrb	r2, [r4, #21]	@ zero_extendqisi2
 3084              	.LBE842:
 3085              	.LBE847:
 3086              	.LBE852:
 3087              	.LBE859:
 3088              	.LBB860:
 3089              	.LBB830:
 3090              	.LBB822:
 3091              	.LBB814:
 3092              		.loc 4 35 0
 3093 011e 4BEA0325 		orr	r5, fp, r3, lsl #8
 3094              	.LBE814:
 3095              	.LBE822:
 3096              	.LBE830:
 3097              	.LBE860:
 3098              	.LBB861:
 3099              	.LBB853:
 3100              	.LBB848:
 3101              	.LBB843:
 3102              		.loc 4 33 0
 3103 0122 0992     		str	r2, [sp, #36]
 3104 0124 A27D     		ldrb	r2, [r4, #22]	@ zero_extendqisi2
 3105              	.LBE843:
 3106              	.LBE848:
 3107              	.LBE853:
 3108              	.LBE861:
 3109              	.LBB862:
 3110              	.LBB831:
 3111              	.LBB823:
 3112              	.LBB815:
 3113              		.loc 4 35 0
 3114 0126 85EAC303 		eor	r3, r5, r3, lsl #3
 3115              	.LBE815:
 3116              	.LBE823:
 3117              	.LBE831:
 3118              	.LBE862:
 3119              	.LBB863:
 3120              	.LBB854:
 3121              	.LBB849:
 3122              	.LBB844:
 3123              		.loc 4 33 0
 3124 012a 0A92     		str	r2, [sp, #40]
 3125 012c 83EA0A0B 		eor	fp, r3, sl
 3126 0130 E27D     		ldrb	r2, [r4, #23]	@ zero_extendqisi2
ARM GAS  C:\Users\Mohamad\AppData\Local\Temp\ccDsqi1j.s 			page 56


 3127              		.loc 4 34 0
 3128 0132 8BEA0B1A 		eor	sl, fp, fp, lsl #4
 3129              		.loc 4 33 0
 3130 0136 0B92     		str	r2, [sp, #44]
 3131              		.loc 4 35 0
 3132 0138 4FEA1325 		lsr	r5, r3, #8
 3133              		.loc 4 34 0
 3134 013c 5FFA8AF2 		uxtb	r2, sl
 3135              		.loc 4 35 0
 3136 0140 85EA1213 		eor	r3, r5, r2, lsr #4
 3137 0144 43EA022B 		orr	fp, r3, r2, lsl #8
 3138 0148 8BEAC20A 		eor	sl, fp, r2, lsl #3
 3139              		.loc 4 33 0
 3140 014c 8AEA0909 		eor	r9, sl, r9
 3141              		.loc 4 34 0
 3142 0150 89EA0912 		eor	r2, r9, r9, lsl #4
 3143 0154 D5B2     		uxtb	r5, r2
 3144              		.loc 4 35 0
 3145 0156 4FEA1A23 		lsr	r3, sl, #8
 3146 015a 83EA151A 		eor	sl, r3, r5, lsr #4
 3147 015e 4AEA0522 		orr	r2, sl, r5, lsl #8
 3148 0162 82EAC509 		eor	r9, r2, r5, lsl #3
 3149              		.loc 4 33 0
 3150 0166 89EA0000 		eor	r0, r9, r0
 3151              		.loc 4 34 0
 3152 016a 80EA0015 		eor	r5, r0, r0, lsl #4
 3153 016e EBB2     		uxtb	r3, r5
 3154              		.loc 4 35 0
 3155 0170 4FEA1922 		lsr	r2, r9, #8
 3156 0174 82EA131A 		eor	sl, r2, r3, lsr #4
 3157 0178 4AEA0329 		orr	r9, sl, r3, lsl #8
 3158 017c 89EAC300 		eor	r0, r9, r3, lsl #3
 3159              		.loc 4 33 0
 3160 0180 4140     		eors	r1, r1, r0
 3161              		.loc 4 34 0
 3162 0182 81EA0115 		eor	r5, r1, r1, lsl #4
 3163 0186 EBB2     		uxtb	r3, r5
 3164              		.loc 4 35 0
 3165 0188 020A     		lsrs	r2, r0, #8
 3166 018a 82EA1310 		eor	r0, r2, r3, lsr #4
 3167 018e 40EA0321 		orr	r1, r0, r3, lsl #8
 3168 0192 81EAC305 		eor	r5, r1, r3, lsl #3
 3169              		.loc 4 33 0
 3170 0196 009B     		ldr	r3, [sp, #0]
 3171 0198 DDF804A0 		ldr	sl, [sp, #4]
 3172 019c DDF81090 		ldr	r9, [sp, #16]
 3173 01a0 85EA0302 		eor	r2, r5, r3
 3174              		.loc 4 34 0
 3175 01a4 82EA0210 		eor	r0, r2, r2, lsl #4
 3176 01a8 C3B2     		uxtb	r3, r0
 3177              		.loc 4 35 0
 3178 01aa 290A     		lsrs	r1, r5, #8
 3179 01ac 81EA1315 		eor	r5, r1, r3, lsr #4
 3180 01b0 45EA0322 		orr	r2, r5, r3, lsl #8
 3181 01b4 82EAC300 		eor	r0, r2, r3, lsl #3
 3182              		.loc 4 33 0
 3183 01b8 80EA0A03 		eor	r3, r0, sl
ARM GAS  C:\Users\Mohamad\AppData\Local\Temp\ccDsqi1j.s 			page 57


 3184              		.loc 4 34 0
 3185 01bc 83EA0311 		eor	r1, r3, r3, lsl #4
 3186 01c0 CDB2     		uxtb	r5, r1
 3187              		.loc 4 35 0
 3188 01c2 020A     		lsrs	r2, r0, #8
 3189 01c4 82EA1510 		eor	r0, r2, r5, lsr #4
 3190 01c8 40EA0523 		orr	r3, r0, r5, lsl #8
 3191              		.loc 4 33 0
 3192 01cc 0299     		ldr	r1, [sp, #8]
 3193 01ce DDF81CA0 		ldr	sl, [sp, #28]
 3194              		.loc 4 35 0
 3195 01d2 83EAC505 		eor	r5, r3, r5, lsl #3
 3196              		.loc 4 33 0
 3197 01d6 85EA0102 		eor	r2, r5, r1
 3198              		.loc 4 34 0
 3199 01da 82EA0210 		eor	r0, r2, r2, lsl #4
 3200 01de C1B2     		uxtb	r1, r0
 3201              		.loc 4 35 0
 3202 01e0 2B0A     		lsrs	r3, r5, #8
 3203 01e2 83EA1115 		eor	r5, r3, r1, lsr #4
 3204 01e6 45EA0122 		orr	r2, r5, r1, lsl #8
 3205 01ea 82EAC100 		eor	r0, r2, r1, lsl #3
 3206              		.loc 4 33 0
 3207 01ee 0399     		ldr	r1, [sp, #12]
 3208 01f0 80EA0103 		eor	r3, r0, r1
 3209              		.loc 4 34 0
 3210 01f4 83EA0315 		eor	r5, r3, r3, lsl #4
 3211 01f8 EAB2     		uxtb	r2, r5
 3212              		.loc 4 35 0
 3213 01fa 000A     		lsrs	r0, r0, #8
 3214 01fc 80EA1211 		eor	r1, r0, r2, lsr #4
 3215 0200 41EA0223 		orr	r3, r1, r2, lsl #8
 3216 0204 83EAC205 		eor	r5, r3, r2, lsl #3
 3217              		.loc 4 33 0
 3218 0208 85EA0902 		eor	r2, r5, r9
 3219              		.loc 4 34 0
 3220 020c 82EA0210 		eor	r0, r2, r2, lsl #4
 3221 0210 C1B2     		uxtb	r1, r0
 3222              		.loc 4 35 0
 3223 0212 2B0A     		lsrs	r3, r5, #8
 3224 0214 83EA1115 		eor	r5, r3, r1, lsr #4
 3225 0218 45EA0122 		orr	r2, r5, r1, lsl #8
 3226 021c 82EAC100 		eor	r0, r2, r1, lsl #3
 3227              		.loc 4 33 0
 3228 0220 0599     		ldr	r1, [sp, #20]
 3229 0222 DDF82490 		ldr	r9, [sp, #36]
 3230 0226 80EA0103 		eor	r3, r0, r1
 3231              		.loc 4 34 0
 3232 022a 83EA0315 		eor	r5, r3, r3, lsl #4
 3233 022e EAB2     		uxtb	r2, r5
 3234              		.loc 4 35 0
 3235 0230 000A     		lsrs	r0, r0, #8
 3236 0232 80EA1211 		eor	r1, r0, r2, lsr #4
 3237 0236 41EA0223 		orr	r3, r1, r2, lsl #8
 3238 023a 83EAC205 		eor	r5, r3, r2, lsl #3
 3239              		.loc 4 33 0
 3240 023e 069A     		ldr	r2, [sp, #24]
ARM GAS  C:\Users\Mohamad\AppData\Local\Temp\ccDsqi1j.s 			page 58


 3241 0240 85EA0200 		eor	r0, r5, r2
 3242              		.loc 4 34 0
 3243 0244 80EA0011 		eor	r1, r0, r0, lsl #4
 3244 0248 CBB2     		uxtb	r3, r1
 3245              		.loc 4 35 0
 3246 024a 2D0A     		lsrs	r5, r5, #8
 3247 024c 85EA1312 		eor	r2, r5, r3, lsr #4
 3248 0250 42EA0320 		orr	r0, r2, r3, lsl #8
 3249 0254 80EAC301 		eor	r1, r0, r3, lsl #3
 3250              		.loc 4 33 0
 3251 0258 81EA0A03 		eor	r3, r1, sl
 3252              		.loc 4 34 0
 3253 025c 83EA0315 		eor	r5, r3, r3, lsl #4
 3254 0260 E8B2     		uxtb	r0, r5
 3255              		.loc 4 35 0
 3256 0262 0A0A     		lsrs	r2, r1, #8
 3257 0264 82EA1011 		eor	r1, r2, r0, lsr #4
 3258 0268 41EA0023 		orr	r3, r1, r0, lsl #8
 3259 026c 83EAC005 		eor	r5, r3, r0, lsl #3
 3260              		.loc 4 33 0
 3261 0270 0898     		ldr	r0, [sp, #32]
 3262 0272 DDF82CA0 		ldr	sl, [sp, #44]
 3263 0276 85EA0002 		eor	r2, r5, r0
 3264              		.loc 4 34 0
 3265 027a 82EA0211 		eor	r1, r2, r2, lsl #4
 3266 027e CBB2     		uxtb	r3, r1
 3267              		.loc 4 35 0
 3268 0280 2D0A     		lsrs	r5, r5, #8
 3269 0282 85EA1310 		eor	r0, r5, r3, lsr #4
 3270 0286 40EA0322 		orr	r2, r0, r3, lsl #8
 3271 028a 82EAC301 		eor	r1, r2, r3, lsl #3
 3272              		.loc 4 33 0
 3273 028e 81EA0903 		eor	r3, r1, r9
 3274              		.loc 4 34 0
 3275 0292 83EA0315 		eor	r5, r3, r3, lsl #4
 3276 0296 E8B2     		uxtb	r0, r5
 3277              		.loc 4 35 0
 3278 0298 0A0A     		lsrs	r2, r1, #8
 3279 029a 82EA1011 		eor	r1, r2, r0, lsr #4
 3280 029e 41EA0023 		orr	r3, r1, r0, lsl #8
 3281 02a2 83EAC005 		eor	r5, r3, r0, lsl #3
 3282              		.loc 4 33 0
 3283 02a6 0A98     		ldr	r0, [sp, #40]
 3284 02a8 85EA0002 		eor	r2, r5, r0
 3285              		.loc 4 34 0
 3286 02ac 82EA0211 		eor	r1, r2, r2, lsl #4
 3287 02b0 CBB2     		uxtb	r3, r1
 3288              		.loc 4 35 0
 3289 02b2 2D0A     		lsrs	r5, r5, #8
 3290 02b4 85EA1310 		eor	r0, r5, r3, lsr #4
 3291 02b8 40EA0322 		orr	r2, r0, r3, lsl #8
 3292 02bc 82EAC301 		eor	r1, r2, r3, lsl #3
 3293              		.loc 4 33 0
 3294 02c0 81EA0A03 		eor	r3, r1, sl
 3295              		.loc 4 34 0
 3296 02c4 83EA0315 		eor	r5, r3, r3, lsl #4
 3297 02c8 E8B2     		uxtb	r0, r5
ARM GAS  C:\Users\Mohamad\AppData\Local\Temp\ccDsqi1j.s 			page 59


 3298              		.loc 4 35 0
 3299 02ca 0A0A     		lsrs	r2, r1, #8
 3300 02cc 82EA1011 		eor	r1, r2, r0, lsr #4
 3301 02d0 41EA0023 		orr	r3, r1, r0, lsl #8
 3302 02d4 83EAC005 		eor	r5, r3, r0, lsl #3
 3303              		.loc 4 33 0
 3304 02d8 85F04300 		eor	r0, r5, #67
 3305              	.LBE844:
 3306              	.LBE849:
 3307              	.LBE854:
 3308              	.LBE863:
 3309              	.LBB864:
 3310              	.LBB865:
 3311              		.loc 4 34 0
 3312 02dc 80EA0012 		eor	r2, r0, r0, lsl #4
 3313 02e0 D1B2     		uxtb	r1, r2
 3314              		.loc 4 35 0
 3315 02e2 4FEA1529 		lsr	r9, r5, #8
 3316 02e6 89EA1113 		eor	r3, r9, r1, lsr #4
 3317 02ea 43EA0125 		orr	r5, r3, r1, lsl #8
 3318 02ee 85EAC109 		eor	r9, r5, r1, lsl #3
 3319              	.LBE865:
 3320              	.LBE864:
 3321              	.LBE876:
 3322              	.LBE886:
 3323              	.LBE896:
 3324              	.LBE906:
 3325              	.LBE912:
 3326              	.LBE925:
 3327              	.LBE935:
 3328              	.LBE938:
 3329              		.loc 1 233 0
 3330 02f2 0125     		movs	r5, #1
 3331 02f4 3570     		strb	r5, [r6, #0]
 3332              	.LVL134:
 3333              	.LBB939:
 3334              	.LBB936:
 3335              	.LBB926:
 3336              	.LBB913:
 3337              		.loc 5 62 0
 3338 02f6 7646     		mov	r6, lr	@ movhi
 3339              		.loc 5 70 0
 3340 02f8 4FF01C0E 		mov	lr, #28
 3341 02fc 84F807E0 		strb	lr, [r4, #7]
 3342              	.LVL135:
 3343              	.LBB907:
 3344              	.LBB897:
 3345              	.LBB887:
 3346              	.LBB877:
 3347              		.loc 3 76 0
 3348 0300 4FF0FE0E 		mov	lr, #254
 3349 0304 84F802E0 		strb	lr, [r4, #2]
 3350              		.loc 3 77 0
 3351 0308 4FF0100E 		mov	lr, #16
 3352 030c 84F803E0 		strb	lr, [r4, #3]
 3353              		.loc 3 82 0
 3354 0310 40F2000E 		movw	lr, #:lower16:.LANCHOR9
ARM GAS  C:\Users\Mohamad\AppData\Local\Temp\ccDsqi1j.s 			page 60


 3355              	.LBB868:
 3356              	.LBB866:
 3357              		.loc 4 35 0
 3358 0314 1FFA89F3 		uxth	r3, r9
 3359              	.LBE866:
 3360              	.LBE868:
 3361              		.loc 3 82 0
 3362 0318 C0F2000E 		movt	lr, #:upper16:.LANCHOR9
 3363              		.loc 3 89 0
 3364 031c 4FEA132A 		lsr	sl, r3, #8
 3365              		.loc 3 82 0
 3366 0320 AC44     		add	ip, ip, r5
 3367              	.LBE877:
 3368              	.LBE887:
 3369              	.LBE897:
 3370              	.LBE907:
 3371              	.LBE913:
 3372              	.LBE926:
 3373              	.LBB927:
 3374              	.LBB918:
 3375              		.loc 3 176 0
 3376 0322 A11C     		adds	r1, r4, #2
 3377 0324 1622     		movs	r2, #22
 3378              	.LBE918:
 3379              	.LBE927:
 3380              	.LBB928:
 3381              	.LBB914:
 3382              	.LBB908:
 3383              	.LBB898:
 3384              	.LBB888:
 3385              	.LBB878:
 3386              		.loc 3 82 0
 3387 0326 8EF806C0 		strb	ip, [lr, #6]
 3388              	.LBB869:
 3389              	.LBB867:
 3390              		.loc 4 35 0
 3391 032a 2380     		strh	r3, [r4, #0]	@ movhi
 3392              	.LBE867:
 3393              	.LBE869:
 3394              	.LBE878:
 3395              	.LBE888:
 3396              	.LBE898:
 3397              	.LBE908:
 3398              	.LBE914:
 3399              	.LBE928:
 3400              	.LBB929:
 3401              	.LBB919:
 3402              		.loc 3 176 0
 3403 032c 4046     		mov	r0, r8
 3404              	.LBE919:
 3405              	.LBE929:
 3406              	.LBB930:
 3407              	.LBB915:
 3408              	.LBB909:
 3409              	.LBB899:
 3410              	.LBB889:
 3411              	.LBB879:
ARM GAS  C:\Users\Mohamad\AppData\Local\Temp\ccDsqi1j.s 			page 61


 3412              		.loc 3 88 0
 3413 032e 84F81890 		strb	r9, [r4, #24]
 3414              		.loc 3 89 0
 3415 0332 84F819A0 		strb	sl, [r4, #25]
 3416              		.loc 3 78 0
 3417 0336 6571     		strb	r5, [r4, #5]
 3418              		.loc 3 79 0
 3419 0338 A571     		strb	r5, [r4, #6]
 3420              	.LVL136:
 3421              	.LBE879:
 3422              	.LBE889:
 3423              	.LBE899:
 3424              	.LBE909:
 3425              	.LBE915:
 3426              	.LBE930:
 3427              	.LBB931:
 3428              	.LBB920:
 3429              		.loc 3 176 0
 3430 033a FFF7FEFF 		bl	memcpy
 3431              	.LVL137:
 3432              	.LBE920:
 3433              	.LBE931:
 3434              		.loc 1 268 0
 3435 033e 0848     		ldr	r0, .L87+8
 3436              	.LBB932:
 3437              	.LBB921:
 3438              		.loc 3 180 0
 3439 0340 88F81690 		strb	r9, [r8, #22]
 3440              	.LBE921:
 3441              	.LBE932:
 3442              		.loc 1 268 0
 3443 0344 1821     		movs	r1, #24
 3444 0346 4246     		mov	r2, r8
 3445              	.LBB933:
 3446              	.LBB922:
 3447              		.loc 3 181 0
 3448 0348 88F817A0 		strb	sl, [r8, #23]
 3449              	.LBE922:
 3450              	.LBE933:
 3451              		.loc 1 268 0
 3452 034c FFF7FEFF 		bl	uartStartSendI
 3453              	.LVL138:
 3454              	.LBE936:
 3455              	.LBE939:
 3456              		.loc 1 236 0
 3457 0350 0448     		ldr	r0, .L87+12
 3458              		.loc 1 235 0
 3459 0352 3E70     		strb	r6, [r7, #0]
 3460              		.loc 1 236 0
 3461 0354 0570     		strb	r5, [r0, #0]
 3462 0356 68E6     		b	.L53
 3463              	.L88:
 3464              		.align	2
 3465              	.L87:
 3466 0358 00000000 		.word	.LANCHOR13
 3467 035c 00000000 		.word	.LANCHOR2
 3468 0360 00000000 		.word	UARTD3
ARM GAS  C:\Users\Mohamad\AppData\Local\Temp\ccDsqi1j.s 			page 62


 3469 0364 00000000 		.word	.LANCHOR8
 3470 0368 00000000 		.word	.LANCHOR10
 3471              	.LVL139:
 3472              	.L82:
 3473              		.loc 1 206 0 discriminator 1
 3474 036c 7E4F     		ldr	r7, .L89+8
 3475 036e 3B78     		ldrb	r3, [r7, #0]	@ zero_extendqisi2
 3476 0370 002B     		cmp	r3, #0
 3477 0372 3FF45AAE 		beq	.L53
 3478              		.loc 1 208 0
 3479 0376 0021     		movs	r1, #0
 3480              	.LBB940:
 3481              	.LBB941:
 3482              		.loc 1 251 0
 3483 0378 7C48     		ldr	r0, .L89+12
 3484 037a 7D4A     		ldr	r2, .L89+16
 3485              	.LBE941:
 3486              	.LBE940:
 3487              		.loc 1 208 0
 3488 037c 2970     		strb	r1, [r5, #0]
 3489              		.loc 1 209 0
 3490 037e 0225     		movs	r5, #2
 3491 0380 3570     		strb	r5, [r6, #0]
 3492              	.LBB1079:
 3493              	.LBB1078:
 3494              		.loc 1 251 0
 3495 0382 0068     		ldr	r0, [r0, #0]	@ float
 3496 0384 D2F80CA0 		ldr	sl, [r2, #12]
 3497              	.LBB942:
 3498              	.LBB943:
 3499              	.LBB944:
 3500              	.LBB945:
 3501              	.LBB946:
 3502              	.LBB947:
 3503              		.loc 3 81 0
 3504 0388 DFF80092 		ldr	r9, .L89+44
 3505              	.LBE947:
 3506              	.LBE946:
 3507              	.LBE945:
 3508              	.LBE944:
 3509              	.LBE943:
 3510              	.LBE942:
 3511              		.loc 1 251 0
 3512 038c FFF7FEFF 		bl	__aeabi_f2d
 3513              	.LVL140:
 3514 0390 73A3     		adr	r3, .L89
 3515 0392 D3E90023 		ldrd	r2, [r3]
 3516 0396 FFF7FEFF 		bl	__aeabi_dmul
 3517              	.LVL141:
 3518 039a FFF7FEFF 		bl	__aeabi_d2f
 3519              	.LVL142:
 3520 039e 754B     		ldr	r3, .L89+20
 3521 03a0 0646     		mov	r6, r0
 3522 03a2 1868     		ldr	r0, [r3, #0]	@ float
 3523 03a4 FFF7FEFF 		bl	__aeabi_f2d
 3524              	.LVL143:
 3525 03a8 6DA3     		adr	r3, .L89
ARM GAS  C:\Users\Mohamad\AppData\Local\Temp\ccDsqi1j.s 			page 63


 3526 03aa D3E90023 		ldrd	r2, [r3]
 3527 03ae FFF7FEFF 		bl	__aeabi_dmul
 3528              	.LVL144:
 3529 03b2 FFF7FEFF 		bl	__aeabi_d2f
 3530              	.LVL145:
 3531 03b6 0546     		mov	r5, r0
 3532 03b8 6F48     		ldr	r0, .L89+24
 3533 03ba 0068     		ldr	r0, [r0, #0]	@ float
 3534 03bc FFF7FEFF 		bl	__aeabi_f2d
 3535              	.LVL146:
 3536 03c0 67A3     		adr	r3, .L89
 3537 03c2 D3E90023 		ldrd	r2, [r3]
 3538 03c6 FFF7FEFF 		bl	__aeabi_dmul
 3539              	.LVL147:
 3540 03ca FFF7FEFF 		bl	__aeabi_d2f
 3541              	.LVL148:
 3542 03ce 8046     		mov	r8, r0
 3543 03d0 13A8     		add	r0, sp, #76
 3544 03d2 FFF7FEFF 		bl	ins_get_Gyro_drift
 3545              	.LVL149:
 3546 03d6 10A8     		add	r0, sp, #64
 3547 03d8 DDF84CB0 		ldr	fp, [sp, #76]	@ float
 3548 03dc FFF7FEFF 		bl	ins_get_Gyro_drift
 3549              	.LVL150:
 3550 03e0 119A     		ldr	r2, [sp, #68]	@ float
 3551 03e2 0DA8     		add	r0, sp, #52
 3552 03e4 0292     		str	r2, [sp, #8]	@ float
 3553 03e6 FFF7FEFF 		bl	ins_get_Gyro_drift
 3554              	.LVL151:
 3555              	.LBB1060:
 3556              	.LBB1054:
 3557              	.LBB1040:
 3558              	.LBB1026:
 3559              	.LBB1012:
 3560              	.LBB998:
 3561              		.loc 3 81 0
 3562 03ea 99F806C0 		ldrb	ip, [r9, #6]	@ zero_extendqisi2
 3563              	.LBE998:
 3564              	.LBE1012:
 3565              	.LBE1026:
 3566              	.LBE1040:
 3567              		.loc 6 70 0
 3568 03ee 2E96     		str	r6, [sp, #184]	@ float
 3569              	.LBB1041:
 3570              	.LBB1027:
 3571              	.LBB1013:
 3572              	.LBB999:
 3573              	.LBB948:
 3574              	.LBB949:
 3575              	.LBB950:
 3576              	.LBB951:
 3577              		.loc 4 33 0
 3578 03f0 8CF06A01 		eor	r1, ip, #106
 3579              		.loc 4 34 0
 3580 03f4 81EA0116 		eor	r6, r1, r1, lsl #4
 3581 03f8 F3B2     		uxtb	r3, r6
 3582              		.loc 4 35 0
ARM GAS  C:\Users\Mohamad\AppData\Local\Temp\ccDsqi1j.s 			page 64


 3583 03fa 1809     		lsrs	r0, r3, #4
 3584 03fc 80F0D502 		eor	r2, r0, #213
 3585 0400 42EA0321 		orr	r1, r2, r3, lsl #8
 3586 0404 81EAC306 		eor	r6, r1, r3, lsl #3
 3587              		.loc 4 33 0
 3588 0408 86F00103 		eor	r3, r6, #1
 3589              		.loc 4 34 0
 3590 040c 83EA0310 		eor	r0, r3, r3, lsl #4
 3591 0410 C2B2     		uxtb	r2, r0
 3592              		.loc 4 35 0
 3593 0412 310A     		lsrs	r1, r6, #8
 3594 0414 81EA1216 		eor	r6, r1, r2, lsr #4
 3595              	.LBE951:
 3596              	.LBE950:
 3597              	.LBE949:
 3598              	.LBE948:
 3599              	.LBE999:
 3600              	.LBE1013:
 3601              	.LBE1027:
 3602              	.LBE1041:
 3603              		.loc 6 69 0
 3604 0418 CDF8B4A0 		str	sl, [sp, #180]
 3605              	.LBB1042:
 3606              	.LBB1028:
 3607              	.LBB1014:
 3608              	.LBB1000:
 3609              	.LBB973:
 3610              	.LBB966:
 3611              	.LBB959:
 3612              	.LBB952:
 3613              		.loc 4 35 0
 3614 041c 46EA0223 		orr	r3, r6, r2, lsl #8
 3615              	.LBE952:
 3616              	.LBE959:
 3617              	.LBE966:
 3618              	.LBE973:
 3619              	.LBE1000:
 3620              	.LBE1014:
 3621              	.LBE1028:
 3622              	.LBE1042:
 3623              		.loc 6 71 0
 3624 0420 2F95     		str	r5, [sp, #188]	@ float
 3625              		.loc 6 72 0
 3626 0422 CDF8C080 		str	r8, [sp, #192]	@ float
 3627              		.loc 6 77 0
 3628 0426 0DF1B40E 		add	lr, sp, #180
 3629              	.LBB1043:
 3630              	.LBB1029:
 3631              	.LBB1015:
 3632              	.LBB1001:
 3633              	.LBB974:
 3634              	.LBB967:
 3635              	.LBB960:
 3636              	.LBB953:
 3637              		.loc 4 35 0
 3638 042a 83EAC206 		eor	r6, r3, r2, lsl #3
 3639              	.LBE953:
ARM GAS  C:\Users\Mohamad\AppData\Local\Temp\ccDsqi1j.s 			page 65


 3640              	.LBE960:
 3641              	.LBE967:
 3642              	.LBE974:
 3643              	.LBE1001:
 3644              	.LBE1015:
 3645              	.LBE1029:
 3646              	.LBE1043:
 3647              		.loc 6 77 0
 3648 042e BEE80F00 		ldmia	lr!, {r0, r1, r2, r3}
 3649              	.LBB1044:
 3650              	.LBB1030:
 3651              	.LBB1016:
 3652              	.LBB1002:
 3653              	.LBB975:
 3654              	.LBB968:
 3655              	.LBB961:
 3656              	.LBB954:
 3657              		.loc 4 33 0
 3658 0432 86F00105 		eor	r5, r6, #1
 3659              		.loc 4 34 0
 3660 0436 85EA0518 		eor	r8, r5, r5, lsl #4
 3661              	.LBE954:
 3662              	.LBE961:
 3663              	.LBE968:
 3664              	.LBE975:
 3665              	.LBE1002:
 3666              	.LBE1016:
 3667              	.LBE1030:
 3668              	.LBE1044:
 3669              		.loc 6 77 0
 3670 043a 504D     		ldr	r5, .L89+28
 3671              	.LBE1054:
 3672              	.LBE1060:
 3673              		.loc 1 251 0
 3674 043c DDF83CA0 		ldr	sl, [sp, #60]	@ float
 3675              	.LBB1061:
 3676              	.LBB1055:
 3677              		.loc 6 73 0
 3678 0440 CDF8C4B0 		str	fp, [sp, #196]	@ float
 3679              	.LBB1045:
 3680              	.LBB1031:
 3681              	.LBB1017:
 3682              	.LBB1003:
 3683              	.LBB976:
 3684              	.LBB969:
 3685              	.LBB962:
 3686              	.LBB955:
 3687              		.loc 4 34 0
 3688 0444 5FFA88F8 		uxtb	r8, r8
 3689              		.loc 4 35 0
 3690 0448 4FEA162B 		lsr	fp, r6, #8
 3691              	.LBE955:
 3692              	.LBE962:
 3693              	.LBE969:
 3694              	.LBE976:
 3695              	.LBE1003:
 3696              	.LBE1017:
ARM GAS  C:\Users\Mohamad\AppData\Local\Temp\ccDsqi1j.s 			page 66


 3697              	.LBE1031:
 3698              	.LBE1045:
 3699              		.loc 6 77 0
 3700 044c 05F10806 		add	r6, r5, #8
 3701 0450 0FC6     		stmia	r6!, {r0, r1, r2, r3}
 3702              	.LBE1055:
 3703              	.LBE1061:
 3704              		.loc 1 251 0
 3705 0452 CDF8CCA0 		str	sl, [sp, #204]	@ float
 3706              	.LVL152:
 3707              	.LBB1062:
 3708              	.LBB1056:
 3709              		.loc 6 74 0
 3710 0456 0298     		ldr	r0, [sp, #8]	@ float
 3711              	.LVL153:
 3712              	.LBB1046:
 3713              	.LBB1032:
 3714              	.LBB1018:
 3715              	.LBB1004:
 3716              		.loc 3 78 0
 3717 0458 6C71     		strb	r4, [r5, #5]
 3718              	.LBB977:
 3719              	.LBB970:
 3720              	.LBB963:
 3721              	.LBB956:
 3722              		.loc 4 35 0
 3723 045a 8BEA181A 		eor	sl, fp, r8, lsr #4
 3724              	.LVL154:
 3725 045e 4AEA082B 		orr	fp, sl, r8, lsl #8
 3726 0462 8BEAC803 		eor	r3, fp, r8, lsl #3
 3727              	.LBE956:
 3728              	.LBE963:
 3729              	.LBE970:
 3730              	.LBE977:
 3731              	.LBE1004:
 3732              	.LBE1018:
 3733              	.LBE1032:
 3734              	.LBE1046:
 3735              		.loc 6 74 0
 3736 0466 3290     		str	r0, [sp, #200]	@ float
 3737              		.loc 6 77 0
 3738 0468 9EE80700 		ldmia	lr, {r0, r1, r2}
 3739              	.LBB1047:
 3740              	.LBB1033:
 3741              	.LBB1019:
 3742              	.LBB1005:
 3743              	.LBB978:
 3744              	.LBB971:
 3745              	.LBB964:
 3746              	.LBB957:
 3747              		.loc 4 33 0
 3748 046c 83F01E0E 		eor	lr, r3, #30
 3749              		.loc 4 34 0
 3750 0470 8EEA0E18 		eor	r8, lr, lr, lsl #4
 3751 0474 5FFA88FA 		uxtb	sl, r8
 3752              		.loc 4 35 0
 3753 0478 4FEA1323 		lsr	r3, r3, #8
ARM GAS  C:\Users\Mohamad\AppData\Local\Temp\ccDsqi1j.s 			page 67


 3754 047c 83EA1A13 		eor	r3, r3, sl, lsr #4
 3755 0480 43EA0A23 		orr	r3, r3, sl, lsl #8
 3756              	.LBE957:
 3757              	.LBE964:
 3758              	.LBE971:
 3759              	.LBE978:
 3760              		.loc 3 83 0
 3761 0484 AE46     		mov	lr, r5
 3762              	.LBB979:
 3763              	.LBB972:
 3764              	.LBB965:
 3765              	.LBB958:
 3766              		.loc 4 35 0
 3767 0486 83EACA03 		eor	r3, r3, sl, lsl #3
 3768              	.LBE958:
 3769              	.LBE965:
 3770              	.LBE972:
 3771              	.LBE979:
 3772              	.LBE1005:
 3773              	.LBE1019:
 3774              	.LBE1033:
 3775              	.LBE1047:
 3776              		.loc 6 77 0
 3777 048a 86E80700 		stmia	r6, {r0, r1, r2}
 3778              	.LBB1048:
 3779              	.LBB1034:
 3780              	.LBB1020:
 3781              	.LBB1006:
 3782              		.loc 3 83 0
 3783 048e 2EF8083B 		strh	r3, [lr], #8	@ movhi
 3784              	.LVL155:
 3785              		.loc 3 76 0
 3786 0492 FE26     		movs	r6, #254
 3787              		.loc 3 82 0
 3788 0494 0CF10102 		add	r2, ip, #1
 3789              	.LBE1006:
 3790              	.LBE1020:
 3791              	.LBE1034:
 3792              	.LBE1048:
 3793              		.loc 6 80 0
 3794 0498 1E21     		movs	r1, #30
 3795              	.LBB1049:
 3796              	.LBB1035:
 3797              	.LBB1021:
 3798              	.LBB1007:
 3799              		.loc 3 77 0
 3800 049a 1C20     		movs	r0, #28
 3801              		.loc 3 76 0
 3802 049c AE70     		strb	r6, [r5, #2]
 3803              	.LBE1007:
 3804              	.LBE1021:
 3805              	.LBE1035:
 3806              	.LBE1049:
 3807              		.loc 6 80 0
 3808 049e E971     		strb	r1, [r5, #7]
 3809              	.LVL156:
 3810              	.LBB1050:
ARM GAS  C:\Users\Mohamad\AppData\Local\Temp\ccDsqi1j.s 			page 68


 3811              	.LBB1036:
 3812              	.LBB1022:
 3813              	.LBB1008:
 3814              		.loc 3 77 0
 3815 04a0 E870     		strb	r0, [r5, #3]
 3816              		.loc 3 79 0
 3817 04a2 AC71     		strb	r4, [r5, #6]
 3818              	.LVL157:
 3819              		.loc 3 81 0
 3820 04a4 85F804C0 		strb	ip, [r5, #4]
 3821              	.LVL158:
 3822              		.loc 3 82 0
 3823 04a8 89F80620 		strb	r2, [r9, #6]
 3824              	.LVL159:
 3825 04ac 05F12406 		add	r6, r5, #36
 3826              	.LVL160:
 3827              	.L56:
 3828              	.LBB980:
 3829              	.LBB981:
 3830              		.loc 4 82 0
 3831 04b0 7246     		mov	r2, lr
 3832              	.LBB982:
 3833              	.LBB983:
 3834              		.loc 4 35 0
 3835 04b2 180A     		lsrs	r0, r3, #8
 3836              	.LBE983:
 3837              	.LBE982:
 3838              		.loc 4 82 0
 3839 04b4 12F8011B 		ldrb	r1, [r2], #1	@ zero_extendqisi2
 3840              	.LVL161:
 3841              	.LBB988:
 3842              	.LBB984:
 3843              		.loc 4 35 0
 3844 04b8 304C     		ldr	r4, .L89+28
 3845              		.loc 4 33 0
 3846 04ba 4B40     		eors	r3, r3, r1
 3847              	.LVL162:
 3848              		.loc 4 34 0
 3849 04bc 83EA0311 		eor	r1, r3, r3, lsl #4
 3850 04c0 CBB2     		uxtb	r3, r1
 3851              	.LVL163:
 3852              		.loc 4 35 0
 3853 04c2 80EA1310 		eor	r0, r0, r3, lsr #4
 3854 04c6 40EA0321 		orr	r1, r0, r3, lsl #8
 3855              	.LVL164:
 3856 04ca 81EAC303 		eor	r3, r1, r3, lsl #3
 3857              	.LVL165:
 3858 04ce 2B80     		strh	r3, [r5, #0]	@ movhi
 3859              	.LBE984:
 3860              	.LBE988:
 3861              		.loc 4 82 0
 3862 04d0 9EF80100 		ldrb	r0, [lr, #1]	@ zero_extendqisi2
 3863              	.LBB989:
 3864              	.LBB985:
 3865              		.loc 4 33 0
 3866 04d4 5840     		eors	r0, r0, r3
 3867              		.loc 4 34 0
ARM GAS  C:\Users\Mohamad\AppData\Local\Temp\ccDsqi1j.s 			page 69


 3868 04d6 80EA0011 		eor	r1, r0, r0, lsl #4
 3869 04da C8B2     		uxtb	r0, r1
 3870              		.loc 4 35 0
 3871 04dc 1B0A     		lsrs	r3, r3, #8
 3872 04de 83EA1011 		eor	r1, r3, r0, lsr #4
 3873 04e2 41EA0023 		orr	r3, r1, r0, lsl #8
 3874              	.LBE985:
 3875              	.LBE989:
 3876              		.loc 4 82 0
 3877 04e6 02F1010E 		add	lr, r2, #1
 3878              	.LVL166:
 3879              	.LBB990:
 3880              	.LBB986:
 3881              		.loc 4 35 0
 3882 04ea 83EAC003 		eor	r3, r3, r0, lsl #3
 3883              	.LBE986:
 3884              	.LBE990:
 3885              		.loc 4 81 0
 3886 04ee B645     		cmp	lr, r6
 3887              	.LBB991:
 3888              	.LBB987:
 3889              		.loc 4 35 0
 3890 04f0 2B80     		strh	r3, [r5, #0]	@ movhi
 3891              	.LBE987:
 3892              	.LBE991:
 3893              		.loc 4 81 0
 3894 04f2 DDD1     		bne	.L56
 3895              	.LVL167:
 3896              		.loc 4 33 0
 3897 04f4 83F02705 		eor	r5, r3, #39
 3898              	.LVL168:
 3899              	.LBE981:
 3900              	.LBE980:
 3901              	.LBB992:
 3902              	.LBB993:
 3903              		.loc 4 34 0
 3904 04f8 85EA0516 		eor	r6, r5, r5, lsl #4
 3905 04fc F2B2     		uxtb	r2, r6
 3906              	.LVL169:
 3907              		.loc 4 35 0
 3908 04fe 4FEA1329 		lsr	r9, r3, #8
 3909 0502 89EA121C 		eor	ip, r9, r2, lsr #4
 3910 0506 8CEA0228 		eor	r8, ip, r2, lsl #8
 3911 050a 88EAC200 		eor	r0, r8, r2, lsl #3
 3912 050e 1FFA80F8 		uxth	r8, r0
 3913              	.LBE993:
 3914              	.LBE992:
 3915              	.LBE1008:
 3916              	.LBE1022:
 3917              	.LBE1036:
 3918              	.LBE1050:
 3919              	.LBE1056:
 3920              	.LBE1062:
 3921              	.LBB1063:
 3922              	.LBB1064:
 3923              		.loc 3 176 0
 3924 0512 94F803A0 		ldrb	sl, [r4, #3]	@ zero_extendqisi2
ARM GAS  C:\Users\Mohamad\AppData\Local\Temp\ccDsqi1j.s 			page 70


 3925              	.LVL170:
 3926              		.loc 1 252 0
 3927 0516 1A4D     		ldr	r5, .L89+32
 3928              	.LBE1064:
 3929              	.LBE1063:
 3930              	.LBB1070:
 3931              	.LBB1057:
 3932              	.LBB1051:
 3933              	.LBB1037:
 3934              	.LBB1023:
 3935              	.LBB1009:
 3936              		.loc 3 88 0
 3937 0518 84F82480 		strb	r8, [r4, #36]
 3938              	.LBB996:
 3939              	.LBB994:
 3940              		.loc 4 35 0
 3941 051c 1FFA88F3 		uxth	r3, r8
 3942              	.LBE994:
 3943              	.LBE996:
 3944              		.loc 3 89 0
 3945 0520 4FEA1329 		lsr	r9, r3, #8
 3946              	.LBE1009:
 3947              	.LBE1023:
 3948              	.LBE1037:
 3949              	.LBE1051:
 3950              	.LBE1057:
 3951              	.LBE1070:
 3952              	.LBB1071:
 3953              	.LBB1065:
 3954              		.loc 3 176 0
 3955 0524 0AF10606 		add	r6, sl, #6
 3956              	.LVL171:
 3957 0528 A11C     		adds	r1, r4, #2
 3958 052a 3246     		mov	r2, r6
 3959              	.LVL172:
 3960              	.LBE1065:
 3961              	.LBE1071:
 3962              	.LBB1072:
 3963              	.LBB1058:
 3964              	.LBB1052:
 3965              	.LBB1038:
 3966              	.LBB1024:
 3967              	.LBB1010:
 3968              	.LBB997:
 3969              	.LBB995:
 3970              		.loc 4 35 0
 3971 052c 2380     		strh	r3, [r4, #0]	@ movhi
 3972              	.LBE995:
 3973              	.LBE997:
 3974              	.LBE1010:
 3975              	.LBE1024:
 3976              	.LBE1038:
 3977              	.LBE1052:
 3978              	.LBE1058:
 3979              	.LBE1072:
 3980              	.LBB1073:
 3981              	.LBB1066:
ARM GAS  C:\Users\Mohamad\AppData\Local\Temp\ccDsqi1j.s 			page 71


 3982              		.loc 3 176 0
 3983 052e 2846     		mov	r0, r5
 3984              	.LBE1066:
 3985              	.LBE1073:
 3986              	.LBB1074:
 3987              	.LBB1059:
 3988              	.LBB1053:
 3989              	.LBB1039:
 3990              	.LBB1025:
 3991              	.LBB1011:
 3992              		.loc 3 89 0
 3993 0530 84F82590 		strb	r9, [r4, #37]
 3994              	.LVL173:
 3995              	.LBE1011:
 3996              	.LBE1025:
 3997              	.LBE1039:
 3998              	.LBE1053:
 3999              	.LBE1059:
 4000              	.LBE1074:
 4001              	.LBB1075:
 4002              	.LBB1067:
 4003              		.loc 3 176 0
 4004 0534 FFF7FEFF 		bl	memcpy
 4005              	.LVL174:
 4006              		.loc 3 178 0
 4007 0538 AB19     		adds	r3, r5, r6
 4008              	.LVL175:
 4009              	.LBE1067:
 4010              	.LBE1075:
 4011              		.loc 1 253 0
 4012 053a 1248     		ldr	r0, .L89+36
 4013              	.LBB1076:
 4014              	.LBB1068:
 4015              		.loc 3 180 0
 4016 053c 05F80680 		strb	r8, [r5, r6]
 4017              	.LBE1068:
 4018              	.LBE1076:
 4019              		.loc 1 253 0
 4020 0540 0AF10801 		add	r1, sl, #8
 4021 0544 2A46     		mov	r2, r5
 4022              	.LBB1077:
 4023              	.LBB1069:
 4024              		.loc 3 181 0
 4025 0546 83F80190 		strb	r9, [r3, #1]
 4026              	.LBE1069:
 4027              	.LBE1077:
 4028              		.loc 1 253 0
 4029 054a FFF7FEFF 		bl	uartStartSend
 4030              	.LVL176:
 4031              	.LBE1078:
 4032              	.LBE1079:
 4033              		.loc 1 212 0
 4034 054e 0E48     		ldr	r0, .L89+40
 4035              		.loc 1 211 0
 4036 0550 0021     		movs	r1, #0
 4037              		.loc 1 212 0
 4038 0552 0122     		movs	r2, #1
ARM GAS  C:\Users\Mohamad\AppData\Local\Temp\ccDsqi1j.s 			page 72


 4039              		.loc 1 211 0
 4040 0554 3970     		strb	r1, [r7, #0]
 4041              		.loc 1 212 0
 4042 0556 0270     		strb	r2, [r0, #0]
 4043 0558 67E5     		b	.L53
 4044              	.L90:
 4045 055a 00BFAFF3 		.align	3
 4045      0080
 4046              	.L89:
 4047 0560 E79AD561 		.word	1641388775
 4048 0564 94A94C40 		.word	1078765972
 4049 0568 00000000 		.word	.LANCHOR8
 4050 056c 00000000 		.word	roll
 4051 0570 00000000 		.word	vtlist
 4052 0574 00000000 		.word	pitch
 4053 0578 00000000 		.word	yaw
 4054 057c 00000000 		.word	.LANCHOR2
 4055 0580 00000000 		.word	.LANCHOR10
 4056 0584 00000000 		.word	UARTD3
 4057 0588 00000000 		.word	.LANCHOR11
 4058 058c 00000000 		.word	.LANCHOR9
 4059              	.LVL177:
 4060              	.L83:
 4061              		.loc 1 214 0 discriminator 1
 4062 0590 6E4F     		ldr	r7, .L91
 4063 0592 3B78     		ldrb	r3, [r7, #0]	@ zero_extendqisi2
 4064 0594 002B     		cmp	r3, #0
 4065 0596 3FF448AD 		beq	.L53
 4066              		.loc 1 216 0
 4067 059a 0024     		movs	r4, #0
 4068 059c 2C70     		strb	r4, [r5, #0]
 4069              	.LBB1080:
 4070              	.LBB1081:
 4071              		.loc 1 243 0
 4072 059e 25A8     		add	r0, sp, #148
 4073              	.LBE1081:
 4074              	.LBE1080:
 4075              		.loc 1 217 0
 4076 05a0 0325     		movs	r5, #3
 4077 05a2 3570     		strb	r5, [r6, #0]
 4078              	.LBB1229:
 4079              	.LBB1228:
 4080              		.loc 1 243 0
 4081 05a4 FFF7FEFF 		bl	ins_get_Accel
 4082              	.LVL178:
 4083 05a8 22A8     		add	r0, sp, #136
 4084 05aa 259E     		ldr	r6, [sp, #148]	@ float
 4085              	.LBB1082:
 4086              	.LBB1083:
 4087              	.LBB1084:
 4088              	.LBB1085:
 4089              	.LBB1086:
 4090              	.LBB1087:
 4091              		.loc 3 81 0
 4092 05ac DFF8B091 		ldr	r9, .L91+20
 4093              	.LBE1087:
 4094              	.LBE1086:
ARM GAS  C:\Users\Mohamad\AppData\Local\Temp\ccDsqi1j.s 			page 73


 4095              	.LBE1085:
 4096              	.LBE1084:
 4097              	.LBE1083:
 4098              	.LBE1082:
 4099              		.loc 1 243 0
 4100 05b0 FFF7FEFF 		bl	ins_get_Accel
 4101              	.LVL179:
 4102 05b4 1FA8     		add	r0, sp, #124
 4103 05b6 DDF88CB0 		ldr	fp, [sp, #140]	@ float
 4104 05ba FFF7FEFF 		bl	ins_get_Accel
 4105              	.LVL180:
 4106 05be 1CA8     		add	r0, sp, #112
 4107 05c0 219D     		ldr	r5, [sp, #132]	@ float
 4108 05c2 FFF7FEFF 		bl	ins_get_gyro
 4109              	.LVL181:
 4110 05c6 19A8     		add	r0, sp, #100
 4111 05c8 DDF870A0 		ldr	sl, [sp, #112]	@ float
 4112 05cc FFF7FEFF 		bl	ins_get_gyro
 4113              	.LVL182:
 4114 05d0 16A8     		add	r0, sp, #88
 4115 05d2 DDF86880 		ldr	r8, [sp, #104]	@ float
 4116 05d6 FFF7FEFF 		bl	ins_get_gyro
 4117              	.LVL183:
 4118              	.LBB1211:
 4119              	.LBB1206:
 4120              	.LBB1191:
 4121              	.LBB1176:
 4122              	.LBB1161:
 4123              	.LBB1146:
 4124              		.loc 3 81 0
 4125 05da 99F806C0 		ldrb	ip, [r9, #6]	@ zero_extendqisi2
 4126              	.LBE1146:
 4127              	.LBE1161:
 4128              	.LBE1176:
 4129              	.LBE1191:
 4130              		.loc 7 73 0
 4131 05de 3C94     		str	r4, [sp, #240]
 4132              	.LBB1192:
 4133              	.LBB1177:
 4134              	.LBB1162:
 4135              	.LBB1147:
 4136              	.LBB1088:
 4137              	.LBB1089:
 4138              	.LBB1090:
 4139              	.LBB1091:
 4140              		.loc 4 33 0
 4141 05e0 8CF08501 		eor	r1, ip, #133
 4142              		.loc 4 34 0
 4143 05e4 81EA0110 		eor	r0, r1, r1, lsl #4
 4144 05e8 C3B2     		uxtb	r3, r0
 4145              		.loc 4 35 0
 4146 05ea 1A09     		lsrs	r2, r3, #4
 4147 05ec 82F02E04 		eor	r4, r2, #46
 4148              	.LBE1091:
 4149              	.LBE1090:
 4150              	.LBE1089:
 4151              	.LBE1088:
ARM GAS  C:\Users\Mohamad\AppData\Local\Temp\ccDsqi1j.s 			page 74


 4152              	.LBE1147:
 4153              	.LBE1162:
 4154              	.LBE1177:
 4155              	.LBE1192:
 4156              		.loc 7 74 0
 4157 05f0 3D96     		str	r6, [sp, #244]	@ float
 4158              	.LBB1193:
 4159              	.LBB1178:
 4160              	.LBB1163:
 4161              	.LBB1148:
 4162              	.LBB1119:
 4163              	.LBB1110:
 4164              	.LBB1101:
 4165              	.LBB1092:
 4166              		.loc 4 35 0
 4167 05f2 84EAC306 		eor	r6, r4, r3, lsl #3
 4168 05f6 86EA0321 		eor	r1, r6, r3, lsl #8
 4169              		.loc 4 33 0
 4170 05fa 81F00100 		eor	r0, r1, #1
 4171              		.loc 4 34 0
 4172 05fe 80EA0013 		eor	r3, r0, r0, lsl #4
 4173 0602 DAB2     		uxtb	r2, r3
 4174              		.loc 4 35 0
 4175 0604 0C0A     		lsrs	r4, r1, #8
 4176 0606 84EA1216 		eor	r6, r4, r2, lsr #4
 4177 060a 86EAC201 		eor	r1, r6, r2, lsl #3
 4178 060e 81EA0226 		eor	r6, r1, r2, lsl #8
 4179              		.loc 4 33 0
 4180 0612 86F00100 		eor	r0, r6, #1
 4181              	.LBE1092:
 4182              	.LBE1101:
 4183              	.LBE1110:
 4184              	.LBE1119:
 4185              	.LBE1148:
 4186              	.LBE1163:
 4187              	.LBE1178:
 4188              	.LBE1193:
 4189              		.loc 7 75 0
 4190 0616 CDF8F8B0 		str	fp, [sp, #248]	@ float
 4191              		.loc 7 76 0
 4192 061a 3F95     		str	r5, [sp, #252]	@ float
 4193              		.loc 7 82 0
 4194 061c 3CAD     		add	r5, sp, #240
 4195              	.LBB1194:
 4196              	.LBB1179:
 4197              	.LBB1164:
 4198              	.LBB1149:
 4199              	.LBB1120:
 4200              	.LBB1111:
 4201              	.LBB1102:
 4202              	.LBB1093:
 4203              		.loc 4 34 0
 4204 061e 80EA0014 		eor	r4, r0, r0, lsl #4
 4205              	.LBE1093:
 4206              	.LBE1102:
 4207              	.LBE1111:
 4208              	.LBE1120:
ARM GAS  C:\Users\Mohamad\AppData\Local\Temp\ccDsqi1j.s 			page 75


 4209              	.LBE1149:
 4210              	.LBE1164:
 4211              	.LBE1179:
 4212              	.LBE1194:
 4213              		.loc 7 82 0
 4214 0622 0FCD     		ldmia	r5!, {r0, r1, r2, r3}
 4215              	.LBB1195:
 4216              	.LBB1180:
 4217              	.LBB1165:
 4218              	.LBB1150:
 4219              	.LBB1121:
 4220              	.LBB1112:
 4221              	.LBB1103:
 4222              	.LBB1094:
 4223              		.loc 4 34 0
 4224 0624 E4B2     		uxtb	r4, r4
 4225              		.loc 4 35 0
 4226 0626 360A     		lsrs	r6, r6, #8
 4227 0628 86EA141B 		eor	fp, r6, r4, lsr #4
 4228              	.LBE1094:
 4229              	.LBE1103:
 4230              	.LBE1112:
 4231              	.LBE1121:
 4232              	.LBE1150:
 4233              	.LBE1165:
 4234              	.LBE1180:
 4235              	.LBE1195:
 4236              	.LBE1206:
 4237              	.LBE1211:
 4238              		.loc 1 243 0
 4239 062c DDF860E0 		ldr	lr, [sp, #96]	@ float
 4240              	.LVL184:
 4241              	.LBB1212:
 4242              	.LBB1207:
 4243              		.loc 7 82 0
 4244 0630 474E     		ldr	r6, .L91+4
 4245              		.loc 7 77 0
 4246 0632 CDF800A1 		str	sl, [sp, #256]	@ float
 4247              		.loc 7 78 0
 4248 0636 CDF80481 		str	r8, [sp, #260]	@ float
 4249              	.LBB1196:
 4250              	.LBB1181:
 4251              	.LBB1166:
 4252              	.LBB1151:
 4253              	.LBB1122:
 4254              	.LBB1113:
 4255              	.LBB1104:
 4256              	.LBB1095:
 4257              		.loc 4 35 0
 4258 063a 8BEAC40A 		eor	sl, fp, r4, lsl #3
 4259              	.LVL185:
 4260              	.LBE1095:
 4261              	.LBE1104:
 4262              	.LBE1113:
 4263              	.LBE1122:
 4264              	.LBE1151:
 4265              	.LBE1166:
ARM GAS  C:\Users\Mohamad\AppData\Local\Temp\ccDsqi1j.s 			page 76


 4266              	.LBE1181:
 4267              	.LBE1196:
 4268              		.loc 7 80 0
 4269 063e 4FF00008 		mov	r8, #0
 4270              	.LVL186:
 4271              	.LBB1197:
 4272              	.LBB1182:
 4273              	.LBB1167:
 4274              	.LBB1152:
 4275              	.LBB1123:
 4276              	.LBB1114:
 4277              	.LBB1105:
 4278              	.LBB1096:
 4279              		.loc 4 35 0
 4280 0642 8AEA0424 		eor	r4, sl, r4, lsl #8
 4281              	.LBE1096:
 4282              	.LBE1105:
 4283              	.LBE1114:
 4284              	.LBE1123:
 4285              	.LBE1152:
 4286              	.LBE1167:
 4287              	.LBE1182:
 4288              	.LBE1197:
 4289              		.loc 7 79 0
 4290 0646 CDF808E1 		str	lr, [sp, #264]	@ float
 4291              		.loc 7 80 0
 4292 064a CDF80C81 		str	r8, [sp, #268]	@ float
 4293              		.loc 7 82 0
 4294 064e 06F1080E 		add	lr, r6, #8
 4295              	.LVL187:
 4296              	.LBB1198:
 4297              	.LBB1183:
 4298              	.LBB1168:
 4299              	.LBB1153:
 4300              	.LBB1124:
 4301              	.LBB1115:
 4302              	.LBB1106:
 4303              	.LBB1097:
 4304              		.loc 4 33 0
 4305 0652 84F01F0B 		eor	fp, r4, #31
 4306              	.LBE1097:
 4307              	.LBE1106:
 4308              	.LBE1115:
 4309              	.LBE1124:
 4310              	.LBE1153:
 4311              	.LBE1168:
 4312              	.LBE1183:
 4313              	.LBE1198:
 4314              		.loc 7 82 0
 4315 0656 AEE80F00 		stmia	lr!, {r0, r1, r2, r3}
 4316 065a 95E80F00 		ldmia	r5, {r0, r1, r2, r3}
 4317              	.LBB1199:
 4318              	.LBB1184:
 4319              	.LBB1169:
 4320              	.LBB1154:
 4321              	.LBB1125:
 4322              	.LBB1116:
ARM GAS  C:\Users\Mohamad\AppData\Local\Temp\ccDsqi1j.s 			page 77


 4323              	.LBB1107:
 4324              	.LBB1098:
 4325              		.loc 4 34 0
 4326 065e 8BEA0B1A 		eor	sl, fp, fp, lsl #4
 4327 0662 5FFA8AF8 		uxtb	r8, sl
 4328              		.loc 4 35 0
 4329 0666 250A     		lsrs	r5, r4, #8
 4330 0668 85EA1814 		eor	r4, r5, r8, lsr #4
 4331              	.LBE1098:
 4332              	.LBE1107:
 4333              	.LBE1116:
 4334              	.LBE1125:
 4335              		.loc 3 78 0
 4336 066c 4FF0010A 		mov	sl, #1
 4337              	.LBB1126:
 4338              	.LBB1117:
 4339              	.LBB1108:
 4340              	.LBB1099:
 4341              		.loc 4 35 0
 4342 0670 44EA0824 		orr	r4, r4, r8, lsl #8
 4343              	.LBE1099:
 4344              	.LBE1108:
 4345              	.LBE1117:
 4346              	.LBE1126:
 4347              		.loc 3 83 0
 4348 0674 3546     		mov	r5, r6
 4349              	.LBE1154:
 4350              	.LBE1169:
 4351              	.LBE1184:
 4352              	.LBE1199:
 4353              		.loc 7 82 0
 4354 0676 8EE80F00 		stmia	lr, {r0, r1, r2, r3}
 4355              	.LBB1200:
 4356              	.LBB1185:
 4357              	.LBB1170:
 4358              	.LBB1155:
 4359              		.loc 3 82 0
 4360 067a 0CEB0A0B 		add	fp, ip, sl
 4361              	.LBB1127:
 4362              	.LBB1118:
 4363              	.LBB1109:
 4364              	.LBB1100:
 4365              		.loc 4 35 0
 4366 067e 84EAC804 		eor	r4, r4, r8, lsl #3
 4367              	.LBE1100:
 4368              	.LBE1109:
 4369              	.LBE1118:
 4370              	.LBE1127:
 4371              	.LBE1155:
 4372              	.LBE1170:
 4373              	.LBE1185:
 4374              	.LBE1200:
 4375              		.loc 7 85 0
 4376 0682 1F23     		movs	r3, #31
 4377              	.LBB1201:
 4378              	.LBB1186:
 4379              	.LBB1171:
ARM GAS  C:\Users\Mohamad\AppData\Local\Temp\ccDsqi1j.s 			page 78


 4380              	.LBB1156:
 4381              		.loc 3 76 0
 4382 0684 FE22     		movs	r2, #254
 4383              		.loc 3 77 0
 4384 0686 2021     		movs	r1, #32
 4385              	.LBE1156:
 4386              	.LBE1171:
 4387              	.LBE1186:
 4388              	.LBE1201:
 4389              		.loc 7 85 0
 4390 0688 F371     		strb	r3, [r6, #7]
 4391              	.LVL188:
 4392              	.LBB1202:
 4393              	.LBB1187:
 4394              	.LBB1172:
 4395              	.LBB1157:
 4396              		.loc 3 76 0
 4397 068a B270     		strb	r2, [r6, #2]
 4398              		.loc 3 77 0
 4399 068c F170     		strb	r1, [r6, #3]
 4400              		.loc 3 78 0
 4401 068e 86F805A0 		strb	sl, [r6, #5]
 4402              		.loc 3 79 0
 4403 0692 86F806A0 		strb	sl, [r6, #6]
 4404              	.LVL189:
 4405              		.loc 3 81 0
 4406 0696 86F804C0 		strb	ip, [r6, #4]
 4407              	.LVL190:
 4408              		.loc 3 82 0
 4409 069a 89F806B0 		strb	fp, [r9, #6]
 4410              	.LVL191:
 4411              		.loc 3 83 0
 4412 069e 25F8084B 		strh	r4, [r5], #8	@ movhi
 4413              	.LVL192:
 4414 06a2 06F12800 		add	r0, r6, #40
 4415              	.LVL193:
 4416              	.L58:
 4417              	.LBB1128:
 4418              	.LBB1129:
 4419              		.loc 4 82 0
 4420 06a6 2B46     		mov	r3, r5
 4421              	.LBB1130:
 4422              	.LBB1131:
 4423              		.loc 4 35 0
 4424 06a8 210A     		lsrs	r1, r4, #8
 4425              	.LBE1131:
 4426              	.LBE1130:
 4427              		.loc 4 82 0
 4428 06aa 13F8012B 		ldrb	r2, [r3], #1	@ zero_extendqisi2
 4429              	.LVL194:
 4430              	.LBB1136:
 4431              	.LBB1132:
 4432              		.loc 4 35 0
 4433 06ae DFF8A0C0 		ldr	ip, .L91+4
 4434              		.loc 4 33 0
 4435 06b2 5440     		eors	r4, r4, r2
 4436              	.LVL195:
ARM GAS  C:\Users\Mohamad\AppData\Local\Temp\ccDsqi1j.s 			page 79


 4437              		.loc 4 34 0
 4438 06b4 84EA0412 		eor	r2, r4, r4, lsl #4
 4439 06b8 D4B2     		uxtb	r4, r2
 4440              	.LVL196:
 4441              		.loc 4 35 0
 4442 06ba 81EA1411 		eor	r1, r1, r4, lsr #4
 4443 06be 41EA0422 		orr	r2, r1, r4, lsl #8
 4444              	.LVL197:
 4445 06c2 82EAC404 		eor	r4, r2, r4, lsl #3
 4446              	.LVL198:
 4447 06c6 3480     		strh	r4, [r6, #0]	@ movhi
 4448              	.LBE1132:
 4449              	.LBE1136:
 4450              		.loc 4 82 0
 4451 06c8 6D78     		ldrb	r5, [r5, #1]	@ zero_extendqisi2
 4452              	.LVL199:
 4453              	.LBB1137:
 4454              	.LBB1133:
 4455              		.loc 4 33 0
 4456 06ca 6540     		eors	r5, r5, r4
 4457              		.loc 4 34 0
 4458 06cc 85EA0511 		eor	r1, r5, r5, lsl #4
 4459 06d0 CAB2     		uxtb	r2, r1
 4460              		.loc 4 35 0
 4461 06d2 240A     		lsrs	r4, r4, #8
 4462 06d4 84EA1215 		eor	r5, r4, r2, lsr #4
 4463 06d8 45EA0221 		orr	r1, r5, r2, lsl #8
 4464              	.LBE1133:
 4465              	.LBE1137:
 4466              		.loc 4 82 0
 4467 06dc 5D1C     		adds	r5, r3, #1
 4468              	.LVL200:
 4469              	.LBB1138:
 4470              	.LBB1134:
 4471              		.loc 4 35 0
 4472 06de 81EAC204 		eor	r4, r1, r2, lsl #3
 4473              	.LBE1134:
 4474              	.LBE1138:
 4475              		.loc 4 81 0
 4476 06e2 8542     		cmp	r5, r0
 4477              	.LBB1139:
 4478              	.LBB1135:
 4479              		.loc 4 35 0
 4480 06e4 3480     		strh	r4, [r6, #0]	@ movhi
 4481              	.LBE1135:
 4482              	.LBE1139:
 4483              		.loc 4 81 0
 4484 06e6 DED1     		bne	.L58
 4485              	.LVL201:
 4486              		.loc 4 33 0
 4487 06e8 84F0F606 		eor	r6, r4, #246
 4488              	.LVL202:
 4489              	.LBE1129:
 4490              	.LBE1128:
 4491              	.LBB1140:
 4492              	.LBB1141:
 4493              		.loc 4 34 0
ARM GAS  C:\Users\Mohamad\AppData\Local\Temp\ccDsqi1j.s 			page 80


 4494 06ec 86EA0610 		eor	r0, r6, r6, lsl #4
 4495 06f0 C3B2     		uxtb	r3, r0
 4496              	.LVL203:
 4497              		.loc 4 35 0
 4498 06f2 220A     		lsrs	r2, r4, #8
 4499 06f4 82EA1311 		eor	r1, r2, r3, lsr #4
 4500 06f8 81EA0325 		eor	r5, r1, r3, lsl #8
 4501              	.LVL204:
 4502 06fc 85EAC306 		eor	r6, r5, r3, lsl #3
 4503              	.LBE1141:
 4504              	.LBE1140:
 4505              	.LBE1157:
 4506              	.LBE1172:
 4507              	.LBE1187:
 4508              	.LBE1202:
 4509              	.LBE1207:
 4510              	.LBE1212:
 4511              	.LBB1213:
 4512              	.LBB1214:
 4513              		.loc 3 176 0
 4514 0700 9CF80390 		ldrb	r9, [ip, #3]	@ zero_extendqisi2
 4515              		.loc 1 252 0
 4516 0704 134C     		ldr	r4, .L91+8
 4517              	.LBE1214:
 4518              	.LBE1213:
 4519              	.LBB1220:
 4520              	.LBB1208:
 4521              	.LBB1203:
 4522              	.LBB1188:
 4523              	.LBB1173:
 4524              	.LBB1158:
 4525              	.LBB1144:
 4526              	.LBB1142:
 4527              		.loc 4 35 0
 4528 0706 B6B2     		uxth	r6, r6
 4529 0708 B3B2     		uxth	r3, r6
 4530              	.LBE1142:
 4531              	.LBE1144:
 4532              		.loc 3 89 0
 4533 070a 4FEA1328 		lsr	r8, r3, #8
 4534              	.LVL205:
 4535              	.LBE1158:
 4536              	.LBE1173:
 4537              	.LBE1188:
 4538              	.LBE1203:
 4539              	.LBE1208:
 4540              	.LBE1220:
 4541              	.LBB1221:
 4542              	.LBB1215:
 4543              		.loc 3 176 0
 4544 070e 09F10605 		add	r5, r9, #6
 4545 0712 0CF10201 		add	r1, ip, #2
 4546              	.LBE1215:
 4547              	.LBE1221:
 4548              	.LBB1222:
 4549              	.LBB1209:
 4550              	.LBB1204:
ARM GAS  C:\Users\Mohamad\AppData\Local\Temp\ccDsqi1j.s 			page 81


 4551              	.LBB1189:
 4552              	.LBB1174:
 4553              	.LBB1159:
 4554              	.LBB1145:
 4555              	.LBB1143:
 4556              		.loc 4 35 0
 4557 0716 ACF80030 		strh	r3, [ip, #0]	@ movhi
 4558              	.LBE1143:
 4559              	.LBE1145:
 4560              	.LBE1159:
 4561              	.LBE1174:
 4562              	.LBE1189:
 4563              	.LBE1204:
 4564              	.LBE1209:
 4565              	.LBE1222:
 4566              	.LBB1223:
 4567              	.LBB1216:
 4568              		.loc 3 176 0
 4569 071a 2A46     		mov	r2, r5
 4570              	.LBE1216:
 4571              	.LBE1223:
 4572              	.LBB1224:
 4573              	.LBB1210:
 4574              	.LBB1205:
 4575              	.LBB1190:
 4576              	.LBB1175:
 4577              	.LBB1160:
 4578              		.loc 3 88 0
 4579 071c 8CF82860 		strb	r6, [ip, #40]
 4580              		.loc 3 89 0
 4581 0720 8CF82980 		strb	r8, [ip, #41]
 4582              	.LVL206:
 4583              	.LBE1160:
 4584              	.LBE1175:
 4585              	.LBE1190:
 4586              	.LBE1205:
 4587              	.LBE1210:
 4588              	.LBE1224:
 4589              	.LBB1225:
 4590              	.LBB1217:
 4591              		.loc 3 176 0
 4592 0724 2046     		mov	r0, r4
 4593              	.LVL207:
 4594 0726 FFF7FEFF 		bl	memcpy
 4595              	.LVL208:
 4596              		.loc 3 178 0
 4597 072a 6319     		adds	r3, r4, r5
 4598              	.LVL209:
 4599              	.LBE1217:
 4600              	.LBE1225:
 4601              		.loc 1 245 0
 4602 072c 0A48     		ldr	r0, .L91+12
 4603              	.LBB1226:
 4604              	.LBB1218:
 4605              		.loc 3 180 0
 4606 072e 6655     		strb	r6, [r4, r5]
 4607              	.LBE1218:
ARM GAS  C:\Users\Mohamad\AppData\Local\Temp\ccDsqi1j.s 			page 82


 4608              	.LBE1226:
 4609              		.loc 1 245 0
 4610 0730 09F10801 		add	r1, r9, #8
 4611 0734 2246     		mov	r2, r4
 4612              	.LBB1227:
 4613              	.LBB1219:
 4614              		.loc 3 181 0
 4615 0736 83F80180 		strb	r8, [r3, #1]
 4616              	.LBE1219:
 4617              	.LBE1227:
 4618              		.loc 1 245 0
 4619 073a FFF7FEFF 		bl	uartStartSendI
 4620              	.LVL210:
 4621              	.LBE1228:
 4622              	.LBE1229:
 4623              		.loc 1 220 0
 4624 073e 0749     		ldr	r1, .L91+16
 4625              		.loc 1 219 0
 4626 0740 0020     		movs	r0, #0
 4627              		.loc 1 220 0
 4628 0742 0122     		movs	r2, #1
 4629              		.loc 1 219 0
 4630 0744 3870     		strb	r0, [r7, #0]
 4631              		.loc 1 220 0
 4632 0746 0A70     		strb	r2, [r1, #0]
 4633 0748 6FE4     		b	.L53
 4634              	.L92:
 4635 074a 00BF     		.align	2
 4636              	.L91:
 4637 074c 00000000 		.word	.LANCHOR11
 4638 0750 00000000 		.word	.LANCHOR2
 4639 0754 00000000 		.word	.LANCHOR10
 4640 0758 00000000 		.word	UARTD3
 4641 075c 00000000 		.word	.LANCHOR12
 4642 0760 00000000 		.word	.LANCHOR9
 4643              	.LVL211:
 4644              	.L84:
 4645              		.loc 1 224 0
 4646 0764 4FF00008 		mov	r8, #0
 4647              		.loc 1 225 0
 4648 0768 0427     		movs	r7, #4
 4649 076a 3770     		strb	r7, [r6, #0]
 4650              		.loc 1 224 0
 4651 076c 85F80080 		strb	r8, [r5, #0]
 4652              	.LBB1230:
 4653              	.LBB1231:
 4654              		.loc 1 258 0
 4655 0770 FFF7FEFF 		bl	chCoreStatus
 4656              	.LVL212:
 4657 0774 654E     		ldr	r6, .L93
 4658 0776 664D     		ldr	r5, .L93+4
 4659 0778 664B     		ldr	r3, .L93+8
 4660 077a 674A     		ldr	r2, .L93+12
 4661 077c 3168     		ldr	r1, [r6, #0]	@ float
 4662 077e 1E68     		ldr	r6, [r3, #0]
 4663 0780 0746     		mov	r7, r0
 4664 0782 2868     		ldr	r0, [r5, #0]	@ float
ARM GAS  C:\Users\Mohamad\AppData\Local\Temp\ccDsqi1j.s 			page 83


 4665 0784 1568     		ldr	r5, [r2, #0]
 4666 0786 FFF7FEFF 		bl	__aeabi_fsub
 4667              	.LVL213:
 4668 078a 0021     		movs	r1, #0
 4669 078c C4F27A41 		movt	r1, 17530
 4670 0790 FFF7FEFF 		bl	__aeabi_fmul
 4671              	.LVL214:
 4672 0794 FFF7FEFF 		bl	__aeabi_f2iz
 4673              	.LVL215:
 4674 0798 3497     		str	r7, [sp, #208]
 4675              	.LBB1232:
 4676              	.LBB1233:
 4677              		.loc 2 82 0
 4678 079a 3696     		str	r6, [sp, #216]
 4679              		.loc 2 83 0
 4680 079c 3795     		str	r5, [sp, #220]
 4681              	.LBE1233:
 4682              	.LBE1232:
 4683              		.loc 1 258 0
 4684 079e CDF8D480 		str	r8, [sp, #212]
 4685              	.LBB1290:
 4686              	.LBB1286:
 4687              		.loc 2 92 0
 4688 07a2 34AF     		add	r7, sp, #208
 4689              	.LVL216:
 4690              		.loc 2 84 0
 4691 07a4 3890     		str	r0, [sp, #224]
 4692              		.loc 2 92 0
 4693 07a6 0FCF     		ldmia	r7!, {r0, r1, r2, r3}
 4694              	.LVL217:
 4695 07a8 5C4D     		ldr	r5, .L93+16
 4696              	.LVL218:
 4697              		.loc 2 85 0
 4698 07aa ADF8E480 		strh	r8, [sp, #228]	@ movhi
 4699              		.loc 2 86 0
 4700 07ae ADF8E680 		strh	r8, [sp, #230]	@ movhi
 4701              		.loc 2 87 0
 4702 07b2 ADF8E880 		strh	r8, [sp, #232]	@ movhi
 4703              		.loc 2 88 0
 4704 07b6 ADF8EA80 		strh	r8, [sp, #234]	@ movhi
 4705              		.loc 2 89 0
 4706 07ba 8DF8EC80 		strb	r8, [sp, #236]
 4707              		.loc 2 90 0
 4708 07be 8DF8ED80 		strb	r8, [sp, #237]
 4709              		.loc 2 92 0
 4710 07c2 05F10806 		add	r6, r5, #8
 4711              	.LVL219:
 4712 07c6 0FC6     		stmia	r6!, {r0, r1, r2, r3}
 4713 07c8 97E80F00 		ldmia	r7, {r0, r1, r2, r3}
 4714              	.LVL220:
 4715 07cc 07C6     		stmia	r6!, {r0, r1, r2}
 4716              	.LVL221:
 4717              	.LBB1234:
 4718              	.LBB1235:
 4719              	.LBB1236:
 4720              	.LBB1237:
 4721              		.loc 3 81 0
ARM GAS  C:\Users\Mohamad\AppData\Local\Temp\ccDsqi1j.s 			page 84


 4722 07ce 544F     		ldr	r7, .L93+20
 4723              	.LBE1237:
 4724              	.LBE1236:
 4725              	.LBE1235:
 4726              	.LBE1234:
 4727              		.loc 2 92 0
 4728 07d0 3380     		strh	r3, [r6, #0]	@ movhi
 4729              	.LBB1280:
 4730              	.LBB1274:
 4731              	.LBB1268:
 4732              	.LBB1262:
 4733              		.loc 3 81 0
 4734 07d2 B979     		ldrb	r1, [r7, #6]	@ zero_extendqisi2
 4735              	.LBB1238:
 4736              	.LBB1239:
 4737              	.LBB1240:
 4738              	.LBB1241:
 4739              		.loc 4 33 0
 4740 07d4 81F07800 		eor	r0, r1, #120
 4741              		.loc 4 34 0
 4742 07d8 80EA0013 		eor	r3, r0, r0, lsl #4
 4743 07dc DEB2     		uxtb	r6, r3
 4744              	.LVL222:
 4745              		.loc 4 35 0
 4746 07de 3209     		lsrs	r2, r6, #4
 4747 07e0 82F0F600 		eor	r0, r2, #246
 4748 07e4 40EA0623 		orr	r3, r0, r6, lsl #8
 4749 07e8 83EAC606 		eor	r6, r3, r6, lsl #3
 4750              		.loc 4 33 0
 4751 07ec 86F00102 		eor	r2, r6, #1
 4752              		.loc 4 34 0
 4753 07f0 82EA0210 		eor	r0, r2, r2, lsl #4
 4754 07f4 C3B2     		uxtb	r3, r0
 4755              		.loc 4 35 0
 4756 07f6 360A     		lsrs	r6, r6, #8
 4757 07f8 86EA1312 		eor	r2, r6, r3, lsr #4
 4758 07fc 42EA0320 		orr	r0, r2, r3, lsl #8
 4759 0800 80EAC306 		eor	r6, r0, r3, lsl #3
 4760              		.loc 4 33 0
 4761 0804 86F00103 		eor	r3, r6, #1
 4762              		.loc 4 34 0
 4763 0808 83EA0312 		eor	r2, r3, r3, lsl #4
 4764 080c D0B2     		uxtb	r0, r2
 4765              		.loc 4 35 0
 4766 080e 360A     		lsrs	r6, r6, #8
 4767 0810 86EA1013 		eor	r3, r6, r0, lsr #4
 4768 0814 43EA0022 		orr	r2, r3, r0, lsl #8
 4769 0818 82EAC006 		eor	r6, r2, r0, lsl #3
 4770              		.loc 4 33 0
 4771 081c 86F01800 		eor	r0, r6, #24
 4772              		.loc 4 34 0
 4773 0820 80EA0013 		eor	r3, r0, r0, lsl #4
 4774 0824 D8B2     		uxtb	r0, r3
 4775              		.loc 4 35 0
 4776 0826 320A     		lsrs	r2, r6, #8
 4777 0828 82EA1016 		eor	r6, r2, r0, lsr #4
 4778 082c 46EA0023 		orr	r3, r6, r0, lsl #8
ARM GAS  C:\Users\Mohamad\AppData\Local\Temp\ccDsqi1j.s 			page 85


 4779              	.LBE1241:
 4780              	.LBE1240:
 4781              	.LBE1239:
 4782              	.LBE1238:
 4783              		.loc 3 83 0
 4784 0830 2A46     		mov	r2, r5
 4785              	.LBB1245:
 4786              	.LBB1244:
 4787              	.LBB1243:
 4788              	.LBB1242:
 4789              		.loc 4 35 0
 4790 0832 83EAC003 		eor	r3, r3, r0, lsl #3
 4791              	.LBE1242:
 4792              	.LBE1243:
 4793              	.LBE1244:
 4794              	.LBE1245:
 4795              		.loc 3 78 0
 4796 0836 0120     		movs	r0, #1
 4797              		.loc 3 82 0
 4798 0838 0E18     		adds	r6, r1, r0
 4799              	.LBE1262:
 4800              	.LBE1268:
 4801              	.LBE1274:
 4802              	.LBE1280:
 4803              		.loc 2 95 0
 4804 083a 4FF0180A 		mov	sl, #24
 4805              	.LBB1281:
 4806              	.LBB1275:
 4807              	.LBB1269:
 4808              	.LBB1263:
 4809              		.loc 3 76 0
 4810 083e 4FF0FE09 		mov	r9, #254
 4811              		.loc 3 77 0
 4812 0842 4FF01E0C 		mov	ip, #30
 4813              		.loc 3 83 0
 4814 0846 22F8083B 		strh	r3, [r2], #8	@ movhi
 4815              	.LVL223:
 4816              		.loc 3 82 0
 4817 084a BE71     		strb	r6, [r7, #6]
 4818              	.LBE1263:
 4819              	.LBE1269:
 4820              	.LBE1275:
 4821              	.LBE1281:
 4822              		.loc 2 95 0
 4823 084c 85F807A0 		strb	sl, [r5, #7]
 4824              	.LVL224:
 4825              	.LBB1282:
 4826              	.LBB1276:
 4827              	.LBB1270:
 4828              	.LBB1264:
 4829              		.loc 3 76 0
 4830 0850 85F80290 		strb	r9, [r5, #2]
 4831              		.loc 3 77 0
 4832 0854 85F803C0 		strb	ip, [r5, #3]
 4833              		.loc 3 78 0
 4834 0858 6871     		strb	r0, [r5, #5]
 4835              		.loc 3 79 0
ARM GAS  C:\Users\Mohamad\AppData\Local\Temp\ccDsqi1j.s 			page 86


 4836 085a A871     		strb	r0, [r5, #6]
 4837              	.LVL225:
 4838              		.loc 3 81 0
 4839 085c 2971     		strb	r1, [r5, #4]
 4840              	.LVL226:
 4841 085e 05F12607 		add	r7, r5, #38
 4842              	.LVL227:
 4843              	.L60:
 4844              	.LBB1246:
 4845              	.LBB1247:
 4846              		.loc 4 82 0
 4847 0862 1146     		mov	r1, r2
 4848              	.LBB1248:
 4849              	.LBB1249:
 4850              		.loc 4 35 0
 4851 0864 180A     		lsrs	r0, r3, #8
 4852              	.LBE1249:
 4853              	.LBE1248:
 4854              		.loc 4 82 0
 4855 0866 11F801EB 		ldrb	lr, [r1], #1	@ zero_extendqisi2
 4856              	.LVL228:
 4857              	.LBB1253:
 4858              	.LBB1250:
 4859              		.loc 4 35 0
 4860 086a 2C4E     		ldr	r6, .L93+16
 4861              		.loc 4 33 0
 4862 086c 8EEA0303 		eor	r3, lr, r3
 4863              	.LVL229:
 4864              		.loc 4 34 0
 4865 0870 83EA0313 		eor	r3, r3, r3, lsl #4
 4866              	.LVL230:
 4867 0874 DBB2     		uxtb	r3, r3
 4868              	.LVL231:
 4869              		.loc 4 35 0
 4870 0876 80EA1310 		eor	r0, r0, r3, lsr #4
 4871 087a 40EA0320 		orr	r0, r0, r3, lsl #8
 4872 087e 80EAC303 		eor	r3, r0, r3, lsl #3
 4873              	.LVL232:
 4874 0882 2B80     		strh	r3, [r5, #0]	@ movhi
 4875              	.LBE1250:
 4876              	.LBE1253:
 4877              		.loc 4 82 0
 4878 0884 5278     		ldrb	r2, [r2, #1]	@ zero_extendqisi2
 4879              	.LVL233:
 4880              	.LBB1254:
 4881              	.LBB1251:
 4882              		.loc 4 33 0
 4883 0886 5A40     		eors	r2, r2, r3
 4884              		.loc 4 34 0
 4885 0888 82EA0210 		eor	r0, r2, r2, lsl #4
 4886 088c C2B2     		uxtb	r2, r0
 4887              		.loc 4 35 0
 4888 088e 1B0A     		lsrs	r3, r3, #8
 4889 0890 83EA1210 		eor	r0, r3, r2, lsr #4
 4890 0894 40EA0223 		orr	r3, r0, r2, lsl #8
 4891 0898 83EAC203 		eor	r3, r3, r2, lsl #3
 4892              	.LBE1251:
ARM GAS  C:\Users\Mohamad\AppData\Local\Temp\ccDsqi1j.s 			page 87


 4893              	.LBE1254:
 4894              		.loc 4 82 0
 4895 089c 4A1C     		adds	r2, r1, #1
 4896              	.LVL234:
 4897              		.loc 4 81 0
 4898 089e BA42     		cmp	r2, r7
 4899              	.LBB1255:
 4900              	.LBB1252:
 4901              		.loc 4 35 0
 4902 08a0 2B80     		strh	r3, [r5, #0]	@ movhi
 4903              	.LBE1252:
 4904              	.LBE1255:
 4905              		.loc 4 81 0
 4906 08a2 DED1     		bne	.L60
 4907              	.LVL235:
 4908              		.loc 4 33 0
 4909 08a4 83F01805 		eor	r5, r3, #24
 4910              	.LVL236:
 4911              	.LBE1247:
 4912              	.LBE1246:
 4913              	.LBB1256:
 4914              	.LBB1257:
 4915              		.loc 4 34 0
 4916 08a8 85EA0517 		eor	r7, r5, r5, lsl #4
 4917 08ac F9B2     		uxtb	r1, r7
 4918              	.LVL237:
 4919              		.loc 4 35 0
 4920 08ae 4FEA1328 		lsr	r8, r3, #8
 4921 08b2 88EA1110 		eor	r0, r8, r1, lsr #4
 4922 08b6 80EA0123 		eor	r3, r0, r1, lsl #8
 4923 08ba 83EAC102 		eor	r2, r3, r1, lsl #3
 4924              	.LVL238:
 4925 08be 1FFA82F8 		uxth	r8, r2
 4926              	.LBE1257:
 4927              	.LBE1256:
 4928              	.LBE1264:
 4929              	.LBE1270:
 4930              	.LBE1276:
 4931              	.LBE1282:
 4932              	.LBE1286:
 4933              	.LBE1290:
 4934              	.LBB1291:
 4935              	.LBB1292:
 4936              		.loc 3 176 0
 4937 08c2 96F803A0 		ldrb	sl, [r6, #3]	@ zero_extendqisi2
 4938              		.loc 1 252 0
 4939 08c6 174D     		ldr	r5, .L93+24
 4940              	.LBE1292:
 4941              	.LBE1291:
 4942              	.LBB1298:
 4943              	.LBB1287:
 4944              	.LBB1283:
 4945              	.LBB1277:
 4946              	.LBB1271:
 4947              	.LBB1265:
 4948              		.loc 3 88 0
 4949 08c8 86F82680 		strb	r8, [r6, #38]
ARM GAS  C:\Users\Mohamad\AppData\Local\Temp\ccDsqi1j.s 			page 88


 4950              	.LBB1260:
 4951              	.LBB1258:
 4952              		.loc 4 35 0
 4953 08cc 1FFA88F3 		uxth	r3, r8
 4954              	.LBE1258:
 4955              	.LBE1260:
 4956              		.loc 3 89 0
 4957 08d0 4FEA1329 		lsr	r9, r3, #8
 4958              	.LBE1265:
 4959              	.LBE1271:
 4960              	.LBE1277:
 4961              	.LBE1283:
 4962              	.LBE1287:
 4963              	.LBE1298:
 4964              	.LBB1299:
 4965              	.LBB1293:
 4966              		.loc 3 176 0
 4967 08d4 0AF10607 		add	r7, sl, #6
 4968              	.LVL239:
 4969 08d8 B11C     		adds	r1, r6, #2
 4970              	.LVL240:
 4971 08da 3A46     		mov	r2, r7
 4972              	.LBE1293:
 4973              	.LBE1299:
 4974              	.LBB1300:
 4975              	.LBB1288:
 4976              	.LBB1284:
 4977              	.LBB1278:
 4978              	.LBB1272:
 4979              	.LBB1266:
 4980              	.LBB1261:
 4981              	.LBB1259:
 4982              		.loc 4 35 0
 4983 08dc 3380     		strh	r3, [r6, #0]	@ movhi
 4984              	.LBE1259:
 4985              	.LBE1261:
 4986              	.LBE1266:
 4987              	.LBE1272:
 4988              	.LBE1278:
 4989              	.LBE1284:
 4990              	.LBE1288:
 4991              	.LBE1300:
 4992              	.LBB1301:
 4993              	.LBB1294:
 4994              		.loc 3 176 0
 4995 08de 2846     		mov	r0, r5
 4996              	.LBE1294:
 4997              	.LBE1301:
 4998              	.LBB1302:
 4999              	.LBB1289:
 5000              	.LBB1285:
 5001              	.LBB1279:
 5002              	.LBB1273:
 5003              	.LBB1267:
 5004              		.loc 3 89 0
 5005 08e0 86F82790 		strb	r9, [r6, #39]
 5006              	.LVL241:
ARM GAS  C:\Users\Mohamad\AppData\Local\Temp\ccDsqi1j.s 			page 89


 5007              	.LBE1267:
 5008              	.LBE1273:
 5009              	.LBE1279:
 5010              	.LBE1285:
 5011              	.LBE1289:
 5012              	.LBE1302:
 5013              	.LBB1303:
 5014              	.LBB1295:
 5015              		.loc 3 176 0
 5016 08e4 FFF7FEFF 		bl	memcpy
 5017              	.LVL242:
 5018              		.loc 3 178 0
 5019 08e8 EB19     		adds	r3, r5, r7
 5020              	.LVL243:
 5021              	.LBE1295:
 5022              	.LBE1303:
 5023              		.loc 1 260 0
 5024 08ea 0F48     		ldr	r0, .L93+28
 5025              	.LBB1304:
 5026              	.LBB1296:
 5027              		.loc 3 180 0
 5028 08ec 05F80780 		strb	r8, [r5, r7]
 5029              	.LBE1296:
 5030              	.LBE1304:
 5031              		.loc 1 260 0
 5032 08f0 0AF10801 		add	r1, sl, #8
 5033 08f4 2A46     		mov	r2, r5
 5034              	.LBB1305:
 5035              	.LBB1297:
 5036              		.loc 3 181 0
 5037 08f6 83F80190 		strb	r9, [r3, #1]
 5038              	.LBE1297:
 5039              	.LBE1305:
 5040              		.loc 1 260 0
 5041 08fa FFF7FEFF 		bl	uartStartSendI
 5042              	.LVL244:
 5043              	.LBE1231:
 5044              	.LBE1230:
 5045              		.loc 1 228 0
 5046 08fe 0B4A     		ldr	r2, .L93+32
 5047              		.loc 1 227 0
 5048 0900 0021     		movs	r1, #0
 5049              		.loc 1 228 0
 5050 0902 0120     		movs	r0, #1
 5051              		.loc 1 227 0
 5052 0904 2170     		strb	r1, [r4, #0]
 5053              		.loc 1 228 0
 5054 0906 1070     		strb	r0, [r2, #0]
 5055 0908 FFF78FBB 		b	.L53
 5056              	.L94:
 5057              		.align	2
 5058              	.L93:
 5059 090c 00000000 		.word	Home_Altitude
 5060 0910 00000000 		.word	CurrentAlt
 5061 0914 00000000 		.word	latitude
 5062 0918 00000000 		.word	longitude
 5063 091c 00000000 		.word	.LANCHOR2
ARM GAS  C:\Users\Mohamad\AppData\Local\Temp\ccDsqi1j.s 			page 90


 5064 0920 00000000 		.word	.LANCHOR9
 5065 0924 00000000 		.word	.LANCHOR10
 5066 0928 00000000 		.word	UARTD3
 5067 092c 00000000 		.word	.LANCHOR13
 5068              		.cfi_endproc
 5069              	.LFE1537:
 5070              		.size	check_ready_to_send_params, .-check_ready_to_send_params
 5071              		.section	.text.Send_mavlink_rawImu,"ax",%progbits
 5072              		.align	2
 5073              		.p2align 4,,15
 5074              		.global	Send_mavlink_rawImu
 5075              		.thumb
 5076              		.thumb_func
 5077              		.type	Send_mavlink_rawImu, %function
 5078              	Send_mavlink_rawImu:
 5079              	.LFB1538:
 5080              		.loc 1 242 0
 5081              		.cfi_startproc
 5082              		@ args = 0, pretend = 0, frame = 104
 5083              		@ frame_needed = 0, uses_anonymous_args = 0
 5084 0000 2DE9F047 		push	{r4, r5, r6, r7, r8, r9, sl, lr}
 5085              	.LCFI5:
 5086              		.cfi_def_cfa_offset 32
 5087              		.cfi_offset 4, -32
 5088              		.cfi_offset 5, -28
 5089              		.cfi_offset 6, -24
 5090              		.cfi_offset 7, -20
 5091              		.cfi_offset 8, -16
 5092              		.cfi_offset 9, -12
 5093              		.cfi_offset 10, -8
 5094              		.cfi_offset 14, -4
 5095 0004 9AB0     		sub	sp, sp, #104
 5096              	.LCFI6:
 5097              		.cfi_def_cfa_offset 136
 5098              		.loc 1 243 0
 5099 0006 6846     		mov	r0, sp
 5100 0008 FFF7FEFF 		bl	ins_get_Accel
 5101              	.LVL245:
 5102 000c 03A8     		add	r0, sp, #12
 5103 000e 009E     		ldr	r6, [sp, #0]	@ float
 5104              	.LBB1330:
 5105              	.LBB1331:
 5106              	.LBB1332:
 5107              	.LBB1333:
 5108              	.LBB1334:
 5109              	.LBB1335:
 5110              		.loc 3 81 0
 5111 0010 DFF89081 		ldr	r8, .L99+12
 5112              	.LBE1335:
 5113              	.LBE1334:
 5114              	.LBE1333:
 5115              	.LBE1332:
 5116              	.LBE1331:
 5117              	.LBE1330:
 5118              		.loc 1 243 0
 5119 0014 FFF7FEFF 		bl	ins_get_Accel
 5120              	.LVL246:
ARM GAS  C:\Users\Mohamad\AppData\Local\Temp\ccDsqi1j.s 			page 91


 5121 0018 06A8     		add	r0, sp, #24
 5122 001a 049C     		ldr	r4, [sp, #16]	@ float
 5123 001c FFF7FEFF 		bl	ins_get_Accel
 5124              	.LVL247:
 5125 0020 09A8     		add	r0, sp, #36
 5126 0022 089D     		ldr	r5, [sp, #32]	@ float
 5127 0024 FFF7FEFF 		bl	ins_get_gyro
 5128              	.LVL248:
 5129 0028 0CA8     		add	r0, sp, #48
 5130 002a DDF82490 		ldr	r9, [sp, #36]	@ float
 5131 002e FFF7FEFF 		bl	ins_get_gyro
 5132              	.LVL249:
 5133 0032 0FA8     		add	r0, sp, #60
 5134 0034 0D9F     		ldr	r7, [sp, #52]	@ float
 5135 0036 FFF7FEFF 		bl	ins_get_gyro
 5136              	.LVL250:
 5137              	.LBB1467:
 5138              	.LBB1462:
 5139              	.LBB1446:
 5140              	.LBB1430:
 5141              	.LBB1414:
 5142              	.LBB1398:
 5143              		.loc 3 81 0
 5144 003a 98F806E0 		ldrb	lr, [r8, #6]	@ zero_extendqisi2
 5145              	.LBE1398:
 5146              	.LBE1414:
 5147              	.LBE1430:
 5148              	.LBE1446:
 5149              		.loc 7 74 0
 5150 003e 1396     		str	r6, [sp, #76]	@ float
 5151              	.LBB1447:
 5152              	.LBB1431:
 5153              	.LBB1415:
 5154              	.LBB1399:
 5155              	.LBB1336:
 5156              	.LBB1337:
 5157              	.LBB1338:
 5158              	.LBB1339:
 5159              		.loc 4 33 0
 5160 0040 8EF08503 		eor	r3, lr, #133
 5161              		.loc 4 34 0
 5162 0044 83EA0310 		eor	r0, r3, r3, lsl #4
 5163 0048 C1B2     		uxtb	r1, r0
 5164              		.loc 4 35 0
 5165 004a 0A09     		lsrs	r2, r1, #4
 5166 004c 82F02E06 		eor	r6, r2, #46
 5167              	.LBE1339:
 5168              	.LBE1338:
 5169              	.LBE1337:
 5170              	.LBE1336:
 5171              	.LBE1399:
 5172              	.LBE1415:
 5173              	.LBE1431:
 5174              	.LBE1447:
 5175              		.loc 7 75 0
 5176 0050 1494     		str	r4, [sp, #80]	@ float
 5177              	.LBB1448:
ARM GAS  C:\Users\Mohamad\AppData\Local\Temp\ccDsqi1j.s 			page 92


 5178              	.LBB1432:
 5179              	.LBB1416:
 5180              	.LBB1400:
 5181              	.LBB1370:
 5182              	.LBB1360:
 5183              	.LBB1350:
 5184              	.LBB1340:
 5185              		.loc 4 35 0
 5186 0052 46EA0124 		orr	r4, r6, r1, lsl #8
 5187 0056 84EAC100 		eor	r0, r4, r1, lsl #3
 5188              		.loc 4 33 0
 5189 005a 80F00103 		eor	r3, r0, #1
 5190              		.loc 4 34 0
 5191 005e 83EA0311 		eor	r1, r3, r3, lsl #4
 5192 0062 CAB2     		uxtb	r2, r1
 5193              		.loc 4 35 0
 5194 0064 060A     		lsrs	r6, r0, #8
 5195 0066 86EA1214 		eor	r4, r6, r2, lsr #4
 5196 006a 44EA0220 		orr	r0, r4, r2, lsl #8
 5197 006e 80EAC206 		eor	r6, r0, r2, lsl #3
 5198              	.LBE1340:
 5199              	.LBE1350:
 5200              	.LBE1360:
 5201              	.LBE1370:
 5202              	.LBE1400:
 5203              	.LBE1416:
 5204              	.LBE1432:
 5205              	.LBE1448:
 5206              		.loc 7 73 0
 5207 0072 0023     		movs	r3, #0
 5208              	.LBB1449:
 5209              	.LBB1433:
 5210              	.LBB1417:
 5211              	.LBB1401:
 5212              	.LBB1371:
 5213              	.LBB1361:
 5214              	.LBB1351:
 5215              	.LBB1341:
 5216              		.loc 4 33 0
 5217 0074 86F00101 		eor	r1, r6, #1
 5218              	.LBE1341:
 5219              	.LBE1351:
 5220              	.LBE1361:
 5221              	.LBE1371:
 5222              	.LBE1401:
 5223              	.LBE1417:
 5224              	.LBE1433:
 5225              	.LBE1449:
 5226              		.loc 7 76 0
 5227 0078 1595     		str	r5, [sp, #84]	@ float
 5228              		.loc 7 73 0
 5229 007a 1293     		str	r3, [sp, #72]
 5230              		.loc 7 82 0
 5231 007c 12AD     		add	r5, sp, #72
 5232              	.LBB1450:
 5233              	.LBB1434:
 5234              	.LBB1418:
ARM GAS  C:\Users\Mohamad\AppData\Local\Temp\ccDsqi1j.s 			page 93


 5235              	.LBB1402:
 5236              	.LBB1372:
 5237              	.LBB1362:
 5238              	.LBB1352:
 5239              	.LBB1342:
 5240              		.loc 4 34 0
 5241 007e 81EA0114 		eor	r4, r1, r1, lsl #4
 5242              	.LBE1342:
 5243              	.LBE1352:
 5244              	.LBE1362:
 5245              	.LBE1372:
 5246              	.LBE1402:
 5247              	.LBE1418:
 5248              	.LBE1434:
 5249              	.LBE1450:
 5250              		.loc 7 82 0
 5251 0082 0FCD     		ldmia	r5!, {r0, r1, r2, r3}
 5252              	.LBB1451:
 5253              	.LBB1435:
 5254              	.LBB1419:
 5255              	.LBB1403:
 5256              	.LBB1373:
 5257              	.LBB1363:
 5258              	.LBB1353:
 5259              	.LBB1343:
 5260              		.loc 4 34 0
 5261 0084 E4B2     		uxtb	r4, r4
 5262              		.loc 4 35 0
 5263 0086 360A     		lsrs	r6, r6, #8
 5264 0088 86EA141A 		eor	sl, r6, r4, lsr #4
 5265              	.LBE1343:
 5266              	.LBE1353:
 5267              	.LBE1363:
 5268              	.LBE1373:
 5269              	.LBE1403:
 5270              	.LBE1419:
 5271              	.LBE1435:
 5272              	.LBE1451:
 5273              	.LBE1462:
 5274              	.LBE1467:
 5275              		.loc 1 243 0
 5276 008c DDF844C0 		ldr	ip, [sp, #68]	@ float
 5277              	.LVL251:
 5278              	.LBB1468:
 5279              	.LBB1463:
 5280              		.loc 7 82 0
 5281 0090 414E     		ldr	r6, .L99
 5282              		.loc 7 77 0
 5283 0092 CDF85890 		str	r9, [sp, #88]	@ float
 5284              		.loc 7 78 0
 5285 0096 1797     		str	r7, [sp, #92]	@ float
 5286              	.LBB1452:
 5287              	.LBB1436:
 5288              	.LBB1420:
 5289              	.LBB1404:
 5290              	.LBB1374:
 5291              	.LBB1364:
ARM GAS  C:\Users\Mohamad\AppData\Local\Temp\ccDsqi1j.s 			page 94


 5292              	.LBB1354:
 5293              	.LBB1344:
 5294              		.loc 4 35 0
 5295 0098 4AEA0429 		orr	r9, sl, r4, lsl #8
 5296              	.LVL252:
 5297              	.LBE1344:
 5298              	.LBE1354:
 5299              	.LBE1364:
 5300              	.LBE1374:
 5301              	.LBE1404:
 5302              	.LBE1420:
 5303              	.LBE1436:
 5304              	.LBE1452:
 5305              		.loc 7 80 0
 5306 009c 0027     		movs	r7, #0
 5307              	.LVL253:
 5308              	.LBB1453:
 5309              	.LBB1437:
 5310              	.LBB1421:
 5311              	.LBB1405:
 5312              	.LBB1375:
 5313              	.LBB1365:
 5314              	.LBB1355:
 5315              	.LBB1345:
 5316              		.loc 4 35 0
 5317 009e 89EAC404 		eor	r4, r9, r4, lsl #3
 5318              	.LBE1345:
 5319              	.LBE1355:
 5320              	.LBE1365:
 5321              	.LBE1375:
 5322              	.LBE1405:
 5323              	.LBE1421:
 5324              	.LBE1437:
 5325              	.LBE1453:
 5326              		.loc 7 79 0
 5327 00a2 CDF860C0 		str	ip, [sp, #96]	@ float
 5328              		.loc 7 80 0
 5329 00a6 1997     		str	r7, [sp, #100]	@ float
 5330              		.loc 7 82 0
 5331 00a8 06F10807 		add	r7, r6, #8
 5332              	.LBB1454:
 5333              	.LBB1438:
 5334              	.LBB1422:
 5335              	.LBB1406:
 5336              	.LBB1376:
 5337              	.LBB1366:
 5338              	.LBB1356:
 5339              	.LBB1346:
 5340              		.loc 4 33 0
 5341 00ac 84F01F0A 		eor	sl, r4, #31
 5342              	.LBE1346:
 5343              	.LBE1356:
 5344              	.LBE1366:
 5345              	.LBE1376:
 5346              	.LBE1406:
 5347              	.LBE1422:
 5348              	.LBE1438:
ARM GAS  C:\Users\Mohamad\AppData\Local\Temp\ccDsqi1j.s 			page 95


 5349              	.LBE1454:
 5350              		.loc 7 82 0
 5351 00b0 0FC7     		stmia	r7!, {r0, r1, r2, r3}
 5352 00b2 95E80F00 		ldmia	r5, {r0, r1, r2, r3}
 5353              	.LBB1455:
 5354              	.LBB1439:
 5355              	.LBB1423:
 5356              	.LBB1407:
 5357              	.LBB1377:
 5358              	.LBB1367:
 5359              	.LBB1357:
 5360              	.LBB1347:
 5361              		.loc 4 34 0
 5362 00b6 8AEA0A1C 		eor	ip, sl, sl, lsl #4
 5363              	.LVL254:
 5364 00ba 5FFA8CFC 		uxtb	ip, ip
 5365              		.loc 4 35 0
 5366 00be 250A     		lsrs	r5, r4, #8
 5367 00c0 85EA1C14 		eor	r4, r5, ip, lsr #4
 5368              	.LBE1347:
 5369              	.LBE1357:
 5370              	.LBE1367:
 5371              	.LBE1377:
 5372              		.loc 3 78 0
 5373 00c4 4FF00109 		mov	r9, #1
 5374              	.LBB1378:
 5375              	.LBB1368:
 5376              	.LBB1358:
 5377              	.LBB1348:
 5378              		.loc 4 35 0
 5379 00c8 44EA0C24 		orr	r4, r4, ip, lsl #8
 5380              	.LBE1348:
 5381              	.LBE1358:
 5382              	.LBE1368:
 5383              	.LBE1378:
 5384              		.loc 3 83 0
 5385 00cc 3546     		mov	r5, r6
 5386              	.LBE1407:
 5387              	.LBE1423:
 5388              	.LBE1439:
 5389              	.LBE1455:
 5390              		.loc 7 82 0
 5391 00ce 87E80F00 		stmia	r7, {r0, r1, r2, r3}
 5392              	.LBB1456:
 5393              	.LBB1440:
 5394              	.LBB1424:
 5395              	.LBB1408:
 5396              		.loc 3 82 0
 5397 00d2 0EEB090A 		add	sl, lr, r9
 5398              		.loc 3 76 0
 5399 00d6 FE20     		movs	r0, #254
 5400              	.LBB1379:
 5401              	.LBB1369:
 5402              	.LBB1359:
 5403              	.LBB1349:
 5404              		.loc 4 35 0
 5405 00d8 84EACC04 		eor	r4, r4, ip, lsl #3
ARM GAS  C:\Users\Mohamad\AppData\Local\Temp\ccDsqi1j.s 			page 96


 5406              	.LBE1349:
 5407              	.LBE1359:
 5408              	.LBE1369:
 5409              	.LBE1379:
 5410              	.LBE1408:
 5411              	.LBE1424:
 5412              	.LBE1440:
 5413              	.LBE1456:
 5414              		.loc 7 85 0
 5415 00dc 1F22     		movs	r2, #31
 5416              	.LBB1457:
 5417              	.LBB1441:
 5418              	.LBB1425:
 5419              	.LBB1409:
 5420              		.loc 3 77 0
 5421 00de 2021     		movs	r1, #32
 5422              		.loc 3 76 0
 5423 00e0 B070     		strb	r0, [r6, #2]
 5424              	.LBE1409:
 5425              	.LBE1425:
 5426              	.LBE1441:
 5427              	.LBE1457:
 5428              		.loc 7 85 0
 5429 00e2 F271     		strb	r2, [r6, #7]
 5430              	.LVL255:
 5431              	.LBB1458:
 5432              	.LBB1442:
 5433              	.LBB1426:
 5434              	.LBB1410:
 5435              		.loc 3 77 0
 5436 00e4 F170     		strb	r1, [r6, #3]
 5437              		.loc 3 78 0
 5438 00e6 86F80590 		strb	r9, [r6, #5]
 5439              		.loc 3 79 0
 5440 00ea 86F80690 		strb	r9, [r6, #6]
 5441              	.LVL256:
 5442              		.loc 3 81 0
 5443 00ee 86F804E0 		strb	lr, [r6, #4]
 5444              	.LVL257:
 5445              		.loc 3 82 0
 5446 00f2 88F806A0 		strb	sl, [r8, #6]
 5447              	.LVL258:
 5448              		.loc 3 83 0
 5449 00f6 25F8084B 		strh	r4, [r5], #8	@ movhi
 5450              	.LVL259:
 5451 00fa 06F12800 		add	r0, r6, #40
 5452              	.LVL260:
 5453              	.L96:
 5454              	.LBB1380:
 5455              	.LBB1381:
 5456              		.loc 4 82 0
 5457 00fe 2B46     		mov	r3, r5
 5458              	.LBB1382:
 5459              	.LBB1383:
 5460              		.loc 4 35 0
 5461 0100 210A     		lsrs	r1, r4, #8
 5462              	.LBE1383:
ARM GAS  C:\Users\Mohamad\AppData\Local\Temp\ccDsqi1j.s 			page 97


 5463              	.LBE1382:
 5464              		.loc 4 82 0
 5465 0102 13F8012B 		ldrb	r2, [r3], #1	@ zero_extendqisi2
 5466              	.LVL261:
 5467              	.LBB1388:
 5468              	.LBB1384:
 5469              		.loc 4 35 0
 5470 0106 244F     		ldr	r7, .L99
 5471              		.loc 4 33 0
 5472 0108 5440     		eors	r4, r4, r2
 5473              	.LVL262:
 5474              		.loc 4 34 0
 5475 010a 84EA0412 		eor	r2, r4, r4, lsl #4
 5476 010e D4B2     		uxtb	r4, r2
 5477              	.LVL263:
 5478              		.loc 4 35 0
 5479 0110 81EA1411 		eor	r1, r1, r4, lsr #4
 5480 0114 41EA0422 		orr	r2, r1, r4, lsl #8
 5481              	.LVL264:
 5482 0118 82EAC404 		eor	r4, r2, r4, lsl #3
 5483              	.LVL265:
 5484 011c 3480     		strh	r4, [r6, #0]	@ movhi
 5485              	.LBE1384:
 5486              	.LBE1388:
 5487              		.loc 4 82 0
 5488 011e 6D78     		ldrb	r5, [r5, #1]	@ zero_extendqisi2
 5489              	.LVL266:
 5490              	.LBB1389:
 5491              	.LBB1385:
 5492              		.loc 4 33 0
 5493 0120 6540     		eors	r5, r5, r4
 5494              		.loc 4 34 0
 5495 0122 85EA0511 		eor	r1, r5, r5, lsl #4
 5496 0126 CAB2     		uxtb	r2, r1
 5497              		.loc 4 35 0
 5498 0128 240A     		lsrs	r4, r4, #8
 5499 012a 84EA1215 		eor	r5, r4, r2, lsr #4
 5500 012e 45EA0221 		orr	r1, r5, r2, lsl #8
 5501              	.LBE1385:
 5502              	.LBE1389:
 5503              		.loc 4 82 0
 5504 0132 5D1C     		adds	r5, r3, #1
 5505              	.LVL267:
 5506              	.LBB1390:
 5507              	.LBB1386:
 5508              		.loc 4 35 0
 5509 0134 81EAC204 		eor	r4, r1, r2, lsl #3
 5510              	.LBE1386:
 5511              	.LBE1390:
 5512              		.loc 4 81 0
 5513 0138 8542     		cmp	r5, r0
 5514              	.LBB1391:
 5515              	.LBB1387:
 5516              		.loc 4 35 0
 5517 013a 3480     		strh	r4, [r6, #0]	@ movhi
 5518              	.LBE1387:
 5519              	.LBE1391:
ARM GAS  C:\Users\Mohamad\AppData\Local\Temp\ccDsqi1j.s 			page 98


 5520              		.loc 4 81 0
 5521 013c DFD1     		bne	.L96
 5522              	.LVL268:
 5523              		.loc 4 33 0
 5524 013e 84F0F606 		eor	r6, r4, #246
 5525              	.LVL269:
 5526              	.LBE1381:
 5527              	.LBE1380:
 5528              	.LBB1392:
 5529              	.LBB1393:
 5530              		.loc 4 34 0
 5531 0142 86EA0610 		eor	r0, r6, r6, lsl #4
 5532 0146 C3B2     		uxtb	r3, r0
 5533              	.LVL270:
 5534              		.loc 4 35 0
 5535 0148 220A     		lsrs	r2, r4, #8
 5536 014a 82EA1311 		eor	r1, r2, r3, lsr #4
 5537 014e 81EA0324 		eor	r4, r1, r3, lsl #8
 5538 0152 84EAC306 		eor	r6, r4, r3, lsl #3
 5539              	.LBE1393:
 5540              	.LBE1392:
 5541              	.LBE1410:
 5542              	.LBE1426:
 5543              	.LBE1442:
 5544              	.LBE1458:
 5545              	.LBE1463:
 5546              	.LBE1468:
 5547              	.LBB1469:
 5548              	.LBB1470:
 5549              		.loc 3 176 0
 5550 0156 97F80390 		ldrb	r9, [r7, #3]	@ zero_extendqisi2
 5551              		.loc 1 252 0
 5552 015a 104D     		ldr	r5, .L99+4
 5553              	.LVL271:
 5554              	.LBE1470:
 5555              	.LBE1469:
 5556              	.LBB1476:
 5557              	.LBB1464:
 5558              	.LBB1459:
 5559              	.LBB1443:
 5560              	.LBB1427:
 5561              	.LBB1411:
 5562              	.LBB1396:
 5563              	.LBB1394:
 5564              		.loc 4 35 0
 5565 015c B6B2     		uxth	r6, r6
 5566 015e B3B2     		uxth	r3, r6
 5567              	.LBE1394:
 5568              	.LBE1396:
 5569              		.loc 3 89 0
 5570 0160 4FEA1328 		lsr	r8, r3, #8
 5571              	.LBE1411:
 5572              	.LBE1427:
 5573              	.LBE1443:
 5574              	.LBE1459:
 5575              	.LBE1464:
 5576              	.LBE1476:
ARM GAS  C:\Users\Mohamad\AppData\Local\Temp\ccDsqi1j.s 			page 99


 5577              	.LBB1477:
 5578              	.LBB1471:
 5579              		.loc 3 176 0
 5580 0164 09F10604 		add	r4, r9, #6
 5581 0168 B91C     		adds	r1, r7, #2
 5582 016a 2246     		mov	r2, r4
 5583              	.LBE1471:
 5584              	.LBE1477:
 5585              	.LBB1478:
 5586              	.LBB1465:
 5587              	.LBB1460:
 5588              	.LBB1444:
 5589              	.LBB1428:
 5590              	.LBB1412:
 5591              	.LBB1397:
 5592              	.LBB1395:
 5593              		.loc 4 35 0
 5594 016c 3B80     		strh	r3, [r7, #0]	@ movhi
 5595              	.LBE1395:
 5596              	.LBE1397:
 5597              	.LBE1412:
 5598              	.LBE1428:
 5599              	.LBE1444:
 5600              	.LBE1460:
 5601              	.LBE1465:
 5602              	.LBE1478:
 5603              	.LBB1479:
 5604              	.LBB1472:
 5605              		.loc 3 176 0
 5606 016e 2846     		mov	r0, r5
 5607              	.LVL272:
 5608              	.LBE1472:
 5609              	.LBE1479:
 5610              	.LBB1480:
 5611              	.LBB1466:
 5612              	.LBB1461:
 5613              	.LBB1445:
 5614              	.LBB1429:
 5615              	.LBB1413:
 5616              		.loc 3 88 0
 5617 0170 87F82860 		strb	r6, [r7, #40]
 5618              		.loc 3 89 0
 5619 0174 87F82980 		strb	r8, [r7, #41]
 5620              	.LVL273:
 5621              	.LBE1413:
 5622              	.LBE1429:
 5623              	.LBE1445:
 5624              	.LBE1461:
 5625              	.LBE1466:
 5626              	.LBE1480:
 5627              	.LBB1481:
 5628              	.LBB1473:
 5629              		.loc 3 176 0
 5630 0178 FFF7FEFF 		bl	memcpy
 5631              	.LVL274:
 5632              		.loc 3 178 0
 5633 017c 2B19     		adds	r3, r5, r4
ARM GAS  C:\Users\Mohamad\AppData\Local\Temp\ccDsqi1j.s 			page 100


 5634              	.LVL275:
 5635              	.LBE1473:
 5636              	.LBE1481:
 5637              		.loc 1 245 0
 5638 017e 0848     		ldr	r0, .L99+8
 5639              	.LBB1482:
 5640              	.LBB1474:
 5641              		.loc 3 180 0
 5642 0180 2E55     		strb	r6, [r5, r4]
 5643              	.LBE1474:
 5644              	.LBE1482:
 5645              		.loc 1 245 0
 5646 0182 09F10801 		add	r1, r9, #8
 5647 0186 2A46     		mov	r2, r5
 5648              	.LBB1483:
 5649              	.LBB1475:
 5650              		.loc 3 181 0
 5651 0188 83F80180 		strb	r8, [r3, #1]
 5652              	.LBE1475:
 5653              	.LBE1483:
 5654              		.loc 1 246 0
 5655 018c 1AB0     		add	sp, sp, #104
 5656 018e BDE8F047 		pop	{r4, r5, r6, r7, r8, r9, sl, lr}
 5657              		.loc 1 245 0
 5658 0192 FFF7FEBF 		b	uartStartSendI
 5659              	.LVL276:
 5660              	.L100:
 5661 0196 00BF     		.align	2
 5662              	.L99:
 5663 0198 00000000 		.word	.LANCHOR2
 5664 019c 00000000 		.word	.LANCHOR10
 5665 01a0 00000000 		.word	UARTD3
 5666 01a4 00000000 		.word	.LANCHOR9
 5667              		.cfi_endproc
 5668              	.LFE1538:
 5669              		.size	Send_mavlink_rawImu, .-Send_mavlink_rawImu
 5670 01a8 AFF30080 		.section	.text.Send_mavlink_Attitude,"ax",%progbits
 5670      AFF30080 
 5671              		.align	2
 5672              		.p2align 4,,15
 5673              		.global	Send_mavlink_Attitude
 5674              		.thumb
 5675              		.thumb_func
 5676              		.type	Send_mavlink_Attitude, %function
 5677              	Send_mavlink_Attitude:
 5678              	.LFB1539:
 5679              		.loc 1 249 0
 5680              		.cfi_startproc
 5681              		@ args = 0, pretend = 0, frame = 64
 5682              		@ frame_needed = 0, uses_anonymous_args = 0
 5683 0000 2DE9F04F 		push	{r4, r5, r6, r7, r8, r9, sl, fp, lr}
 5684              	.LCFI7:
 5685              		.cfi_def_cfa_offset 36
 5686              		.cfi_offset 4, -36
 5687              		.cfi_offset 5, -32
 5688              		.cfi_offset 6, -28
 5689              		.cfi_offset 7, -24
ARM GAS  C:\Users\Mohamad\AppData\Local\Temp\ccDsqi1j.s 			page 101


 5690              		.cfi_offset 8, -20
 5691              		.cfi_offset 9, -16
 5692              		.cfi_offset 10, -12
 5693              		.cfi_offset 11, -8
 5694              		.cfi_offset 14, -4
 5695              		.loc 1 251 0
 5696 0004 724B     		ldr	r3, .L105+8
 5697 0006 7349     		ldr	r1, .L105+12
 5698 0008 1868     		ldr	r0, [r3, #0]	@ float
 5699 000a CE68     		ldr	r6, [r1, #12]
 5700              	.LBB1508:
 5701              	.LBB1509:
 5702              	.LBB1510:
 5703              	.LBB1511:
 5704              	.LBB1512:
 5705              	.LBB1513:
 5706              		.loc 3 81 0
 5707 000c DFF8DC81 		ldr	r8, .L105+36
 5708              	.LBE1513:
 5709              	.LBE1512:
 5710              	.LBE1511:
 5711              	.LBE1510:
 5712              	.LBE1509:
 5713              	.LBE1508:
 5714              		.loc 1 249 0
 5715 0010 91B0     		sub	sp, sp, #68
 5716              	.LCFI8:
 5717              		.cfi_def_cfa_offset 104
 5718              		.loc 1 251 0
 5719 0012 FFF7FEFF 		bl	__aeabi_f2d
 5720              	.LVL277:
 5721 0016 6CA3     		adr	r3, .L105
 5722 0018 D3E90023 		ldrd	r2, [r3]
 5723 001c FFF7FEFF 		bl	__aeabi_dmul
 5724              	.LVL278:
 5725 0020 FFF7FEFF 		bl	__aeabi_d2f
 5726              	.LVL279:
 5727 0024 8346     		mov	fp, r0
 5728 0026 6C48     		ldr	r0, .L105+16
 5729 0028 0068     		ldr	r0, [r0, #0]	@ float
 5730 002a FFF7FEFF 		bl	__aeabi_f2d
 5731              	.LVL280:
 5732 002e 66A3     		adr	r3, .L105
 5733 0030 D3E90023 		ldrd	r2, [r3]
 5734 0034 FFF7FEFF 		bl	__aeabi_dmul
 5735              	.LVL281:
 5736 0038 FFF7FEFF 		bl	__aeabi_d2f
 5737              	.LVL282:
 5738 003c 674A     		ldr	r2, .L105+20
 5739 003e 0446     		mov	r4, r0
 5740 0040 1068     		ldr	r0, [r2, #0]	@ float
 5741 0042 FFF7FEFF 		bl	__aeabi_f2d
 5742              	.LVL283:
 5743 0046 60A3     		adr	r3, .L105
 5744 0048 D3E90023 		ldrd	r2, [r3]
 5745 004c FFF7FEFF 		bl	__aeabi_dmul
 5746              	.LVL284:
ARM GAS  C:\Users\Mohamad\AppData\Local\Temp\ccDsqi1j.s 			page 102


 5747 0050 FFF7FEFF 		bl	__aeabi_d2f
 5748              	.LVL285:
 5749 0054 0546     		mov	r5, r0
 5750 0056 6846     		mov	r0, sp
 5751 0058 FFF7FEFF 		bl	ins_get_Gyro_drift
 5752              	.LVL286:
 5753 005c 03A8     		add	r0, sp, #12
 5754 005e DDF800A0 		ldr	sl, [sp, #0]	@ float
 5755 0062 FFF7FEFF 		bl	ins_get_Gyro_drift
 5756              	.LVL287:
 5757 0066 06A8     		add	r0, sp, #24
 5758 0068 DDF81090 		ldr	r9, [sp, #16]	@ float
 5759 006c FFF7FEFF 		bl	ins_get_Gyro_drift
 5760              	.LVL288:
 5761              	.LBB1625:
 5762              	.LBB1620:
 5763              	.LBB1606:
 5764              	.LBB1592:
 5765              	.LBB1578:
 5766              	.LBB1564:
 5767              		.loc 3 81 0
 5768 0070 98F80670 		ldrb	r7, [r8, #6]	@ zero_extendqisi2
 5769              	.LBE1564:
 5770              	.LBE1578:
 5771              	.LBE1592:
 5772              	.LBE1606:
 5773              		.loc 6 69 0
 5774 0074 0996     		str	r6, [sp, #36]
 5775              	.LBB1607:
 5776              	.LBB1593:
 5777              	.LBB1579:
 5778              	.LBB1565:
 5779              	.LBB1514:
 5780              	.LBB1515:
 5781              	.LBB1516:
 5782              	.LBB1517:
 5783              		.loc 4 33 0
 5784 0076 87F06A03 		eor	r3, r7, #106
 5785              		.loc 4 34 0
 5786 007a 83EA0311 		eor	r1, r3, r3, lsl #4
 5787 007e CEB2     		uxtb	r6, r1
 5788              		.loc 4 35 0
 5789 0080 3009     		lsrs	r0, r6, #4
 5790 0082 80F0D502 		eor	r2, r0, #213
 5791 0086 42EA0623 		orr	r3, r2, r6, lsl #8
 5792 008a 83EAC601 		eor	r1, r3, r6, lsl #3
 5793              		.loc 4 33 0
 5794 008e 81F00106 		eor	r6, r1, #1
 5795              		.loc 4 34 0
 5796 0092 86EA0610 		eor	r0, r6, r6, lsl #4
 5797 0096 C2B2     		uxtb	r2, r0
 5798              		.loc 4 35 0
 5799 0098 0B0A     		lsrs	r3, r1, #8
 5800 009a 83EA1211 		eor	r1, r3, r2, lsr #4
 5801 009e 41EA0226 		orr	r6, r1, r2, lsl #8
 5802 00a2 86EAC206 		eor	r6, r6, r2, lsl #3
 5803              	.LBE1517:
ARM GAS  C:\Users\Mohamad\AppData\Local\Temp\ccDsqi1j.s 			page 103


 5804              	.LBE1516:
 5805              	.LBE1515:
 5806              	.LBE1514:
 5807              	.LBE1565:
 5808              	.LBE1579:
 5809              	.LBE1593:
 5810              	.LBE1607:
 5811              		.loc 6 71 0
 5812 00a6 0B94     		str	r4, [sp, #44]	@ float
 5813              		.loc 6 72 0
 5814 00a8 0C95     		str	r5, [sp, #48]	@ float
 5815              		.loc 6 70 0
 5816 00aa CDF828B0 		str	fp, [sp, #40]	@ float
 5817              		.loc 6 77 0
 5818 00ae 09AC     		add	r4, sp, #36
 5819 00b0 0FCC     		ldmia	r4!, {r0, r1, r2, r3}
 5820              	.LBB1608:
 5821              	.LBB1594:
 5822              	.LBB1580:
 5823              	.LBB1566:
 5824              	.LBB1539:
 5825              	.LBB1532:
 5826              	.LBB1525:
 5827              	.LBB1518:
 5828              		.loc 4 33 0
 5829 00b2 86F0010E 		eor	lr, r6, #1
 5830              		.loc 4 34 0
 5831 00b6 8EEA0E1E 		eor	lr, lr, lr, lsl #4
 5832              	.LBE1518:
 5833              	.LBE1525:
 5834              	.LBE1532:
 5835              	.LBE1539:
 5836              	.LBE1566:
 5837              	.LBE1580:
 5838              	.LBE1594:
 5839              	.LBE1608:
 5840              		.loc 6 77 0
 5841 00ba 494D     		ldr	r5, .L105+24
 5842              		.loc 6 73 0
 5843 00bc CDF834A0 		str	sl, [sp, #52]	@ float
 5844              	.LBB1609:
 5845              	.LBB1595:
 5846              	.LBB1581:
 5847              	.LBB1567:
 5848              	.LBB1540:
 5849              	.LBB1533:
 5850              	.LBB1526:
 5851              	.LBB1519:
 5852              		.loc 4 34 0
 5853 00c0 5FFA8EFE 		uxtb	lr, lr
 5854              		.loc 4 35 0
 5855 00c4 4FEA162A 		lsr	sl, r6, #8
 5856              	.LBE1519:
 5857              	.LBE1526:
 5858              	.LBE1533:
 5859              	.LBE1540:
 5860              	.LBE1567:
ARM GAS  C:\Users\Mohamad\AppData\Local\Temp\ccDsqi1j.s 			page 104


 5861              	.LBE1581:
 5862              	.LBE1595:
 5863              	.LBE1609:
 5864              	.LBE1620:
 5865              	.LBE1625:
 5866              		.loc 1 251 0
 5867 00c8 DDF820C0 		ldr	ip, [sp, #32]	@ float
 5868              	.LVL289:
 5869              	.LBB1626:
 5870              	.LBB1621:
 5871              		.loc 6 74 0
 5872 00cc CDF83890 		str	r9, [sp, #56]	@ float
 5873              	.LBB1610:
 5874              	.LBB1596:
 5875              	.LBB1582:
 5876              	.LBB1568:
 5877              	.LBB1541:
 5878              	.LBB1534:
 5879              	.LBB1527:
 5880              	.LBB1520:
 5881              		.loc 4 35 0
 5882 00d0 8AEA1E1A 		eor	sl, sl, lr, lsr #4
 5883              	.LBE1520:
 5884              	.LBE1527:
 5885              	.LBE1534:
 5886              	.LBE1541:
 5887              	.LBE1568:
 5888              	.LBE1582:
 5889              	.LBE1596:
 5890              	.LBE1610:
 5891              		.loc 6 77 0
 5892 00d4 05F10806 		add	r6, r5, #8
 5893              	.LBB1611:
 5894              	.LBB1597:
 5895              	.LBB1583:
 5896              	.LBB1569:
 5897              	.LBB1542:
 5898              	.LBB1535:
 5899              	.LBB1528:
 5900              	.LBB1521:
 5901              		.loc 4 35 0
 5902 00d8 4AEA0E2A 		orr	sl, sl, lr, lsl #8
 5903              	.LBE1521:
 5904              	.LBE1528:
 5905              	.LBE1535:
 5906              	.LBE1542:
 5907              	.LBE1569:
 5908              	.LBE1583:
 5909              	.LBE1597:
 5910              	.LBE1611:
 5911              		.loc 6 77 0
 5912 00dc 0FC6     		stmia	r6!, {r0, r1, r2, r3}
 5913              		.loc 6 75 0
 5914 00de CDF83CC0 		str	ip, [sp, #60]	@ float
 5915              	.LBB1612:
 5916              	.LBB1598:
 5917              	.LBB1584:
ARM GAS  C:\Users\Mohamad\AppData\Local\Temp\ccDsqi1j.s 			page 105


 5918              	.LBB1570:
 5919              	.LBB1543:
 5920              	.LBB1536:
 5921              	.LBB1529:
 5922              	.LBB1522:
 5923              		.loc 4 35 0
 5924 00e2 8AEACE03 		eor	r3, sl, lr, lsl #3
 5925              	.LBE1522:
 5926              	.LBE1529:
 5927              	.LBE1536:
 5928              	.LBE1543:
 5929              	.LBE1570:
 5930              	.LBE1584:
 5931              	.LBE1598:
 5932              	.LBE1612:
 5933              		.loc 6 77 0
 5934 00e6 94E80700 		ldmia	r4, {r0, r1, r2}
 5935              	.LVL290:
 5936              	.LBB1613:
 5937              	.LBB1599:
 5938              	.LBB1585:
 5939              	.LBB1571:
 5940              	.LBB1544:
 5941              	.LBB1537:
 5942              	.LBB1530:
 5943              	.LBB1523:
 5944              		.loc 4 33 0
 5945 00ea 83F01E04 		eor	r4, r3, #30
 5946              	.LVL291:
 5947              		.loc 4 34 0
 5948 00ee 84EA0419 		eor	r9, r4, r4, lsl #4
 5949              	.LVL292:
 5950 00f2 5FFA89FC 		uxtb	ip, r9
 5951              	.LVL293:
 5952              		.loc 4 35 0
 5953 00f6 4FEA1323 		lsr	r3, r3, #8
 5954 00fa 83EA1C14 		eor	r4, r3, ip, lsr #4
 5955 00fe 44EA0C23 		orr	r3, r4, ip, lsl #8
 5956              	.LBE1523:
 5957              	.LBE1530:
 5958              	.LBE1537:
 5959              	.LBE1544:
 5960              		.loc 3 83 0
 5961 0102 2C46     		mov	r4, r5
 5962              	.LBE1571:
 5963              	.LBE1585:
 5964              	.LBE1599:
 5965              	.LBE1613:
 5966              		.loc 6 77 0
 5967 0104 86E80700 		stmia	r6, {r0, r1, r2}
 5968              	.LBB1614:
 5969              	.LBB1600:
 5970              	.LBB1586:
 5971              	.LBB1572:
 5972              	.LBB1545:
 5973              	.LBB1538:
 5974              	.LBB1531:
ARM GAS  C:\Users\Mohamad\AppData\Local\Temp\ccDsqi1j.s 			page 106


 5975              	.LBB1524:
 5976              		.loc 4 35 0
 5977 0108 83EACC03 		eor	r3, r3, ip, lsl #3
 5978              	.LBE1524:
 5979              	.LBE1531:
 5980              	.LBE1538:
 5981              	.LBE1545:
 5982              		.loc 3 78 0
 5983 010c 0122     		movs	r2, #1
 5984              	.LBE1572:
 5985              	.LBE1586:
 5986              	.LBE1600:
 5987              	.LBE1614:
 5988              		.loc 6 80 0
 5989 010e 1E20     		movs	r0, #30
 5990              	.LBB1615:
 5991              	.LBB1601:
 5992              	.LBB1587:
 5993              	.LBB1573:
 5994              		.loc 3 82 0
 5995 0110 B918     		adds	r1, r7, r2
 5996              	.LBE1573:
 5997              	.LBE1587:
 5998              	.LBE1601:
 5999              	.LBE1615:
 6000              		.loc 6 80 0
 6001 0112 E871     		strb	r0, [r5, #7]
 6002              	.LVL294:
 6003              	.LBB1616:
 6004              	.LBB1602:
 6005              	.LBB1588:
 6006              	.LBB1574:
 6007              		.loc 3 76 0
 6008 0114 FE26     		movs	r6, #254
 6009              		.loc 3 77 0
 6010 0116 1C20     		movs	r0, #28
 6011              		.loc 3 83 0
 6012 0118 24F8083B 		strh	r3, [r4], #8	@ movhi
 6013              		.loc 3 81 0
 6014 011c 2F71     		strb	r7, [r5, #4]
 6015              		.loc 3 76 0
 6016 011e AE70     		strb	r6, [r5, #2]
 6017              		.loc 3 77 0
 6018 0120 E870     		strb	r0, [r5, #3]
 6019              		.loc 3 78 0
 6020 0122 6A71     		strb	r2, [r5, #5]
 6021              		.loc 3 79 0
 6022 0124 AA71     		strb	r2, [r5, #6]
 6023              	.LVL295:
 6024              		.loc 3 82 0
 6025 0126 88F80610 		strb	r1, [r8, #6]
 6026              	.LVL296:
 6027 012a 05F12407 		add	r7, r5, #36
 6028              	.LVL297:
 6029              	.L102:
 6030              	.LBB1546:
 6031              	.LBB1547:
ARM GAS  C:\Users\Mohamad\AppData\Local\Temp\ccDsqi1j.s 			page 107


 6032              		.loc 4 82 0
 6033 012e 2246     		mov	r2, r4
 6034              	.LBB1548:
 6035              	.LBB1549:
 6036              		.loc 4 35 0
 6037 0130 180A     		lsrs	r0, r3, #8
 6038              	.LBE1549:
 6039              	.LBE1548:
 6040              		.loc 4 82 0
 6041 0132 12F8011B 		ldrb	r1, [r2], #1	@ zero_extendqisi2
 6042              	.LVL298:
 6043              	.LBB1554:
 6044              	.LBB1550:
 6045              		.loc 4 35 0
 6046 0136 2A4E     		ldr	r6, .L105+24
 6047              		.loc 4 33 0
 6048 0138 4B40     		eors	r3, r3, r1
 6049              	.LVL299:
 6050              		.loc 4 34 0
 6051 013a 83EA0311 		eor	r1, r3, r3, lsl #4
 6052 013e CBB2     		uxtb	r3, r1
 6053              	.LVL300:
 6054              		.loc 4 35 0
 6055 0140 80EA1310 		eor	r0, r0, r3, lsr #4
 6056 0144 40EA0321 		orr	r1, r0, r3, lsl #8
 6057              	.LVL301:
 6058 0148 81EAC303 		eor	r3, r1, r3, lsl #3
 6059              	.LVL302:
 6060 014c 2B80     		strh	r3, [r5, #0]	@ movhi
 6061              	.LBE1550:
 6062              	.LBE1554:
 6063              		.loc 4 82 0
 6064 014e 6478     		ldrb	r4, [r4, #1]	@ zero_extendqisi2
 6065              	.LVL303:
 6066              	.LBB1555:
 6067              	.LBB1551:
 6068              		.loc 4 33 0
 6069 0150 5C40     		eors	r4, r4, r3
 6070              		.loc 4 34 0
 6071 0152 84EA0410 		eor	r0, r4, r4, lsl #4
 6072 0156 C1B2     		uxtb	r1, r0
 6073              		.loc 4 35 0
 6074 0158 1B0A     		lsrs	r3, r3, #8
 6075 015a 83EA1114 		eor	r4, r3, r1, lsr #4
 6076 015e 44EA0120 		orr	r0, r4, r1, lsl #8
 6077              	.LBE1551:
 6078              	.LBE1555:
 6079              		.loc 4 82 0
 6080 0162 541C     		adds	r4, r2, #1
 6081              	.LVL304:
 6082              	.LBB1556:
 6083              	.LBB1552:
 6084              		.loc 4 35 0
 6085 0164 80EAC103 		eor	r3, r0, r1, lsl #3
 6086              	.LBE1552:
 6087              	.LBE1556:
 6088              		.loc 4 81 0
ARM GAS  C:\Users\Mohamad\AppData\Local\Temp\ccDsqi1j.s 			page 108


 6089 0168 BC42     		cmp	r4, r7
 6090              	.LBB1557:
 6091              	.LBB1553:
 6092              		.loc 4 35 0
 6093 016a 2B80     		strh	r3, [r5, #0]	@ movhi
 6094              	.LBE1553:
 6095              	.LBE1557:
 6096              		.loc 4 81 0
 6097 016c DFD1     		bne	.L102
 6098              	.LVL305:
 6099              		.loc 4 33 0
 6100 016e 83F02705 		eor	r5, r3, #39
 6101              	.LVL306:
 6102              	.LBE1547:
 6103              	.LBE1546:
 6104              	.LBB1558:
 6105              	.LBB1559:
 6106              		.loc 4 34 0
 6107 0172 85EA0517 		eor	r7, r5, r5, lsl #4
 6108 0176 FAB2     		uxtb	r2, r7
 6109              	.LVL307:
 6110              		.loc 4 35 0
 6111 0178 190A     		lsrs	r1, r3, #8
 6112 017a 81EA1210 		eor	r0, r1, r2, lsr #4
 6113 017e 80EA0223 		eor	r3, r0, r2, lsl #8
 6114 0182 83EAC205 		eor	r5, r3, r2, lsl #3
 6115 0186 AFB2     		uxth	r7, r5
 6116              	.LVL308:
 6117              	.LBE1559:
 6118              	.LBE1558:
 6119              	.LBE1574:
 6120              	.LBE1588:
 6121              	.LBE1602:
 6122              	.LBE1616:
 6123              	.LBE1621:
 6124              	.LBE1626:
 6125              	.LBB1627:
 6126              	.LBB1628:
 6127              		.loc 3 176 0
 6128 0188 96F80390 		ldrb	r9, [r6, #3]	@ zero_extendqisi2
 6129              		.loc 1 252 0
 6130 018c 154C     		ldr	r4, .L105+28
 6131              	.LVL309:
 6132              	.LBE1628:
 6133              	.LBE1627:
 6134              	.LBB1634:
 6135              	.LBB1622:
 6136              	.LBB1617:
 6137              	.LBB1603:
 6138              	.LBB1589:
 6139              	.LBB1575:
 6140              		.loc 3 88 0
 6141 018e 86F82470 		strb	r7, [r6, #36]
 6142              	.LBB1562:
 6143              	.LBB1560:
 6144              		.loc 4 35 0
 6145 0192 BBB2     		uxth	r3, r7
ARM GAS  C:\Users\Mohamad\AppData\Local\Temp\ccDsqi1j.s 			page 109


 6146              	.LBE1560:
 6147              	.LBE1562:
 6148              		.loc 3 89 0
 6149 0194 4FEA1328 		lsr	r8, r3, #8
 6150              	.LBE1575:
 6151              	.LBE1589:
 6152              	.LBE1603:
 6153              	.LBE1617:
 6154              	.LBE1622:
 6155              	.LBE1634:
 6156              	.LBB1635:
 6157              	.LBB1629:
 6158              		.loc 3 176 0
 6159 0198 09F10605 		add	r5, r9, #6
 6160 019c B11C     		adds	r1, r6, #2
 6161 019e 2A46     		mov	r2, r5
 6162              	.LVL310:
 6163              	.LBE1629:
 6164              	.LBE1635:
 6165              	.LBB1636:
 6166              	.LBB1623:
 6167              	.LBB1618:
 6168              	.LBB1604:
 6169              	.LBB1590:
 6170              	.LBB1576:
 6171              	.LBB1563:
 6172              	.LBB1561:
 6173              		.loc 4 35 0
 6174 01a0 3380     		strh	r3, [r6, #0]	@ movhi
 6175              	.LBE1561:
 6176              	.LBE1563:
 6177              	.LBE1576:
 6178              	.LBE1590:
 6179              	.LBE1604:
 6180              	.LBE1618:
 6181              	.LBE1623:
 6182              	.LBE1636:
 6183              	.LBB1637:
 6184              	.LBB1630:
 6185              		.loc 3 176 0
 6186 01a2 2046     		mov	r0, r4
 6187              	.LBE1630:
 6188              	.LBE1637:
 6189              	.LBB1638:
 6190              	.LBB1624:
 6191              	.LBB1619:
 6192              	.LBB1605:
 6193              	.LBB1591:
 6194              	.LBB1577:
 6195              		.loc 3 89 0
 6196 01a4 86F82580 		strb	r8, [r6, #37]
 6197              	.LVL311:
 6198              	.LBE1577:
 6199              	.LBE1591:
 6200              	.LBE1605:
 6201              	.LBE1619:
 6202              	.LBE1624:
ARM GAS  C:\Users\Mohamad\AppData\Local\Temp\ccDsqi1j.s 			page 110


 6203              	.LBE1638:
 6204              	.LBB1639:
 6205              	.LBB1631:
 6206              		.loc 3 176 0
 6207 01a8 FFF7FEFF 		bl	memcpy
 6208              	.LVL312:
 6209              		.loc 3 178 0
 6210 01ac 6319     		adds	r3, r4, r5
 6211              	.LVL313:
 6212              	.LBE1631:
 6213              	.LBE1639:
 6214              		.loc 1 253 0
 6215 01ae 0E48     		ldr	r0, .L105+32
 6216              	.LBB1640:
 6217              	.LBB1632:
 6218              		.loc 3 180 0
 6219 01b0 6755     		strb	r7, [r4, r5]
 6220              	.LBE1632:
 6221              	.LBE1640:
 6222              		.loc 1 253 0
 6223 01b2 09F10801 		add	r1, r9, #8
 6224 01b6 2246     		mov	r2, r4
 6225              	.LBB1641:
 6226              	.LBB1633:
 6227              		.loc 3 181 0
 6228 01b8 83F80180 		strb	r8, [r3, #1]
 6229              	.LBE1633:
 6230              	.LBE1641:
 6231              		.loc 1 254 0
 6232 01bc 11B0     		add	sp, sp, #68
 6233 01be BDE8F04F 		pop	{r4, r5, r6, r7, r8, r9, sl, fp, lr}
 6234              		.loc 1 253 0
 6235 01c2 FFF7FEBF 		b	uartStartSend
 6236              	.LVL314:
 6237              	.L106:
 6238 01c6 00BF     		.align	3
 6239              	.L105:
 6240 01c8 E79AD561 		.word	1641388775
 6241 01cc 94A94C40 		.word	1078765972
 6242 01d0 00000000 		.word	roll
 6243 01d4 00000000 		.word	vtlist
 6244 01d8 00000000 		.word	pitch
 6245 01dc 00000000 		.word	yaw
 6246 01e0 00000000 		.word	.LANCHOR2
 6247 01e4 00000000 		.word	.LANCHOR10
 6248 01e8 00000000 		.word	UARTD3
 6249 01ec 00000000 		.word	.LANCHOR9
 6250              		.cfi_endproc
 6251              	.LFE1539:
 6252              		.size	Send_mavlink_Attitude, .-Send_mavlink_Attitude
 6253              		.section	.text.Send_mavlink_GPS,"ax",%progbits
 6254              		.align	2
 6255              		.p2align 4,,15
 6256              		.global	Send_mavlink_GPS
 6257              		.thumb
 6258              		.thumb_func
 6259              		.type	Send_mavlink_GPS, %function
ARM GAS  C:\Users\Mohamad\AppData\Local\Temp\ccDsqi1j.s 			page 111


 6260              	Send_mavlink_GPS:
 6261              	.LFB1540:
 6262              		.loc 1 257 0
 6263              		.cfi_startproc
 6264              		@ args = 0, pretend = 0, frame = 32
 6265              		@ frame_needed = 0, uses_anonymous_args = 0
 6266 0000 2DE9F043 		push	{r4, r5, r6, r7, r8, r9, lr}
 6267              	.LCFI9:
 6268              		.cfi_def_cfa_offset 28
 6269              		.cfi_offset 4, -28
 6270              		.cfi_offset 5, -24
 6271              		.cfi_offset 6, -20
 6272              		.cfi_offset 7, -16
 6273              		.cfi_offset 8, -12
 6274              		.cfi_offset 9, -8
 6275              		.cfi_offset 14, -4
 6276 0004 89B0     		sub	sp, sp, #36
 6277              	.LCFI10:
 6278              		.cfi_def_cfa_offset 64
 6279              		.loc 1 258 0
 6280 0006 FFF7FEFF 		bl	chCoreStatus
 6281              	.LVL315:
 6282 000a 5E4B     		ldr	r3, .L111
 6283 000c 5E4A     		ldr	r2, .L111+4
 6284 000e 1968     		ldr	r1, [r3, #0]	@ float
 6285 0010 1668     		ldr	r6, [r2, #0]
 6286 0012 5E4C     		ldr	r4, .L111+8
 6287 0014 0746     		mov	r7, r0
 6288 0016 5E48     		ldr	r0, .L111+12
 6289 0018 2468     		ldr	r4, [r4, #0]
 6290 001a 0068     		ldr	r0, [r0, #0]	@ float
 6291 001c FFF7FEFF 		bl	__aeabi_fsub
 6292              	.LVL316:
 6293 0020 0021     		movs	r1, #0
 6294 0022 C4F27A41 		movt	r1, 17530
 6295 0026 FFF7FEFF 		bl	__aeabi_fmul
 6296              	.LVL317:
 6297 002a FFF7FEFF 		bl	__aeabi_f2iz
 6298              	.LVL318:
 6299 002e 0025     		movs	r5, #0
 6300 0030 0097     		str	r7, [sp, #0]
 6301 0032 0195     		str	r5, [sp, #4]
 6302              	.LBB1666:
 6303              	.LBB1667:
 6304              		.loc 2 82 0
 6305 0034 0296     		str	r6, [sp, #8]
 6306              		.loc 2 83 0
 6307 0036 0394     		str	r4, [sp, #12]
 6308              		.loc 2 92 0
 6309 0038 6E46     		mov	r6, sp
 6310              	.LVL319:
 6311              		.loc 2 84 0
 6312 003a 0490     		str	r0, [sp, #16]
 6313              		.loc 2 92 0
 6314 003c 0FCE     		ldmia	r6!, {r0, r1, r2, r3}
 6315              	.LVL320:
 6316 003e 554C     		ldr	r4, .L111+16
ARM GAS  C:\Users\Mohamad\AppData\Local\Temp\ccDsqi1j.s 			page 112


 6317              	.LVL321:
 6318              		.loc 2 85 0
 6319 0040 ADF81450 		strh	r5, [sp, #20]	@ movhi
 6320              		.loc 2 86 0
 6321 0044 ADF81650 		strh	r5, [sp, #22]	@ movhi
 6322              		.loc 2 87 0
 6323 0048 ADF81850 		strh	r5, [sp, #24]	@ movhi
 6324              		.loc 2 88 0
 6325 004c ADF81A50 		strh	r5, [sp, #26]	@ movhi
 6326              		.loc 2 89 0
 6327 0050 8DF81C50 		strb	r5, [sp, #28]
 6328              		.loc 2 90 0
 6329 0054 8DF81D50 		strb	r5, [sp, #29]
 6330              		.loc 2 92 0
 6331 0058 04F10805 		add	r5, r4, #8
 6332 005c 0FC5     		stmia	r5!, {r0, r1, r2, r3}
 6333 005e 96E80F00 		ldmia	r6, {r0, r1, r2, r3}
 6334 0062 07C5     		stmia	r5!, {r0, r1, r2}
 6335              	.LBB1668:
 6336              	.LBB1669:
 6337              	.LBB1670:
 6338              	.LBB1671:
 6339              		.loc 3 81 0
 6340 0064 4C4E     		ldr	r6, .L111+20
 6341              	.LBE1671:
 6342              	.LBE1670:
 6343              	.LBE1669:
 6344              	.LBE1668:
 6345              		.loc 2 92 0
 6346 0066 2B80     		strh	r3, [r5, #0]	@ movhi
 6347              	.LBB1716:
 6348              	.LBB1710:
 6349              	.LBB1704:
 6350              	.LBB1698:
 6351              		.loc 3 81 0
 6352 0068 B179     		ldrb	r1, [r6, #6]	@ zero_extendqisi2
 6353              	.LBB1672:
 6354              	.LBB1673:
 6355              	.LBB1674:
 6356              	.LBB1675:
 6357              		.loc 4 33 0
 6358 006a 81F07803 		eor	r3, r1, #120
 6359              		.loc 4 34 0
 6360 006e 83EA0310 		eor	r0, r3, r3, lsl #4
 6361 0072 C7B2     		uxtb	r7, r0
 6362              	.LVL322:
 6363              		.loc 4 35 0
 6364 0074 3A09     		lsrs	r2, r7, #4
 6365 0076 82F0F605 		eor	r5, r2, #246
 6366 007a 45EA0723 		orr	r3, r5, r7, lsl #8
 6367 007e 83EAC700 		eor	r0, r3, r7, lsl #3
 6368              		.loc 4 33 0
 6369 0082 80F00107 		eor	r7, r0, #1
 6370              		.loc 4 34 0
 6371 0086 87EA0712 		eor	r2, r7, r7, lsl #4
 6372 008a D5B2     		uxtb	r5, r2
 6373              		.loc 4 35 0
ARM GAS  C:\Users\Mohamad\AppData\Local\Temp\ccDsqi1j.s 			page 113


 6374 008c 030A     		lsrs	r3, r0, #8
 6375 008e 83EA1510 		eor	r0, r3, r5, lsr #4
 6376 0092 40EA0527 		orr	r7, r0, r5, lsl #8
 6377 0096 87EAC502 		eor	r2, r7, r5, lsl #3
 6378              		.loc 4 33 0
 6379 009a 82F00105 		eor	r5, r2, #1
 6380              		.loc 4 34 0
 6381 009e 85EA0513 		eor	r3, r5, r5, lsl #4
 6382 00a2 D8B2     		uxtb	r0, r3
 6383              		.loc 4 35 0
 6384 00a4 170A     		lsrs	r7, r2, #8
 6385 00a6 87EA1012 		eor	r2, r7, r0, lsr #4
 6386 00aa 42EA0025 		orr	r5, r2, r0, lsl #8
 6387 00ae 85EAC003 		eor	r3, r5, r0, lsl #3
 6388              		.loc 4 33 0
 6389 00b2 83F01800 		eor	r0, r3, #24
 6390              		.loc 4 34 0
 6391 00b6 80EA0017 		eor	r7, r0, r0, lsl #4
 6392 00ba FDB2     		uxtb	r5, r7
 6393              		.loc 4 35 0
 6394 00bc 1A0A     		lsrs	r2, r3, #8
 6395 00be 82EA1513 		eor	r3, r2, r5, lsr #4
 6396 00c2 43EA0520 		orr	r0, r3, r5, lsl #8
 6397              	.LBE1675:
 6398              	.LBE1674:
 6399              	.LBE1673:
 6400              	.LBE1672:
 6401              	.LBE1698:
 6402              	.LBE1704:
 6403              	.LBE1710:
 6404              	.LBE1716:
 6405              		.loc 2 95 0
 6406 00c6 1827     		movs	r7, #24
 6407              	.LBB1717:
 6408              	.LBB1711:
 6409              	.LBB1705:
 6410              	.LBB1699:
 6411              		.loc 3 83 0
 6412 00c8 2246     		mov	r2, r4
 6413              	.LBB1679:
 6414              	.LBB1678:
 6415              	.LBB1677:
 6416              	.LBB1676:
 6417              		.loc 4 35 0
 6418 00ca 80EAC503 		eor	r3, r0, r5, lsl #3
 6419              	.LBE1676:
 6420              	.LBE1677:
 6421              	.LBE1678:
 6422              	.LBE1679:
 6423              	.LBE1699:
 6424              	.LBE1705:
 6425              	.LBE1711:
 6426              	.LBE1717:
 6427              		.loc 2 95 0
 6428 00ce E771     		strb	r7, [r4, #7]
 6429              	.LVL323:
 6430              	.LBB1718:
ARM GAS  C:\Users\Mohamad\AppData\Local\Temp\ccDsqi1j.s 			page 114


 6431              	.LBB1712:
 6432              	.LBB1706:
 6433              	.LBB1700:
 6434              		.loc 3 78 0
 6435 00d0 0120     		movs	r0, #1
 6436              		.loc 3 76 0
 6437 00d2 FE27     		movs	r7, #254
 6438              		.loc 3 82 0
 6439 00d4 0D18     		adds	r5, r1, r0
 6440              		.loc 3 76 0
 6441 00d6 A770     		strb	r7, [r4, #2]
 6442              		.loc 3 83 0
 6443 00d8 22F8083B 		strh	r3, [r2], #8	@ movhi
 6444              		.loc 3 77 0
 6445 00dc 1E27     		movs	r7, #30
 6446              		.loc 3 82 0
 6447 00de B571     		strb	r5, [r6, #6]
 6448              		.loc 3 77 0
 6449 00e0 E770     		strb	r7, [r4, #3]
 6450              		.loc 3 78 0
 6451 00e2 6071     		strb	r0, [r4, #5]
 6452              		.loc 3 79 0
 6453 00e4 A071     		strb	r0, [r4, #6]
 6454              	.LVL324:
 6455              		.loc 3 81 0
 6456 00e6 2171     		strb	r1, [r4, #4]
 6457              	.LVL325:
 6458 00e8 04F12606 		add	r6, r4, #38
 6459              	.LVL326:
 6460              	.L108:
 6461              	.LBB1680:
 6462              	.LBB1681:
 6463              		.loc 4 82 0
 6464 00ec 1146     		mov	r1, r2
 6465              	.LBB1682:
 6466              	.LBB1683:
 6467              		.loc 4 35 0
 6468 00ee 180A     		lsrs	r0, r3, #8
 6469              	.LBE1683:
 6470              	.LBE1682:
 6471              		.loc 4 82 0
 6472 00f0 11F8017B 		ldrb	r7, [r1], #1	@ zero_extendqisi2
 6473              	.LVL327:
 6474              	.LBB1688:
 6475              	.LBB1684:
 6476              		.loc 4 35 0
 6477 00f4 274D     		ldr	r5, .L111+16
 6478              		.loc 4 33 0
 6479 00f6 7B40     		eors	r3, r3, r7
 6480              	.LVL328:
 6481              		.loc 4 34 0
 6482 00f8 83EA0317 		eor	r7, r3, r3, lsl #4
 6483 00fc FBB2     		uxtb	r3, r7
 6484              	.LVL329:
 6485              		.loc 4 35 0
 6486 00fe 80EA1310 		eor	r0, r0, r3, lsr #4
 6487 0102 40EA0327 		orr	r7, r0, r3, lsl #8
ARM GAS  C:\Users\Mohamad\AppData\Local\Temp\ccDsqi1j.s 			page 115


 6488              	.LVL330:
 6489 0106 87EAC303 		eor	r3, r7, r3, lsl #3
 6490              	.LVL331:
 6491 010a 2380     		strh	r3, [r4, #0]	@ movhi
 6492              	.LBE1684:
 6493              	.LBE1688:
 6494              		.loc 4 82 0
 6495 010c 5278     		ldrb	r2, [r2, #1]	@ zero_extendqisi2
 6496              	.LVL332:
 6497              	.LBB1689:
 6498              	.LBB1685:
 6499              		.loc 4 33 0
 6500 010e 5A40     		eors	r2, r2, r3
 6501              		.loc 4 34 0
 6502 0110 82EA0210 		eor	r0, r2, r2, lsl #4
 6503 0114 C7B2     		uxtb	r7, r0
 6504              		.loc 4 35 0
 6505 0116 1B0A     		lsrs	r3, r3, #8
 6506 0118 83EA1712 		eor	r2, r3, r7, lsr #4
 6507 011c 42EA0720 		orr	r0, r2, r7, lsl #8
 6508              	.LBE1685:
 6509              	.LBE1689:
 6510              		.loc 4 82 0
 6511 0120 4A1C     		adds	r2, r1, #1
 6512              	.LVL333:
 6513              	.LBB1690:
 6514              	.LBB1686:
 6515              		.loc 4 35 0
 6516 0122 80EAC703 		eor	r3, r0, r7, lsl #3
 6517              	.LBE1686:
 6518              	.LBE1690:
 6519              		.loc 4 81 0
 6520 0126 B242     		cmp	r2, r6
 6521              	.LBB1691:
 6522              	.LBB1687:
 6523              		.loc 4 35 0
 6524 0128 2380     		strh	r3, [r4, #0]	@ movhi
 6525              	.LBE1687:
 6526              	.LBE1691:
 6527              		.loc 4 81 0
 6528 012a DFD1     		bne	.L108
 6529              	.LVL334:
 6530              		.loc 4 33 0
 6531 012c 83F01804 		eor	r4, r3, #24
 6532              	.LVL335:
 6533              	.LBE1681:
 6534              	.LBE1680:
 6535              	.LBB1692:
 6536              	.LBB1693:
 6537              		.loc 4 34 0
 6538 0130 84EA0416 		eor	r6, r4, r4, lsl #4
 6539 0134 F1B2     		uxtb	r1, r6
 6540              	.LVL336:
 6541              		.loc 4 35 0
 6542 0136 1F0A     		lsrs	r7, r3, #8
 6543 0138 87EA1110 		eor	r0, r7, r1, lsr #4
 6544 013c 80EA0123 		eor	r3, r0, r1, lsl #8
ARM GAS  C:\Users\Mohamad\AppData\Local\Temp\ccDsqi1j.s 			page 116


 6545 0140 83EAC102 		eor	r2, r3, r1, lsl #3
 6546              	.LVL337:
 6547 0144 97B2     		uxth	r7, r2
 6548              	.LBE1693:
 6549              	.LBE1692:
 6550              	.LBE1700:
 6551              	.LBE1706:
 6552              	.LBE1712:
 6553              	.LBE1718:
 6554              	.LBE1667:
 6555              	.LBE1666:
 6556              	.LBB1725:
 6557              	.LBB1726:
 6558              		.loc 3 176 0
 6559 0146 95F80390 		ldrb	r9, [r5, #3]	@ zero_extendqisi2
 6560              		.loc 1 252 0
 6561 014a 144C     		ldr	r4, .L111+24
 6562              	.LBE1726:
 6563              	.LBE1725:
 6564              	.LBB1732:
 6565              	.LBB1722:
 6566              	.LBB1719:
 6567              	.LBB1713:
 6568              	.LBB1707:
 6569              	.LBB1701:
 6570              		.loc 3 88 0
 6571 014c 85F82670 		strb	r7, [r5, #38]
 6572              	.LBB1696:
 6573              	.LBB1694:
 6574              		.loc 4 35 0
 6575 0150 BBB2     		uxth	r3, r7
 6576              	.LBE1694:
 6577              	.LBE1696:
 6578              		.loc 3 89 0
 6579 0152 4FEA1328 		lsr	r8, r3, #8
 6580              	.LBE1701:
 6581              	.LBE1707:
 6582              	.LBE1713:
 6583              	.LBE1719:
 6584              	.LBE1722:
 6585              	.LBE1732:
 6586              	.LBB1733:
 6587              	.LBB1727:
 6588              		.loc 3 176 0
 6589 0156 09F10606 		add	r6, r9, #6
 6590              	.LVL338:
 6591 015a A91C     		adds	r1, r5, #2
 6592              	.LVL339:
 6593 015c 3246     		mov	r2, r6
 6594              	.LBE1727:
 6595              	.LBE1733:
 6596              	.LBB1734:
 6597              	.LBB1723:
 6598              	.LBB1720:
 6599              	.LBB1714:
 6600              	.LBB1708:
 6601              	.LBB1702:
ARM GAS  C:\Users\Mohamad\AppData\Local\Temp\ccDsqi1j.s 			page 117


 6602              	.LBB1697:
 6603              	.LBB1695:
 6604              		.loc 4 35 0
 6605 015e 2B80     		strh	r3, [r5, #0]	@ movhi
 6606              	.LBE1695:
 6607              	.LBE1697:
 6608              	.LBE1702:
 6609              	.LBE1708:
 6610              	.LBE1714:
 6611              	.LBE1720:
 6612              	.LBE1723:
 6613              	.LBE1734:
 6614              	.LBB1735:
 6615              	.LBB1728:
 6616              		.loc 3 176 0
 6617 0160 2046     		mov	r0, r4
 6618              	.LBE1728:
 6619              	.LBE1735:
 6620              	.LBB1736:
 6621              	.LBB1724:
 6622              	.LBB1721:
 6623              	.LBB1715:
 6624              	.LBB1709:
 6625              	.LBB1703:
 6626              		.loc 3 89 0
 6627 0162 85F82780 		strb	r8, [r5, #39]
 6628              	.LVL340:
 6629              	.LBE1703:
 6630              	.LBE1709:
 6631              	.LBE1715:
 6632              	.LBE1721:
 6633              	.LBE1724:
 6634              	.LBE1736:
 6635              	.LBB1737:
 6636              	.LBB1729:
 6637              		.loc 3 176 0
 6638 0166 FFF7FEFF 		bl	memcpy
 6639              	.LVL341:
 6640              		.loc 3 178 0
 6641 016a A319     		adds	r3, r4, r6
 6642              	.LVL342:
 6643              	.LBE1729:
 6644              	.LBE1737:
 6645              		.loc 1 260 0
 6646 016c 0C48     		ldr	r0, .L111+28
 6647              	.LBB1738:
 6648              	.LBB1730:
 6649              		.loc 3 180 0
 6650 016e A755     		strb	r7, [r4, r6]
 6651              	.LBE1730:
 6652              	.LBE1738:
 6653              		.loc 1 260 0
 6654 0170 09F10801 		add	r1, r9, #8
 6655 0174 2246     		mov	r2, r4
 6656              	.LBB1739:
 6657              	.LBB1731:
 6658              		.loc 3 181 0
ARM GAS  C:\Users\Mohamad\AppData\Local\Temp\ccDsqi1j.s 			page 118


 6659 0176 83F80180 		strb	r8, [r3, #1]
 6660              	.LBE1731:
 6661              	.LBE1739:
 6662              		.loc 1 261 0
 6663 017a 09B0     		add	sp, sp, #36
 6664 017c BDE8F043 		pop	{r4, r5, r6, r7, r8, r9, lr}
 6665              		.loc 1 260 0
 6666 0180 FFF7FEBF 		b	uartStartSendI
 6667              	.LVL343:
 6668              	.L112:
 6669              		.align	2
 6670              	.L111:
 6671 0184 00000000 		.word	Home_Altitude
 6672 0188 00000000 		.word	latitude
 6673 018c 00000000 		.word	longitude
 6674 0190 00000000 		.word	CurrentAlt
 6675 0194 00000000 		.word	.LANCHOR2
 6676 0198 00000000 		.word	.LANCHOR9
 6677 019c 00000000 		.word	.LANCHOR10
 6678 01a0 00000000 		.word	UARTD3
 6679              		.cfi_endproc
 6680              	.LFE1540:
 6681              		.size	Send_mavlink_GPS, .-Send_mavlink_GPS
 6682 01a4 AFF30080 		.section	.text.Send_mavlink_rawPressure,"ax",%progbits
 6682      AFF30080 
 6682      AFF30080 
 6683              		.align	2
 6684              		.p2align 4,,15
 6685              		.global	Send_mavlink_rawPressure
 6686              		.thumb
 6687              		.thumb_func
 6688              		.type	Send_mavlink_rawPressure, %function
 6689              	Send_mavlink_rawPressure:
 6690              	.LFB1541:
 6691              		.loc 1 264 0
 6692              		.cfi_startproc
 6693              		@ args = 0, pretend = 0, frame = 48
 6694              		@ frame_needed = 0, uses_anonymous_args = 0
 6695              	.LVL344:
 6696 0000 2DE9F04F 		push	{r4, r5, r6, r7, r8, r9, sl, fp, lr}
 6697              	.LCFI11:
 6698              		.cfi_def_cfa_offset 36
 6699              		.cfi_offset 4, -36
 6700              		.cfi_offset 5, -32
 6701              		.cfi_offset 6, -28
 6702              		.cfi_offset 7, -24
 6703              		.cfi_offset 8, -20
 6704              		.cfi_offset 9, -16
 6705              		.cfi_offset 10, -12
 6706              		.cfi_offset 11, -8
 6707              		.cfi_offset 14, -4
 6708              	.LBB1764:
 6709              	.LBB1765:
 6710              	.LBB1766:
 6711              	.LBB1767:
 6712              	.LBB1768:
 6713              	.LBB1769:
ARM GAS  C:\Users\Mohamad\AppData\Local\Temp\ccDsqi1j.s 			page 119


 6714              		.loc 3 81 0
 6715 0004 40F20005 		movw	r5, #:lower16:.LANCHOR9
 6716 0008 C0F20005 		movt	r5, #:upper16:.LANCHOR9
 6717              	.LBE1769:
 6718              	.LBE1768:
 6719              	.LBE1767:
 6720              	.LBE1766:
 6721              	.LBE1765:
 6722              	.LBE1764:
 6723              		.loc 1 264 0
 6724 000c 8DB0     		sub	sp, sp, #52
 6725              	.LCFI12:
 6726              		.cfi_def_cfa_offset 88
 6727              	.LBB1858:
 6728              	.LBB1854:
 6729              	.LBB1844:
 6730              	.LBB1834:
 6731              	.LBB1824:
 6732              	.LBB1814:
 6733              		.loc 3 81 0
 6734 000e AE79     		ldrb	r6, [r5, #6]	@ zero_extendqisi2
 6735              	.LBB1770:
 6736              	.LBB1771:
 6737              	.LBB1772:
 6738              	.LBB1773:
 6739              		.loc 4 33 0
 6740 0010 86F00603 		eor	r3, r6, #6
 6741              		.loc 4 34 0
 6742 0014 83EA0310 		eor	r0, r3, r3, lsl #4
 6743 0018 C1B2     		uxtb	r1, r0
 6744              		.loc 4 35 0
 6745 001a 0A09     		lsrs	r2, r1, #4
 6746 001c 82F01F04 		eor	r4, r2, #31
 6747 0020 44EA0127 		orr	r7, r4, r1, lsl #8
 6748 0024 87EAC103 		eor	r3, r7, r1, lsl #3
 6749              		.loc 4 33 0
 6750 0028 83F00100 		eor	r0, r3, #1
 6751              		.loc 4 34 0
 6752 002c 80EA0011 		eor	r1, r0, r0, lsl #4
 6753 0030 CFB2     		uxtb	r7, r1
 6754              		.loc 4 35 0
 6755 0032 1C0A     		lsrs	r4, r3, #8
 6756              	.LBE1773:
 6757              	.LBE1772:
 6758              	.LBE1771:
 6759              	.LBE1770:
 6760              	.LBE1814:
 6761              	.LBE1824:
 6762              	.LBE1834:
 6763              	.LBE1844:
 6764              		.loc 5 61 0
 6765 0034 0022     		movs	r2, #0
 6766 0036 0023     		movs	r3, #0
 6767 0038 CDE90823 		strd	r2, [sp, #32]
 6768              	.LBB1845:
 6769              	.LBB1835:
 6770              	.LBB1825:
ARM GAS  C:\Users\Mohamad\AppData\Local\Temp\ccDsqi1j.s 			page 120


 6771              	.LBB1815:
 6772              	.LBB1792:
 6773              	.LBB1786:
 6774              	.LBB1780:
 6775              	.LBB1774:
 6776              		.loc 4 35 0
 6777 003c 84EA1713 		eor	r3, r4, r7, lsr #4
 6778              	.LBE1774:
 6779              	.LBE1780:
 6780              	.LBE1786:
 6781              	.LBE1792:
 6782              	.LBE1815:
 6783              	.LBE1825:
 6784              	.LBE1835:
 6785              	.LBE1845:
 6786              		.loc 5 62 0
 6787 0040 0020     		movs	r0, #0
 6788              		.loc 5 63 0
 6789 0042 0C22     		movs	r2, #12
 6790              	.LBB1846:
 6791              	.LBB1836:
 6792              	.LBB1826:
 6793              	.LBB1816:
 6794              	.LBB1793:
 6795              	.LBB1787:
 6796              	.LBB1781:
 6797              	.LBB1775:
 6798              		.loc 4 35 0
 6799 0044 43EA0721 		orr	r1, r3, r7, lsl #8
 6800 0048 81EAC704 		eor	r4, r1, r7, lsl #3
 6801              	.LBE1775:
 6802              	.LBE1781:
 6803              	.LBE1787:
 6804              	.LBE1793:
 6805              	.LBE1816:
 6806              	.LBE1826:
 6807              	.LBE1836:
 6808              	.LBE1846:
 6809              		.loc 5 62 0
 6810 004c ADF82800 		strh	r0, [sp, #40]	@ movhi
 6811              		.loc 5 63 0
 6812 0050 ADF82A20 		strh	r2, [sp, #42]	@ movhi
 6813              		.loc 5 64 0
 6814 0054 ADF82C00 		strh	r0, [sp, #44]	@ movhi
 6815              		.loc 5 65 0
 6816 0058 ADF82E20 		strh	r2, [sp, #46]	@ movhi
 6817              		.loc 5 67 0
 6818 005c 0CAF     		add	r7, sp, #48
 6819 005e 17E90F00 		ldmdb	r7, {r0, r1, r2, r3}
 6820              	.LBB1847:
 6821              	.LBB1837:
 6822              	.LBB1827:
 6823              	.LBB1817:
 6824              	.LBB1794:
 6825              	.LBB1788:
 6826              	.LBB1782:
 6827              	.LBB1776:
ARM GAS  C:\Users\Mohamad\AppData\Local\Temp\ccDsqi1j.s 			page 121


 6828              		.loc 4 33 0
 6829 0062 84F0010E 		eor	lr, r4, #1
 6830              		.loc 4 34 0
 6831 0066 8EEA0E17 		eor	r7, lr, lr, lsl #4
 6832 006a 5FFA87F8 		uxtb	r8, r7
 6833              		.loc 4 35 0
 6834 006e 4FEA142B 		lsr	fp, r4, #8
 6835              	.LBE1776:
 6836              	.LBE1782:
 6837              	.LBE1788:
 6838              	.LBE1794:
 6839              	.LBE1817:
 6840              	.LBE1827:
 6841              	.LBE1837:
 6842              	.LBE1847:
 6843              		.loc 5 67 0
 6844 0072 40F20004 		movw	r4, #:lower16:.LANCHOR2
 6845 0076 C0F20004 		movt	r4, #:upper16:.LANCHOR2
 6846              	.LBB1848:
 6847              	.LBB1838:
 6848              	.LBB1828:
 6849              	.LBB1818:
 6850              	.LBB1795:
 6851              	.LBB1789:
 6852              	.LBB1783:
 6853              	.LBB1777:
 6854              		.loc 4 35 0
 6855 007a 8BEA1819 		eor	r9, fp, r8, lsr #4
 6856 007e 49EA082A 		orr	sl, r9, r8, lsl #8
 6857              	.LBE1777:
 6858              	.LBE1783:
 6859              	.LBE1789:
 6860              	.LBE1795:
 6861              	.LBE1818:
 6862              	.LBE1828:
 6863              	.LBE1838:
 6864              	.LBE1848:
 6865              		.loc 5 67 0
 6866 0082 04F10807 		add	r7, r4, #8
 6867 0086 87E80F00 		stmia	r7, {r0, r1, r2, r3}
 6868              	.LBB1849:
 6869              	.LBB1839:
 6870              	.LBB1829:
 6871              	.LBB1819:
 6872              	.LBB1796:
 6873              	.LBB1790:
 6874              	.LBB1784:
 6875              	.LBB1778:
 6876              		.loc 4 35 0
 6877 008a 8AEAC800 		eor	r0, sl, r8, lsl #3
 6878              		.loc 4 33 0
 6879 008e 80F01C03 		eor	r3, r0, #28
 6880              		.loc 4 34 0
 6881 0092 83EA0312 		eor	r2, r3, r3, lsl #4
 6882 0096 D3B2     		uxtb	r3, r2
 6883              		.loc 4 35 0
 6884 0098 4FEA1021 		lsr	r1, r0, #8
ARM GAS  C:\Users\Mohamad\AppData\Local\Temp\ccDsqi1j.s 			page 122


 6885 009c 81EA131B 		eor	fp, r1, r3, lsr #4
 6886              	.LBE1778:
 6887              	.LBE1784:
 6888              	.LBE1790:
 6889              	.LBE1796:
 6890              	.LBB1797:
 6891              	.LBB1798:
 6892              	.LBB1799:
 6893              	.LBB1800:
 6894              		.loc 4 33 0
 6895 00a0 94F808A0 		ldrb	sl, [r4, #8]	@ zero_extendqisi2
 6896 00a4 94F80990 		ldrb	r9, [r4, #9]	@ zero_extendqisi2
 6897 00a8 94F80A80 		ldrb	r8, [r4, #10]	@ zero_extendqisi2
 6898 00ac 94F80BC0 		ldrb	ip, [r4, #11]	@ zero_extendqisi2
 6899 00b0 94F80CE0 		ldrb	lr, [r4, #12]	@ zero_extendqisi2
 6900 00b4 677B     		ldrb	r7, [r4, #13]	@ zero_extendqisi2
 6901 00b6 A07B     		ldrb	r0, [r4, #14]	@ zero_extendqisi2
 6902 00b8 E27B     		ldrb	r2, [r4, #15]	@ zero_extendqisi2
 6903 00ba 217C     		ldrb	r1, [r4, #16]	@ zero_extendqisi2
 6904 00bc 0190     		str	r0, [sp, #4]
 6905              	.LBE1800:
 6906              	.LBE1799:
 6907              	.LBE1798:
 6908              	.LBE1797:
 6909              	.LBB1807:
 6910              	.LBB1791:
 6911              	.LBB1785:
 6912              	.LBB1779:
 6913              		.loc 4 35 0
 6914 00be 4BEA032B 		orr	fp, fp, r3, lsl #8
 6915 00c2 8BEAC303 		eor	r3, fp, r3, lsl #3
 6916              	.LBE1779:
 6917              	.LBE1785:
 6918              	.LBE1791:
 6919              	.LBE1807:
 6920              	.LBB1808:
 6921              	.LBB1805:
 6922              	.LBB1803:
 6923              	.LBB1801:
 6924              		.loc 4 33 0
 6925 00c6 83EA0A0A 		eor	sl, r3, sl
 6926              		.loc 4 34 0
 6927 00ca 8AEA0A1A 		eor	sl, sl, sl, lsl #4
 6928 00ce 5FFA8AFA 		uxtb	sl, sl
 6929              		.loc 4 35 0
 6930 00d2 1B0A     		lsrs	r3, r3, #8
 6931 00d4 83EA1A13 		eor	r3, r3, sl, lsr #4
 6932 00d8 43EA0A23 		orr	r3, r3, sl, lsl #8
 6933 00dc 83EACA0A 		eor	sl, r3, sl, lsl #3
 6934              		.loc 4 33 0
 6935 00e0 8AEA0909 		eor	r9, sl, r9
 6936              		.loc 4 34 0
 6937 00e4 89EA0913 		eor	r3, r9, r9, lsl #4
 6938 00e8 5FFA83F9 		uxtb	r9, r3
 6939              		.loc 4 35 0
 6940 00ec 4FEA1A2A 		lsr	sl, sl, #8
 6941 00f0 8AEA1913 		eor	r3, sl, r9, lsr #4
ARM GAS  C:\Users\Mohamad\AppData\Local\Temp\ccDsqi1j.s 			page 123


 6942 00f4 43EA092A 		orr	sl, r3, r9, lsl #8
 6943 00f8 8AEAC909 		eor	r9, sl, r9, lsl #3
 6944              		.loc 4 33 0
 6945 00fc 89EA0808 		eor	r8, r9, r8
 6946              		.loc 4 34 0
 6947 0100 88EA0813 		eor	r3, r8, r8, lsl #4
 6948 0104 5FFA83F8 		uxtb	r8, r3
 6949              		.loc 4 35 0
 6950 0108 4FEA1929 		lsr	r9, r9, #8
 6951 010c 89EA1813 		eor	r3, r9, r8, lsr #4
 6952 0110 43EA0829 		orr	r9, r3, r8, lsl #8
 6953 0114 89EAC808 		eor	r8, r9, r8, lsl #3
 6954              		.loc 4 33 0
 6955 0118 88EA0C0C 		eor	ip, r8, ip
 6956              		.loc 4 34 0
 6957 011c 8CEA0C13 		eor	r3, ip, ip, lsl #4
 6958 0120 5FFA83F9 		uxtb	r9, r3
 6959              		.loc 4 35 0
 6960 0124 4FEA1828 		lsr	r8, r8, #8
 6961 0128 88EA1913 		eor	r3, r8, r9, lsr #4
 6962 012c 43EA092C 		orr	ip, r3, r9, lsl #8
 6963 0130 8CEAC903 		eor	r3, ip, r9, lsl #3
 6964              		.loc 4 33 0
 6965 0134 83EA0E0E 		eor	lr, r3, lr
 6966              		.loc 4 34 0
 6967 0138 8EEA0E19 		eor	r9, lr, lr, lsl #4
 6968 013c 5FFA89F8 		uxtb	r8, r9
 6969              		.loc 4 35 0
 6970 0140 4FEA132C 		lsr	ip, r3, #8
 6971 0144 8CEA1813 		eor	r3, ip, r8, lsr #4
 6972 0148 43EA082E 		orr	lr, r3, r8, lsl #8
 6973 014c 8EEAC803 		eor	r3, lr, r8, lsl #3
 6974              		.loc 4 33 0
 6975 0150 5F40     		eors	r7, r7, r3
 6976              		.loc 4 34 0
 6977 0152 87EA0717 		eor	r7, r7, r7, lsl #4
 6978              		.loc 4 33 0
 6979 0156 607C     		ldrb	r0, [r4, #17]	@ zero_extendqisi2
 6980 0158 0292     		str	r2, [sp, #8]
 6981 015a 0391     		str	r1, [sp, #12]
 6982 015c A27C     		ldrb	r2, [r4, #18]	@ zero_extendqisi2
 6983 015e 217D     		ldrb	r1, [r4, #20]	@ zero_extendqisi2
 6984 0160 0490     		str	r0, [sp, #16]
 6985              		.loc 4 34 0
 6986 0162 FFB2     		uxtb	r7, r7
 6987              		.loc 4 35 0
 6988 0164 4FEA1329 		lsr	r9, r3, #8
 6989 0168 89EA1718 		eor	r8, r9, r7, lsr #4
 6990              		.loc 4 33 0
 6991 016c 0592     		str	r2, [sp, #20]
 6992 016e E07C     		ldrb	r0, [r4, #19]	@ zero_extendqisi2
 6993 0170 0691     		str	r1, [sp, #24]
 6994              		.loc 4 35 0
 6995 0172 48EA072C 		orr	ip, r8, r7, lsl #8
 6996              		.loc 4 33 0
 6997 0176 DDF804E0 		ldr	lr, [sp, #4]
 6998 017a DDF80890 		ldr	r9, [sp, #8]
ARM GAS  C:\Users\Mohamad\AppData\Local\Temp\ccDsqi1j.s 			page 124


 6999 017e DDF80C80 		ldr	r8, [sp, #12]
 7000 0182 627D     		ldrb	r2, [r4, #21]	@ zero_extendqisi2
 7001 0184 A17D     		ldrb	r1, [r4, #22]	@ zero_extendqisi2
 7002 0186 0792     		str	r2, [sp, #28]
 7003              		.loc 4 35 0
 7004 0188 8CEAC707 		eor	r7, ip, r7, lsl #3
 7005              		.loc 4 33 0
 7006 018c 87EA0E03 		eor	r3, r7, lr
 7007              		.loc 4 34 0
 7008 0190 83EA0313 		eor	r3, r3, r3, lsl #4
 7009 0194 DBB2     		uxtb	r3, r3
 7010              		.loc 4 35 0
 7011 0196 3F0A     		lsrs	r7, r7, #8
 7012 0198 87EA1317 		eor	r7, r7, r3, lsr #4
 7013 019c 47EA0327 		orr	r7, r7, r3, lsl #8
 7014 01a0 87EAC307 		eor	r7, r7, r3, lsl #3
 7015              		.loc 4 33 0
 7016 01a4 87EA0903 		eor	r3, r7, r9
 7017              		.loc 4 34 0
 7018 01a8 83EA0313 		eor	r3, r3, r3, lsl #4
 7019 01ac DBB2     		uxtb	r3, r3
 7020              		.loc 4 35 0
 7021 01ae 3F0A     		lsrs	r7, r7, #8
 7022 01b0 87EA1317 		eor	r7, r7, r3, lsr #4
 7023 01b4 47EA0327 		orr	r7, r7, r3, lsl #8
 7024 01b8 87EAC307 		eor	r7, r7, r3, lsl #3
 7025              		.loc 4 33 0
 7026 01bc 87EA0803 		eor	r3, r7, r8
 7027              		.loc 4 34 0
 7028 01c0 83EA0313 		eor	r3, r3, r3, lsl #4
 7029 01c4 DBB2     		uxtb	r3, r3
 7030              		.loc 4 35 0
 7031 01c6 3F0A     		lsrs	r7, r7, #8
 7032 01c8 87EA1317 		eor	r7, r7, r3, lsr #4
 7033              		.loc 4 33 0
 7034 01cc DDF810C0 		ldr	ip, [sp, #16]
 7035 01d0 DDF814E0 		ldr	lr, [sp, #20]
 7036 01d4 DDF81C90 		ldr	r9, [sp, #28]
 7037 01d8 E27D     		ldrb	r2, [r4, #23]	@ zero_extendqisi2
 7038              	.LBE1801:
 7039              	.LBE1803:
 7040              	.LBE1805:
 7041              	.LBE1808:
 7042              		.loc 3 81 0
 7043 01da 2671     		strb	r6, [r4, #4]
 7044              	.LBB1809:
 7045              	.LBB1806:
 7046              	.LBB1804:
 7047              	.LBB1802:
 7048              		.loc 4 35 0
 7049 01dc 47EA0327 		orr	r7, r7, r3, lsl #8
 7050 01e0 87EAC307 		eor	r7, r7, r3, lsl #3
 7051              		.loc 4 33 0
 7052 01e4 87EA0C03 		eor	r3, r7, ip
 7053              		.loc 4 34 0
 7054 01e8 83EA0313 		eor	r3, r3, r3, lsl #4
 7055 01ec DBB2     		uxtb	r3, r3
ARM GAS  C:\Users\Mohamad\AppData\Local\Temp\ccDsqi1j.s 			page 125


 7056              		.loc 4 35 0
 7057 01ee 3F0A     		lsrs	r7, r7, #8
 7058 01f0 87EA1317 		eor	r7, r7, r3, lsr #4
 7059 01f4 47EA0327 		orr	r7, r7, r3, lsl #8
 7060 01f8 87EAC307 		eor	r7, r7, r3, lsl #3
 7061              		.loc 4 33 0
