ARM GAS  C:\Users\Mohamad\AppData\Local\Temp\ccIOqL5A.s 			page 1


   1              		.syntax unified
   2              		.cpu cortex-m4
   3              		.fpu softvfp
   4              		.eabi_attribute 20, 1
   5              		.eabi_attribute 21, 1
   6              		.eabi_attribute 23, 3
   7              		.eabi_attribute 24, 1
   8              		.eabi_attribute 25, 1
   9              		.eabi_attribute 26, 1
  10              		.eabi_attribute 30, 2
  11              		.eabi_attribute 34, 1
  12              		.eabi_attribute 18, 4
  13              		.thumb
  14              		.file	"ms5611.c"
  15              		.text
  16              	.Ltext0:
  17              		.cfi_sections	.debug_frame
  18              		.section	.text.baroReset,"ax",%progbits
  19              		.align	2
  20              		.p2align 4,,15
  21              		.global	baroReset
  22              		.thumb
  23              		.thumb_func
  24              		.type	baroReset, %function
  25              	baroReset:
  26              	.LFB118:
  27              		.file 1 "ms5611.c"
  28              		.loc 1 38 0
  29              		.cfi_startproc
  30              		@ args = 0, pretend = 0, frame = 0
  31              		@ frame_needed = 0, uses_anonymous_args = 0
  32 0000 F0B5     		push	{r4, r5, r6, r7, lr}
  33              	.LCFI0:
  34              		.cfi_def_cfa_offset 20
  35              		.cfi_offset 4, -20
  36              		.cfi_offset 5, -16
  37              		.cfi_offset 6, -12
  38              		.cfi_offset 7, -8
  39              		.cfi_offset 14, -4
  40              		.loc 1 39 0
  41 0002 134D     		ldr	r5, .L7
  42              		.loc 1 40 0
  43 0004 1348     		ldr	r0, .L7+4
  44              		.loc 1 41 0
  45 0006 144C     		ldr	r4, .L7+8
  46              		.loc 1 43 0
  47 0008 144E     		ldr	r6, .L7+12
  48              		.loc 1 38 0
  49 000a 85B0     		sub	sp, sp, #20
  50              	.LCFI1:
  51              		.cfi_def_cfa_offset 40
  52              		.loc 1 39 0
  53 000c 1E23     		movs	r3, #30
  54 000e 2B70     		strb	r3, [r5, #0]
  55              		.loc 1 40 0
  56 0010 FFF7FEFF 		bl	i2cAcquireBus
  57              	.LVL0:
ARM GAS  C:\Users\Mohamad\AppData\Local\Temp\ccIOqL5A.s 			page 2


  58              		.loc 1 41 0
  59 0014 1248     		ldr	r0, .L7+16
  60 0016 1349     		ldr	r1, .L7+20
  61 0018 0068     		ldr	r0, [r0, #0]
  62 001a 0091     		str	r1, [sp, #0]
  63 001c 0027     		movs	r7, #0
  64 001e 2A46     		mov	r2, r5
  65 0020 0123     		movs	r3, #1
  66 0022 7721     		movs	r1, #119
  67 0024 0290     		str	r0, [sp, #8]
  68 0026 0197     		str	r7, [sp, #4]
  69 0028 0A48     		ldr	r0, .L7+4
  70 002a FFF7FEFF 		bl	i2cMasterTransmitTimeout
  71              	.LVL1:
  72 002e 2060     		str	r0, [r4, #0]
  73              		.loc 1 42 0
  74 0030 0848     		ldr	r0, .L7+4
  75 0032 FFF7FEFF 		bl	i2cReleaseBus
  76              	.LVL2:
  77              		.loc 1 44 0
  78 0036 2368     		ldr	r3, [r4, #0]
  79              		.loc 1 43 0
  80 0038 0122     		movs	r2, #1
  81 003a 3270     		strb	r2, [r6, #0]
  82              		.loc 1 44 0
  83 003c 2BB1     		cbz	r3, .L1
  84              		.loc 1 45 0
  85 003e 0548     		ldr	r0, .L7+4
  86 0040 FFF7FEFF 		bl	i2cGetErrors
  87              	.LVL3:
  88 0044 0849     		ldr	r1, .L7+24
  89              		.loc 1 46 0
  90 0046 3770     		strb	r7, [r6, #0]
  91              		.loc 1 45 0
  92 0048 0860     		str	r0, [r1, #0]
  93              	.L1:
  94              		.loc 1 48 0
  95 004a 05B0     		add	sp, sp, #20
  96 004c F0BD     		pop	{r4, r5, r6, r7, pc}
  97              	.L8:
  98 004e 00BF     		.align	2
  99              	.L7:
 100 0050 00000000 		.word	.LANCHOR0
 101 0054 00000000 		.word	I2CD2
 102 0058 00000000 		.word	.LANCHOR3
 103 005c 00000000 		.word	.LANCHOR4
 104 0060 00000000 		.word	.LANCHOR2
 105 0064 00000000 		.word	.LANCHOR1
 106 0068 00000000 		.word	.LANCHOR5
 107              		.cfi_endproc
 108              	.LFE118:
 109              		.size	baroReset, .-baroReset
 110 006c AFF30080 		.section	.text.baroReadPROM,"ax",%progbits
 111              		.align	2
 112              		.p2align 4,,15
 113              		.global	baroReadPROM
 114              		.thumb
ARM GAS  C:\Users\Mohamad\AppData\Local\Temp\ccIOqL5A.s 			page 3


 115              		.thumb_func
 116              		.type	baroReadPROM, %function
 117              	baroReadPROM:
 118              	.LFB119:
 119              		.loc 1 55 0
 120              		.cfi_startproc
 121              		@ args = 0, pretend = 0, frame = 0
 122              		@ frame_needed = 0, uses_anonymous_args = 0
 123              	.LVL4:
 124 0000 2DE9F043 		push	{r4, r5, r6, r7, r8, r9, lr}
 125              	.LCFI2:
 126              		.cfi_def_cfa_offset 28
 127              		.cfi_offset 4, -28
 128              		.cfi_offset 5, -24
 129              		.cfi_offset 6, -20
 130              		.cfi_offset 7, -16
 131              		.cfi_offset 8, -12
 132              		.cfi_offset 9, -8
 133              		.cfi_offset 14, -4
 134              		.loc 1 59 0
 135 0004 814E     		ldr	r6, .L40
 136              		.loc 1 60 0
 137 0006 8248     		ldr	r0, .L40+4
 138              		.loc 1 61 0
 139 0008 DFF81892 		ldr	r9, .L40+24
 140 000c 814C     		ldr	r4, .L40+8
 141 000e 824D     		ldr	r5, .L40+12
 142              		.loc 1 64 0
 143 0010 DFF81482 		ldr	r8, .L40+28
 144              		.loc 1 65 0
 145 0014 814F     		ldr	r7, .L40+16
 146              		.loc 1 55 0
 147 0016 85B0     		sub	sp, sp, #20
 148              	.LCFI3:
 149              		.cfi_def_cfa_offset 48
 150              		.loc 1 59 0
 151 0018 A223     		movs	r3, #162
 152 001a 3370     		strb	r3, [r6, #0]
 153              		.loc 1 60 0
 154 001c FFF7FEFF 		bl	i2cAcquireBus
 155              	.LVL5:
 156              		.loc 1 61 0
 157 0020 0220     		movs	r0, #2
 158 0022 0190     		str	r0, [sp, #4]
 159 0024 D9F80000 		ldr	r0, [r9, #0]
 160 0028 0094     		str	r4, [sp, #0]
 161 002a 7721     		movs	r1, #119
 162 002c 3246     		mov	r2, r6
 163 002e 0123     		movs	r3, #1
 164 0030 0290     		str	r0, [sp, #8]
 165 0032 7748     		ldr	r0, .L40+4
 166 0034 FFF7FEFF 		bl	i2cMasterTransmitTimeout
 167              	.LVL6:
 168 0038 2860     		str	r0, [r5, #0]
 169              		.loc 1 62 0
 170 003a 7548     		ldr	r0, .L40+4
 171 003c FFF7FEFF 		bl	i2cReleaseBus
ARM GAS  C:\Users\Mohamad\AppData\Local\Temp\ccIOqL5A.s 			page 4


 172              	.LVL7:
 173              		.loc 1 64 0
 174 0040 2178     		ldrb	r1, [r4, #0]	@ zero_extendqisi2
 175 0042 6278     		ldrb	r2, [r4, #1]	@ zero_extendqisi2
 176              		.loc 1 66 0
 177 0044 2B68     		ldr	r3, [r5, #0]
 178              		.loc 1 64 0
 179 0046 42EA0120 		orr	r0, r2, r1, lsl #8
 180              		.loc 1 65 0
 181 004a 0121     		movs	r1, #1
 182              		.loc 1 64 0
 183 004c A8F80000 		strh	r0, [r8, #0]	@ movhi
 184              		.loc 1 65 0
 185 0050 3970     		strb	r1, [r7, #0]
 186              		.loc 1 66 0
 187 0052 002B     		cmp	r3, #0
 188 0054 40F0A480 		bne	.L34
 189              	.L10:
 190              	.LVL8:
 191              		.loc 1 59 0
 192 0058 A421     		movs	r1, #164
 193              		.loc 1 60 0
 194 005a 6D48     		ldr	r0, .L40+4
 195              		.loc 1 59 0
 196 005c 3170     		strb	r1, [r6, #0]
 197              		.loc 1 60 0
 198 005e FFF7FEFF 		bl	i2cAcquireBus
 199              	.LVL9:
 200              		.loc 1 61 0
 201 0062 0220     		movs	r0, #2
 202 0064 0190     		str	r0, [sp, #4]
 203 0066 D9F80000 		ldr	r0, [r9, #0]
 204 006a 684A     		ldr	r2, .L40
 205 006c 0290     		str	r0, [sp, #8]
 206 006e 7721     		movs	r1, #119
 207 0070 0123     		movs	r3, #1
 208 0072 0094     		str	r4, [sp, #0]
 209 0074 6648     		ldr	r0, .L40+4
 210 0076 FFF7FEFF 		bl	i2cMasterTransmitTimeout
 211              	.LVL10:
 212 007a 2860     		str	r0, [r5, #0]
 213              		.loc 1 62 0
 214 007c 6448     		ldr	r0, .L40+4
 215 007e FFF7FEFF 		bl	i2cReleaseBus
 216              	.LVL11:
 217              		.loc 1 64 0
 218 0082 2178     		ldrb	r1, [r4, #0]	@ zero_extendqisi2
 219 0084 6278     		ldrb	r2, [r4, #1]	@ zero_extendqisi2
 220              		.loc 1 66 0
 221 0086 2B68     		ldr	r3, [r5, #0]
 222              		.loc 1 64 0
 223 0088 42EA0120 		orr	r0, r2, r1, lsl #8
 224              		.loc 1 65 0
 225 008c 0121     		movs	r1, #1
 226              		.loc 1 64 0
 227 008e A8F80200 		strh	r0, [r8, #2]	@ movhi
 228              		.loc 1 65 0
ARM GAS  C:\Users\Mohamad\AppData\Local\Temp\ccIOqL5A.s 			page 5


 229 0092 3970     		strb	r1, [r7, #0]
 230              		.loc 1 66 0
 231 0094 002B     		cmp	r3, #0
 232 0096 40F0AF80 		bne	.L35
 233              	.L11:
 234              	.LVL12:
 235              		.loc 1 59 0
 236 009a A621     		movs	r1, #166
 237              		.loc 1 60 0
 238 009c 5C48     		ldr	r0, .L40+4
 239              		.loc 1 59 0
 240 009e 3170     		strb	r1, [r6, #0]
 241              		.loc 1 60 0
 242 00a0 FFF7FEFF 		bl	i2cAcquireBus
 243              	.LVL13:
 244              		.loc 1 61 0
 245 00a4 0220     		movs	r0, #2
 246 00a6 0190     		str	r0, [sp, #4]
 247 00a8 D9F80000 		ldr	r0, [r9, #0]
 248 00ac 574A     		ldr	r2, .L40
 249 00ae 0290     		str	r0, [sp, #8]
 250 00b0 7721     		movs	r1, #119
 251 00b2 0123     		movs	r3, #1
 252 00b4 0094     		str	r4, [sp, #0]
 253 00b6 5648     		ldr	r0, .L40+4
 254 00b8 FFF7FEFF 		bl	i2cMasterTransmitTimeout
 255              	.LVL14:
 256 00bc 2860     		str	r0, [r5, #0]
 257              		.loc 1 62 0
 258 00be 5448     		ldr	r0, .L40+4
 259 00c0 FFF7FEFF 		bl	i2cReleaseBus
 260              	.LVL15:
 261              		.loc 1 64 0
 262 00c4 2178     		ldrb	r1, [r4, #0]	@ zero_extendqisi2
 263 00c6 6278     		ldrb	r2, [r4, #1]	@ zero_extendqisi2
 264              		.loc 1 66 0
 265 00c8 2B68     		ldr	r3, [r5, #0]
 266              		.loc 1 64 0
 267 00ca 42EA0120 		orr	r0, r2, r1, lsl #8
 268              		.loc 1 65 0
 269 00ce 0121     		movs	r1, #1
 270              		.loc 1 64 0
 271 00d0 A8F80400 		strh	r0, [r8, #4]	@ movhi
 272              		.loc 1 65 0
 273 00d4 3970     		strb	r1, [r7, #0]
 274              		.loc 1 66 0
 275 00d6 002B     		cmp	r3, #0
 276 00d8 40F08580 		bne	.L36
 277              	.L12:
 278              	.LVL16:
 279              		.loc 1 59 0
 280 00dc A821     		movs	r1, #168
 281              		.loc 1 60 0
 282 00de 4C48     		ldr	r0, .L40+4
 283              		.loc 1 59 0
 284 00e0 3170     		strb	r1, [r6, #0]
 285              		.loc 1 60 0
ARM GAS  C:\Users\Mohamad\AppData\Local\Temp\ccIOqL5A.s 			page 6


 286 00e2 FFF7FEFF 		bl	i2cAcquireBus
 287              	.LVL17:
 288              		.loc 1 61 0
 289 00e6 0220     		movs	r0, #2
 290 00e8 0190     		str	r0, [sp, #4]
 291 00ea D9F80000 		ldr	r0, [r9, #0]
 292 00ee 474A     		ldr	r2, .L40
 293 00f0 0290     		str	r0, [sp, #8]
 294 00f2 7721     		movs	r1, #119
 295 00f4 0123     		movs	r3, #1
 296 00f6 0094     		str	r4, [sp, #0]
 297 00f8 4548     		ldr	r0, .L40+4
 298 00fa FFF7FEFF 		bl	i2cMasterTransmitTimeout
 299              	.LVL18:
 300 00fe 2860     		str	r0, [r5, #0]
 301              		.loc 1 62 0
 302 0100 4348     		ldr	r0, .L40+4
 303 0102 FFF7FEFF 		bl	i2cReleaseBus
 304              	.LVL19:
 305              		.loc 1 64 0
 306 0106 2178     		ldrb	r1, [r4, #0]	@ zero_extendqisi2
 307 0108 6278     		ldrb	r2, [r4, #1]	@ zero_extendqisi2
 308              		.loc 1 66 0
 309 010a 2B68     		ldr	r3, [r5, #0]
 310              		.loc 1 64 0
 311 010c 42EA0120 		orr	r0, r2, r1, lsl #8
 312              		.loc 1 65 0
 313 0110 0121     		movs	r1, #1
 314              		.loc 1 64 0
 315 0112 A8F80600 		strh	r0, [r8, #6]	@ movhi
 316              		.loc 1 65 0
 317 0116 3970     		strb	r1, [r7, #0]
 318              		.loc 1 66 0
 319 0118 002B     		cmp	r3, #0
 320 011a 5BD1     		bne	.L37
 321              	.L13:
 322              	.LVL20:
 323              		.loc 1 59 0
 324 011c AA21     		movs	r1, #170
 325              		.loc 1 60 0
 326 011e 3C48     		ldr	r0, .L40+4
 327              		.loc 1 59 0
 328 0120 3170     		strb	r1, [r6, #0]
 329              		.loc 1 60 0
 330 0122 FFF7FEFF 		bl	i2cAcquireBus
 331              	.LVL21:
 332              		.loc 1 61 0
 333 0126 0220     		movs	r0, #2
 334 0128 0190     		str	r0, [sp, #4]
 335 012a D9F80000 		ldr	r0, [r9, #0]
 336 012e 374A     		ldr	r2, .L40
 337 0130 0290     		str	r0, [sp, #8]
 338 0132 7721     		movs	r1, #119
 339 0134 0123     		movs	r3, #1
 340 0136 0094     		str	r4, [sp, #0]
 341 0138 3548     		ldr	r0, .L40+4
 342 013a FFF7FEFF 		bl	i2cMasterTransmitTimeout
ARM GAS  C:\Users\Mohamad\AppData\Local\Temp\ccIOqL5A.s 			page 7


 343              	.LVL22:
 344 013e 2860     		str	r0, [r5, #0]
 345              		.loc 1 62 0
 346 0140 3348     		ldr	r0, .L40+4
 347 0142 FFF7FEFF 		bl	i2cReleaseBus
 348              	.LVL23:
 349              		.loc 1 64 0
 350 0146 2178     		ldrb	r1, [r4, #0]	@ zero_extendqisi2
 351 0148 6278     		ldrb	r2, [r4, #1]	@ zero_extendqisi2
 352              		.loc 1 66 0
 353 014a 2B68     		ldr	r3, [r5, #0]
 354              		.loc 1 64 0
 355 014c 42EA0120 		orr	r0, r2, r1, lsl #8
 356              		.loc 1 65 0
 357 0150 0121     		movs	r1, #1
 358              		.loc 1 64 0
 359 0152 A8F80800 		strh	r0, [r8, #8]	@ movhi
 360              		.loc 1 65 0
 361 0156 3970     		strb	r1, [r7, #0]
 362              		.loc 1 66 0
 363 0158 002B     		cmp	r3, #0
 364 015a 32D1     		bne	.L38
 365              	.L14:
 366              	.LVL24:
 367              		.loc 1 59 0
 368 015c AC21     		movs	r1, #172
 369              		.loc 1 60 0
 370 015e 2C48     		ldr	r0, .L40+4
 371              		.loc 1 59 0
 372 0160 3170     		strb	r1, [r6, #0]
 373              		.loc 1 60 0
 374 0162 FFF7FEFF 		bl	i2cAcquireBus
 375              	.LVL25:
 376              		.loc 1 61 0
 377 0166 D9F80000 		ldr	r0, [r9, #0]
 378 016a 284A     		ldr	r2, .L40
 379 016c 0290     		str	r0, [sp, #8]
 380 016e 0226     		movs	r6, #2
 381 0170 7721     		movs	r1, #119
 382 0172 0123     		movs	r3, #1
 383 0174 0094     		str	r4, [sp, #0]
 384 0176 0196     		str	r6, [sp, #4]
 385 0178 2548     		ldr	r0, .L40+4
 386 017a FFF7FEFF 		bl	i2cMasterTransmitTimeout
 387              	.LVL26:
 388 017e 2860     		str	r0, [r5, #0]
 389              		.loc 1 62 0
 390 0180 2348     		ldr	r0, .L40+4
 391 0182 FFF7FEFF 		bl	i2cReleaseBus
 392              	.LVL27:
 393              		.loc 1 64 0
 394 0186 2178     		ldrb	r1, [r4, #0]	@ zero_extendqisi2
 395 0188 6278     		ldrb	r2, [r4, #1]	@ zero_extendqisi2
 396              		.loc 1 66 0
 397 018a 2B68     		ldr	r3, [r5, #0]
 398              		.loc 1 64 0
 399 018c 42EA0120 		orr	r0, r2, r1, lsl #8
ARM GAS  C:\Users\Mohamad\AppData\Local\Temp\ccIOqL5A.s 			page 8


 400              		.loc 1 65 0
 401 0190 0121     		movs	r1, #1
 402              		.loc 1 64 0
 403 0192 A8F80A00 		strh	r0, [r8, #10]	@ movhi
 404              		.loc 1 65 0
 405 0196 3970     		strb	r1, [r7, #0]
 406              		.loc 1 66 0
 407 0198 53B9     		cbnz	r3, .L39
 408              	.LVL28:
 409              	.L9:
 410              		.loc 1 72 0
 411 019a 05B0     		add	sp, sp, #20
 412 019c BDE8F083 		pop	{r4, r5, r6, r7, r8, r9, pc}
 413              	.LVL29:
 414              	.L34:
 415              		.loc 1 67 0
 416 01a0 1B48     		ldr	r0, .L40+4
 417 01a2 FFF7FEFF 		bl	i2cGetErrors
 418              	.LVL30:
 419 01a6 1E4A     		ldr	r2, .L40+20
 420              		.loc 1 68 0
 421 01a8 0023     		movs	r3, #0
 422              		.loc 1 67 0
 423 01aa 1060     		str	r0, [r2, #0]
 424              		.loc 1 68 0
 425 01ac 3B70     		strb	r3, [r7, #0]
 426 01ae 53E7     		b	.L10
 427              	.LVL31:
 428              	.L39:
 429              		.loc 1 67 0
 430 01b0 1748     		ldr	r0, .L40+4
 431 01b2 FFF7FEFF 		bl	i2cGetErrors
 432              	.LVL32:
 433 01b6 1A4A     		ldr	r2, .L40+20
 434              		.loc 1 68 0
 435 01b8 184B     		ldr	r3, .L40+16
 436              		.loc 1 67 0
 437 01ba 1060     		str	r0, [r2, #0]
 438              		.loc 1 68 0
 439 01bc 0020     		movs	r0, #0
 440 01be 1870     		strb	r0, [r3, #0]
 441              	.LVL33:
 442 01c0 EBE7     		b	.L9
 443              	.LVL34:
 444              	.L38:
 445              		.loc 1 67 0
 446 01c2 1348     		ldr	r0, .L40+4
 447 01c4 FFF7FEFF 		bl	i2cGetErrors
 448              	.LVL35:
 449 01c8 154A     		ldr	r2, .L40+20
 450              		.loc 1 68 0
 451 01ca 144B     		ldr	r3, .L40+16
 452              		.loc 1 67 0
 453 01cc 1060     		str	r0, [r2, #0]
 454              		.loc 1 68 0
 455 01ce 0020     		movs	r0, #0
 456 01d0 1870     		strb	r0, [r3, #0]
ARM GAS  C:\Users\Mohamad\AppData\Local\Temp\ccIOqL5A.s 			page 9


 457 01d2 C3E7     		b	.L14
 458              	.LVL36:
 459              	.L37:
 460              		.loc 1 67 0
 461 01d4 0E48     		ldr	r0, .L40+4
 462 01d6 FFF7FEFF 		bl	i2cGetErrors
 463              	.LVL37:
 464 01da 114A     		ldr	r2, .L40+20
 465              		.loc 1 68 0
 466 01dc 0F4B     		ldr	r3, .L40+16
 467              		.loc 1 67 0
 468 01de 1060     		str	r0, [r2, #0]
 469              		.loc 1 68 0
 470 01e0 0020     		movs	r0, #0
 471 01e2 1870     		strb	r0, [r3, #0]
 472 01e4 9AE7     		b	.L13
 473              	.LVL38:
 474              	.L36:
 475              		.loc 1 67 0
 476 01e6 0A48     		ldr	r0, .L40+4
 477 01e8 FFF7FEFF 		bl	i2cGetErrors
 478              	.LVL39:
 479 01ec 0C4A     		ldr	r2, .L40+20
 480              		.loc 1 68 0
 481 01ee 0B4B     		ldr	r3, .L40+16
 482              		.loc 1 67 0
 483 01f0 1060     		str	r0, [r2, #0]
 484              		.loc 1 68 0
 485 01f2 0020     		movs	r0, #0
 486 01f4 1870     		strb	r0, [r3, #0]
 487 01f6 71E7     		b	.L12
 488              	.LVL40:
 489              	.L35:
 490              		.loc 1 67 0
 491 01f8 0548     		ldr	r0, .L40+4
 492 01fa FFF7FEFF 		bl	i2cGetErrors
 493              	.LVL41:
 494 01fe 084A     		ldr	r2, .L40+20
 495              		.loc 1 68 0
 496 0200 064B     		ldr	r3, .L40+16
 497              		.loc 1 67 0
 498 0202 1060     		str	r0, [r2, #0]
 499              		.loc 1 68 0
 500 0204 0020     		movs	r0, #0
 501 0206 1870     		strb	r0, [r3, #0]
 502 0208 47E7     		b	.L11
 503              	.L41:
 504 020a 00BF     		.align	2
 505              	.L40:
 506 020c 00000000 		.word	.LANCHOR0
 507 0210 00000000 		.word	I2CD2
 508 0214 00000000 		.word	.LANCHOR1
 509 0218 00000000 		.word	.LANCHOR3
 510 021c 00000000 		.word	.LANCHOR4
 511 0220 00000000 		.word	.LANCHOR5
 512 0224 00000000 		.word	.LANCHOR2
 513 0228 00000000 		.word	.LANCHOR6
ARM GAS  C:\Users\Mohamad\AppData\Local\Temp\ccIOqL5A.s 			page 10


 514              		.cfi_endproc
 515              	.LFE119:
 516              		.size	baroReadPROM, .-baroReadPROM
 517 022c AFF30080 		.section	.text.startConversion,"ax",%progbits
 518              		.align	2
 519              		.p2align 4,,15
 520              		.global	startConversion
 521              		.thumb
 522              		.thumb_func
 523              		.type	startConversion, %function
 524              	startConversion:
 525              	.LFB120:
 526              		.loc 1 84 0
 527              		.cfi_startproc
 528              		@ args = 0, pretend = 0, frame = 0
 529              		@ frame_needed = 0, uses_anonymous_args = 0
 530              	.LVL42:
 531 0000 F0B5     		push	{r4, r5, r6, r7, lr}
 532              	.LCFI4:
 533              		.cfi_def_cfa_offset 20
 534              		.cfi_offset 4, -20
 535              		.cfi_offset 5, -16
 536              		.cfi_offset 6, -12
 537              		.cfi_offset 7, -8
 538              		.cfi_offset 14, -4
 539              		.loc 1 86 0
 540 0002 124D     		ldr	r5, .L47
 541              		.loc 1 88 0
 542 0004 124C     		ldr	r4, .L47+4
 543              		.loc 1 86 0
 544 0006 2870     		strb	r0, [r5, #0]
 545              		.loc 1 84 0
 546 0008 85B0     		sub	sp, sp, #20
 547              	.LCFI5:
 548              		.cfi_def_cfa_offset 40
 549              		.loc 1 87 0
 550 000a 1248     		ldr	r0, .L47+8
 551              	.LVL43:
 552              		.loc 1 90 0
 553 000c 124E     		ldr	r6, .L47+12
 554              		.loc 1 87 0
 555 000e FFF7FEFF 		bl	i2cAcquireBus
 556              	.LVL44:
 557              		.loc 1 88 0
 558 0012 124B     		ldr	r3, .L47+16
 559 0014 1249     		ldr	r1, .L47+20
 560 0016 1868     		ldr	r0, [r3, #0]
 561 0018 0091     		str	r1, [sp, #0]
 562 001a 0027     		movs	r7, #0
 563 001c 2A46     		mov	r2, r5
 564 001e 0123     		movs	r3, #1
 565 0020 7721     		movs	r1, #119
 566 0022 0290     		str	r0, [sp, #8]
 567 0024 0197     		str	r7, [sp, #4]
 568 0026 0B48     		ldr	r0, .L47+8
 569 0028 FFF7FEFF 		bl	i2cMasterTransmitTimeout
 570              	.LVL45:
ARM GAS  C:\Users\Mohamad\AppData\Local\Temp\ccIOqL5A.s 			page 11


 571 002c 2060     		str	r0, [r4, #0]
 572              		.loc 1 89 0
 573 002e 0948     		ldr	r0, .L47+8
 574 0030 FFF7FEFF 		bl	i2cReleaseBus
 575              	.LVL46:
 576              		.loc 1 91 0
 577 0034 2368     		ldr	r3, [r4, #0]
 578              		.loc 1 90 0
 579 0036 0122     		movs	r2, #1
 580 0038 3270     		strb	r2, [r6, #0]
 581              		.loc 1 91 0
 582 003a 2BB1     		cbz	r3, .L42
 583              	.LBB11:
 584              	.LBB12:
 585              		.loc 1 92 0
 586 003c 0548     		ldr	r0, .L47+8
 587 003e FFF7FEFF 		bl	i2cGetErrors
 588              	.LVL47:
 589 0042 0849     		ldr	r1, .L47+24
 590              		.loc 1 93 0
 591 0044 3770     		strb	r7, [r6, #0]
 592              		.loc 1 92 0
 593 0046 0860     		str	r0, [r1, #0]
 594              	.L42:
 595              	.LBE12:
 596              	.LBE11:
 597              		.loc 1 95 0
 598 0048 05B0     		add	sp, sp, #20
 599 004a F0BD     		pop	{r4, r5, r6, r7, pc}
 600              	.L48:
 601              		.align	2
 602              	.L47:
 603 004c 00000000 		.word	.LANCHOR0
 604 0050 00000000 		.word	.LANCHOR3
 605 0054 00000000 		.word	I2CD2
 606 0058 00000000 		.word	.LANCHOR4
 607 005c 00000000 		.word	.LANCHOR2
 608 0060 00000000 		.word	.LANCHOR1
 609 0064 00000000 		.word	.LANCHOR5
 610              		.cfi_endproc
 611              	.LFE120:
 612              		.size	startConversion, .-startConversion
 613 0068 AFF30080 		.section	.text.getRawPressure,"ax",%progbits
 613      AFF30080 
 614              		.align	2
 615              		.p2align 4,,15
 616              		.global	getRawPressure
 617              		.thumb
 618              		.thumb_func
 619              		.type	getRawPressure, %function
 620              	getRawPressure:
 621              	.LFB121:
 622              		.loc 1 104 0
 623              		.cfi_startproc
 624              		@ args = 0, pretend = 0, frame = 0
 625              		@ frame_needed = 0, uses_anonymous_args = 0
 626 0000 2DE9F041 		push	{r4, r5, r6, r7, r8, lr}
ARM GAS  C:\Users\Mohamad\AppData\Local\Temp\ccIOqL5A.s 			page 12


 627              	.LCFI6:
 628              		.cfi_def_cfa_offset 24
 629              		.cfi_offset 4, -24
 630              		.cfi_offset 5, -20
 631              		.cfi_offset 6, -16
 632              		.cfi_offset 7, -12
 633              		.cfi_offset 8, -8
 634              		.cfi_offset 14, -4
 635              		.loc 1 106 0
 636 0004 1A4F     		ldr	r7, .L54
 637              		.loc 1 107 0
 638 0006 1B48     		ldr	r0, .L54+4
 639              		.loc 1 108 0
 640 0008 1B4D     		ldr	r5, .L54+8
 641 000a 1C4E     		ldr	r6, .L54+12
 642              		.loc 1 110 0
 643 000c DFF87C80 		ldr	r8, .L54+28
 644              		.loc 1 104 0
 645 0010 84B0     		sub	sp, sp, #16
 646              	.LCFI7:
 647              		.cfi_def_cfa_offset 40
 648              		.loc 1 105 0
 649 0012 0024     		movs	r4, #0
 650              	.LVL48:
 651              		.loc 1 106 0
 652 0014 3C70     		strb	r4, [r7, #0]
 653              		.loc 1 107 0
 654 0016 FFF7FEFF 		bl	i2cAcquireBus
 655              	.LVL49:
 656              		.loc 1 108 0
 657 001a 194B     		ldr	r3, .L54+16
 658 001c 0095     		str	r5, [sp, #0]
 659 001e 1968     		ldr	r1, [r3, #0]
 660 0020 1448     		ldr	r0, .L54+4
 661 0022 0291     		str	r1, [sp, #8]
 662 0024 3A46     		mov	r2, r7
 663 0026 0327     		movs	r7, #3
 664 0028 7721     		movs	r1, #119
 665 002a 0123     		movs	r3, #1
 666 002c 0197     		str	r7, [sp, #4]
 667 002e FFF7FEFF 		bl	i2cMasterTransmitTimeout
 668              	.LVL50:
 669 0032 3060     		str	r0, [r6, #0]
 670              		.loc 1 109 0
 671 0034 0F48     		ldr	r0, .L54+4
 672 0036 FFF7FEFF 		bl	i2cReleaseBus
 673              	.LVL51:
 674              		.loc 1 111 0
 675 003a 3068     		ldr	r0, [r6, #0]
 676              		.loc 1 110 0
 677 003c 0122     		movs	r2, #1
 678 003e 88F80020 		strb	r2, [r8, #0]
 679              		.loc 1 111 0
 680 0042 30B1     		cbz	r0, .L50
 681              		.loc 1 112 0
 682 0044 0B48     		ldr	r0, .L54+4
 683 0046 FFF7FEFF 		bl	i2cGetErrors
ARM GAS  C:\Users\Mohamad\AppData\Local\Temp\ccIOqL5A.s 			page 13


 684              	.LVL52:
 685 004a 0E4B     		ldr	r3, .L54+20
 686              		.loc 1 113 0
 687 004c 88F80040 		strb	r4, [r8, #0]
 688              		.loc 1 112 0
 689 0050 1860     		str	r0, [r3, #0]
 690              	.L50:
 691              		.loc 1 116 0
 692 0052 2978     		ldrb	r1, [r5, #0]	@ zero_extendqisi2
 693              		.loc 1 117 0
 694 0054 6878     		ldrb	r0, [r5, #1]	@ zero_extendqisi2
 695              		.loc 1 118 0
 696 0056 AA78     		ldrb	r2, [r5, #2]	@ zero_extendqisi2
 697              		.loc 1 119 0
 698 0058 0B4B     		ldr	r3, .L54+24
 699              		.loc 1 116 0
 700 005a 61F31744 		bfi	r4, r1, #16, #8
 701              	.LVL53:
 702              		.loc 1 117 0
 703 005e 60F30F24 		bfi	r4, r0, #8, #8
 704              		.loc 1 118 0
 705 0062 62F30704 		bfi	r4, r2, #0, #8
 706              		.loc 1 119 0
 707 0066 1C60     		str	r4, [r3, #0]
 708              		.loc 1 121 0
 709 0068 2046     		mov	r0, r4
 710 006a 04B0     		add	sp, sp, #16
 711 006c BDE8F081 		pop	{r4, r5, r6, r7, r8, pc}
 712              	.L55:
 713              		.align	2
 714              	.L54:
 715 0070 00000000 		.word	.LANCHOR0
 716 0074 00000000 		.word	I2CD2
 717 0078 00000000 		.word	.LANCHOR1
 718 007c 00000000 		.word	.LANCHOR3
 719 0080 00000000 		.word	.LANCHOR2
 720 0084 00000000 		.word	.LANCHOR5
 721 0088 00000000 		.word	.LANCHOR7
 722 008c 00000000 		.word	.LANCHOR4
 723              		.cfi_endproc
 724              	.LFE121:
 725              		.size	getRawPressure, .-getRawPressure
 726              		.section	.text.getRawTemperature,"ax",%progbits
 727              		.align	2
 728              		.p2align 4,,15
 729              		.global	getRawTemperature
 730              		.thumb
 731              		.thumb_func
 732              		.type	getRawTemperature, %function
 733              	getRawTemperature:
 734              	.LFB122:
 735              		.loc 1 129 0
 736              		.cfi_startproc
 737              		@ args = 0, pretend = 0, frame = 0
 738              		@ frame_needed = 0, uses_anonymous_args = 0
 739 0000 2DE9F041 		push	{r4, r5, r6, r7, r8, lr}
 740              	.LCFI8:
ARM GAS  C:\Users\Mohamad\AppData\Local\Temp\ccIOqL5A.s 			page 14


 741              		.cfi_def_cfa_offset 24
 742              		.cfi_offset 4, -24
 743              		.cfi_offset 5, -20
 744              		.cfi_offset 6, -16
 745              		.cfi_offset 7, -12
 746              		.cfi_offset 8, -8
 747              		.cfi_offset 14, -4
 748              		.loc 1 131 0
 749 0004 1A4F     		ldr	r7, .L61
 750              		.loc 1 132 0
 751 0006 1B48     		ldr	r0, .L61+4
 752              		.loc 1 133 0
 753 0008 1B4D     		ldr	r5, .L61+8
 754 000a 1C4E     		ldr	r6, .L61+12
 755              		.loc 1 135 0
 756 000c DFF87C80 		ldr	r8, .L61+28
 757              		.loc 1 129 0
 758 0010 84B0     		sub	sp, sp, #16
 759              	.LCFI9:
 760              		.cfi_def_cfa_offset 40
 761              		.loc 1 130 0
 762 0012 0024     		movs	r4, #0
 763              	.LVL54:
 764              		.loc 1 131 0
 765 0014 3C70     		strb	r4, [r7, #0]
 766              		.loc 1 132 0
 767 0016 FFF7FEFF 		bl	i2cAcquireBus
 768              	.LVL55:
 769              		.loc 1 133 0
 770 001a 194B     		ldr	r3, .L61+16
 771 001c 0095     		str	r5, [sp, #0]
 772 001e 1968     		ldr	r1, [r3, #0]
 773 0020 1448     		ldr	r0, .L61+4
 774 0022 0291     		str	r1, [sp, #8]
 775 0024 3A46     		mov	r2, r7
 776 0026 0327     		movs	r7, #3
 777 0028 7721     		movs	r1, #119
 778 002a 0123     		movs	r3, #1
 779 002c 0197     		str	r7, [sp, #4]
 780 002e FFF7FEFF 		bl	i2cMasterTransmitTimeout
 781              	.LVL56:
 782 0032 3060     		str	r0, [r6, #0]
 783              		.loc 1 134 0
 784 0034 0F48     		ldr	r0, .L61+4
 785 0036 FFF7FEFF 		bl	i2cReleaseBus
 786              	.LVL57:
 787              		.loc 1 136 0
 788 003a 3068     		ldr	r0, [r6, #0]
 789              		.loc 1 135 0
 790 003c 0122     		movs	r2, #1
 791 003e 88F80020 		strb	r2, [r8, #0]
 792              		.loc 1 136 0
 793 0042 30B1     		cbz	r0, .L57
 794              		.loc 1 137 0
 795 0044 0B48     		ldr	r0, .L61+4
 796 0046 FFF7FEFF 		bl	i2cGetErrors
 797              	.LVL58:
ARM GAS  C:\Users\Mohamad\AppData\Local\Temp\ccIOqL5A.s 			page 15


 798 004a 0E4B     		ldr	r3, .L61+20
 799              		.loc 1 138 0
 800 004c 88F80040 		strb	r4, [r8, #0]
 801              		.loc 1 137 0
 802 0050 1860     		str	r0, [r3, #0]
 803              	.L57:
 804              		.loc 1 141 0
 805 0052 2978     		ldrb	r1, [r5, #0]	@ zero_extendqisi2
 806              		.loc 1 142 0
 807 0054 6878     		ldrb	r0, [r5, #1]	@ zero_extendqisi2
 808              		.loc 1 143 0
 809 0056 AA78     		ldrb	r2, [r5, #2]	@ zero_extendqisi2
 810              		.loc 1 144 0
 811 0058 0B4B     		ldr	r3, .L61+24
 812              		.loc 1 141 0
 813 005a 61F31744 		bfi	r4, r1, #16, #8
 814              	.LVL59:
 815              		.loc 1 142 0
 816 005e 60F30F24 		bfi	r4, r0, #8, #8
 817              		.loc 1 143 0
 818 0062 62F30704 		bfi	r4, r2, #0, #8
 819              		.loc 1 144 0
 820 0066 1C60     		str	r4, [r3, #0]
 821              		.loc 1 146 0
 822 0068 2046     		mov	r0, r4
 823 006a 04B0     		add	sp, sp, #16
 824 006c BDE8F081 		pop	{r4, r5, r6, r7, r8, pc}
 825              	.L62:
 826              		.align	2
 827              	.L61:
 828 0070 00000000 		.word	.LANCHOR0
 829 0074 00000000 		.word	I2CD2
 830 0078 00000000 		.word	.LANCHOR1
 831 007c 00000000 		.word	.LANCHOR3
 832 0080 00000000 		.word	.LANCHOR2
 833 0084 00000000 		.word	.LANCHOR5
 834 0088 00000000 		.word	.LANCHOR8
 835 008c 00000000 		.word	.LANCHOR4
 836              		.cfi_endproc
 837              	.LFE122:
 838              		.size	getRawTemperature, .-getRawTemperature
 839              		.global	__aeabi_l2d
 840              		.global	__aeabi_ddiv
 841              		.global	__aeabi_d2f
 842              		.global	__aeabi_fcmplt
 843              		.global	__aeabi_i2f
 844              		.global	__aeabi_fsub
 845              		.global	__aeabi_f2d
 846              		.global	__aeabi_dmul
 847              		.global	__aeabi_d2iz
 848              		.global	__aeabi_fadd
 849              		.global	__aeabi_i2d
 850              		.global	__aeabi_dadd
 851              		.global	__aeabi_f2uiz
 852              		.section	.text.getPressure,"ax",%progbits
 853              		.align	2
 854              		.p2align 4,,15
ARM GAS  C:\Users\Mohamad\AppData\Local\Temp\ccIOqL5A.s 			page 16


 855              		.global	getPressure
 856              		.thumb
 857              		.thumb_func
 858              		.type	getPressure, %function
 859              	getPressure:
 860              	.LFB123:
 861              		.loc 1 154 0
 862              		.cfi_startproc
 863              		@ args = 0, pretend = 0, frame = 24
 864              		@ frame_needed = 0, uses_anonymous_args = 0
 865              	.LVL60:
 866 0000 2DE9F04F 		push	{r4, r5, r6, r7, r8, r9, sl, fp, lr}
 867              	.LCFI10:
 868              		.cfi_def_cfa_offset 36
 869              		.cfi_offset 4, -36
 870              		.cfi_offset 5, -32
 871              		.cfi_offset 6, -28
 872              		.cfi_offset 7, -24
 873              		.cfi_offset 8, -20
 874              		.cfi_offset 9, -16
 875              		.cfi_offset 10, -12
 876              		.cfi_offset 11, -8
 877              		.cfi_offset 14, -4
 878 0004 87B0     		sub	sp, sp, #28
 879              	.LCFI11:
 880              		.cfi_def_cfa_offset 64
 881              	.LBB13:
 882              	.LBB14:
 883              		.loc 1 192 0
 884 0006 8A46     		mov	sl, r1
 885              	.LBE14:
 886              	.LBE13:
 887              		.loc 1 154 0
 888 0008 0190     		str	r0, [sp, #4]
 889              	.LVL61:
 890              	.LBB17:
 891              	.LBB15:
 892              		.loc 1 192 0
 893 000a 0029     		cmp	r1, #0
 894 000c 5BD0     		beq	.L69
 895              		.loc 1 193 0
 896 000e 634C     		ldr	r4, .L74
 897 0010 6089     		ldrh	r0, [r4, #10]
 898              	.LVL62:
 899 0012 81FB0001 		smull	r0, r1, r1, r0
 900 0016 C20D     		lsrs	r2, r0, #23
 901 0018 42EA4125 		orr	r5, r2, r1, lsl #9
 902 001c 4FF4FA66 		mov	r6, #2000
 903 0020 CB15     		asrs	r3, r1, #23
 904 0022 0021     		movs	r1, #0
 905              	.LVL63:
 906 0024 7019     		adds	r0, r6, r5
 907 0026 41EB0301 		adc	r1, r1, r3
 908 002a FFF7FEFF 		bl	__aeabi_l2d
 909              	.LVL64:
 910 002e 0023     		movs	r3, #0
 911 0030 0022     		movs	r2, #0
ARM GAS  C:\Users\Mohamad\AppData\Local\Temp\ccIOqL5A.s 			page 17


 912 0032 C4F25903 		movt	r3, 16473
 913 0036 FFF7FEFF 		bl	__aeabi_ddiv
 914              	.LVL65:
 915 003a FFF7FEFF 		bl	__aeabi_d2f
 916              	.LVL66:
 917 003e 8346     		mov	fp, r0
 918              	.L64:
 919              	.LBE15:
 920              	.LBE17:
 921              		.loc 1 159 0
 922 0040 B4F80680 		ldrh	r8, [r4, #6]
 923              		.loc 1 160 0
 924 0044 A788     		ldrh	r7, [r4, #4]
 925              		.loc 1 159 0
 926 0046 B4F802E0 		ldrh	lr, [r4, #2]
 927              		.loc 1 160 0
 928 004a 2088     		ldrh	r0, [r4, #0]
 929              		.loc 1 159 0
 930 004c 8AFB0889 		smull	r8, r9, sl, r8
 931              		.loc 1 160 0
 932 0050 8AFB0767 		smull	r6, r7, sl, r7
 933              		.loc 1 159 0
 934 0054 4FEAD814 		lsr	r4, r8, #7
 935              		.loc 1 160 0
 936 0058 320A     		lsrs	r2, r6, #8
 937              		.loc 1 159 0
 938 005a 44EA4964 		orr	r4, r4, r9, lsl #25
 939 005e 4FEA0E4C 		lsl	ip, lr, #16
 940              		.loc 1 160 0
 941 0062 C603     		lsls	r6, r0, #15
 942              		.loc 1 162 0
 943 0064 0021     		movs	r1, #0
 944              		.loc 1 159 0
 945 0066 4FEAE915 		asr	r5, r9, #7
 946              		.loc 1 160 0
 947 006a 3B12     		asrs	r3, r7, #8
 948 006c 42EA0762 		orr	r2, r2, r7, lsl #24
 949              		.loc 1 159 0
 950 0070 14EB0C08 		adds	r8, r4, ip
 951 0074 45F10009 		adc	r9, r5, #0
 952              	.LVL67:
 953              		.loc 1 162 0
 954 0078 C4F2A011 		movt	r1, 16800
 955              		.loc 1 160 0
 956 007c 9419     		adds	r4, r2, r6
 957              		.loc 1 162 0
 958 007e 5846     		mov	r0, fp
 959              		.loc 1 160 0
 960 0080 43F10005 		adc	r5, r3, #0
 961              	.LVL68:
 962              		.loc 1 162 0
 963 0084 FFF7FEFF 		bl	__aeabi_fcmplt
 964              	.LVL69:
 965 0088 08BB     		cbnz	r0, .L72
 966              	.LVL70:
 967              	.L65:
 968              		.loc 1 182 0
ARM GAS  C:\Users\Mohamad\AppData\Local\Temp\ccIOqL5A.s 			page 18


 969 008a 0198     		ldr	r0, [sp, #4]
 970 008c A0FB0423 		umull	r2, r3, r0, r4
 971 0090 00FB0533 		mla	r3, r0, r5, r3
 972 0094 540D     		lsrs	r4, r2, #21
 973              	.LVL71:
 974 0096 5D15     		asrs	r5, r3, #21
 975 0098 44EAC324 		orr	r4, r4, r3, lsl #11
 976 009c B4EB0804 		subs	r4, r4, r8
 977 00a0 65EB0905 		sbc	r5, r5, r9
 978 00a4 E20B     		lsrs	r2, r4, #15
 979 00a6 42EA4540 		orr	r0, r2, r5, lsl #17
 980 00aa E913     		asrs	r1, r5, #15
 981 00ac FFF7FEFF 		bl	__aeabi_l2d
 982              	.LVL72:
 983 00b0 0023     		movs	r3, #0
 984 00b2 0022     		movs	r2, #0
 985 00b4 C4F25903 		movt	r3, 16473
 986 00b8 FFF7FEFF 		bl	__aeabi_ddiv
 987              	.LVL73:
 988 00bc FFF7FEFF 		bl	__aeabi_d2f
 989              	.LVL74:
 990              		.loc 1 183 0
 991 00c0 07B0     		add	sp, sp, #28
 992 00c2 BDE8F08F 		pop	{r4, r5, r6, r7, r8, r9, sl, fp, pc}
 993              	.LVL75:
 994              	.L69:
 995              	.LBB18:
 996              	.LBB16:
 997              		.loc 1 195 0
 998 00c6 4FF0000B 		mov	fp, #0
 999 00ca 344C     		ldr	r4, .L74
 1000 00cc B8E7     		b	.L64
 1001              	.LVL76:
 1002              	.L72:
 1003              	.LBE16:
 1004              	.LBE18:
 1005              	.LBB19:
 1006              		.loc 1 166 0
 1007 00ce 0AFB0AF6 		mul	r6, sl, sl
 1008 00d2 F017     		asrs	r0, r6, #31
 1009 00d4 FFF7FEFF 		bl	__aeabi_i2f
 1010              	.LVL77:
 1011              		.loc 1 167 0
 1012 00d8 0021     		movs	r1, #0
 1013 00da C4F2FA41 		movt	r1, 17658
 1014              		.loc 1 166 0
 1015 00de 8246     		mov	sl, r0
 1016              	.LVL78:
 1017              		.loc 1 167 0
 1018 00e0 5846     		mov	r0, fp
 1019              	.LVL79:
 1020 00e2 FFF7FEFF 		bl	__aeabi_fsub
 1021              	.LVL80:
 1022 00e6 FFF7FEFF 		bl	__aeabi_f2d
 1023              	.LVL81:
 1024 00ea 0246     		mov	r2, r0
 1025 00ec 0B46     		mov	r3, r1
ARM GAS  C:\Users\Mohamad\AppData\Local\Temp\ccIOqL5A.s 			page 19


 1026 00ee FFF7FEFF 		bl	__aeabi_dmul
 1027              	.LVL82:
 1028 00f2 0023     		movs	r3, #0
 1029 00f4 0022     		movs	r2, #0
 1030 00f6 C4F21403 		movt	r3, 16404
 1031 00fa FFF7FEFF 		bl	__aeabi_dmul
 1032              	.LVL83:
 1033 00fe FFF7FEFF 		bl	__aeabi_d2iz
 1034              	.LVL84:
 1035              		.loc 1 172 0
 1036 0102 0021     		movs	r1, #0
 1037              		.loc 1 167 0
 1038 0104 0246     		mov	r2, r0
 1039              	.LVL85:
 1040              		.loc 1 172 0
 1041 0106 CCF27011 		movt	r1, 49520
 1042 010a 5846     		mov	r0, fp
 1043              	.LVL86:
 1044              		.loc 1 168 0
 1045 010c 5710     		asrs	r7, r2, #1
 1046              	.LVL87:
 1047              		.loc 1 170 0
 1048 010e 9610     		asrs	r6, r2, #2
 1049              	.LVL88:
 1050              		.loc 1 172 0
 1051 0110 FFF7FEFF 		bl	__aeabi_fcmplt
 1052              	.LVL89:
 1053 0114 78B9     		cbnz	r0, .L73
 1054              	.L67:
 1055              		.loc 1 178 0
 1056 0116 5146     		mov	r1, sl
 1057 0118 5846     		mov	r0, fp
 1058 011a FFF7FEFF 		bl	__aeabi_fsub
 1059              	.LVL90:
 1060 011e FFF7FEFF 		bl	__aeabi_f2uiz
 1061              	.LVL91:
 1062 0122 1F49     		ldr	r1, .L74+4
 1063              		.loc 1 179 0
 1064 0124 B8EB0708 		subs	r8, r8, r7
 1065 0128 69EBE779 		sbc	r9, r9, r7, asr #31
 1066              	.LVL92:
 1067              		.loc 1 178 0
 1068 012c 0860     		str	r0, [r1, #0]
 1069              		.loc 1 180 0
 1070 012e A41B     		subs	r4, r4, r6
 1071 0130 65EBE675 		sbc	r5, r5, r6, asr #31
 1072              	.LVL93:
 1073 0134 A9E7     		b	.L65
 1074              	.L73:
 1075              		.loc 1 174 0
 1076 0136 4FF40041 		mov	r1, #32768
 1077 013a C4F2BB41 		movt	r1, 17595
 1078 013e 5846     		mov	r0, fp
 1079 0140 FFF7FEFF 		bl	__aeabi_fadd
 1080              	.LVL94:
 1081 0144 FFF7FEFF 		bl	__aeabi_f2d
 1082              	.LVL95:
ARM GAS  C:\Users\Mohamad\AppData\Local\Temp\ccIOqL5A.s 			page 20


 1083 0148 0246     		mov	r2, r0
 1084 014a 0B46     		mov	r3, r1
 1085 014c FFF7FEFF 		bl	__aeabi_dmul
 1086              	.LVL96:
 1087 0150 CDE90201 		strd	r0, [sp, #8]
 1088 0154 3846     		mov	r0, r7
 1089 0156 FFF7FEFF 		bl	__aeabi_i2d
 1090              	.LVL97:
 1091 015a 0023     		movs	r3, #0
 1092 015c CDE90401 		strd	r0, [sp, #16]
 1093 0160 0022     		movs	r2, #0
 1094 0162 C4F21C03 		movt	r3, 16412
 1095 0166 DDE90201 		ldrd	r0, [sp, #8]
 1096 016a FFF7FEFF 		bl	__aeabi_dmul
 1097              	.LVL98:
 1098 016e 0246     		mov	r2, r0
 1099 0170 0B46     		mov	r3, r1
 1100 0172 DDE90401 		ldrd	r0, [sp, #16]
 1101 0176 FFF7FEFF 		bl	__aeabi_dadd
 1102              	.LVL99:
 1103 017a FFF7FEFF 		bl	__aeabi_d2iz
 1104              	.LVL100:
 1105              		.loc 1 175 0
 1106 017e 0023     		movs	r3, #0
 1107 0180 0022     		movs	r2, #0
 1108 0182 C4F22603 		movt	r3, 16422
 1109              		.loc 1 174 0
 1110 0186 0746     		mov	r7, r0
 1111              	.LVL101:
 1112              		.loc 1 175 0
 1113 0188 DDE90201 		ldrd	r0, [sp, #8]
 1114              	.LVL102:
 1115 018c FFF7FEFF 		bl	__aeabi_dmul
 1116              	.LVL103:
 1117 0190 FFF7FEFF 		bl	__aeabi_d2iz
 1118              	.LVL104:
 1119 0194 06EBA006 		add	r6, r6, r0, asr #2
 1120              	.LVL105:
 1121 0198 BDE7     		b	.L67
 1122              	.L75:
 1123 019a 00BF     		.align	2
 1124              	.L74:
 1125 019c 00000000 		.word	.LANCHOR6
 1126 01a0 00000000 		.word	.LANCHOR8
 1127              	.LBE19:
 1128              		.cfi_endproc
 1129              	.LFE123:
 1130              		.size	getPressure, .-getPressure
 1131 01a4 AFF30080 		.section	.text.getTemperature,"ax",%progbits
 1131      AFF30080 
 1131      AFF30080 
 1132              		.align	2
 1133              		.p2align 4,,15
 1134              		.global	getTemperature
 1135              		.thumb
 1136              		.thumb_func
 1137              		.type	getTemperature, %function
ARM GAS  C:\Users\Mohamad\AppData\Local\Temp\ccIOqL5A.s 			page 21


 1138              	getTemperature:
 1139              	.LFB124:
 1140              		.loc 1 190 0
 1141              		.cfi_startproc
 1142              		@ args = 0, pretend = 0, frame = 0
 1143              		@ frame_needed = 0, uses_anonymous_args = 0
 1144              	.LVL106:
 1145 0000 08B5     		push	{r3, lr}
 1146              	.LCFI12:
 1147              		.cfi_def_cfa_offset 8
 1148              		.cfi_offset 3, -8
 1149              		.cfi_offset 14, -4
 1150              		.loc 1 192 0
 1151 0002 C0B1     		cbz	r0, .L78
 1152              		.loc 1 193 0
 1153 0004 0D4B     		ldr	r3, .L79
 1154 0006 5989     		ldrh	r1, [r3, #10]
 1155 0008 80FB0101 		smull	r0, r1, r0, r1
 1156              	.LVL107:
 1157 000c C20D     		lsrs	r2, r0, #23
 1158 000e 42EA4122 		orr	r2, r2, r1, lsl #9
 1159 0012 4FF4FA60 		mov	r0, #2000
 1160 0016 CB15     		asrs	r3, r1, #23
 1161 0018 0021     		movs	r1, #0
 1162 001a 8018     		adds	r0, r0, r2
 1163 001c 41EB0301 		adc	r1, r1, r3
 1164 0020 FFF7FEFF 		bl	__aeabi_l2d
 1165              	.LVL108:
 1166 0024 0023     		movs	r3, #0
 1167 0026 0022     		movs	r2, #0
 1168 0028 C4F25903 		movt	r3, 16473
 1169 002c FFF7FEFF 		bl	__aeabi_ddiv
 1170              	.LVL109:
 1171 0030 FFF7FEFF 		bl	__aeabi_d2f
 1172              	.LVL110:
 1173 0034 08BD     		pop	{r3, pc}
 1174              	.LVL111:
 1175              	.L78:
 1176              		.loc 1 195 0
 1177 0036 0020     		movs	r0, #0
 1178              	.LVL112:
 1179              		.loc 1 196 0
 1180 0038 08BD     		pop	{r3, pc}
 1181              	.L80:
 1182 003a 00BF     		.align	2
 1183              	.L79:
 1184 003c 00000000 		.word	.LANCHOR6
 1185              		.cfi_endproc
 1186              	.LFE124:
 1187              		.size	getTemperature, .-getTemperature
 1188              		.section	.text.getDeltaTemp,"ax",%progbits
 1189              		.align	2
 1190              		.p2align 4,,15
 1191              		.global	getDeltaTemp
 1192              		.thumb
 1193              		.thumb_func
 1194              		.type	getDeltaTemp, %function
ARM GAS  C:\Users\Mohamad\AppData\Local\Temp\ccIOqL5A.s 			page 22


 1195              	getDeltaTemp:
 1196              	.LFB125:
 1197              		.loc 1 203 0
 1198              		.cfi_startproc
 1199              		@ args = 0, pretend = 0, frame = 0
 1200              		@ frame_needed = 0, uses_anonymous_args = 0
 1201              		@ link register save eliminated.
 1202              	.LVL113:
 1203              		.loc 1 205 0
 1204 0000 18B1     		cbz	r0, .L82
 1205              		.loc 1 206 0
 1206 0002 024B     		ldr	r3, .L84
 1207 0004 1989     		ldrh	r1, [r3, #8]
 1208 0006 A0EB0120 		sub	r0, r0, r1, lsl #8
 1209              	.LVL114:
 1210              	.L82:
 1211              		.loc 1 210 0
 1212 000a 7047     		bx	lr
 1213              	.L85:
 1214              		.align	2
 1215              	.L84:
 1216 000c 00000000 		.word	.LANCHOR6
 1217              		.cfi_endproc
 1218              	.LFE125:
 1219              		.size	getDeltaTemp, .-getDeltaTemp
 1220              		.global	__aeabi_fdiv
 1221              		.global	__aeabi_dsub
 1222              		.section	.text.getAltitude,"ax",%progbits
 1223              		.align	2
 1224              		.p2align 4,,15
 1225              		.global	getAltitude
 1226              		.thumb
 1227              		.thumb_func
 1228              		.type	getAltitude, %function
 1229              	getAltitude:
 1230              	.LFB126:
 1231              		.loc 1 216 0
 1232              		.cfi_startproc
 1233              		@ args = 0, pretend = 0, frame = 0
 1234              		@ frame_needed = 0, uses_anonymous_args = 0
 1235              	.LVL115:
 1236 0000 0346     		mov	r3, r0
 1237              		.loc 1 218 0
 1238 0002 4FF4A040 		mov	r0, #20480
 1239              	.LVL116:
 1240              		.loc 1 216 0
 1241 0006 70B5     		push	{r4, r5, r6, lr}
 1242              	.LCFI13:
 1243              		.cfi_def_cfa_offset 16
 1244              		.cfi_offset 4, -16
 1245              		.cfi_offset 5, -12
 1246              		.cfi_offset 6, -8
 1247              		.cfi_offset 14, -4
 1248              		.loc 1 218 0
 1249 0008 C4F27D40 		movt	r0, 17533
 1250              		.loc 1 216 0
 1251 000c 0E46     		mov	r6, r1
ARM GAS  C:\Users\Mohamad\AppData\Local\Temp\ccIOqL5A.s 			page 23


 1252              		.loc 1 218 0
 1253 000e 1946     		mov	r1, r3
 1254              	.LVL117:
 1255 0010 FFF7FEFF 		bl	__aeabi_fdiv
 1256              	.LVL118:
 1257 0014 FFF7FEFF 		bl	__aeabi_f2d
 1258              	.LVL119:
 1259 0018 11A3     		adr	r3, .L87
 1260 001a D3E90023 		ldrd	r2, [r3]
 1261 001e FFF7FEFF 		bl	pow
 1262              	.LVL120:
 1263 0022 0023     		movs	r3, #0
 1264 0024 0022     		movs	r2, #0
 1265 0026 C3F6F073 		movt	r3, 16368
 1266 002a FFF7FEFF 		bl	__aeabi_dsub
 1267              	.LVL121:
 1268 002e 0446     		mov	r4, r0
 1269 0030 3046     		mov	r0, r6
 1270 0032 0D46     		mov	r5, r1
 1271 0034 FFF7FEFF 		bl	__aeabi_f2d
 1272              	.LVL122:
 1273 0038 0BA3     		adr	r3, .L87+8
 1274 003a D3E90023 		ldrd	r2, [r3]
 1275 003e FFF7FEFF 		bl	__aeabi_dadd
 1276              	.LVL123:
 1277 0042 0246     		mov	r2, r0
 1278 0044 0B46     		mov	r3, r1
 1279 0046 2046     		mov	r0, r4
 1280 0048 2946     		mov	r1, r5
 1281 004a FFF7FEFF 		bl	__aeabi_dmul
 1282              	.LVL124:
 1283 004e 08A3     		adr	r3, .L87+16
 1284 0050 D3E90023 		ldrd	r2, [r3]
 1285 0054 FFF7FEFF 		bl	__aeabi_ddiv
 1286              	.LVL125:
 1287 0058 FFF7FEFF 		bl	__aeabi_d2f
 1288              	.LVL126:
 1289              		.loc 1 219 0
 1290 005c 70BD     		pop	{r4, r5, r6, pc}
 1291              	.L88:
 1292 005e 00BF     		.align	3
 1293              	.L87:
 1294 0060 00000000 		.word	0
 1295 0064 3659C83F 		.word	1070094646
 1296 0068 66666666 		.word	1717986918
 1297 006c 66127140 		.word	1081152102
 1298 0070 39B4C876 		.word	1992864825
 1299 0074 BE9F7A3F 		.word	1065000894
 1300              		.cfi_endproc
 1301              	.LFE126:
 1302              		.size	getAltitude, .-getAltitude
 1303 0078 AFF30080 		.section	.text.getAvg,"ax",%progbits
 1303      AFF30080 
 1304              		.align	2
 1305              		.p2align 4,,15
 1306              		.global	getAvg
 1307              		.thumb
ARM GAS  C:\Users\Mohamad\AppData\Local\Temp\ccIOqL5A.s 			page 24


 1308              		.thumb_func
 1309              		.type	getAvg, %function
 1310              	getAvg:
 1311              	.LFB127:
 1312              		.loc 1 224 0
 1313              		.cfi_startproc
 1314              		@ args = 0, pretend = 0, frame = 0
 1315              		@ frame_needed = 0, uses_anonymous_args = 0
 1316              	.LVL127:
 1317 0000 2DE9F041 		push	{r4, r5, r6, r7, r8, lr}
 1318              	.LCFI14:
 1319              		.cfi_def_cfa_offset 24
 1320              		.cfi_offset 4, -24
 1321              		.cfi_offset 5, -20
 1322              		.cfi_offset 6, -16
 1323              		.cfi_offset 7, -12
 1324              		.cfi_offset 8, -8
 1325              		.cfi_offset 14, -4
 1326              		.loc 1 227 0
 1327 0004 B1F10008 		subs	r8, r1, #0
 1328 0008 2CDD     		ble	.L92
 1329              		.loc 1 228 0
 1330 000a 0446     		mov	r4, r0
 1331              		.loc 1 224 0
 1332 000c 00EB8807 		add	r7, r0, r8, lsl #2
 1333 0010 3B1A     		subs	r3, r7, r0
 1334 0012 1A1F     		subs	r2, r3, #4
 1335              		.loc 1 228 0
 1336 0014 54F8041B 		ldr	r1, [r4], #4	@ float
 1337              	.LVL128:
 1338 0018 0020     		movs	r0, #0
 1339              	.LVL129:
 1340 001a C2F38005 		ubfx	r5, r2, #2, #1
 1341 001e FFF7FEFF 		bl	__aeabi_fadd
 1342              	.LVL130:
 1343              		.loc 1 227 0
 1344 0022 BC42     		cmp	r4, r7
 1345              		.loc 1 228 0
 1346 0024 0646     		mov	r6, r0
 1347              	.LVL131:
 1348              		.loc 1 227 0
 1349 0026 14D0     		beq	.L90
 1350 0028 35B1     		cbz	r5, .L91
 1351              		.loc 1 228 0
 1352 002a 54F8041B 		ldr	r1, [r4], #4	@ float
 1353              	.LVL132:
 1354 002e FFF7FEFF 		bl	__aeabi_fadd
 1355              	.LVL133:
 1356              		.loc 1 227 0
 1357 0032 BC42     		cmp	r4, r7
 1358              		.loc 1 228 0
 1359 0034 0646     		mov	r6, r0
 1360              		.loc 1 227 0
 1361 0036 0CD0     		beq	.L90
 1362              	.LVL134:
 1363              	.L91:
 1364              		.loc 1 228 0 discriminator 2
ARM GAS  C:\Users\Mohamad\AppData\Local\Temp\ccIOqL5A.s 			page 25


 1365 0038 2546     		mov	r5, r4
 1366 003a 3046     		mov	r0, r6
 1367 003c 55F8041B 		ldr	r1, [r5], #4	@ float
 1368 0040 FFF7FEFF 		bl	__aeabi_fadd
 1369              	.LVL135:
 1370 0044 6168     		ldr	r1, [r4, #4]	@ float
 1371 0046 FFF7FEFF 		bl	__aeabi_fadd
 1372              	.LVL136:
 1373 004a 2C1D     		adds	r4, r5, #4
 1374              		.loc 1 227 0 discriminator 2
 1375 004c BC42     		cmp	r4, r7
 1376              		.loc 1 228 0 discriminator 2
 1377 004e 0646     		mov	r6, r0
 1378              		.loc 1 227 0 discriminator 2
 1379 0050 F2D1     		bne	.L91
 1380              	.L90:
 1381              		.loc 1 230 0
 1382 0052 4046     		mov	r0, r8
 1383 0054 FFF7FEFF 		bl	__aeabi_i2f
 1384              	.LVL137:
 1385 0058 0146     		mov	r1, r0
 1386 005a 3046     		mov	r0, r6
 1387 005c FFF7FEFF 		bl	__aeabi_fdiv
 1388              	.LVL138:
 1389              		.loc 1 231 0
 1390 0060 BDE8F081 		pop	{r4, r5, r6, r7, r8, pc}
 1391              	.LVL139:
 1392              	.L92:
 1393              		.loc 1 225 0
 1394 0064 0026     		movs	r6, #0
 1395 0066 F4E7     		b	.L90
 1396              		.cfi_endproc
 1397              	.LFE127:
 1398              		.size	getAvg, .-getAvg
 1399 0068 AFF30080 		.section	.text.Calc_homeAlt,"ax",%progbits
 1399      AFF30080 
 1400              		.align	2
 1401              		.p2align 4,,15
 1402              		.global	Calc_homeAlt
 1403              		.thumb
 1404              		.thumb_func
 1405              		.type	Calc_homeAlt, %function
 1406              	Calc_homeAlt:
 1407              	.LFB128:
 1408              		.loc 1 239 0
 1409              		.cfi_startproc
 1410              		@ args = 0, pretend = 0, frame = 0
 1411              		@ frame_needed = 0, uses_anonymous_args = 0
 1412              	.LVL140:
 1413 0000 F8B5     		push	{r3, r4, r5, r6, r7, lr}
 1414              	.LCFI15:
 1415              		.cfi_def_cfa_offset 24
 1416              		.cfi_offset 3, -24
 1417              		.cfi_offset 4, -20
 1418              		.cfi_offset 5, -16
 1419              		.cfi_offset 6, -12
 1420              		.cfi_offset 7, -8
ARM GAS  C:\Users\Mohamad\AppData\Local\Temp\ccIOqL5A.s 			page 26


 1421              		.cfi_offset 14, -4
 1422              		.loc 1 245 0
 1423 0002 5820     		movs	r0, #88
 1424 0004 FFF7FEFF 		bl	startConversion
 1425              	.LVL141:
 1426              		.loc 1 246 0
 1427 0008 0A20     		movs	r0, #10
 1428 000a FFF7FEFF 		bl	chThdSleep
 1429              	.LVL142:
 1430              		.loc 1 247 0
 1431 000e FFF7FEFF 		bl	getRawTemperature
 1432              	.LVL143:
 1433              	.LBB20:
 1434              	.LBB21:
 1435              		.loc 1 205 0
 1436 0012 0028     		cmp	r0, #0
 1437 0014 00F05281 		beq	.L112
 1438              		.loc 1 206 0
 1439 0018 BB4B     		ldr	r3, .L123
 1440 001a 1989     		ldrh	r1, [r3, #8]
 1441 001c A0EB0124 		sub	r4, r0, r1, lsl #8
 1442              	.L101:
 1443              	.LVL144:
 1444              	.LBE21:
 1445              	.LBE20:
 1446              		.loc 1 248 0
 1447 0020 4820     		movs	r0, #72
 1448              	.LVL145:
 1449 0022 FFF7FEFF 		bl	startConversion
 1450              	.LVL146:
 1451              		.loc 1 249 0
 1452 0026 0A20     		movs	r0, #10
 1453 0028 FFF7FEFF 		bl	chThdSleep
 1454              	.LVL147:
 1455              		.loc 1 250 0
 1456 002c FFF7FEFF 		bl	getRawPressure
 1457              	.LVL148:
 1458 0030 2146     		mov	r1, r4
 1459 0032 FFF7FEFF 		bl	getPressure
 1460              	.LVL149:
 1461 0036 0021     		movs	r1, #0
 1462 0038 FFF7FEFF 		bl	__aeabi_fadd
 1463              	.LVL150:
 1464 003c 0646     		mov	r6, r0
 1465              	.LVL151:
 1466              		.loc 1 245 0
 1467 003e 5820     		movs	r0, #88
 1468              	.LVL152:
 1469 0040 FFF7FEFF 		bl	startConversion
 1470              	.LVL153:
 1471              		.loc 1 246 0
 1472 0044 0A20     		movs	r0, #10
 1473 0046 FFF7FEFF 		bl	chThdSleep
 1474              	.LVL154:
 1475              		.loc 1 247 0
 1476 004a FFF7FEFF 		bl	getRawTemperature
 1477              	.LVL155:
ARM GAS  C:\Users\Mohamad\AppData\Local\Temp\ccIOqL5A.s 			page 27


 1478              	.LBB34:
 1479              	.LBB22:
 1480              		.loc 1 205 0
 1481 004e 0028     		cmp	r0, #0
 1482 0050 00F05581 		beq	.L113
 1483              		.loc 1 206 0
 1484 0054 AC4A     		ldr	r2, .L123
 1485 0056 1489     		ldrh	r4, [r2, #8]
 1486              	.LVL156:
 1487 0058 A0EB0425 		sub	r5, r0, r4, lsl #8
 1488              	.L102:
 1489              	.LBE22:
 1490              	.LBE34:
 1491              		.loc 1 248 0
 1492 005c 4820     		movs	r0, #72
 1493              	.LVL157:
 1494 005e FFF7FEFF 		bl	startConversion
 1495              	.LVL158:
 1496              		.loc 1 249 0
 1497 0062 0A20     		movs	r0, #10
 1498 0064 FFF7FEFF 		bl	chThdSleep
 1499              	.LVL159:
 1500              		.loc 1 250 0
 1501 0068 FFF7FEFF 		bl	getRawPressure
 1502              	.LVL160:
 1503 006c 2946     		mov	r1, r5
 1504 006e FFF7FEFF 		bl	getPressure
 1505              	.LVL161:
 1506 0072 0146     		mov	r1, r0
 1507 0074 3046     		mov	r0, r6
 1508 0076 FFF7FEFF 		bl	__aeabi_fadd
 1509              	.LVL162:
 1510 007a 0646     		mov	r6, r0
 1511              	.LVL163:
 1512              		.loc 1 245 0
 1513 007c 5820     		movs	r0, #88
 1514              	.LVL164:
 1515 007e FFF7FEFF 		bl	startConversion
 1516              	.LVL165:
 1517              		.loc 1 246 0
 1518 0082 0A20     		movs	r0, #10
 1519 0084 FFF7FEFF 		bl	chThdSleep
 1520              	.LVL166:
 1521              		.loc 1 247 0
 1522 0088 FFF7FEFF 		bl	getRawTemperature
 1523              	.LVL167:
 1524              	.LBB35:
 1525              	.LBB23:
 1526              		.loc 1 205 0
 1527 008c 0028     		cmp	r0, #0
 1528 008e 00F03481 		beq	.L114
 1529              		.loc 1 206 0
 1530 0092 9D4B     		ldr	r3, .L123
 1531 0094 1989     		ldrh	r1, [r3, #8]
 1532 0096 A0EB0125 		sub	r5, r0, r1, lsl #8
 1533              	.LVL168:
 1534              	.L103:
ARM GAS  C:\Users\Mohamad\AppData\Local\Temp\ccIOqL5A.s 			page 28


 1535              	.LBE23:
 1536              	.LBE35:
 1537              		.loc 1 248 0
 1538 009a 4820     		movs	r0, #72
 1539              	.LVL169:
 1540 009c FFF7FEFF 		bl	startConversion
 1541              	.LVL170:
 1542              		.loc 1 249 0
 1543 00a0 0A20     		movs	r0, #10
 1544 00a2 FFF7FEFF 		bl	chThdSleep
 1545              	.LVL171:
 1546              		.loc 1 250 0
 1547 00a6 FFF7FEFF 		bl	getRawPressure
 1548              	.LVL172:
 1549 00aa 2946     		mov	r1, r5
 1550 00ac FFF7FEFF 		bl	getPressure
 1551              	.LVL173:
 1552 00b0 0146     		mov	r1, r0
 1553 00b2 3046     		mov	r0, r6
 1554 00b4 FFF7FEFF 		bl	__aeabi_fadd
 1555              	.LVL174:
 1556 00b8 0446     		mov	r4, r0
 1557              	.LVL175:
 1558              		.loc 1 245 0
 1559 00ba 5820     		movs	r0, #88
 1560              	.LVL176:
 1561 00bc FFF7FEFF 		bl	startConversion
 1562              	.LVL177:
 1563              		.loc 1 246 0
 1564 00c0 0A20     		movs	r0, #10
 1565 00c2 FFF7FEFF 		bl	chThdSleep
 1566              	.LVL178:
 1567              		.loc 1 247 0
 1568 00c6 FFF7FEFF 		bl	getRawTemperature
 1569              	.LVL179:
 1570              	.LBB36:
 1571              	.LBB24:
 1572              		.loc 1 205 0
 1573 00ca 0028     		cmp	r0, #0
 1574 00cc 00F01381 		beq	.L115
 1575              		.loc 1 206 0
 1576 00d0 8D4A     		ldr	r2, .L123
 1577 00d2 1589     		ldrh	r5, [r2, #8]
 1578              	.LVL180:
 1579 00d4 A0EB0526 		sub	r6, r0, r5, lsl #8
 1580              	.L104:
 1581              	.LBE24:
 1582              	.LBE36:
 1583              		.loc 1 248 0
 1584 00d8 4820     		movs	r0, #72
 1585              	.LVL181:
 1586 00da FFF7FEFF 		bl	startConversion
 1587              	.LVL182:
 1588              		.loc 1 249 0
 1589 00de 0A20     		movs	r0, #10
 1590 00e0 FFF7FEFF 		bl	chThdSleep
 1591              	.LVL183:
ARM GAS  C:\Users\Mohamad\AppData\Local\Temp\ccIOqL5A.s 			page 29


 1592              		.loc 1 250 0
 1593 00e4 FFF7FEFF 		bl	getRawPressure
 1594              	.LVL184:
 1595 00e8 3146     		mov	r1, r6
 1596 00ea FFF7FEFF 		bl	getPressure
 1597              	.LVL185:
 1598 00ee 0146     		mov	r1, r0
 1599 00f0 2046     		mov	r0, r4
 1600 00f2 FFF7FEFF 		bl	__aeabi_fadd
 1601              	.LVL186:
 1602 00f6 0446     		mov	r4, r0
 1603              	.LVL187:
 1604              		.loc 1 245 0
 1605 00f8 5820     		movs	r0, #88
 1606              	.LVL188:
 1607 00fa FFF7FEFF 		bl	startConversion
 1608              	.LVL189:
 1609              		.loc 1 246 0
 1610 00fe 0A20     		movs	r0, #10
 1611 0100 FFF7FEFF 		bl	chThdSleep
 1612              	.LVL190:
 1613              		.loc 1 247 0
 1614 0104 FFF7FEFF 		bl	getRawTemperature
 1615              	.LVL191:
 1616              	.LBB37:
 1617              	.LBB25:
 1618              		.loc 1 205 0
 1619 0108 0028     		cmp	r0, #0
 1620 010a 00F0F280 		beq	.L116
 1621              		.loc 1 206 0
 1622 010e 7E4B     		ldr	r3, .L123
 1623 0110 1989     		ldrh	r1, [r3, #8]
 1624 0112 A0EB0126 		sub	r6, r0, r1, lsl #8
 1625              	.LVL192:
 1626              	.L105:
 1627              	.LBE25:
 1628              	.LBE37:
 1629              		.loc 1 248 0
 1630 0116 4820     		movs	r0, #72
 1631              	.LVL193:
 1632 0118 FFF7FEFF 		bl	startConversion
 1633              	.LVL194:
 1634              		.loc 1 249 0
 1635 011c 0A20     		movs	r0, #10
 1636 011e FFF7FEFF 		bl	chThdSleep
 1637              	.LVL195:
 1638              		.loc 1 250 0
 1639 0122 FFF7FEFF 		bl	getRawPressure
 1640              	.LVL196:
 1641 0126 3146     		mov	r1, r6
 1642 0128 FFF7FEFF 		bl	getPressure
 1643              	.LVL197:
 1644 012c 0146     		mov	r1, r0
 1645 012e 2046     		mov	r0, r4
 1646 0130 FFF7FEFF 		bl	__aeabi_fadd
 1647              	.LVL198:
 1648 0134 0446     		mov	r4, r0
ARM GAS  C:\Users\Mohamad\AppData\Local\Temp\ccIOqL5A.s 			page 30


 1649              	.LVL199:
 1650              		.loc 1 245 0
 1651 0136 5820     		movs	r0, #88
 1652              	.LVL200:
 1653 0138 FFF7FEFF 		bl	startConversion
 1654              	.LVL201:
 1655              		.loc 1 246 0
 1656 013c 0A20     		movs	r0, #10
 1657 013e FFF7FEFF 		bl	chThdSleep
 1658              	.LVL202:
 1659              		.loc 1 247 0
 1660 0142 FFF7FEFF 		bl	getRawTemperature
 1661              	.LVL203:
 1662              	.LBB38:
 1663              	.LBB26:
 1664              		.loc 1 205 0
 1665 0146 0028     		cmp	r0, #0
 1666 0148 00F0D180 		beq	.L117
 1667              		.loc 1 206 0
 1668 014c 6E4A     		ldr	r2, .L123
 1669 014e 1689     		ldrh	r6, [r2, #8]
 1670              	.LVL204:
 1671 0150 A0EB0625 		sub	r5, r0, r6, lsl #8
 1672              	.L106:
 1673              	.LBE26:
 1674              	.LBE38:
 1675              		.loc 1 248 0
 1676 0154 4820     		movs	r0, #72
 1677              	.LVL205:
 1678 0156 FFF7FEFF 		bl	startConversion
 1679              	.LVL206:
 1680              		.loc 1 249 0
 1681 015a 0A20     		movs	r0, #10
 1682 015c FFF7FEFF 		bl	chThdSleep
 1683              	.LVL207:
 1684              		.loc 1 250 0
 1685 0160 FFF7FEFF 		bl	getRawPressure
 1686              	.LVL208:
 1687 0164 2946     		mov	r1, r5
 1688 0166 FFF7FEFF 		bl	getPressure
 1689              	.LVL209:
 1690 016a 0146     		mov	r1, r0
 1691 016c 2046     		mov	r0, r4
 1692 016e FFF7FEFF 		bl	__aeabi_fadd
 1693              	.LVL210:
 1694 0172 0446     		mov	r4, r0
 1695              	.LVL211:
 1696              		.loc 1 245 0
 1697 0174 5820     		movs	r0, #88
 1698              	.LVL212:
 1699 0176 FFF7FEFF 		bl	startConversion
 1700              	.LVL213:
 1701              		.loc 1 246 0
 1702 017a 0A20     		movs	r0, #10
 1703 017c FFF7FEFF 		bl	chThdSleep
 1704              	.LVL214:
 1705              		.loc 1 247 0
ARM GAS  C:\Users\Mohamad\AppData\Local\Temp\ccIOqL5A.s 			page 31


 1706 0180 FFF7FEFF 		bl	getRawTemperature
 1707              	.LVL215:
 1708              	.LBB39:
 1709              	.LBB27:
 1710              		.loc 1 205 0
 1711 0184 0028     		cmp	r0, #0
 1712 0186 00F0B080 		beq	.L118
 1713              		.loc 1 206 0
 1714 018a 5F4B     		ldr	r3, .L123
 1715 018c 1989     		ldrh	r1, [r3, #8]
 1716 018e A0EB0125 		sub	r5, r0, r1, lsl #8
 1717              	.LVL216:
 1718              	.L107:
 1719              	.LBE27:
 1720              	.LBE39:
 1721              		.loc 1 248 0
 1722 0192 4820     		movs	r0, #72
 1723              	.LVL217:
 1724 0194 FFF7FEFF 		bl	startConversion
 1725              	.LVL218:
 1726              		.loc 1 249 0
 1727 0198 0A20     		movs	r0, #10
 1728 019a FFF7FEFF 		bl	chThdSleep
 1729              	.LVL219:
 1730              		.loc 1 250 0
 1731 019e FFF7FEFF 		bl	getRawPressure
 1732              	.LVL220:
 1733 01a2 2946     		mov	r1, r5
 1734 01a4 FFF7FEFF 		bl	getPressure
 1735              	.LVL221:
 1736 01a8 0146     		mov	r1, r0
 1737 01aa 2046     		mov	r0, r4
 1738 01ac FFF7FEFF 		bl	__aeabi_fadd
 1739              	.LVL222:
 1740 01b0 0646     		mov	r6, r0
 1741              	.LVL223:
 1742              		.loc 1 245 0
 1743 01b2 5820     		movs	r0, #88
 1744              	.LVL224:
 1745 01b4 FFF7FEFF 		bl	startConversion
 1746              	.LVL225:
 1747              		.loc 1 246 0
 1748 01b8 0A20     		movs	r0, #10
 1749 01ba FFF7FEFF 		bl	chThdSleep
 1750              	.LVL226:
 1751              		.loc 1 247 0
 1752 01be FFF7FEFF 		bl	getRawTemperature
 1753              	.LVL227:
 1754              	.LBB40:
 1755              	.LBB28:
 1756              		.loc 1 205 0
 1757 01c2 0028     		cmp	r0, #0
 1758 01c4 00F08F80 		beq	.L119
 1759              		.loc 1 206 0
 1760 01c8 4F4A     		ldr	r2, .L123
 1761 01ca 1589     		ldrh	r5, [r2, #8]
 1762              	.LVL228:
ARM GAS  C:\Users\Mohamad\AppData\Local\Temp\ccIOqL5A.s 			page 32


 1763 01cc A0EB0524 		sub	r4, r0, r5, lsl #8
 1764              	.L108:
 1765              	.LBE28:
 1766              	.LBE40:
 1767              		.loc 1 248 0
 1768 01d0 4820     		movs	r0, #72
 1769              	.LVL229:
 1770 01d2 FFF7FEFF 		bl	startConversion
 1771              	.LVL230:
 1772              		.loc 1 249 0
 1773 01d6 0A20     		movs	r0, #10
 1774 01d8 FFF7FEFF 		bl	chThdSleep
 1775              	.LVL231:
 1776              		.loc 1 250 0
 1777 01dc FFF7FEFF 		bl	getRawPressure
 1778              	.LVL232:
 1779 01e0 2146     		mov	r1, r4
 1780 01e2 FFF7FEFF 		bl	getPressure
 1781              	.LVL233:
 1782 01e6 0146     		mov	r1, r0
 1783 01e8 3046     		mov	r0, r6
 1784 01ea FFF7FEFF 		bl	__aeabi_fadd
 1785              	.LVL234:
 1786 01ee 0646     		mov	r6, r0
 1787              	.LVL235:
 1788              		.loc 1 245 0
 1789 01f0 5820     		movs	r0, #88
 1790              	.LVL236:
 1791 01f2 FFF7FEFF 		bl	startConversion
 1792              	.LVL237:
 1793              		.loc 1 246 0
 1794 01f6 0A20     		movs	r0, #10
 1795 01f8 FFF7FEFF 		bl	chThdSleep
 1796              	.LVL238:
 1797              		.loc 1 247 0
 1798 01fc FFF7FEFF 		bl	getRawTemperature
 1799              	.LVL239:
 1800              	.LBB41:
 1801              	.LBB29:
 1802              		.loc 1 205 0
 1803 0200 0028     		cmp	r0, #0
 1804 0202 6ED0     		beq	.L120
 1805              		.loc 1 206 0
 1806 0204 404B     		ldr	r3, .L123
 1807 0206 1989     		ldrh	r1, [r3, #8]
 1808 0208 A0EB0124 		sub	r4, r0, r1, lsl #8
 1809              	.LVL240:
 1810              	.L109:
 1811              	.LBE29:
 1812              	.LBE41:
 1813              		.loc 1 248 0
 1814 020c 4820     		movs	r0, #72
 1815              	.LVL241:
 1816 020e FFF7FEFF 		bl	startConversion
 1817              	.LVL242:
 1818              		.loc 1 249 0
 1819 0212 0A20     		movs	r0, #10
ARM GAS  C:\Users\Mohamad\AppData\Local\Temp\ccIOqL5A.s 			page 33


 1820 0214 FFF7FEFF 		bl	chThdSleep
 1821              	.LVL243:
 1822              		.loc 1 250 0
 1823 0218 FFF7FEFF 		bl	getRawPressure
 1824              	.LVL244:
 1825 021c 2146     		mov	r1, r4
 1826 021e FFF7FEFF 		bl	getPressure
 1827              	.LVL245:
 1828 0222 0146     		mov	r1, r0
 1829 0224 3046     		mov	r0, r6
 1830 0226 FFF7FEFF 		bl	__aeabi_fadd
 1831              	.LVL246:
 1832 022a 0546     		mov	r5, r0
 1833              	.LVL247:
 1834              		.loc 1 245 0
 1835 022c 5820     		movs	r0, #88
 1836              	.LVL248:
 1837 022e FFF7FEFF 		bl	startConversion
 1838              	.LVL249:
 1839              		.loc 1 246 0
 1840 0232 0A20     		movs	r0, #10
 1841 0234 FFF7FEFF 		bl	chThdSleep
 1842              	.LVL250:
 1843              		.loc 1 247 0
 1844 0238 FFF7FEFF 		bl	getRawTemperature
 1845              	.LVL251:
 1846              	.LBB42:
 1847              	.LBB30:
 1848              		.loc 1 205 0
 1849 023c 0646     		mov	r6, r0
 1850 023e 0028     		cmp	r0, #0
 1851 0240 3ED0     		beq	.L110
 1852              		.loc 1 206 0
 1853 0242 314F     		ldr	r7, .L123
 1854 0244 3A89     		ldrh	r2, [r7, #8]
 1855              	.LBE30:
 1856              	.LBE42:
 1857              		.loc 1 248 0
 1858 0246 4820     		movs	r0, #72
 1859              	.LVL252:
 1860              	.LBB43:
 1861              	.LBB31:
 1862              		.loc 1 206 0
 1863 0248 A6EB0224 		sub	r4, r6, r2, lsl #8
 1864              	.LVL253:
 1865              	.LBE31:
 1866              	.LBE43:
 1867              		.loc 1 248 0
 1868 024c FFF7FEFF 		bl	startConversion
 1869              	.LVL254:
 1870              		.loc 1 249 0
 1871 0250 0A20     		movs	r0, #10
 1872 0252 FFF7FEFF 		bl	chThdSleep
 1873              	.LVL255:
 1874              		.loc 1 250 0
 1875 0256 FFF7FEFF 		bl	getRawPressure
 1876              	.LVL256:
ARM GAS  C:\Users\Mohamad\AppData\Local\Temp\ccIOqL5A.s 			page 34


 1877 025a 2146     		mov	r1, r4
 1878 025c FFF7FEFF 		bl	getPressure
 1879              	.LVL257:
 1880 0260 2946     		mov	r1, r5
 1881 0262 FFF7FEFF 		bl	__aeabi_fadd
 1882              	.LVL258:
 1883 0266 0646     		mov	r6, r0
 1884              	.LVL259:
 1885              	.LBB44:
 1886              	.LBB45:
 1887              		.loc 1 192 0
 1888 0268 002C     		cmp	r4, #0
 1889 026a 4AD0     		beq	.L121
 1890              		.loc 1 193 0
 1891 026c 7889     		ldrh	r0, [r7, #10]
 1892              	.LVL260:
 1893 026e 84FB0045 		smull	r4, r5, r4, r0
 1894              	.LVL261:
 1895 0272 E30D     		lsrs	r3, r4, #23
 1896 0274 43EA4522 		orr	r2, r3, r5, lsl #9
 1897 0278 4FF4FA60 		mov	r0, #2000
 1898 027c EC15     		asrs	r4, r5, #23
 1899 027e 0021     		movs	r1, #0
 1900 0280 8018     		adds	r0, r0, r2
 1901 0282 41EB0401 		adc	r1, r1, r4
 1902 0286 FFF7FEFF 		bl	__aeabi_l2d
 1903              	.LVL262:
 1904 028a 0023     		movs	r3, #0
 1905 028c 0022     		movs	r2, #0
 1906 028e C4F25903 		movt	r3, 16473
 1907 0292 FFF7FEFF 		bl	__aeabi_ddiv
 1908              	.LVL263:
 1909 0296 FFF7FEFF 		bl	__aeabi_d2f
 1910              	.LVL264:
 1911 029a 0446     		mov	r4, r0
 1912              	.L111:
 1913              	.LBE45:
 1914              	.LBE44:
 1915              		.loc 1 252 0
 1916 029c 1B4B     		ldr	r3, .L123+4
 1917              		.loc 1 253 0
 1918 029e 0021     		movs	r1, #0
 1919 02a0 C4F22011 		movt	r1, 16672
 1920              		.loc 1 252 0
 1921 02a4 1C60     		str	r4, [r3, #0]	@ float
 1922              		.loc 1 253 0
 1923 02a6 3046     		mov	r0, r6
 1924 02a8 FFF7FEFF 		bl	__aeabi_fdiv
 1925              	.LVL265:
 1926 02ac 184A     		ldr	r2, .L123+8
 1927              		.loc 1 254 0
 1928 02ae 2146     		mov	r1, r4
 1929              		.loc 1 253 0
 1930 02b0 1060     		str	r0, [r2, #0]	@ float
 1931              		.loc 1 254 0
 1932 02b2 FFF7FEFF 		bl	getAltitude
 1933              	.LVL266:
ARM GAS  C:\Users\Mohamad\AppData\Local\Temp\ccIOqL5A.s 			page 35


 1934 02b6 1749     		ldr	r1, .L123+12
 1935 02b8 0860     		str	r0, [r1, #0]	@ float
 1936 02ba F8BD     		pop	{r3, r4, r5, r6, r7, pc}
 1937              	.LVL267:
 1938              	.L112:
 1939              	.LBB47:
 1940              	.LBB32:
 1941              		.loc 1 209 0
 1942 02bc 0446     		mov	r4, r0
 1943 02be AFE6     		b	.L101
 1944              	.LVL268:
 1945              	.L110:
 1946              	.LBE32:
 1947              	.LBE47:
 1948              		.loc 1 248 0
 1949 02c0 4820     		movs	r0, #72
 1950              	.LVL269:
 1951 02c2 FFF7FEFF 		bl	startConversion
 1952              	.LVL270:
 1953              		.loc 1 249 0
 1954 02c6 0A20     		movs	r0, #10
 1955 02c8 FFF7FEFF 		bl	chThdSleep
 1956              	.LVL271:
 1957              		.loc 1 250 0
 1958 02cc FFF7FEFF 		bl	getRawPressure
 1959              	.LVL272:
 1960 02d0 3146     		mov	r1, r6
 1961 02d2 FFF7FEFF 		bl	getPressure
 1962              	.LVL273:
 1963 02d6 2946     		mov	r1, r5
 1964 02d8 FFF7FEFF 		bl	__aeabi_fadd
 1965              	.LVL274:
 1966              		.loc 1 195 0
 1967 02dc 0024     		movs	r4, #0
 1968              		.loc 1 250 0
 1969 02de 0646     		mov	r6, r0
 1970              	.LVL275:
 1971 02e0 DCE7     		b	.L111
 1972              	.LVL276:
 1973              	.L120:
 1974              	.LBB48:
 1975              	.LBB33:
 1976              		.loc 1 209 0
 1977 02e2 0446     		mov	r4, r0
 1978              	.LVL277:
 1979 02e4 92E7     		b	.L109
 1980              	.LVL278:
 1981              	.L119:
 1982 02e6 0446     		mov	r4, r0
 1983 02e8 72E7     		b	.L108
 1984              	.LVL279:
 1985              	.L118:
 1986 02ea 0546     		mov	r5, r0
 1987              	.LVL280:
 1988 02ec 51E7     		b	.L107
 1989              	.LVL281:
 1990              	.L117:
ARM GAS  C:\Users\Mohamad\AppData\Local\Temp\ccIOqL5A.s 			page 36


 1991 02ee 0546     		mov	r5, r0
 1992 02f0 30E7     		b	.L106
 1993              	.LVL282:
 1994              	.L116:
 1995 02f2 0646     		mov	r6, r0
 1996              	.LVL283:
 1997 02f4 0FE7     		b	.L105
 1998              	.LVL284:
 1999              	.L115:
 2000 02f6 0646     		mov	r6, r0
 2001 02f8 EEE6     		b	.L104
 2002              	.LVL285:
 2003              	.L114:
 2004 02fa 0546     		mov	r5, r0
 2005              	.LVL286:
 2006 02fc CDE6     		b	.L103
 2007              	.LVL287:
 2008              	.L113:
 2009 02fe 0546     		mov	r5, r0
 2010 0300 ACE6     		b	.L102
 2011              	.LVL288:
 2012              	.L121:
 2013              	.LBE33:
 2014              	.LBE48:
 2015              	.LBB49:
 2016              	.LBB46:
 2017              		.loc 1 195 0
 2018 0302 0024     		movs	r4, #0
 2019              	.LVL289:
 2020 0304 CAE7     		b	.L111
 2021              	.L124:
 2022 0306 00BF     		.align	2
 2023              	.L123:
 2024 0308 00000000 		.word	.LANCHOR6
 2025 030c 00000000 		.word	.LANCHOR9
 2026 0310 00000000 		.word	.LANCHOR10
 2027 0314 00000000 		.word	.LANCHOR11
 2028              	.LBE46:
 2029              	.LBE49:
 2030              		.cfi_endproc
 2031              	.LFE128:
 2032              		.size	Calc_homeAlt, .-Calc_homeAlt
 2033 0318 AFF30080 		.section	.text.get_AGL_Altitude,"ax",%progbits
 2033      AFF30080 
 2034              		.align	2
 2035              		.p2align 4,,15
 2036              		.global	get_AGL_Altitude
 2037              		.thumb
 2038              		.thumb_func
 2039              		.type	get_AGL_Altitude, %function
 2040              	get_AGL_Altitude:
 2041              	.LFB129:
 2042              		.loc 1 260 0
 2043              		.cfi_startproc
 2044              		@ args = 0, pretend = 0, frame = 0
 2045              		@ frame_needed = 0, uses_anonymous_args = 0
 2046              	.LVL290:
ARM GAS  C:\Users\Mohamad\AppData\Local\Temp\ccIOqL5A.s 			page 37


 2047 0000 08B5     		push	{r3, lr}
 2048              	.LCFI16:
 2049              		.cfi_def_cfa_offset 8
 2050              		.cfi_offset 3, -8
 2051              		.cfi_offset 14, -4
 2052              		.loc 1 261 0
 2053 0002 FFF7FEFF 		bl	getAltitude
 2054              	.LVL291:
 2055 0006 40F20003 		movw	r3, #:lower16:.LANCHOR11
 2056 000a C0F20003 		movt	r3, #:upper16:.LANCHOR11
 2057 000e 1968     		ldr	r1, [r3, #0]	@ float
 2058 0010 FFF7FEFF 		bl	__aeabi_fsub
 2059              	.LVL292:
 2060 0014 40F20001 		movw	r1, #:lower16:.LANCHOR12
 2061 0018 C0F20001 		movt	r1, #:upper16:.LANCHOR12
 2062 001c 0860     		str	r0, [r1, #0]	@ float
 2063              		.loc 1 263 0
 2064 001e 08BD     		pop	{r3, pc}
 2065              		.cfi_endproc
 2066              	.LFE129:
 2067              		.size	get_AGL_Altitude, .-get_AGL_Altitude
 2068              		.global	__aeabi_fcmpeq
 2069              		.global	__aeabi_fmul
 2070              		.section	.text.get_EAS2TAS,"ax",%progbits
 2071              		.align	2
 2072              		.p2align 4,,15
 2073              		.global	get_EAS2TAS
 2074              		.thumb
 2075              		.thumb_func
 2076              		.type	get_EAS2TAS, %function
 2077              	get_EAS2TAS:
 2078              	.LFB130:
 2079              		.loc 1 267 0
 2080              		.cfi_startproc
 2081              		@ args = 0, pretend = 0, frame = 0
 2082              		@ frame_needed = 0, uses_anonymous_args = 0
 2083 0000 2DE9F041 		push	{r4, r5, r6, r7, r8, lr}
 2084              	.LCFI17:
 2085              		.cfi_def_cfa_offset 24
 2086              		.cfi_offset 4, -24
 2087              		.cfi_offset 5, -20
 2088              		.cfi_offset 6, -16
 2089              		.cfi_offset 7, -12
 2090              		.cfi_offset 8, -8
 2091              		.cfi_offset 14, -4
 2092              		.loc 1 268 0
 2093 0004 274E     		ldr	r6, .L134
 2094 0006 284D     		ldr	r5, .L134+4
 2095 0008 3768     		ldr	r7, [r6, #0]	@ float
 2096 000a 2968     		ldr	r1, [r5, #0]	@ float
 2097 000c DFF8A080 		ldr	r8, .L134+12
 2098 0010 3846     		mov	r0, r7
 2099 0012 FFF7FEFF 		bl	__aeabi_fsub
 2100              	.LVL293:
 2101 0016 0021     		movs	r1, #0
 2102 0018 20F00040 		bic	r0, r0, #-2147483648
 2103 001c C4F2C821 		movt	r1, 17096
ARM GAS  C:\Users\Mohamad\AppData\Local\Temp\ccIOqL5A.s 			page 38


 2104 0020 FFF7FEFF 		bl	__aeabi_fcmplt
 2105              	.LVL294:
 2106 0024 38B1     		cbz	r0, .L127
 2107              		.loc 1 268 0 is_stmt 0 discriminator 1
 2108 0026 D8F80040 		ldr	r4, [r8, #0]	@ float
 2109 002a 0021     		movs	r1, #0
 2110 002c 2046     		mov	r0, r4
 2111 002e FFF7FEFF 		bl	__aeabi_fcmpeq
 2112              	.LVL295:
 2113 0032 0028     		cmp	r0, #0
 2114 0034 32D0     		beq	.L129
 2115              	.L127:
 2116              		.loc 1 272 0 is_stmt 1
 2117 0036 1D4B     		ldr	r3, .L134+8
 2118 0038 49F23331 		movw	r1, #37683
 2119 003c 1868     		ldr	r0, [r3, #0]	@ float
 2120 003e C4F28831 		movt	r1, 17288
 2121 0042 FFF7FEFF 		bl	__aeabi_fadd
 2122              	.LVL296:
 2123 0046 4FF6F451 		movw	r1, #65012
 2124 004a 0446     		mov	r4, r0
 2125 004c C3F6D431 		movt	r1, 15316
 2126 0050 3846     		mov	r0, r7
 2127 0052 FFF7FEFF 		bl	__aeabi_fmul
 2128              	.LVL297:
 2129 0056 0146     		mov	r1, r0
 2130 0058 2046     		mov	r0, r4
 2131 005a FFF7FEFF 		bl	__aeabi_fsub
 2132              	.LVL298:
 2133 005e 0746     		mov	r7, r0
 2134              	.LVL299:
 2135              		.loc 1 273 0
 2136 0060 FFF7FEFF 		bl	get_Airspeed
 2137              	.LVL300:
 2138 0064 FFF7FEFF 		bl	__aeabi_i2f
 2139              	.LVL301:
 2140 0068 4AF24811 		movw	r1, #41288
 2141 006c 0446     		mov	r4, r0
 2142 006e C4F28F31 		movt	r1, 17295
 2143 0072 3846     		mov	r0, r7
 2144 0074 FFF7FEFF 		bl	__aeabi_fmul
 2145              	.LVL302:
 2146 0078 0146     		mov	r1, r0
 2147 007a 2046     		mov	r0, r4
 2148 007c FFF7FEFF 		bl	__aeabi_fdiv
 2149              	.LVL303:
 2150 0080 0146     		mov	r1, r0
 2151 0082 4CF6CD40 		movw	r0, #52429
 2152 0086 C3F69C70 		movt	r0, 16284
 2153 008a FFF7FEFF 		bl	__aeabi_fdiv
 2154              	.LVL304:
 2155 008e FFF7FEFF 		bl	safe_sqrt
 2156              	.LVL305:
 2157 0092 0446     		mov	r4, r0
 2158              		.loc 1 274 0
 2159 0094 3068     		ldr	r0, [r6, #0]	@ float
 2160              		.loc 1 273 0
ARM GAS  C:\Users\Mohamad\AppData\Local\Temp\ccIOqL5A.s 			page 39


 2161 0096 C8F80040 		str	r4, [r8, #0]	@ float
 2162              		.loc 1 274 0
 2163 009a 2860     		str	r0, [r5, #0]	@ float
 2164              	.LVL306:
 2165              	.L129:
 2166              		.loc 1 276 0
 2167 009c 2046     		mov	r0, r4
 2168 009e BDE8F081 		pop	{r4, r5, r6, r7, r8, pc}
 2169              	.L135:
 2170 00a2 00BF     		.align	2
 2171              	.L134:
 2172 00a4 00000000 		.word	.LANCHOR12
 2173 00a8 00000000 		.word	.LANCHOR13
 2174 00ac 00000000 		.word	.LANCHOR9
 2175 00b0 00000000 		.word	.LANCHOR14
 2176              		.cfi_endproc
 2177              	.LFE130:
 2178              		.size	get_EAS2TAS, .-get_EAS2TAS
 2179 00b4 AFF30080 		.section	.text.ms5611_init,"ax",%progbits
 2179      AFF30080 
 2179      AFF30080 
 2180              		.align	2
 2181              		.p2align 4,,15
 2182              		.global	ms5611_init
 2183              		.thumb
 2184              		.thumb_func
 2185              		.type	ms5611_init, %function
 2186              	ms5611_init:
 2187              	.LFB131:
 2188              		.loc 1 279 0
 2189              		.cfi_startproc
 2190              		@ args = 0, pretend = 0, frame = 0
 2191              		@ frame_needed = 0, uses_anonymous_args = 0
 2192 0000 10B5     		push	{r4, lr}
 2193              	.LCFI18:
 2194              		.cfi_def_cfa_offset 8
 2195              		.cfi_offset 4, -8
 2196              		.cfi_offset 14, -4
 2197              		.loc 1 280 0
 2198 0002 FFF7FEFF 		bl	baroReset
 2199              	.LVL307:
 2200              		.loc 1 281 0
 2201 0006 0A20     		movs	r0, #10
 2202 0008 FFF7FEFF 		bl	chThdSleep
 2203              	.LVL308:
 2204              		.loc 1 282 0
 2205 000c FFF7FEFF 		bl	baroReadPROM
 2206              	.LVL309:
 2207              		.loc 1 283 0
 2208 0010 6420     		movs	r0, #100
 2209 0012 FFF7FEFF 		bl	chThdSleep
 2210              	.LVL310:
 2211              		.loc 1 285 0
 2212 0016 0A20     		movs	r0, #10
 2213 0018 FFF7FEFF 		bl	chThdSleep
 2214              	.LVL311:
 2215 001c 2024     		movs	r4, #32
ARM GAS  C:\Users\Mohamad\AppData\Local\Temp\ccIOqL5A.s 			page 40


 2216              	.LVL312:
 2217              	.L137:
 2218              		.loc 1 290 0 discriminator 2
 2219 001e 5820     		movs	r0, #88
 2220 0020 FFF7FEFF 		bl	startConversion
 2221              	.LVL313:
 2222              		.loc 1 291 0 discriminator 2
 2223 0024 0A20     		movs	r0, #10
 2224 0026 FFF7FEFF 		bl	chThdSleep
 2225              	.LVL314:
 2226              		.loc 1 292 0 discriminator 2
 2227 002a FFF7FEFF 		bl	getRawTemperature
 2228              	.LVL315:
 2229              		.loc 1 293 0 discriminator 2
 2230 002e 4820     		movs	r0, #72
 2231 0030 FFF7FEFF 		bl	startConversion
 2232              	.LVL316:
 2233              		.loc 1 294 0 discriminator 2
 2234 0034 0A20     		movs	r0, #10
 2235 0036 FFF7FEFF 		bl	chThdSleep
 2236              	.LVL317:
 2237              		.loc 1 295 0 discriminator 2
 2238 003a FFF7FEFF 		bl	getRawPressure
 2239              	.LVL318:
 2240              		.loc 1 290 0 discriminator 2
 2241 003e 5820     		movs	r0, #88
 2242 0040 FFF7FEFF 		bl	startConversion
 2243              	.LVL319:
 2244              		.loc 1 291 0 discriminator 2
 2245 0044 0A20     		movs	r0, #10
 2246 0046 FFF7FEFF 		bl	chThdSleep
 2247              	.LVL320:
 2248              		.loc 1 292 0 discriminator 2
 2249 004a FFF7FEFF 		bl	getRawTemperature
 2250              	.LVL321:
 2251              		.loc 1 293 0 discriminator 2
 2252 004e 4820     		movs	r0, #72
 2253 0050 FFF7FEFF 		bl	startConversion
 2254              	.LVL322:
 2255 0054 013C     		subs	r4, r4, #1
 2256              		.loc 1 294 0 discriminator 2
 2257 0056 0A20     		movs	r0, #10
 2258 0058 FFF7FEFF 		bl	chThdSleep
 2259              	.LVL323:
 2260              		.loc 1 295 0 discriminator 2
 2261 005c FFF7FEFF 		bl	getRawPressure
 2262              	.LVL324:
 2263              		.loc 1 289 0 discriminator 2
 2264 0060 013C     		subs	r4, r4, #1
 2265 0062 DCD1     		bne	.L137
 2266              		.loc 1 301 0
 2267 0064 BDE81040 		pop	{r4, lr}
 2268              		.loc 1 300 0
 2269 0068 FFF7FEBF 		b	Calc_homeAlt
 2270              	.LVL325:
 2271              		.cfi_endproc
 2272              	.LFE131:
ARM GAS  C:\Users\Mohamad\AppData\Local\Temp\ccIOqL5A.s 			page 41


 2273              		.size	ms5611_init, .-ms5611_init
 2274              		.global	baro_txbuf
 2275              		.global	baro_rxbuf
 2276              		.global	baro_healthy
 2277              		.global	CurrentAlt
 2278              		.global	Ground_press
 2279              		.global	Ground_temp
 2280              		.global	Home_Altitude
 2281              		.global	Coeffi
 2282              		.global	D2
 2283              		.global	D1
 2284              		.global	tmo
 2285              		.global	status
 2286              		.global	errors
 2287 006c AFF30080 		.section	.bss.errors,"aw",%nobits
 2288              		.align	2
 2289              		.set	.LANCHOR5,. + 0
 2290              		.type	errors, %object
 2291              		.size	errors, 4
 2292              	errors:
 2293 0000 00000000 		.space	4
 2294              		.section	.bss.baro_rxbuf,"aw",%nobits
 2295              		.align	2
 2296              		.set	.LANCHOR1,. + 0
 2297              		.type	baro_rxbuf, %object
 2298              		.size	baro_rxbuf, 6
 2299              	baro_rxbuf:
 2300 0000 00000000 		.space	6
 2300      0000
 2301 0006 0000     		.section	.bss.current_alt,"aw",%nobits
 2302              		.align	2
 2303              		.set	.LANCHOR12,. + 0
 2304              		.type	current_alt, %object
 2305              		.size	current_alt, 4
 2306              	current_alt:
 2307 0000 00000000 		.space	4
 2308              		.section	.bss.Ground_temp,"aw",%nobits
 2309              		.align	2
 2310              		.set	.LANCHOR9,. + 0
 2311              		.type	Ground_temp, %object
 2312              		.size	Ground_temp, 4
 2313              	Ground_temp:
 2314 0000 00000000 		.space	4
 2315              		.section	.bss.status,"aw",%nobits
 2316              		.align	2
 2317              		.set	.LANCHOR3,. + 0
 2318              		.type	status, %object
 2319              		.size	status, 4
 2320              	status:
 2321 0000 00000000 		.space	4
 2322              		.section	.bss.CurrentAlt,"aw",%nobits
 2323              		.align	2
 2324              		.type	CurrentAlt, %object
 2325              		.size	CurrentAlt, 4
 2326              	CurrentAlt:
 2327 0000 00000000 		.space	4
 2328              		.section	.bss.baro_txbuf,"aw",%nobits
ARM GAS  C:\Users\Mohamad\AppData\Local\Temp\ccIOqL5A.s 			page 42


 2329              		.align	2
 2330              		.set	.LANCHOR0,. + 0
 2331              		.type	baro_txbuf, %object
 2332              		.size	baro_txbuf, 6
 2333              	baro_txbuf:
 2334 0000 00000000 		.space	6
 2334      0000
 2335 0006 0000     		.section	.bss.D2,"aw",%nobits
 2336              		.align	2
 2337              		.set	.LANCHOR8,. + 0
 2338              		.type	D2, %object
 2339              		.size	D2, 4
 2340              	D2:
 2341 0000 00000000 		.space	4
 2342              		.section	.bss.D1,"aw",%nobits
 2343              		.align	2
 2344              		.set	.LANCHOR7,. + 0
 2345              		.type	D1, %object
 2346              		.size	D1, 4
 2347              	D1:
 2348 0000 00000000 		.space	4
 2349              		.section	.bss.EAS2TAS,"aw",%nobits
 2350              		.align	2
 2351              		.set	.LANCHOR14,. + 0
 2352              		.type	EAS2TAS, %object
 2353              		.size	EAS2TAS, 4
 2354              	EAS2TAS:
 2355 0000 00000000 		.space	4
 2356              		.section	.bss.last_altitude_EAS2TAS,"aw",%nobits
 2357              		.align	2
 2358              		.set	.LANCHOR13,. + 0
 2359              		.type	last_altitude_EAS2TAS, %object
 2360              		.size	last_altitude_EAS2TAS, 4
 2361              	last_altitude_EAS2TAS:
 2362 0000 00000000 		.space	4
 2363              		.section	.bss.Home_Altitude,"aw",%nobits
 2364              		.align	2
 2365              		.set	.LANCHOR11,. + 0
 2366              		.type	Home_Altitude, %object
 2367              		.size	Home_Altitude, 4
 2368              	Home_Altitude:
 2369 0000 00000000 		.space	4
 2370              		.section	.data.baro_healthy,"aw",%progbits
 2371              		.set	.LANCHOR4,. + 0
 2372              		.type	baro_healthy, %object
 2373              		.size	baro_healthy, 1
 2374              	baro_healthy:
 2375 0000 01       		.byte	1
 2376              		.section	.bss.Coeffi,"aw",%nobits
 2377              		.align	2
 2378              		.set	.LANCHOR6,. + 0
 2379              		.type	Coeffi, %object
 2380              		.size	Coeffi, 12
 2381              	Coeffi:
 2382 0000 00000000 		.space	12
 2382      00000000 
 2382      00000000 
ARM GAS  C:\Users\Mohamad\AppData\Local\Temp\ccIOqL5A.s 			page 43


 2383              		.section	.bss.Ground_press,"aw",%nobits
 2384              		.align	2
 2385              		.set	.LANCHOR10,. + 0
 2386              		.type	Ground_press, %object
 2387              		.size	Ground_press, 4
 2388              	Ground_press:
 2389 0000 00000000 		.space	4
 2390              		.section	.data.tmo,"aw",%progbits
 2391              		.align	2
 2392              		.set	.LANCHOR2,. + 0
 2393              		.type	tmo, %object
 2394              		.size	tmo, 4
 2395              	tmo:
 2396 0000 04000000 		.word	4
 2397              		.text
 2398              	.Letext0:
 2399              		.file 2 "c:\\chibistudio\\tools\\gnu tools arm embedded\\4.7 2014q2\\bin\\../lib/gcc/arm-none-eabi
 2400              		.file 3 "c:\\chibistudio\\tools\\gnu tools arm embedded\\4.7 2014q2\\bin\\../lib/gcc/arm-none-eabi
 2401              		.file 4 "../../chibios/os/ports/GCC/ARMCMx/chtypes.h"
 2402              		.file 5 "../../chibios/os/kernel/include/chlists.h"
 2403              		.file 6 "../../chibios/os/kernel/include/chthreads.h"
 2404              		.file 7 "../../chibios/os/ports/GCC/ARMCMx/chcore_v7m.h"
 2405              		.file 8 "../../chibios/os/kernel/include/chmtx.h"
 2406              		.file 9 "../../chibios/os/hal/platforms/STM32F4xx/stm32f4xx.h"
 2407              		.file 10 "../../chibios/os/hal/platforms/STM32F4xx/stm32_dma.h"
 2408              		.file 11 "../../chibios/os/hal/include/i2c.h"
 2409              		.file 12 "../../chibios/os/hal/platforms/STM32/I2Cv1/i2c_lld.h"
 2410              		.file 13 "../../chibios/os/ports/common/ARMCMx/CMSIS/include/core_cm4.h"
 2411              		.file 14 "DP_Math.h"
 2412              		.file 15 "c:\\chibistudio\\tools\\gnu tools arm embedded\\4.7 2014q2\\bin\\../lib/gcc/arm-none-eab