ARM GAS  C:\Users\Mohamad\AppData\Local\Temp\ccYumLog.s 			page 1


   1              		.syntax unified
   2              		.cpu cortex-m4
   3              		.fpu softvfp
   4              		.eabi_attribute 20, 1
   5              		.eabi_attribute 21, 1
   6              		.eabi_attribute 23, 3
   7              		.eabi_attribute 24, 1
   8              		.eabi_attribute 25, 1
   9              		.eabi_attribute 26, 1
  10              		.eabi_attribute 30, 2
  11              		.eabi_attribute 34, 1
  12              		.eabi_attribute 18, 4
  13              		.thumb
  14              		.file	"pwm_lld.c"
  15              		.text
  16              	.Ltext0:
  17              		.cfi_sections	.debug_frame
  18              		.section	.text.pwm_lld_serve_interrupt,"ax",%progbits
  19              		.align	2
  20              		.p2align 4,,15
  21              		.thumb
  22              		.thumb_func
  23              		.type	pwm_lld_serve_interrupt, %function
  24              	pwm_lld_serve_interrupt:
  25              	.LFB118:
  26              		.file 1 "../../chibios/os/hal/platforms/STM32/TIMv1/pwm_lld.c"
  27              		.loc 1 112 0
  28              		.cfi_startproc
  29              		@ args = 0, pretend = 0, frame = 0
  30              		@ frame_needed = 0, uses_anonymous_args = 0
  31              	.LVL0:
  32 0000 38B5     		push	{r3, r4, r5, lr}
  33              	.LCFI0:
  34              		.cfi_def_cfa_offset 16
  35              		.cfi_offset 3, -16
  36              		.cfi_offset 4, -12
  37              		.cfi_offset 5, -8
  38              		.cfi_offset 14, -4
  39              		.loc 1 115 0
  40 0002 0369     		ldr	r3, [r0, #16]
  41 0004 1A69     		ldr	r2, [r3, #16]
  42              	.LVL1:
  43              		.loc 1 116 0
  44 0006 DC68     		ldr	r4, [r3, #12]
  45 0008 1440     		ands	r4, r4, r2
  46 000a A4B2     		uxth	r4, r4
  47              	.LVL2:
  48              		.loc 1 117 0
  49 000c E1B2     		uxtb	r1, r4
  50              		.loc 1 118 0
  51 000e 04F00202 		and	r2, r4, #2
  52              		.loc 1 117 0
  53 0012 C943     		mvns	r1, r1
  54              		.loc 1 118 0
  55 0014 92B2     		uxth	r2, r2
  56              		.loc 1 112 0
  57 0016 0546     		mov	r5, r0
ARM GAS  C:\Users\Mohamad\AppData\Local\Temp\ccYumLog.s 			page 2


  58              		.loc 1 117 0
  59 0018 1961     		str	r1, [r3, #16]
  60              		.loc 1 118 0
  61 001a 0ABB     		cbnz	r2, .L23
  62              	.LVL3:
  63              	.L2:
  64              		.loc 1 120 0
  65 001c 04F00400 		and	r0, r4, #4
  66 0020 82B2     		uxth	r2, r0
  67 0022 C2B9     		cbnz	r2, .L24
  68              	.L3:
  69              		.loc 1 122 0
  70 0024 04F00800 		and	r0, r4, #8
  71 0028 82B2     		uxth	r2, r0
  72 002a 7AB9     		cbnz	r2, .L25
  73              	.L4:
  74              		.loc 1 124 0
  75 002c 04F01000 		and	r0, r4, #16
  76 0030 82B2     		uxth	r2, r0
  77 0032 32B9     		cbnz	r2, .L26
  78              	.L5:
  79              		.loc 1 126 0
  80 0034 E307     		lsls	r3, r4, #31
  81 0036 03D5     		bpl	.L1
  82              		.loc 1 127 0
  83 0038 6A68     		ldr	r2, [r5, #4]
  84 003a 2846     		mov	r0, r5
  85 003c 9368     		ldr	r3, [r2, #8]
  86 003e 9847     		blx	r3
  87              	.LVL4:
  88              	.L1:
  89 0040 38BD     		pop	{r3, r4, r5, pc}
  90              	.L26:
  91              		.loc 1 125 0
  92 0042 6B68     		ldr	r3, [r5, #4]
  93 0044 2846     		mov	r0, r5
  94 0046 996A     		ldr	r1, [r3, #40]
  95 0048 8847     		blx	r1
  96              	.LVL5:
  97 004a F3E7     		b	.L5
  98              	.L25:
  99              		.loc 1 123 0
 100 004c 6B68     		ldr	r3, [r5, #4]
 101 004e 2846     		mov	r0, r5
 102 0050 196A     		ldr	r1, [r3, #32]
 103 0052 8847     		blx	r1
 104              	.LVL6:
 105 0054 EAE7     		b	.L4
 106              	.L24:
 107              		.loc 1 121 0
 108 0056 6B68     		ldr	r3, [r5, #4]
 109 0058 2846     		mov	r0, r5
 110 005a 9969     		ldr	r1, [r3, #24]
 111 005c 8847     		blx	r1
 112              	.LVL7:
 113 005e E1E7     		b	.L3
 114              	.LVL8:
ARM GAS  C:\Users\Mohamad\AppData\Local\Temp\ccYumLog.s 			page 3


 115              	.L23:
 116              		.loc 1 119 0
 117 0060 4368     		ldr	r3, [r0, #4]
 118 0062 1969     		ldr	r1, [r3, #16]
 119 0064 8847     		blx	r1
 120              	.LVL9:
 121 0066 D9E7     		b	.L2
 122              		.cfi_endproc
 123              	.LFE118:
 124              		.size	pwm_lld_serve_interrupt, .-pwm_lld_serve_interrupt
 125 0068 AFF30080 		.section	.text.VectorA4,"ax",%progbits
 125      AFF30080 
 126              		.align	2
 127              		.p2align 4,,15
 128              		.global	VectorA4
 129              		.thumb
 130              		.thumb_func
 131              		.type	VectorA4, %function
 132              	VectorA4:
 133              	.LFB119:
 134              		.loc 1 147 0
 135              		.cfi_startproc
 136              		@ args = 0, pretend = 0, frame = 0
 137              		@ frame_needed = 0, uses_anonymous_args = 0
 138              		.loc 1 152 0
 139 0000 40F20000 		movw	r0, #:lower16:.LANCHOR0
 140 0004 C0F20000 		movt	r0, #:upper16:.LANCHOR0
 141              		.loc 1 147 0
 142 0008 08B5     		push	{r3, lr}
 143              	.LCFI1:
 144              		.cfi_def_cfa_offset 8
 145              		.cfi_offset 3, -8
 146              		.cfi_offset 14, -4
 147              		.loc 1 151 0
 148 000a 0023     		movs	r3, #0
 149              		.loc 1 152 0
 150 000c 4268     		ldr	r2, [r0, #4]
 151              		.loc 1 151 0
 152 000e C4F20103 		movt	r3, 16385
 153 0012 6FF00101 		mvn	r1, #1
 154 0016 1961     		str	r1, [r3, #16]
 155              		.loc 1 152 0
 156 0018 9368     		ldr	r3, [r2, #8]
 157 001a 9847     		blx	r3
 158              	.LVL10:
 159              		.loc 1 155 0
 160 001c BDE80840 		pop	{r3, lr}
 161              		.loc 1 154 0
 162 0020 FFF7FEBF 		b	_port_irq_epilogue
 163              	.LVL11:
 164              		.cfi_endproc
 165              	.LFE119:
 166              		.size	VectorA4, .-VectorA4
 167 0024 AFF30080 		.section	.text.VectorAC,"ax",%progbits
 167      AFF30080 
 167      AFF30080 
 168              		.align	2
ARM GAS  C:\Users\Mohamad\AppData\Local\Temp\ccYumLog.s 			page 4


 169              		.p2align 4,,15
 170              		.global	VectorAC
 171              		.thumb
 172              		.thumb_func
 173              		.type	VectorAC, %function
 174              	VectorAC:
 175              	.LFB120:
 176              		.loc 1 168 0
 177              		.cfi_startproc
 178              		@ args = 0, pretend = 0, frame = 0
 179              		@ frame_needed = 0, uses_anonymous_args = 0
 180              		.loc 1 173 0
 181 0000 0023     		movs	r3, #0
 182 0002 C4F20103 		movt	r3, 16385
 183              		.loc 1 168 0
 184 0006 10B5     		push	{r4, lr}
 185              	.LCFI2:
 186              		.cfi_def_cfa_offset 8
 187              		.cfi_offset 4, -8
 188              		.cfi_offset 14, -4
 189              		.loc 1 173 0
 190 0008 1A69     		ldr	r2, [r3, #16]
 191 000a DC68     		ldr	r4, [r3, #12]
 192 000c 1440     		ands	r4, r4, r2
 193 000e A4B2     		uxth	r4, r4
 194              	.LVL12:
 195              		.loc 1 174 0
 196 0010 E1B2     		uxtb	r1, r4
 197              		.loc 1 175 0
 198 0012 04F00200 		and	r0, r4, #2
 199              		.loc 1 174 0
 200 0016 C943     		mvns	r1, r1
 201              		.loc 1 175 0
 202 0018 82B2     		uxth	r2, r0
 203              		.loc 1 174 0
 204 001a 1961     		str	r1, [r3, #16]
 205              		.loc 1 175 0
 206 001c 002A     		cmp	r2, #0
 207 001e 1DD1     		bne	.L45
 208              	.L29:
 209              		.loc 1 177 0
 210 0020 04F00400 		and	r0, r4, #4
 211 0024 82B2     		uxth	r2, r0
 212 0026 A2B9     		cbnz	r2, .L46
 213              	.L30:
 214              		.loc 1 179 0
 215 0028 04F00800 		and	r0, r4, #8
 216 002c 82B2     		uxth	r2, r0
 217 002e 5AB9     		cbnz	r2, .L47
 218              	.L31:
 219              		.loc 1 181 0
 220 0030 04F01004 		and	r4, r4, #16
 221              	.LVL13:
 222 0034 A4B2     		uxth	r4, r4
 223 0036 1CB1     		cbz	r4, .L32
 224              		.loc 1 182 0
 225 0038 0B48     		ldr	r0, .L48
ARM GAS  C:\Users\Mohamad\AppData\Local\Temp\ccYumLog.s 			page 5


 226 003a 4268     		ldr	r2, [r0, #4]
 227 003c 936A     		ldr	r3, [r2, #40]
 228 003e 9847     		blx	r3
 229              	.LVL14:
 230              	.L32:
 231              		.loc 1 185 0
 232 0040 BDE81040 		pop	{r4, lr}
 233              		.loc 1 184 0
 234 0044 FFF7FEBF 		b	_port_irq_epilogue
 235              	.LVL15:
 236              	.L47:
 237              		.loc 1 180 0
 238 0048 0748     		ldr	r0, .L48
 239 004a 4368     		ldr	r3, [r0, #4]
 240 004c 196A     		ldr	r1, [r3, #32]
 241 004e 8847     		blx	r1
 242              	.LVL16:
 243 0050 EEE7     		b	.L31
 244              	.L46:
 245              		.loc 1 178 0
 246 0052 0548     		ldr	r0, .L48
 247 0054 4368     		ldr	r3, [r0, #4]
 248 0056 9969     		ldr	r1, [r3, #24]
 249 0058 8847     		blx	r1
 250              	.LVL17:
 251 005a E5E7     		b	.L30
 252              	.L45:
 253              		.loc 1 176 0
 254 005c 0248     		ldr	r0, .L48
 255 005e 4368     		ldr	r3, [r0, #4]
 256 0060 1969     		ldr	r1, [r3, #16]
 257 0062 8847     		blx	r1
 258              	.LVL18:
 259 0064 DCE7     		b	.L29
 260              	.L49:
 261 0066 00BF     		.align	2
 262              	.L48:
 263 0068 00000000 		.word	.LANCHOR0
 264              		.cfi_endproc
 265              	.LFE120:
 266              		.size	VectorAC, .-VectorAC
 267 006c AFF30080 		.section	.text.VectorB0,"ax",%progbits
 268              		.align	2
 269              		.p2align 4,,15
 270              		.global	VectorB0
 271              		.thumb
 272              		.thumb_func
 273              		.type	VectorB0, %function
 274              	VectorB0:
 275              	.LFB121:
 276              		.loc 1 197 0
 277              		.cfi_startproc
 278              		@ args = 0, pretend = 0, frame = 0
 279              		@ frame_needed = 0, uses_anonymous_args = 0
 280 0000 08B5     		push	{r3, lr}
 281              	.LCFI3:
 282              		.cfi_def_cfa_offset 8
ARM GAS  C:\Users\Mohamad\AppData\Local\Temp\ccYumLog.s 			page 6


 283              		.cfi_offset 3, -8
 284              		.cfi_offset 14, -4
 285              		.loc 1 201 0
 286 0002 40F20000 		movw	r0, #:lower16:.LANCHOR1
 287 0006 C0F20000 		movt	r0, #:upper16:.LANCHOR1
 288 000a FFF7FEFF 		bl	pwm_lld_serve_interrupt
 289              	.LVL19:
 290              		.loc 1 204 0
 291 000e BDE80840 		pop	{r3, lr}
 292              		.loc 1 203 0
 293 0012 FFF7FEBF 		b	_port_irq_epilogue
 294              	.LVL20:
 295              		.cfi_endproc
 296              	.LFE121:
 297              		.size	VectorB0, .-VectorB0
 298 0016 00BFAFF3 		.section	.text.VectorB4,"ax",%progbits
 298      0080AFF3 
 298      0080
 299              		.align	2
 300              		.p2align 4,,15
 301              		.global	VectorB4
 302              		.thumb
 303              		.thumb_func
 304              		.type	VectorB4, %function
 305              	VectorB4:
 306              	.LFB122:
 307              		.loc 1 216 0
 308              		.cfi_startproc
 309              		@ args = 0, pretend = 0, frame = 0
 310              		@ frame_needed = 0, uses_anonymous_args = 0
 311 0000 08B5     		push	{r3, lr}
 312              	.LCFI4:
 313              		.cfi_def_cfa_offset 8
 314              		.cfi_offset 3, -8
 315              		.cfi_offset 14, -4
 316              		.loc 1 220 0
 317 0002 40F20000 		movw	r0, #:lower16:.LANCHOR2
 318 0006 C0F20000 		movt	r0, #:upper16:.LANCHOR2
 319 000a FFF7FEFF 		bl	pwm_lld_serve_interrupt
 320              	.LVL21:
 321              		.loc 1 223 0
 322 000e BDE80840 		pop	{r3, lr}
 323              		.loc 1 222 0
 324 0012 FFF7FEBF 		b	_port_irq_epilogue
 325              	.LVL22:
 326              		.cfi_endproc
 327              	.LFE122:
 328              		.size	VectorB4, .-VectorB4
 329 0016 00BFAFF3 		.section	.text.VectorB8,"ax",%progbits
 329      0080AFF3 
 329      0080
 330              		.align	2
 331              		.p2align 4,,15
 332              		.global	VectorB8
 333              		.thumb
 334              		.thumb_func
 335              		.type	VectorB8, %function
ARM GAS  C:\Users\Mohamad\AppData\Local\Temp\ccYumLog.s 			page 7


 336              	VectorB8:
 337              	.LFB123:
 338              		.loc 1 235 0
 339              		.cfi_startproc
 340              		@ args = 0, pretend = 0, frame = 0
 341              		@ frame_needed = 0, uses_anonymous_args = 0
 342 0000 08B5     		push	{r3, lr}
 343              	.LCFI5:
 344              		.cfi_def_cfa_offset 8
 345              		.cfi_offset 3, -8
 346              		.cfi_offset 14, -4
 347              		.loc 1 239 0
 348 0002 40F20000 		movw	r0, #:lower16:.LANCHOR3
 349 0006 C0F20000 		movt	r0, #:upper16:.LANCHOR3
 350 000a FFF7FEFF 		bl	pwm_lld_serve_interrupt
 351              	.LVL23:
 352              		.loc 1 242 0
 353 000e BDE80840 		pop	{r3, lr}
 354              		.loc 1 241 0
 355 0012 FFF7FEBF 		b	_port_irq_epilogue
 356              	.LVL24:
 357              		.cfi_endproc
 358              	.LFE123:
 359              		.size	VectorB8, .-VectorB8
 360 0016 00BFAFF3 		.section	.text.Vector108,"ax",%progbits
 360      0080AFF3 
 360      0080
 361              		.align	2
 362              		.p2align 4,,15
 363              		.global	Vector108
 364              		.thumb
 365              		.thumb_func
 366              		.type	Vector108, %function
 367              	Vector108:
 368              	.LFB124:
 369              		.loc 1 254 0
 370              		.cfi_startproc
 371              		@ args = 0, pretend = 0, frame = 0
 372              		@ frame_needed = 0, uses_anonymous_args = 0
 373 0000 08B5     		push	{r3, lr}
 374              	.LCFI6:
 375              		.cfi_def_cfa_offset 8
 376              		.cfi_offset 3, -8
 377              		.cfi_offset 14, -4
 378              		.loc 1 258 0
 379 0002 40F20000 		movw	r0, #:lower16:.LANCHOR4
 380 0006 C0F20000 		movt	r0, #:upper16:.LANCHOR4
 381 000a FFF7FEFF 		bl	pwm_lld_serve_interrupt
 382              	.LVL25:
 383              		.loc 1 261 0
 384 000e BDE80840 		pop	{r3, lr}
 385              		.loc 1 260 0
 386 0012 FFF7FEBF 		b	_port_irq_epilogue
 387              	.LVL26:
 388              		.cfi_endproc
 389              	.LFE124:
 390              		.size	Vector108, .-Vector108
ARM GAS  C:\Users\Mohamad\AppData\Local\Temp\ccYumLog.s 			page 8


 391 0016 00BFAFF3 		.section	.text.VectorF0,"ax",%progbits
 391      0080AFF3 
 391      0080
 392              		.align	2
 393              		.p2align 4,,15
 394              		.global	VectorF0
 395              		.thumb
 396              		.thumb_func
 397              		.type	VectorF0, %function
 398              	VectorF0:
 399              	.LFB125:
 400              		.loc 1 276 0
 401              		.cfi_startproc
 402              		@ args = 0, pretend = 0, frame = 0
 403              		@ frame_needed = 0, uses_anonymous_args = 0
 404              		.loc 1 281 0
 405 0000 40F20000 		movw	r0, #:lower16:.LANCHOR5
 406 0004 C0F20000 		movt	r0, #:upper16:.LANCHOR5
 407              		.loc 1 276 0
 408 0008 08B5     		push	{r3, lr}
 409              	.LCFI7:
 410              		.cfi_def_cfa_offset 8
 411              		.cfi_offset 3, -8
 412              		.cfi_offset 14, -4
 413              		.loc 1 280 0
 414 000a 4FF48063 		mov	r3, #1024
 415              		.loc 1 281 0
 416 000e 4268     		ldr	r2, [r0, #4]
 417              		.loc 1 280 0
 418 0010 C4F20103 		movt	r3, 16385
 419 0014 6FF00101 		mvn	r1, #1
 420 0018 1961     		str	r1, [r3, #16]
 421              		.loc 1 281 0
 422 001a 9368     		ldr	r3, [r2, #8]
 423 001c 9847     		blx	r3
 424              	.LVL27:
 425              		.loc 1 284 0
 426 001e BDE80840 		pop	{r3, lr}
 427              		.loc 1 283 0
 428 0022 FFF7FEBF 		b	_port_irq_epilogue
 429              	.LVL28:
 430              		.cfi_endproc
 431              	.LFE125:
 432              		.size	VectorF0, .-VectorF0
 433 0026 00BFAFF3 		.section	.text.VectorF8,"ax",%progbits
 433      0080AFF3 
 433      0080
 434              		.align	2
 435              		.p2align 4,,15
 436              		.global	VectorF8
 437              		.thumb
 438              		.thumb_func
 439              		.type	VectorF8, %function
 440              	VectorF8:
 441              	.LFB126:
 442              		.loc 1 297 0
 443              		.cfi_startproc
ARM GAS  C:\Users\Mohamad\AppData\Local\Temp\ccYumLog.s 			page 9


 444              		@ args = 0, pretend = 0, frame = 0
 445              		@ frame_needed = 0, uses_anonymous_args = 0
 446              		.loc 1 302 0
 447 0000 4FF48063 		mov	r3, #1024
 448 0004 C4F20103 		movt	r3, 16385
 449              		.loc 1 297 0
 450 0008 10B5     		push	{r4, lr}
 451              	.LCFI8:
 452              		.cfi_def_cfa_offset 8
 453              		.cfi_offset 4, -8
 454              		.cfi_offset 14, -4
 455              		.loc 1 302 0
 456 000a 1A69     		ldr	r2, [r3, #16]
 457 000c DC68     		ldr	r4, [r3, #12]
 458 000e 1440     		ands	r4, r4, r2
 459 0010 A4B2     		uxth	r4, r4
 460              	.LVL29:
 461              		.loc 1 303 0
 462 0012 E1B2     		uxtb	r1, r4
 463              		.loc 1 304 0
 464 0014 04F00200 		and	r0, r4, #2
 465              		.loc 1 303 0
 466 0018 C943     		mvns	r1, r1
 467              		.loc 1 304 0
 468 001a 82B2     		uxth	r2, r0
 469              		.loc 1 303 0
 470 001c 1961     		str	r1, [r3, #16]
 471              		.loc 1 304 0
 472 001e 002A     		cmp	r2, #0
 473 0020 1DD1     		bne	.L72
 474              	.L56:
 475              		.loc 1 306 0
 476 0022 04F00400 		and	r0, r4, #4
 477 0026 82B2     		uxth	r2, r0
 478 0028 A2B9     		cbnz	r2, .L73
 479              	.L57:
 480              		.loc 1 308 0
 481 002a 04F00800 		and	r0, r4, #8
 482 002e 82B2     		uxth	r2, r0
 483 0030 5AB9     		cbnz	r2, .L74
 484              	.L58:
 485              		.loc 1 310 0
 486 0032 04F01004 		and	r4, r4, #16
 487              	.LVL30:
 488 0036 A4B2     		uxth	r4, r4
 489 0038 1CB1     		cbz	r4, .L59
 490              		.loc 1 311 0
 491 003a 0B48     		ldr	r0, .L75
 492 003c 4268     		ldr	r2, [r0, #4]
 493 003e 936A     		ldr	r3, [r2, #40]
 494 0040 9847     		blx	r3
 495              	.LVL31:
 496              	.L59:
 497              		.loc 1 314 0
 498 0042 BDE81040 		pop	{r4, lr}
 499              		.loc 1 313 0
 500 0046 FFF7FEBF 		b	_port_irq_epilogue
ARM GAS  C:\Users\Mohamad\AppData\Local\Temp\ccYumLog.s 			page 10


 501              	.LVL32:
 502              	.L74:
 503              		.loc 1 309 0
 504 004a 0748     		ldr	r0, .L75
 505 004c 4368     		ldr	r3, [r0, #4]
 506 004e 196A     		ldr	r1, [r3, #32]
 507 0050 8847     		blx	r1
 508              	.LVL33:
 509 0052 EEE7     		b	.L58
 510              	.L73:
 511              		.loc 1 307 0
 512 0054 0448     		ldr	r0, .L75
 513 0056 4368     		ldr	r3, [r0, #4]
 514 0058 9969     		ldr	r1, [r3, #24]
 515 005a 8847     		blx	r1
 516              	.LVL34:
 517 005c E5E7     		b	.L57
 518              	.L72:
 519              		.loc 1 305 0
 520 005e 0248     		ldr	r0, .L75
 521 0060 4368     		ldr	r3, [r0, #4]
 522 0062 1969     		ldr	r1, [r3, #16]
 523 0064 8847     		blx	r1
 524              	.LVL35:
 525 0066 DCE7     		b	.L56
 526              	.L76:
 527              		.align	2
 528              	.L75:
 529 0068 00000000 		.word	.LANCHOR5
 530              		.cfi_endproc
 531              	.LFE126:
 532              		.size	VectorF8, .-VectorF8
 533 006c AFF30080 		.section	.text.VectorA0,"ax",%progbits
 534              		.align	2
 535              		.p2align 4,,15
 536              		.global	VectorA0
 537              		.thumb
 538              		.thumb_func
 539              		.type	VectorA0, %function
 540              	VectorA0:
 541              	.LFB127:
 542              		.loc 1 326 0
 543              		.cfi_startproc
 544              		@ args = 0, pretend = 0, frame = 0
 545              		@ frame_needed = 0, uses_anonymous_args = 0
 546 0000 08B5     		push	{r3, lr}
 547              	.LCFI9:
 548              		.cfi_def_cfa_offset 8
 549              		.cfi_offset 3, -8
 550              		.cfi_offset 14, -4
 551              		.loc 1 330 0
 552 0002 40F20000 		movw	r0, #:lower16:.LANCHOR6
 553 0006 C0F20000 		movt	r0, #:upper16:.LANCHOR6
 554 000a FFF7FEFF 		bl	pwm_lld_serve_interrupt
 555              	.LVL36:
 556              		.loc 1 333 0
 557 000e BDE80840 		pop	{r3, lr}
ARM GAS  C:\Users\Mohamad\AppData\Local\Temp\ccYumLog.s 			page 11


 558              		.loc 1 332 0
 559 0012 FFF7FEBF 		b	_port_irq_epilogue
 560              	.LVL37:
 561              		.cfi_endproc
 562              	.LFE127:
 563              		.size	VectorA0, .-VectorA0
 564 0016 00BFAFF3 		.section	.text.pwm_lld_init,"ax",%progbits
 564      0080AFF3 
 564      0080
 565              		.align	2
 566              		.p2align 4,,15
 567              		.global	pwm_lld_init
 568              		.thumb
 569              		.thumb_func
 570              		.type	pwm_lld_init, %function
 571              	pwm_lld_init:
 572              	.LFB128:
 573              		.loc 1 345 0
 574              		.cfi_startproc
 575              		@ args = 0, pretend = 0, frame = 0
 576              		@ frame_needed = 0, uses_anonymous_args = 0
 577 0000 70B5     		push	{r4, r5, r6, lr}
 578              	.LCFI10:
 579              		.cfi_def_cfa_offset 16
 580              		.cfi_offset 4, -16
 581              		.cfi_offset 5, -12
 582              		.cfi_offset 6, -8
 583              		.cfi_offset 14, -4
 584              		.loc 1 349 0
 585 0002 40F20004 		movw	r4, #:lower16:.LANCHOR0
 586 0006 C0F20004 		movt	r4, #:upper16:.LANCHOR0
 587 000a 2046     		mov	r0, r4
 588              		.loc 1 355 0
 589 000c 40F20006 		movw	r6, #:lower16:.LANCHOR1
 590              		.loc 1 349 0
 591 0010 FFF7FEFF 		bl	pwmObjectInit
 592              	.LVL38:
 593              		.loc 1 355 0
 594 0014 C0F20006 		movt	r6, #:upper16:.LANCHOR1
 595              		.loc 1 350 0
 596 0018 0023     		movs	r3, #0
 597              		.loc 1 361 0
 598 001a 40F20005 		movw	r5, #:lower16:.LANCHOR2
 599              		.loc 1 350 0
 600 001e C4F20103 		movt	r3, 16385
 601              		.loc 1 355 0
 602 0022 3046     		mov	r0, r6
 603              		.loc 1 361 0
 604 0024 C0F20005 		movt	r5, #:upper16:.LANCHOR2
 605              		.loc 1 350 0
 606 0028 2361     		str	r3, [r4, #16]
 607              		.loc 1 355 0
 608 002a FFF7FEFF 		bl	pwmObjectInit
 609              	.LVL39:
 610              		.loc 1 367 0
 611 002e 40F20004 		movw	r4, #:lower16:.LANCHOR3
 612              		.loc 1 356 0
ARM GAS  C:\Users\Mohamad\AppData\Local\Temp\ccYumLog.s 			page 12


 613 0032 4FF08041 		mov	r1, #1073741824
 614              		.loc 1 361 0
 615 0036 2846     		mov	r0, r5
 616              		.loc 1 356 0
 617 0038 3161     		str	r1, [r6, #16]
 618              		.loc 1 367 0
 619 003a C0F20004 		movt	r4, #:upper16:.LANCHOR3
 620              		.loc 1 361 0
 621 003e FFF7FEFF 		bl	pwmObjectInit
 622              	.LVL40:
 623              		.loc 1 362 0
 624 0042 4FF48062 		mov	r2, #1024
 625 0046 C4F20002 		movt	r2, 16384
 626              		.loc 1 367 0
 627 004a 2046     		mov	r0, r4
 628              		.loc 1 373 0
 629 004c 40F20006 		movw	r6, #:lower16:.LANCHOR4
 630              		.loc 1 362 0
 631 0050 2A61     		str	r2, [r5, #16]
 632              		.loc 1 373 0
 633 0052 C0F20006 		movt	r6, #:upper16:.LANCHOR4
 634              		.loc 1 367 0
 635 0056 FFF7FEFF 		bl	pwmObjectInit
 636              	.LVL41:
 637              		.loc 1 368 0
 638 005a 4FF40063 		mov	r3, #2048
 639 005e C4F20003 		movt	r3, 16384
 640              		.loc 1 373 0
 641 0062 3046     		mov	r0, r6
 642              		.loc 1 379 0
 643 0064 40F20005 		movw	r5, #:lower16:.LANCHOR5
 644              		.loc 1 368 0
 645 0068 2361     		str	r3, [r4, #16]
 646              		.loc 1 379 0
 647 006a C0F20005 		movt	r5, #:upper16:.LANCHOR5
 648              		.loc 1 373 0
 649 006e FFF7FEFF 		bl	pwmObjectInit
 650              	.LVL42:
 651              		.loc 1 374 0
 652 0072 4FF44061 		mov	r1, #3072
 653 0076 C4F20001 		movt	r1, 16384
 654              		.loc 1 379 0
 655 007a 2846     		mov	r0, r5
 656              		.loc 1 385 0
 657 007c 40F20004 		movw	r4, #:lower16:.LANCHOR6
 658 0080 C0F20004 		movt	r4, #:upper16:.LANCHOR6
 659              		.loc 1 374 0
 660 0084 3161     		str	r1, [r6, #16]
 661              		.loc 1 379 0
 662 0086 FFF7FEFF 		bl	pwmObjectInit
 663              	.LVL43:
 664              		.loc 1 380 0
 665 008a 4FF48062 		mov	r2, #1024
 666 008e C4F20102 		movt	r2, 16385
 667              		.loc 1 385 0
 668 0092 2046     		mov	r0, r4
 669              		.loc 1 380 0
ARM GAS  C:\Users\Mohamad\AppData\Local\Temp\ccYumLog.s 			page 13


 670 0094 2A61     		str	r2, [r5, #16]
 671              		.loc 1 385 0
 672 0096 FFF7FEFF 		bl	pwmObjectInit
 673              	.LVL44:
 674              		.loc 1 386 0
 675 009a 4FF48040 		mov	r0, #16384
 676 009e C4F20100 		movt	r0, 16385
 677 00a2 2061     		str	r0, [r4, #16]
 678 00a4 70BD     		pop	{r4, r5, r6, pc}
 679              		.cfi_endproc
 680              	.LFE128:
 681              		.size	pwm_lld_init, .-pwm_lld_init
 682 00a6 00BFAFF3 		.section	.text.pwm_lld_start,"ax",%progbits
 682      0080AFF3 
 682      0080
 683              		.align	2
 684              		.p2align 4,,15
 685              		.global	pwm_lld_start
 686              		.thumb
 687              		.thumb_func
 688              		.type	pwm_lld_start, %function
 689              	pwm_lld_start:
 690              	.LFB129:
 691              		.loc 1 399 0
 692              		.cfi_startproc
 693              		@ args = 0, pretend = 0, frame = 0
 694              		@ frame_needed = 0, uses_anonymous_args = 0
 695              	.LVL45:
 696              		.loc 1 403 0
 697 0000 0378     		ldrb	r3, [r0, #0]	@ zero_extendqisi2
 698 0002 012B     		cmp	r3, #1
 699              		.loc 1 399 0
 700 0004 2DE9F041 		push	{r4, r5, r6, r7, r8, lr}
 701              	.LCFI11:
 702              		.cfi_def_cfa_offset 24
 703              		.cfi_offset 4, -24
 704              		.cfi_offset 5, -20
 705              		.cfi_offset 6, -16
 706              		.cfi_offset 7, -12
 707              		.cfi_offset 8, -8
 708              		.cfi_offset 14, -4
 709              		.loc 1 399 0
 710 0008 0446     		mov	r4, r0
 711              		.loc 1 403 0
 712 000a 00F08D80 		beq	.L134
 713              		.loc 1 492 0
 714 000e 4168     		ldr	r1, [r0, #4]
 715              		.loc 1 491 0
 716 0010 0369     		ldr	r3, [r0, #16]
 717              		.loc 1 492 0
 718 0012 486B     		ldr	r0, [r1, #52]
 719              	.LVL46:
 720 0014 A74E     		ldr	r6, .L152
 721              		.loc 1 491 0
 722 0016 0022     		movs	r2, #0
 723              		.loc 1 492 0
 724 0018 20F0FF05 		bic	r5, r0, #255
ARM GAS  C:\Users\Mohamad\AppData\Local\Temp\ccYumLog.s 			page 14


 725              		.loc 1 491 0
 726 001c 1A60     		str	r2, [r3, #0]
 727              		.loc 1 492 0
 728 001e DD60     		str	r5, [r3, #12]
 729              		.loc 1 494 0
 730 0020 1A61     		str	r2, [r3, #16]
 731              		.loc 1 495 0
 732 0022 5A63     		str	r2, [r3, #52]
 733              		.loc 1 496 0
 734 0024 9A63     		str	r2, [r3, #56]
 735              		.loc 1 497 0
 736 0026 DA63     		str	r2, [r3, #60]
 737              		.loc 1 498 0
 738 0028 1A64     		str	r2, [r3, #64]
 739              		.loc 1 499 0
 740 002a 5A62     		str	r2, [r3, #36]
 741              	.L89:
 742              	.LVL47:
 743              		.loc 1 503 0
 744 002c E768     		ldr	r7, [r4, #12]
 745 002e 0A68     		ldr	r2, [r1, #0]
 746              		.loc 1 508 0
 747 0030 B4F80880 		ldrh	r8, [r4, #8]
 748              		.loc 1 513 0
 749 0034 CD68     		ldr	r5, [r1, #12]
 750              		.loc 1 503 0
 751 0036 B7FBF2FC 		udiv	ip, r7, r2
 752 003a 0CF1FF30 		add	r0, ip, #-1
 753              	.LVL48:
 754              		.loc 1 507 0
 755 003e 80B2     		uxth	r0, r0
 756              	.LVL49:
 757 0040 9862     		str	r0, [r3, #40]
 758              		.loc 1 508 0
 759 0042 08F1FF37 		add	r7, r8, #-1
 760              		.loc 1 513 0
 761 0046 05F00F02 		and	r2, r5, #15
 762              		.loc 1 509 0
 763 004a C86A     		ldr	r0, [r1, #44]
 764              		.loc 1 508 0
 765 004c BFB2     		uxth	r7, r7
 766              		.loc 1 513 0
 767 004e 012A     		cmp	r2, #1
 768              		.loc 1 508 0
 769 0050 DF62     		str	r7, [r3, #44]
 770              		.loc 1 509 0
 771 0052 5860     		str	r0, [r3, #4]
 772              	.LVL50:
 773              		.loc 1 513 0
 774 0054 03D0     		beq	.L90
 775              		.loc 1 512 0
 776 0056 022A     		cmp	r2, #2
 777 0058 0CBF     		ite	eq
 778 005a 0322     		moveq	r2, #3
 779 005c 0022     		movne	r2, #0
 780              	.L90:
 781              	.LVL51:
ARM GAS  C:\Users\Mohamad\AppData\Local\Temp\ccYumLog.s 			page 15


 782              		.loc 1 521 0
 783 005e D1F814C0 		ldr	ip, [r1, #20]
 784 0062 0CF00F07 		and	r7, ip, #15
 785 0066 012F     		cmp	r7, #1
 786 0068 2BD0     		beq	.L94
 787 006a 022F     		cmp	r7, #2
 788 006c 27D0     		beq	.L135
 789              		.loc 1 529 0
 790 006e CF69     		ldr	r7, [r1, #28]
 791 0070 07F00F00 		and	r0, r7, #15
 792 0074 0128     		cmp	r0, #1
 793 0076 2BD0     		beq	.L97
 794              	.LVL52:
 795              	.L138:
 796 0078 0228     		cmp	r0, #2
 797 007a 50D0     		beq	.L136
 798              	.LVL53:
 799              		.loc 1 537 0
 800 007c 486A     		ldr	r0, [r1, #36]
 801 007e 00F00F00 		and	r0, r0, #15
 802 0082 0128     		cmp	r0, #1
 803 0084 2BD0     		beq	.L100
 804              	.LVL54:
 805              	.L139:
 806 0086 0228     		cmp	r0, #2
 807 0088 44D0     		beq	.L137
 808              	.LVL55:
 809              		.loc 1 553 0
 810 008a B442     		cmp	r4, r6
 811 008c 2BD0     		beq	.L102
 812              	.LVL56:
 813              	.L140:
 814              		.loc 1 553 0 is_stmt 0 discriminator 1
 815 008e 8A48     		ldr	r0, .L152+4
 816 0090 8442     		cmp	r4, r0
 817 0092 28D0     		beq	.L102
 818              	.LVL57:
 819              	.L103:
 820              		.loc 1 583 0 is_stmt 1
 821 0094 0120     		movs	r0, #1
 822              		.loc 1 582 0
 823 0096 1A62     		str	r2, [r3, #32]
 824              		.loc 1 583 0
 825 0098 5861     		str	r0, [r3, #20]
 826              		.loc 1 584 0
 827 009a D868     		ldr	r0, [r3, #12]
 828 009c 8C68     		ldr	r4, [r1, #8]
 829              		.loc 1 588 0
 830 009e 0A6B     		ldr	r2, [r1, #48]
 831              	.LVL58:
 832              		.loc 1 584 0
 833 00a0 002C     		cmp	r4, #0
 834 00a2 0CBF     		ite	eq
 835 00a4 0146     		moveq	r1, r0
 836 00a6 40F00101 		orrne	r1, r0, #1
 837              	.LVL59:
 838 00aa D960     		str	r1, [r3, #12]
ARM GAS  C:\Users\Mohamad\AppData\Local\Temp\ccYumLog.s 			page 16


 839              		.loc 1 588 0
 840 00ac 42F40040 		orr	r0, r2, #32768
 841              		.loc 1 594 0
 842 00b0 8521     		movs	r1, #133
 843              		.loc 1 585 0
 844 00b2 0022     		movs	r2, #0
 845 00b4 1A61     		str	r2, [r3, #16]
 846              		.loc 1 588 0
 847 00b6 5864     		str	r0, [r3, #68]
 848              		.loc 1 594 0
 849 00b8 1960     		str	r1, [r3, #0]
 850 00ba BDE8F081 		pop	{r4, r5, r6, r7, r8, pc}
 851              	.LVL60:
 852              	.L135:
 853              		.loc 1 523 0
 854 00be 42F02002 		orr	r2, r2, #32
 855              	.LVL61:
 856              	.L94:
 857              		.loc 1 529 0
 858 00c2 CF69     		ldr	r7, [r1, #28]
 859 00c4 07F00F00 		and	r0, r7, #15
 860 00c8 0128     		cmp	r0, #1
 861              		.loc 1 525 0
 862 00ca 42F01002 		orr	r2, r2, #16
 863              	.LVL62:
 864              		.loc 1 529 0
 865 00ce D3D1     		bne	.L138
 866              	.LVL63:
 867              	.L97:
 868              		.loc 1 533 0
 869 00d0 42F48072 		orr	r2, r2, #256
 870              	.LVL64:
 871              	.L144:
 872              		.loc 1 537 0
 873 00d4 486A     		ldr	r0, [r1, #36]
 874 00d6 00F00F00 		and	r0, r0, #15
 875 00da 0128     		cmp	r0, #1
 876 00dc D3D1     		bne	.L139
 877              	.LVL65:
 878              	.L100:
 879              		.loc 1 541 0
 880 00de 42F48052 		orr	r2, r2, #4096
 881              	.LVL66:
 882              	.L143:
 883              		.loc 1 553 0
 884 00e2 B442     		cmp	r4, r6
 885 00e4 D3D1     		bne	.L140
 886              	.LVL67:
 887              	.L102:
 888              		.loc 1 555 0
 889 00e6 05F0F005 		and	r5, r5, #240
 890 00ea 102D     		cmp	r5, #16
 891 00ec 3CD0     		beq	.L105
 892 00ee 202D     		cmp	r5, #32
 893 00f0 38D0     		beq	.L141
 894              	.L104:
 895              	.LVL68:
ARM GAS  C:\Users\Mohamad\AppData\Local\Temp\ccYumLog.s 			page 17


 896              		.loc 1 563 0
 897 00f2 0CF0F004 		and	r4, ip, #240
 898              	.LVL69:
 899 00f6 102C     		cmp	r4, #16
 900 00f8 3BD0     		beq	.L108
 901 00fa 202C     		cmp	r4, #32
 902 00fc 37D0     		beq	.L142
 903              	.LVL70:
 904              	.L107:
 905              		.loc 1 571 0
 906 00fe 07F0F007 		and	r7, r7, #240
 907 0102 102F     		cmp	r7, #16
 908 0104 03D0     		beq	.L110
 909 0106 202F     		cmp	r7, #32
 910 0108 C4D1     		bne	.L103
 911              		.loc 1 573 0
 912 010a 42F40062 		orr	r2, r2, #2048
 913              	.LVL71:
 914              	.L110:
 915              		.loc 1 575 0
 916 010e 42F48062 		orr	r2, r2, #1024
 917              	.LVL72:
 918 0112 BFE7     		b	.L103
 919              	.LVL73:
 920              	.L137:
 921              		.loc 1 539 0
 922 0114 42F40052 		orr	r2, r2, #8192
 923              	.LVL74:
 924              		.loc 1 541 0
 925 0118 42F48052 		orr	r2, r2, #4096
 926              	.LVL75:
 927 011c E1E7     		b	.L143
 928              	.LVL76:
 929              	.L136:
 930              		.loc 1 531 0
 931 011e 42F40072 		orr	r2, r2, #512
 932              	.LVL77:
 933              		.loc 1 533 0
 934 0122 42F48072 		orr	r2, r2, #256
 935              	.LVL78:
 936 0126 D5E7     		b	.L144
 937              	.LVL79:
 938              	.L134:
 939              		.loc 1 406 0
 940 0128 624E     		ldr	r6, .L152
 941 012a B042     		cmp	r0, r6
 942 012c 3CD0     		beq	.L145
 943              		.loc 1 421 0
 944 012e 634F     		ldr	r7, .L152+8
 945 0130 B842     		cmp	r0, r7
 946 0132 55D0     		beq	.L146
 947              		.loc 1 430 0
 948 0134 6249     		ldr	r1, .L152+12
 949 0136 8842     		cmp	r0, r1
 950 0138 6AD0     		beq	.L147
 951              		.loc 1 439 0
 952 013a 624B     		ldr	r3, .L152+16
ARM GAS  C:\Users\Mohamad\AppData\Local\Temp\ccYumLog.s 			page 18


 953 013c 9842     		cmp	r0, r3
 954 013e 7FD0     		beq	.L148
 955              		.loc 1 449 0
 956 0140 6148     		ldr	r0, .L152+20
 957              	.LVL80:
 958 0142 8442     		cmp	r4, r0
 959 0144 18D0     		beq	.L149
 960              	.L88:
 961              		.loc 1 458 0
 962 0146 5C4B     		ldr	r3, .L152+4
 963 0148 9C42     		cmp	r4, r3
 964 014a 00F08780 		beq	.L150
 965              	.L85:
 966              		.loc 1 473 0
 967 014e 5F48     		ldr	r0, .L152+24
 968 0150 8442     		cmp	r4, r0
 969 0152 00F09F80 		beq	.L151
 970              	.L87:
 971              		.loc 1 484 0
 972 0156 2369     		ldr	r3, [r4, #16]
 973 0158 6168     		ldr	r1, [r4, #4]
 974 015a 46F66800 		movw	r0, #26728
 975 015e 9861     		str	r0, [r3, #24]
 976              		.loc 1 486 0
 977 0160 D861     		str	r0, [r3, #28]
 978 0162 63E7     		b	.L89
 979              	.LVL81:
 980              	.L141:
 981              		.loc 1 557 0
 982 0164 42F00802 		orr	r2, r2, #8
 983              	.LVL82:
 984              	.L105:
 985              		.loc 1 559 0
 986 0168 42F00402 		orr	r2, r2, #4
 987              	.LVL83:
 988 016c C1E7     		b	.L104
 989              	.LVL84:
 990              	.L142:
 991              		.loc 1 565 0
 992 016e 42F08002 		orr	r2, r2, #128
 993              	.LVL85:
 994              	.L108:
 995              		.loc 1 567 0
 996 0172 42F04002 		orr	r2, r2, #64
 997              	.LVL86:
 998 0176 C2E7     		b	.L107
 999              	.LVL87:
 1000              	.L149:
 1001              		.loc 1 450 0
 1002 0178 4FF46055 		mov	r5, #14336
 1003 017c C4F20205 		movt	r5, 16386
 1004              		.loc 1 452 0
 1005 0180 3220     		movs	r0, #50
 1006              		.loc 1 450 0
 1007 0182 2A6C     		ldr	r2, [r5, #64]
 1008 0184 42F00807 		orr	r7, r2, #8
 1009 0188 2F64     		str	r7, [r5, #64]
ARM GAS  C:\Users\Mohamad\AppData\Local\Temp\ccYumLog.s 			page 19


 1010              		.loc 1 451 0
 1011 018a 296A     		ldr	r1, [r5, #32]
 1012 018c 41F00803 		orr	r3, r1, #8
 1013 0190 2B62     		str	r3, [r5, #32]
 1014              	.L132:
 1015 0192 0023     		movs	r3, #0
 1016 0194 2B62     		str	r3, [r5, #32]
 1017              		.loc 1 454 0
 1018 0196 4FF43D45 		mov	r5, #48384
 1019              		.loc 1 452 0
 1020 019a 7021     		movs	r1, #112
 1021              		.loc 1 454 0
 1022 019c C0F20155 		movt	r5, 1281
 1023              		.loc 1 452 0
 1024 01a0 FFF7FEFF 		bl	nvicEnableVector
 1025              	.LVL88:
 1026              		.loc 1 454 0
 1027 01a4 E560     		str	r5, [r4, #12]
 1028 01a6 D6E7     		b	.L87
 1029              	.LVL89:
 1030              	.L145:
 1031              		.loc 1 407 0
 1032 01a8 4FF46053 		mov	r3, #14336
 1033 01ac C4F20203 		movt	r3, 16386
 1034              		.loc 1 409 0
 1035 01b0 7021     		movs	r1, #112
 1036              		.loc 1 407 0
 1037 01b2 586C     		ldr	r0, [r3, #68]
 1038              	.LVL90:
 1039 01b4 40F00102 		orr	r2, r0, #1
 1040 01b8 5A64     		str	r2, [r3, #68]
 1041              		.loc 1 408 0
 1042 01ba 5D6A     		ldr	r5, [r3, #36]
 1043 01bc 0022     		movs	r2, #0
 1044 01be 45F00107 		orr	r7, r5, #1
 1045 01c2 5F62     		str	r7, [r3, #36]
 1046              		.loc 1 409 0
 1047 01c4 1920     		movs	r0, #25
 1048              		.loc 1 408 0
 1049 01c6 5A62     		str	r2, [r3, #36]
 1050              		.loc 1 409 0
 1051 01c8 FFF7FEFF 		bl	nvicEnableVector
 1052              	.LVL91:
 1053              		.loc 1 411 0
 1054 01cc 7021     		movs	r1, #112
 1055 01ce 1B20     		movs	r0, #27
 1056 01d0 FFF7FEFF 		bl	nvicEnableVector
 1057              	.LVL92:
 1058              		.loc 1 416 0
 1059 01d4 4FF4F441 		mov	r1, #31232
 1060 01d8 C0F60321 		movt	r1, 2563
 1061 01dc E160     		str	r1, [r4, #12]
 1062 01de B2E7     		b	.L88
 1063              	.LVL93:
 1064              	.L146:
 1065              		.loc 1 422 0
 1066 01e0 4FF46051 		mov	r1, #14336
ARM GAS  C:\Users\Mohamad\AppData\Local\Temp\ccYumLog.s 			page 20


 1067 01e4 C4F20201 		movt	r1, 16386
 1068              		.loc 1 423 0
 1069 01e8 0027     		movs	r7, #0
 1070              		.loc 1 422 0
 1071 01ea 086C     		ldr	r0, [r1, #64]
 1072              	.LVL94:
 1073 01ec 40F00102 		orr	r2, r0, #1
 1074 01f0 0A64     		str	r2, [r1, #64]
 1075              		.loc 1 423 0
 1076 01f2 0B6A     		ldr	r3, [r1, #32]
 1077 01f4 43F00105 		orr	r5, r3, #1
 1078 01f8 0D62     		str	r5, [r1, #32]
 1079              		.loc 1 424 0
 1080 01fa 1C20     		movs	r0, #28
 1081              		.loc 1 423 0
 1082 01fc 0F62     		str	r7, [r1, #32]
 1083              		.loc 1 424 0
 1084 01fe 7021     		movs	r1, #112
 1085 0200 FFF7FEFF 		bl	nvicEnableVector
 1086              	.LVL95:
 1087              		.loc 1 426 0
 1088 0204 4FF43D41 		mov	r1, #48384
 1089 0208 C0F20151 		movt	r1, 1281
 1090 020c E160     		str	r1, [r4, #12]
 1091 020e 9AE7     		b	.L88
 1092              	.LVL96:
 1093              	.L147:
 1094              		.loc 1 431 0
 1095 0210 4FF46057 		mov	r7, #14336
 1096 0214 C4F20207 		movt	r7, 16386
 1097              		.loc 1 432 0
 1098 0218 0025     		movs	r5, #0
 1099              		.loc 1 431 0
 1100 021a 386C     		ldr	r0, [r7, #64]
 1101              	.LVL97:
 1102 021c 40F00202 		orr	r2, r0, #2
 1103 0220 3A64     		str	r2, [r7, #64]
 1104              		.loc 1 432 0
 1105 0222 396A     		ldr	r1, [r7, #32]
 1106 0224 41F00203 		orr	r3, r1, #2
 1107 0228 3B62     		str	r3, [r7, #32]
 1108 022a 3D62     		str	r5, [r7, #32]
 1109              		.loc 1 435 0
 1110 022c 4FF43D47 		mov	r7, #48384
 1111              		.loc 1 433 0
 1112 0230 1D20     		movs	r0, #29
 1113 0232 7021     		movs	r1, #112
 1114              		.loc 1 435 0
 1115 0234 C0F20157 		movt	r7, 1281
 1116              		.loc 1 433 0
 1117 0238 FFF7FEFF 		bl	nvicEnableVector
 1118              	.LVL98:
 1119              		.loc 1 435 0
 1120 023c E760     		str	r7, [r4, #12]
 1121 023e 86E7     		b	.L85
 1122              	.LVL99:
 1123              	.L148:
ARM GAS  C:\Users\Mohamad\AppData\Local\Temp\ccYumLog.s 			page 21


 1124              		.loc 1 440 0
 1125 0240 4FF46055 		mov	r5, #14336
 1126 0244 C4F20205 		movt	r5, 16386
 1127 0248 286C     		ldr	r0, [r5, #64]
 1128              	.LVL100:
 1129 024a 40F00402 		orr	r2, r0, #4
 1130 024e 2A64     		str	r2, [r5, #64]
 1131              		.loc 1 441 0
 1132 0250 2F6A     		ldr	r7, [r5, #32]
 1133 0252 47F00401 		orr	r1, r7, #4
 1134 0256 2962     		str	r1, [r5, #32]
 1135              		.loc 1 442 0
 1136 0258 1E20     		movs	r0, #30
 1137 025a 9AE7     		b	.L132
 1138              	.L150:
 1139              		.loc 1 459 0
 1140 025c 4FF46055 		mov	r5, #14336
 1141 0260 C4F20205 		movt	r5, 16386
 1142              		.loc 1 460 0
 1143 0264 0027     		movs	r7, #0
 1144              		.loc 1 459 0
 1145 0266 686C     		ldr	r0, [r5, #68]
 1146 0268 40F00202 		orr	r2, r0, #2
 1147 026c 6A64     		str	r2, [r5, #68]
 1148              		.loc 1 460 0
 1149 026e 696A     		ldr	r1, [r5, #36]
 1150 0270 41F00203 		orr	r3, r1, #2
 1151 0274 6B62     		str	r3, [r5, #36]
 1152              		.loc 1 461 0
 1153 0276 2C20     		movs	r0, #44
 1154 0278 7021     		movs	r1, #112
 1155              		.loc 1 460 0
 1156 027a 6F62     		str	r7, [r5, #36]
 1157              		.loc 1 461 0
 1158 027c FFF7FEFF 		bl	nvicEnableVector
 1159              	.LVL101:
 1160              		.loc 1 463 0
 1161 0280 2E20     		movs	r0, #46
 1162              	.L133:
 1163              		.loc 1 478 0
 1164 0282 4FF4F445 		mov	r5, #31232
 1165              		.loc 1 476 0
 1166 0286 7021     		movs	r1, #112
 1167              		.loc 1 478 0
 1168 0288 C0F60325 		movt	r5, 2563
 1169              		.loc 1 476 0
 1170 028c FFF7FEFF 		bl	nvicEnableVector
 1171              	.LVL102:
 1172              		.loc 1 478 0
 1173 0290 E560     		str	r5, [r4, #12]
 1174 0292 60E7     		b	.L87
 1175              	.L151:
 1176              		.loc 1 474 0
 1177 0294 4FF46055 		mov	r5, #14336
 1178 0298 C4F20205 		movt	r5, 16386
 1179              		.loc 1 476 0
 1180 029c 1820     		movs	r0, #24
ARM GAS  C:\Users\Mohamad\AppData\Local\Temp\ccYumLog.s 			page 22


 1181              		.loc 1 474 0
 1182 029e 6F6C     		ldr	r7, [r5, #68]
 1183 02a0 47F48032 		orr	r2, r7, #65536
 1184 02a4 6A64     		str	r2, [r5, #68]
 1185              		.loc 1 475 0
 1186 02a6 696A     		ldr	r1, [r5, #36]
 1187 02a8 0027     		movs	r7, #0
 1188 02aa 41F48033 		orr	r3, r1, #65536
 1189 02ae 6B62     		str	r3, [r5, #36]
 1190 02b0 6F62     		str	r7, [r5, #36]
 1191 02b2 E6E7     		b	.L133
 1192              	.L153:
 1193              		.align	2
 1194              	.L152:
 1195 02b4 00000000 		.word	.LANCHOR0
 1196 02b8 00000000 		.word	.LANCHOR5
 1197 02bc 00000000 		.word	.LANCHOR1
 1198 02c0 00000000 		.word	.LANCHOR2
 1199 02c4 00000000 		.word	.LANCHOR3
 1200 02c8 00000000 		.word	.LANCHOR4
 1201 02cc 00000000 		.word	.LANCHOR6
 1202              		.cfi_endproc
 1203              	.LFE129:
 1204              		.size	pwm_lld_start, .-pwm_lld_start
 1205              		.section	.text.pwm_lld_stop,"ax",%progbits
 1206              		.align	2
 1207              		.p2align 4,,15
 1208              		.global	pwm_lld_stop
 1209              		.thumb
 1210              		.thumb_func
 1211              		.type	pwm_lld_stop, %function
 1212              	pwm_lld_stop:
 1213              	.LFB130:
 1214              		.loc 1 605 0
 1215              		.cfi_startproc
 1216              		@ args = 0, pretend = 0, frame = 0
 1217              		@ frame_needed = 0, uses_anonymous_args = 0
 1218              	.LVL103:
 1219              		.loc 1 608 0
 1220 0000 0378     		ldrb	r3, [r0, #0]	@ zero_extendqisi2
 1221 0002 022B     		cmp	r3, #2
 1222              		.loc 1 605 0
 1223 0004 10B5     		push	{r4, lr}
 1224              	.LCFI12:
 1225              		.cfi_def_cfa_offset 8
 1226              		.cfi_offset 4, -8
 1227              		.cfi_offset 14, -4
 1228              		.loc 1 605 0
 1229 0006 0446     		mov	r4, r0
 1230              		.loc 1 608 0
 1231 0008 00D0     		beq	.L165
 1232              	.LVL104:
 1233              	.L154:
 1234 000a 10BD     		pop	{r4, pc}
 1235              	.LVL105:
 1236              	.L165:
 1237              		.loc 1 617 0
ARM GAS  C:\Users\Mohamad\AppData\Local\Temp\ccYumLog.s 			page 23


 1238 000c 3A49     		ldr	r1, .L172
 1239              		.loc 1 609 0
 1240 000e 0069     		ldr	r0, [r0, #16]
 1241              	.LVL106:
 1242 0010 0022     		movs	r2, #0
 1243              		.loc 1 617 0
 1244 0012 8C42     		cmp	r4, r1
 1245              		.loc 1 609 0
 1246 0014 0260     		str	r2, [r0, #0]
 1247              		.loc 1 610 0
 1248 0016 C260     		str	r2, [r0, #12]
 1249              		.loc 1 611 0
 1250 0018 0261     		str	r2, [r0, #16]
 1251              		.loc 1 613 0
 1252 001a 4264     		str	r2, [r0, #68]
 1253              		.loc 1 617 0
 1254 001c 1DD0     		beq	.L166
 1255              		.loc 1 624 0
 1256 001e 374B     		ldr	r3, .L172+4
 1257 0020 9C42     		cmp	r4, r3
 1258 0022 29D0     		beq	.L167
 1259              		.loc 1 630 0
 1260 0024 3648     		ldr	r0, .L172+8
 1261 0026 8442     		cmp	r4, r0
 1262 0028 32D0     		beq	.L168
 1263              		.loc 1 636 0
 1264 002a 364A     		ldr	r2, .L172+12
 1265 002c 9442     		cmp	r4, r2
 1266 002e 3BD0     		beq	.L169
 1267              		.loc 1 642 0
 1268 0030 3549     		ldr	r1, .L172+16
 1269 0032 8C42     		cmp	r4, r1
 1270 0034 44D0     		beq	.L170
 1271              	.L164:
 1272              		.loc 1 648 0
 1273 0036 354A     		ldr	r2, .L172+20
 1274 0038 9442     		cmp	r4, r2
 1275 003a 4DD0     		beq	.L171
 1276              	.L161:
 1277              		.loc 1 655 0
 1278 003c 344B     		ldr	r3, .L172+24
 1279 003e 9C42     		cmp	r4, r3
 1280 0040 E3D1     		bne	.L154
 1281              		.loc 1 656 0
 1282 0042 1820     		movs	r0, #24
 1283 0044 FFF7FEFF 		bl	nvicDisableVector
 1284              	.LVL107:
 1285              		.loc 1 657 0
 1286 0048 4FF46050 		mov	r0, #14336
 1287 004c C4F20200 		movt	r0, 16386
 1288 0050 416C     		ldr	r1, [r0, #68]
 1289 0052 21F48032 		bic	r2, r1, #65536
 1290 0056 4264     		str	r2, [r0, #68]
 1291 0058 D7E7     		b	.L154
 1292              	.L166:
 1293              		.loc 1 618 0
 1294 005a 1920     		movs	r0, #25
ARM GAS  C:\Users\Mohamad\AppData\Local\Temp\ccYumLog.s 			page 24


 1295 005c FFF7FEFF 		bl	nvicDisableVector
 1296              	.LVL108:
 1297              		.loc 1 619 0
 1298 0060 1B20     		movs	r0, #27
 1299 0062 FFF7FEFF 		bl	nvicDisableVector
 1300              	.LVL109:
 1301              		.loc 1 620 0
 1302 0066 4FF46053 		mov	r3, #14336
 1303 006a C4F20203 		movt	r3, 16386
 1304 006e 586C     		ldr	r0, [r3, #68]
 1305 0070 20F00101 		bic	r1, r0, #1
 1306 0074 5964     		str	r1, [r3, #68]
 1307 0076 DEE7     		b	.L164
 1308              	.L167:
 1309              		.loc 1 625 0
 1310 0078 1C20     		movs	r0, #28
 1311 007a FFF7FEFF 		bl	nvicDisableVector
 1312              	.LVL110:
 1313              		.loc 1 626 0
 1314 007e 4FF46050 		mov	r0, #14336
 1315 0082 C4F20200 		movt	r0, 16386
 1316 0086 016C     		ldr	r1, [r0, #64]
 1317 0088 21F00102 		bic	r2, r1, #1
 1318 008c 0264     		str	r2, [r0, #64]
 1319 008e D2E7     		b	.L164
 1320              	.L168:
 1321              		.loc 1 631 0
 1322 0090 1D20     		movs	r0, #29
 1323 0092 FFF7FEFF 		bl	nvicDisableVector
 1324              	.LVL111:
 1325              		.loc 1 632 0
 1326 0096 4FF46051 		mov	r1, #14336
 1327 009a C4F20201 		movt	r1, 16386
 1328 009e 0A6C     		ldr	r2, [r1, #64]
 1329 00a0 22F00203 		bic	r3, r2, #2
 1330 00a4 0B64     		str	r3, [r1, #64]
 1331 00a6 C9E7     		b	.L161
 1332              	.L169:
 1333              		.loc 1 637 0
 1334 00a8 1E20     		movs	r0, #30
 1335 00aa FFF7FEFF 		bl	nvicDisableVector
 1336              	.LVL112:
 1337              		.loc 1 638 0
 1338 00ae 4FF46051 		mov	r1, #14336
 1339 00b2 C4F20201 		movt	r1, 16386
 1340 00b6 0B6C     		ldr	r3, [r1, #64]
 1341 00b8 23F00400 		bic	r0, r3, #4
 1342 00bc 0864     		str	r0, [r1, #64]
 1343 00be 10BD     		pop	{r4, pc}
 1344              	.L170:
 1345              		.loc 1 643 0
 1346 00c0 3220     		movs	r0, #50
 1347 00c2 FFF7FEFF 		bl	nvicDisableVector
 1348              	.LVL113:
 1349              		.loc 1 644 0
 1350 00c6 4FF46053 		mov	r3, #14336
 1351 00ca C4F20203 		movt	r3, 16386
ARM GAS  C:\Users\Mohamad\AppData\Local\Temp\ccYumLog.s 			page 25


 1352 00ce 186C     		ldr	r0, [r3, #64]
 1353 00d0 20F00802 		bic	r2, r0, #8
 1354 00d4 1A64     		str	r2, [r3, #64]
 1355 00d6 10BD     		pop	{r4, pc}
 1356              	.L171:
 1357              		.loc 1 649 0
 1358 00d8 2C20     		movs	r0, #44
 1359 00da FFF7FEFF 		bl	nvicDisableVector
 1360              	.LVL114:
 1361              		.loc 1 650 0
 1362 00de 2E20     		movs	r0, #46
 1363 00e0 FFF7FEFF 		bl	nvicDisableVector
 1364              	.LVL115:
 1365              		.loc 1 651 0
 1366 00e4 4FF46053 		mov	r3, #14336
 1367 00e8 C4F20203 		movt	r3, 16386
 1368 00ec 586C     		ldr	r0, [r3, #68]
 1369 00ee 20F00201 		bic	r1, r0, #2
 1370 00f2 5964     		str	r1, [r3, #68]
 1371 00f4 10BD     		pop	{r4, pc}
 1372              	.L173:
 1373 00f6 00BF     		.align	2
 1374              	.L172:
 1375 00f8 00000000 		.word	.LANCHOR0
 1376 00fc 00000000 		.word	.LANCHOR1
 1377 0100 00000000 		.word	.LANCHOR2
 1378 0104 00000000 		.word	.LANCHOR3
 1379 0108 00000000 		.word	.LANCHOR4
 1380 010c 00000000 		.word	.LANCHOR5
 1381 0110 00000000 		.word	.LANCHOR6
 1382              		.cfi_endproc
 1383              	.LFE130:
 1384              		.size	pwm_lld_stop, .-pwm_lld_stop
 1385 0114 AFF30080 		.section	.text.pwm_lld_enable_channel,"ax",%progbits
 1385      AFF30080 
 1385      AFF30080 
 1386              		.align	2
 1387              		.p2align 4,,15
 1388              		.global	pwm_lld_enable_channel
 1389              		.thumb
 1390              		.thumb_func
 1391              		.type	pwm_lld_enable_channel, %function
 1392              	pwm_lld_enable_channel:
 1393              	.LFB131:
 1394              		.loc 1 677 0
 1395              		.cfi_startproc
 1396              		@ args = 0, pretend = 0, frame = 0
 1397              		@ frame_needed = 0, uses_anonymous_args = 0
 1398              		@ link register save eliminated.
 1399              	.LVL116:
 1400 0000 10B4     		push	{r4}
 1401              	.LCFI13:
 1402              		.cfi_def_cfa_offset 4
 1403              		.cfi_offset 4, -4
 1404              		.loc 1 682 0
 1405 0002 4468     		ldr	r4, [r0, #4]
 1406              		.loc 1 679 0
ARM GAS  C:\Users\Mohamad\AppData\Local\Temp\ccYumLog.s 			page 26


 1407 0004 0369     		ldr	r3, [r0, #16]
 1408              		.loc 1 682 0
 1409 0006 04EBC100 		add	r0, r4, r1, lsl #3
 1410              	.LVL117:
 1411              		.loc 1 679 0
 1412 000a 01F10C04 		add	r4, r1, #12
 1413 000e 03EB8404 		add	r4, r3, r4, lsl #2
 1414              		.loc 1 682 0
 1415 0012 0069     		ldr	r0, [r0, #16]
 1416              		.loc 1 679 0
 1417 0014 6260     		str	r2, [r4, #4]
 1418              		.loc 1 682 0
 1419 0016 48B1     		cbz	r0, .L174
 1420              	.LBB2:
 1421              		.loc 1 686 0
 1422 0018 0220     		movs	r0, #2
 1423              		.loc 1 683 0
 1424 001a DA68     		ldr	r2, [r3, #12]
 1425              	.LVL118:
 1426              		.loc 1 686 0
 1427 001c 00FA01F1 		lsl	r1, r0, r1
 1428              	.LVL119:
 1429 0020 1142     		tst	r1, r2
 1430 0022 03D1     		bne	.L174
 1431              		.loc 1 687 0
 1432 0024 0A43     		orrs	r2, r2, r1
 1433              	.LVL120:
 1434              		.loc 1 688 0
 1435 0026 C843     		mvns	r0, r1
 1436              		.loc 1 687 0
 1437 0028 DA60     		str	r2, [r3, #12]
 1438              		.loc 1 688 0
 1439 002a 1861     		str	r0, [r3, #16]
 1440              	.L174:
 1441              	.LBE2:
 1442              		.loc 1 691 0
 1443 002c 10BC     		pop	{r4}
 1444 002e 7047     		bx	lr
 1445              		.cfi_endproc
 1446              	.LFE131:
 1447              		.size	pwm_lld_enable_channel, .-pwm_lld_enable_channel
 1448              		.section	.text.pwm_lld_disable_channel,"ax",%progbits
 1449              		.align	2
 1450              		.p2align 4,,15
 1451              		.global	pwm_lld_disable_channel
 1452              		.thumb
 1453              		.thumb_func
 1454              		.type	pwm_lld_disable_channel, %function
 1455              	pwm_lld_disable_channel:
 1456              	.LFB132:
 1457              		.loc 1 705 0
 1458              		.cfi_startproc
 1459              		@ args = 0, pretend = 0, frame = 0
 1460              		@ frame_needed = 0, uses_anonymous_args = 0
 1461              		@ link register save eliminated.
 1462              	.LVL121:
 1463              		.loc 1 707 0
ARM GAS  C:\Users\Mohamad\AppData\Local\Temp\ccYumLog.s 			page 27


 1464 0000 0369     		ldr	r3, [r0, #16]
 1465 0002 01F10C02 		add	r2, r1, #12
 1466 0006 03EB8202 		add	r2, r3, r2, lsl #2
 1467 000a 0020     		movs	r0, #0
 1468              	.LVL122:
 1469 000c 5060     		str	r0, [r2, #4]
 1470              		.loc 1 708 0
 1471 000e DA68     		ldr	r2, [r3, #12]
 1472 0010 0220     		movs	r0, #2
 1473 0012 00FA01F1 		lsl	r1, r0, r1
 1474              	.LVL123:
 1475 0016 22EA0102 		bic	r2, r2, r1
 1476 001a DA60     		str	r2, [r3, #12]
 1477 001c 7047     		bx	lr
 1478              		.cfi_endproc
 1479              	.LFE132:
 1480              		.size	pwm_lld_disable_channel, .-pwm_lld_disable_channel
 1481              		.global	PWMD9
 1482              		.global	PWMD8
 1483              		.global	PWMD5
 1484              		.global	PWMD4
 1485              		.global	PWMD3
 1486              		.global	PWMD2
 1487              		.global	PWMD1
 1488 001e 00BF     		.section	.bss.PWMD1,"aw",%nobits
 1489              		.align	2
 1490              		.set	.LANCHOR0,. + 0
 1491              		.type	PWMD1, %object
 1492              		.size	PWMD1, 20
 1493              	PWMD1:
 1494 0000 00000000 		.space	20
 1494      00000000 
 1494      00000000 
 1494      00000000 
 1494      00000000 
 1495              		.section	.bss.PWMD2,"aw",%nobits
 1496              		.align	2
 1497              		.set	.LANCHOR1,. + 0
 1498              		.type	PWMD2, %object
 1499              		.size	PWMD2, 20
 1500              	PWMD2:
 1501 0000 00000000 		.space	20
 1501      00000000 
 1501      00000000 
 1501      00000000 
 1501      00000000 
 1502              		.section	.bss.PWMD3,"aw",%nobits
 1503              		.align	2
 1504              		.set	.LANCHOR2,. + 0
 1505              		.type	PWMD3, %object
 1506              		.size	PWMD3, 20
 1507              	PWMD3:
 1508 0000 00000000 		.space	20
 1508      00000000 
 1508      00000000 
 1508      00000000 
 1508      00000000 
ARM GAS  C:\Users\Mohamad\AppData\Local\Temp\ccYumLog.s 			page 28


 1509              		.section	.bss.PWMD4,"aw",%nobits
 1510              		.align	2
 1511              		.set	.LANCHOR3,. + 0
 1512              		.type	PWMD4, %object
 1513              		.size	PWMD4, 20
 1514              	PWMD4:
 1515 0000 00000000 		.space	20
 1515      00000000 
 1515      00000000 
 1515      00000000 
 1515      00000000 
 1516              		.section	.bss.PWMD5,"aw",%nobits
 1517              		.align	2
 1518              		.set	.LANCHOR4,. + 0
 1519              		.type	PWMD5, %object
 1520              		.size	PWMD5, 20
 1521              	PWMD5:
 1522 0000 00000000 		.space	20
 1522      00000000 
 1522      00000000 
 1522      00000000 
 1522      00000000 
 1523              		.section	.bss.PWMD8,"aw",%nobits
 1524              		.align	2
 1525              		.set	.LANCHOR5,. + 0
 1526              		.type	PWMD8, %object
 1527              		.size	PWMD8, 20
 1528              	PWMD8:
 1529 0000 00000000 		.space	20
 1529      00000000 
 1529      00000000 
 1529      00000000 
 1529      00000000 
 1530              		.section	.bss.PWMD9,"aw",%nobits
 1531              		.align	2
 1532              		.set	.LANCHOR6,. + 0
 1533              		.type	PWMD9, %object
 1534              		.size	PWMD9, 20
 1535              	PWMD9:
 1536 0000 00000000 		.space	20
 1536      00000000 
 1536      00000000 
 1536      00000000 
 1536      00000000 
 1537              		.text
 1538              	.Letext0:
 1539              		.file 2 "c:\\chibistudio\\tools\\gnu tools arm embedded\\4.7 2014q2\\bin\\../lib/gcc/arm-none-eabi
 1540              		.file 3 "../../chibios/os/hal/platforms/STM32F4xx/stm32f4xx.h"
 1541              		.file 4 "../../chibios/os/hal/include/pwm.h"
 1542              		.file 5 "../../chibios/os/hal/platforms/STM32/TIMv1/pwm_lld.h"
 1543              		.file 6 "../../chibios/os/hal/platforms/STM32/TIMv1/stm32_tim.h"
 1544              		.file 7 "../../chibios/os/ports/common/ARMCMx/CMSIS/include/core_cm4.h"
 1545              		.file 8 "../../chibios/os/ports/common/ARMCMx/nvic.h"
 1546              		.file 9 "../../chibios/os/ports/GCC/ARMCMx/chcore_v7m.h"