ARM GAS  C:\Users\Mohamad\AppData\Local\Temp\ccSvAY8z.s 			page 1


   1              		.syntax unified
   2              		.cpu cortex-m4
   3              		.fpu softvfp
   4              		.eabi_attribute 20, 1
   5              		.eabi_attribute 21, 1
   6              		.eabi_attribute 23, 3
   7              		.eabi_attribute 24, 1
   8              		.eabi_attribute 25, 1
   9              		.eabi_attribute 26, 1
  10              		.eabi_attribute 30, 2
  11              		.eabi_attribute 34, 1
  12              		.eabi_attribute 18, 4
  13              		.thumb
  14              		.file	"uart_lld.c"
  15              		.text
  16              	.Ltext0:
  17              		.cfi_sections	.debug_frame
  18              		.section	.text.set_rx_idle_loop,"ax",%progbits
  19              		.align	2
  20              		.p2align 4,,15
  21              		.thumb
  22              		.thumb_func
  23              		.type	set_rx_idle_loop, %function
  24              	set_rx_idle_loop:
  25              	.LFB119:
  26              		.file 1 "../../chibios/os/hal/platforms/STM32/USARTv1/uart_lld.c"
  27              		.loc 1 160 0
  28              		.cfi_startproc
  29              		@ args = 0, pretend = 0, frame = 0
  30              		@ frame_needed = 0, uses_anonymous_args = 0
  31              		@ link register save eliminated.
  32              	.LVL0:
  33              		.loc 1 165 0
  34 0000 4368     		ldr	r3, [r0, #4]
  35              		.loc 1 160 0
  36 0002 10B4     		push	{r4}
  37              	.LCFI0:
  38              		.cfi_def_cfa_offset 4
  39              		.cfi_offset 4, -4
  40              		.loc 1 169 0
  41 0004 0469     		ldr	r4, [r0, #16]
  42              		.loc 1 165 0
  43 0006 DA68     		ldr	r2, [r3, #12]
  44              		.loc 1 169 0
  45 0008 2368     		ldr	r3, [r4, #0]
  46 000a 00F11801 		add	r1, r0, #24
  47              		.loc 1 171 0
  48 000e C068     		ldr	r0, [r0, #12]
  49              	.LVL1:
  50              		.loc 1 169 0
  51 0010 D960     		str	r1, [r3, #12]
  52              		.loc 1 166 0
  53 0012 002A     		cmp	r2, #0
  54 0014 14BF     		ite	ne
  55 0016 4FF48872 		movne	r2, #272
  56 001a 4FF48072 		moveq	r2, #256
  57              	.LVL2:
ARM GAS  C:\Users\Mohamad\AppData\Local\Temp\ccSvAY8z.s 			page 2


  58              		.loc 1 171 0
  59 001e 0243     		orrs	r2, r2, r0
  60              	.LVL3:
  61              		.loc 1 170 0
  62 0020 0121     		movs	r1, #1
  63              	.LVL4:
  64 0022 5960     		str	r1, [r3, #4]
  65              		.loc 1 171 0
  66 0024 1A60     		str	r2, [r3, #0]
  67              		.loc 1 172 0
  68 0026 1868     		ldr	r0, [r3, #0]
  69 0028 0843     		orrs	r0, r0, r1
  70 002a 1860     		str	r0, [r3, #0]
  71              		.loc 1 173 0
  72 002c 10BC     		pop	{r4}
  73 002e 7047     		bx	lr
  74              		.cfi_endproc
  75              	.LFE119:
  76              		.size	set_rx_idle_loop, .-set_rx_idle_loop
  77              		.section	.text.usart_stop,"ax",%progbits
  78              		.align	2
  79              		.p2align 4,,15
  80              		.thumb
  81              		.thumb_func
  82              		.type	usart_stop, %function
  83              	usart_stop:
  84              	.LFB120:
  85              		.loc 1 181 0
  86              		.cfi_startproc
  87              		@ args = 0, pretend = 0, frame = 0
  88              		@ frame_needed = 0, uses_anonymous_args = 0
  89              		@ link register save eliminated.
  90              	.LVL5:
  91 0000 30B4     		push	{r4, r5}
  92              	.LCFI1:
  93              		.cfi_def_cfa_offset 8
  94              		.cfi_offset 4, -8
  95              		.cfi_offset 5, -4
  96              		.loc 1 184 0
  97 0002 0469     		ldr	r4, [r0, #16]
  98 0004 2268     		ldr	r2, [r4, #0]
  99 0006 1368     		ldr	r3, [r2, #0]
 100 0008 23F01F01 		bic	r1, r3, #31
 101 000c 1160     		str	r1, [r2, #0]
 102              	.L5:
 103              		.loc 1 184 0 is_stmt 0 discriminator 1
 104 000e 1568     		ldr	r5, [r2, #0]
 105 0010 EB07     		lsls	r3, r5, #31
 106 0012 FCD4     		bmi	.L5
 107              		.loc 1 184 0 discriminator 2
 108 0014 257A     		ldrb	r5, [r4, #8]	@ zero_extendqisi2
 109              		.loc 1 185 0 is_stmt 1 discriminator 2
 110 0016 4169     		ldr	r1, [r0, #20]
 111              		.loc 1 184 0 discriminator 2
 112 0018 6368     		ldr	r3, [r4, #4]
 113              		.loc 1 185 0 discriminator 2
 114 001a 0A68     		ldr	r2, [r1, #0]
ARM GAS  C:\Users\Mohamad\AppData\Local\Temp\ccSvAY8z.s 			page 3


 115              		.loc 1 184 0 discriminator 2
 116 001c 3D24     		movs	r4, #61
 117 001e 04FA05F4 		lsl	r4, r4, r5
 118 0022 1C60     		str	r4, [r3, #0]
 119              		.loc 1 185 0 discriminator 2
 120 0024 1368     		ldr	r3, [r2, #0]
 121 0026 23F01F04 		bic	r4, r3, #31
 122 002a 1460     		str	r4, [r2, #0]
 123              	.L6:
 124              		.loc 1 185 0 is_stmt 0 discriminator 1
 125 002c 1368     		ldr	r3, [r2, #0]
 126 002e 13F00103 		ands	r3, r3, #1
 127 0032 FBD1     		bne	.L6
 128              		.loc 1 185 0 discriminator 2
 129 0034 0C7A     		ldrb	r4, [r1, #8]	@ zero_extendqisi2
 130              		.loc 1 188 0 is_stmt 1 discriminator 2
 131 0036 8268     		ldr	r2, [r0, #8]
 132              		.loc 1 185 0 discriminator 2
 133 0038 4968     		ldr	r1, [r1, #4]
 134 003a 3D20     		movs	r0, #61
 135              	.LVL6:
 136 003c 00FA04F0 		lsl	r0, r0, r4
 137 0040 0860     		str	r0, [r1, #0]
 138              		.loc 1 188 0 discriminator 2
 139 0042 9381     		strh	r3, [r2, #12]	@ movhi
 140              		.loc 1 189 0 discriminator 2
 141 0044 1382     		strh	r3, [r2, #16]	@ movhi
 142              		.loc 1 190 0 discriminator 2
 143 0046 9382     		strh	r3, [r2, #20]	@ movhi
 144              		.loc 1 191 0 discriminator 2
 145 0048 30BC     		pop	{r4, r5}
 146 004a 7047     		bx	lr
 147              		.cfi_endproc
 148              	.LFE120:
 149              		.size	usart_stop, .-usart_stop
 150 004c AFF30080 		.section	.text.serve_usart_irq,"ax",%progbits
 151              		.align	2
 152              		.p2align 4,,15
 153              		.thumb
 154              		.thumb_func
 155              		.type	serve_usart_irq, %function
 156              	serve_usart_irq:
 157              	.LFB124:
 158              		.loc 1 312 0
 159              		.cfi_startproc
 160              		@ args = 0, pretend = 0, frame = 0
 161              		@ frame_needed = 0, uses_anonymous_args = 0
 162              	.LVL7:
 163 0000 70B5     		push	{r4, r5, r6, lr}
 164              	.LCFI2:
 165              		.cfi_def_cfa_offset 16
 166              		.cfi_offset 4, -16
 167              		.cfi_offset 5, -12
 168              		.cfi_offset 6, -8
 169              		.cfi_offset 14, -4
 170              		.loc 1 314 0
 171 0002 8568     		ldr	r5, [r0, #8]
ARM GAS  C:\Users\Mohamad\AppData\Local\Temp\ccSvAY8z.s 			page 4


 172              	.LVL8:
 173              		.loc 1 316 0
 174 0004 2C88     		ldrh	r4, [r5, #0]
 175              		.loc 1 317 0
 176 0006 AA88     		ldrh	r2, [r5, #4]
 177              		.loc 1 318 0
 178 0008 40F20F13 		movw	r3, #271
 179              		.loc 1 316 0
 180 000c A4B2     		uxth	r4, r4
 181              	.LVL9:
 182              		.loc 1 318 0
 183 000e 2340     		ands	r3, r3, r4
 184              		.loc 1 312 0
 185 0010 0646     		mov	r6, r0
 186              		.loc 1 318 0
 187 0012 13B3     		cbz	r3, .L12
 188              		.loc 1 321 0
 189 0014 4068     		ldr	r0, [r0, #4]
 190              	.LVL10:
 191 0016 0369     		ldr	r3, [r0, #16]
 192              		.loc 1 320 0
 193 0018 4FF6FF62 		movw	r2, #65279
 194 001c 2A80     		strh	r2, [r5, #0]	@ movhi
 195              		.loc 1 321 0
 196 001e E3B1     		cbz	r3, .L12
 197              	.LVL11:
 198              	.LBB4:
 199              	.LBB5:
 200              		.loc 1 142 0
 201 0020 04F00801 		and	r1, r4, #8
 202 0024 88B2     		uxth	r0, r1
 203              		.loc 1 143 0
 204 0026 0028     		cmp	r0, #0
 205 0028 14BF     		ite	ne
 206 002a 1021     		movne	r1, #16
 207 002c 0021     		moveq	r1, #0
 208              	.LVL12:
 209              		.loc 1 144 0
 210 002e E207     		lsls	r2, r4, #31
 211              		.loc 1 146 0
 212 0030 04F00202 		and	r2, r4, #2
 213 0034 90B2     		uxth	r0, r2
 214              		.loc 1 145 0
 215 0036 48BF     		it	mi
 216 0038 41F00401 		orrmi	r1, r1, #4
 217              	.LVL13:
 218              		.loc 1 146 0
 219 003c 08B1     		cbz	r0, .L16
 220              		.loc 1 147 0
 221 003e 41F00801 		orr	r1, r1, #8
 222              	.LVL14:
 223              	.L16:
 224              		.loc 1 148 0
 225 0042 04F00402 		and	r2, r4, #4
 226 0046 90B2     		uxth	r0, r2
 227 0048 A0B9     		cbnz	r0, .L41
 228              	.L17:
ARM GAS  C:\Users\Mohamad\AppData\Local\Temp\ccSvAY8z.s 			page 5


 229              		.loc 1 150 0
 230 004a 04F48072 		and	r2, r4, #256
 231 004e 90B2     		uxth	r0, r2
 232 0050 08B1     		cbz	r0, .L18
 233              		.loc 1 151 0
 234 0052 41F04001 		orr	r1, r1, #64
 235              	.LVL15:
 236              	.L18:
 237              	.LBE5:
 238              	.LBE4:
 239              		.loc 1 322 0
 240 0056 3046     		mov	r0, r6
 241 0058 9847     		blx	r3
 242              	.LVL16:
 243              	.L12:
 244              		.loc 1 324 0
 245 005a 04F04004 		and	r4, r4, #64
 246              	.LVL17:
 247 005e A4B2     		uxth	r4, r4
 248 0060 3CB1     		cbz	r4, .L10
 249              		.loc 1 328 0
 250 0062 7368     		ldr	r3, [r6, #4]
 251 0064 5968     		ldr	r1, [r3, #4]
 252              		.loc 1 325 0
 253 0066 4FF6BF72 		movw	r2, #65471
 254 006a 2A80     		strh	r2, [r5, #0]	@ movhi
 255              		.loc 1 328 0
 256 006c 09B1     		cbz	r1, .L10
 257              		.loc 1 329 0
 258 006e 3046     		mov	r0, r6
 259 0070 8847     		blx	r1
 260              	.LVL18:
 261              	.L10:
 262 0072 70BD     		pop	{r4, r5, r6, pc}
 263              	.LVL19:
 264              	.L41:
 265              	.LBB7:
 266              	.LBB6:
 267              		.loc 1 149 0
 268 0074 41F02001 		orr	r1, r1, #32
 269              	.LVL20:
 270 0078 E7E7     		b	.L17
 271              	.LBE6:
 272              	.LBE7:
 273              		.cfi_endproc
 274              	.LFE124:
 275              		.size	serve_usart_irq, .-serve_usart_irq
 276 007a 00BFAFF3 		.section	.text.uart_lld_serve_tx_end_irq,"ax",%progbits
 276      0080
 277              		.align	2
 278              		.p2align 4,,15
 279              		.thumb
 280              		.thumb_func
 281              		.type	uart_lld_serve_tx_end_irq, %function
 282              	uart_lld_serve_tx_end_irq:
 283              	.LFB123:
 284              		.loc 1 283 0
ARM GAS  C:\Users\Mohamad\AppData\Local\Temp\ccSvAY8z.s 			page 6


 285              		.cfi_startproc
 286              		@ args = 0, pretend = 0, frame = 0
 287              		@ frame_needed = 0, uses_anonymous_args = 0
 288              	.LVL21:
 289              		.loc 1 287 0
 290 0000 11F00C0F 		tst	r1, #12
 291              		.loc 1 283 0
 292 0004 10B5     		push	{r4, lr}
 293              	.LCFI3:
 294              		.cfi_def_cfa_offset 8
 295              		.cfi_offset 4, -8
 296              		.cfi_offset 14, -4
 297              		.loc 1 283 0
 298 0006 0446     		mov	r4, r0
 299              		.loc 1 287 0
 300 0008 1CD1     		bne	.L55
 301              	.LVL22:
 302              	.L43:
 303              		.loc 1 294 0
 304 000a 6169     		ldr	r1, [r4, #20]
 305 000c 0A68     		ldr	r2, [r1, #0]
 306 000e 1368     		ldr	r3, [r2, #0]
 307 0010 23F01F00 		bic	r0, r3, #31
 308 0014 1060     		str	r0, [r2, #0]
 309              	.L44:
 310              		.loc 1 294 0 is_stmt 0 discriminator 1
 311 0016 1368     		ldr	r3, [r2, #0]
 312 0018 DB07     		lsls	r3, r3, #31
 313 001a FCD4     		bmi	.L44
 314              		.loc 1 298 0 is_stmt 1 discriminator 2
 315 001c 6368     		ldr	r3, [r4, #4]
 316              		.loc 1 294 0 discriminator 2
 317 001e 087A     		ldrb	r0, [r1, #8]	@ zero_extendqisi2
 318 0020 4A68     		ldr	r2, [r1, #4]
 319              		.loc 1 298 0 discriminator 2
 320 0022 1B68     		ldr	r3, [r3, #0]
 321              		.loc 1 294 0 discriminator 2
 322 0024 3D21     		movs	r1, #61
 323 0026 01FA00F1 		lsl	r1, r1, r0
 324              		.loc 1 297 0 discriminator 2
 325 002a 0220     		movs	r0, #2
 326              		.loc 1 294 0 discriminator 2
 327 002c 1160     		str	r1, [r2, #0]
 328              		.loc 1 297 0 discriminator 2
 329 002e 6070     		strb	r0, [r4, #1]
 330              		.loc 1 298 0 discriminator 2
 331 0030 2BB1     		cbz	r3, .L47
 332              		.loc 1 299 0
 333 0032 2046     		mov	r0, r4
 334 0034 9847     		blx	r3
 335              	.LVL23:
 336              		.loc 1 303 0
 337 0036 6278     		ldrb	r2, [r4, #1]	@ zero_extendqisi2
 338 0038 022A     		cmp	r2, #2
 339 003a 00D0     		beq	.L47
 340 003c 10BD     		pop	{r4, pc}
 341              	.L47:
ARM GAS  C:\Users\Mohamad\AppData\Local\Temp\ccSvAY8z.s 			page 7


 342              		.loc 1 304 0
 343 003e 0023     		movs	r3, #0
 344 0040 6370     		strb	r3, [r4, #1]
 345 0042 10BD     		pop	{r4, pc}
 346              	.LVL24:
 347              	.L55:
 348              		.loc 1 288 0
 349 0044 FFF7FEFF 		bl	port_halt
 350              	.LVL25:
 351 0048 DFE7     		b	.L43
 352              		.cfi_endproc
 353              	.LFE123:
 354              		.size	uart_lld_serve_tx_end_irq, .-uart_lld_serve_tx_end_irq
 355 004a 00BFAFF3 		.section	.text.uart_lld_serve_rx_end_irq,"ax",%progbits
 355      0080
 356              		.align	2
 357              		.p2align 4,,15
 358              		.thumb
 359              		.thumb_func
 360              		.type	uart_lld_serve_rx_end_irq, %function
 361              	uart_lld_serve_rx_end_irq:
 362              	.LFB122:
 363              		.loc 1 243 0
 364              		.cfi_startproc
 365              		@ args = 0, pretend = 0, frame = 0
 366              		@ frame_needed = 0, uses_anonymous_args = 0
 367              	.LVL26:
 368              		.loc 1 247 0
 369 0000 11F00C0F 		tst	r1, #12
 370              		.loc 1 243 0
 371 0004 10B5     		push	{r4, lr}
 372              	.LCFI4:
 373              		.cfi_def_cfa_offset 8
 374              		.cfi_offset 4, -8
 375              		.cfi_offset 14, -4
 376              		.loc 1 243 0
 377 0006 0446     		mov	r4, r0
 378              		.loc 1 247 0
 379 0008 23D1     		bne	.L72
 380              	.LVL27:
 381              	.L57:
 382              		.loc 1 254 0
 383 000a A378     		ldrb	r3, [r4, #2]	@ zero_extendqisi2
 384 000c 3BB9     		cbnz	r3, .L58
 385              		.loc 1 257 0
 386 000e 6168     		ldr	r1, [r4, #4]
 387 0010 CA68     		ldr	r2, [r1, #12]
 388 0012 EAB1     		cbz	r2, .L56
 389              		.loc 1 258 0
 390 0014 238B     		ldrh	r3, [r4, #24]
 391 0016 2046     		mov	r0, r4
 392 0018 99B2     		uxth	r1, r3
 393 001a 9047     		blx	r2
 394              	.LVL28:
 395 001c 10BD     		pop	{r4, pc}
 396              	.L58:
 397              	.LVL29:
ARM GAS  C:\Users\Mohamad\AppData\Local\Temp\ccSvAY8z.s 			page 8


 398              	.LBB10:
 399              	.LBB11:
 400              		.loc 1 263 0
 401 001e 2169     		ldr	r1, [r4, #16]
 402 0020 0A68     		ldr	r2, [r1, #0]
 403 0022 1068     		ldr	r0, [r2, #0]
 404 0024 20F01F03 		bic	r3, r0, #31
 405 0028 1360     		str	r3, [r2, #0]
 406              	.L61:
 407 002a 1068     		ldr	r0, [r2, #0]
 408 002c C307     		lsls	r3, r0, #31
 409 002e FCD4     		bmi	.L61
 410              		.loc 1 265 0
 411 0030 6368     		ldr	r3, [r4, #4]
 412              		.loc 1 263 0
 413 0032 087A     		ldrb	r0, [r1, #8]	@ zero_extendqisi2
 414 0034 4A68     		ldr	r2, [r1, #4]
 415              		.loc 1 265 0
 416 0036 9B68     		ldr	r3, [r3, #8]
 417              		.loc 1 263 0
 418 0038 3D21     		movs	r1, #61
 419 003a 01FA00F1 		lsl	r1, r1, r0
 420              		.loc 1 264 0
 421 003e 0220     		movs	r0, #2
 422              		.loc 1 263 0
 423 0040 1160     		str	r1, [r2, #0]
 424              		.loc 1 264 0
 425 0042 A070     		strb	r0, [r4, #2]
 426              		.loc 1 265 0
 427 0044 43B1     		cbz	r3, .L63
 428              		.loc 1 266 0
 429 0046 2046     		mov	r0, r4
 430 0048 9847     		blx	r3
 431              	.LVL30:
 432              		.loc 1 270 0
 433 004a A278     		ldrb	r2, [r4, #2]	@ zero_extendqisi2
 434 004c 022A     		cmp	r2, #2
 435 004e 03D0     		beq	.L63
 436              	.LVL31:
 437              	.L56:
 438 0050 10BD     		pop	{r4, pc}
 439              	.LVL32:
 440              	.L72:
 441              	.LBE11:
 442              	.LBE10:
 443              		.loc 1 248 0
 444 0052 FFF7FEFF 		bl	port_halt
 445              	.LVL33:
 446 0056 D8E7     		b	.L57
 447              	.LVL34:
 448              	.L63:
 449              	.LBB14:
 450              	.LBB12:
 451              		.loc 1 271 0
 452 0058 0023     		movs	r3, #0
 453              		.loc 1 272 0
 454 005a 2046     		mov	r0, r4
ARM GAS  C:\Users\Mohamad\AppData\Local\Temp\ccSvAY8z.s 			page 9


 455              		.loc 1 271 0
 456 005c A370     		strb	r3, [r4, #2]
 457              	.LBE12:
 458              	.LBE14:
 459              		.loc 1 275 0
 460 005e BDE81040 		pop	{r4, lr}
 461              	.LBB15:
 462              	.LBB13:
 463              		.loc 1 272 0
 464 0062 FFF7FEBF 		b	set_rx_idle_loop
 465              	.LVL35:
 466              	.LBE13:
 467              	.LBE15:
 468              		.cfi_endproc
 469              	.LFE122:
 470              		.size	uart_lld_serve_rx_end_irq, .-uart_lld_serve_rx_end_irq
 471 0066 00BFAFF3 		.section	.text.VectorD4,"ax",%progbits
 471      0080AFF3 
 471      0080
 472              		.align	2
 473              		.p2align 4,,15
 474              		.global	VectorD4
 475              		.thumb
 476              		.thumb_func
 477              		.type	VectorD4, %function
 478              	VectorD4:
 479              	.LFB125:
 480              		.loc 1 346 0
 481              		.cfi_startproc
 482              		@ args = 0, pretend = 0, frame = 0
 483              		@ frame_needed = 0, uses_anonymous_args = 0
 484 0000 08B5     		push	{r3, lr}
 485              	.LCFI5:
 486              		.cfi_def_cfa_offset 8
 487              		.cfi_offset 3, -8
 488              		.cfi_offset 14, -4
 489              		.loc 1 350 0
 490 0002 40F20000 		movw	r0, #:lower16:.LANCHOR0
 491 0006 C0F20000 		movt	r0, #:upper16:.LANCHOR0
 492 000a FFF7FEFF 		bl	serve_usart_irq
 493              	.LVL36:
 494              		.loc 1 353 0
 495 000e BDE80840 		pop	{r3, lr}
 496              		.loc 1 352 0
 497 0012 FFF7FEBF 		b	_port_irq_epilogue
 498              	.LVL37:
 499              		.cfi_endproc
 500              	.LFE125:
 501              		.size	VectorD4, .-VectorD4
 502 0016 00BFAFF3 		.section	.text.VectorD8,"ax",%progbits
 502      0080AFF3 
 502      0080
 503              		.align	2
 504              		.p2align 4,,15
 505              		.global	VectorD8
 506              		.thumb
 507              		.thumb_func
ARM GAS  C:\Users\Mohamad\AppData\Local\Temp\ccSvAY8z.s 			page 10


 508              		.type	VectorD8, %function
 509              	VectorD8:
 510              	.LFB126:
 511              		.loc 1 365 0
 512              		.cfi_startproc
 513              		@ args = 0, pretend = 0, frame = 0
 514              		@ frame_needed = 0, uses_anonymous_args = 0
 515 0000 08B5     		push	{r3, lr}
 516              	.LCFI6:
 517              		.cfi_def_cfa_offset 8
 518              		.cfi_offset 3, -8
 519              		.cfi_offset 14, -4
 520              		.loc 1 369 0
 521 0002 40F20000 		movw	r0, #:lower16:.LANCHOR1
 522 0006 C0F20000 		movt	r0, #:upper16:.LANCHOR1
 523 000a FFF7FEFF 		bl	serve_usart_irq
 524              	.LVL38:
 525              		.loc 1 372 0
 526 000e BDE80840 		pop	{r3, lr}
 527              		.loc 1 371 0
 528 0012 FFF7FEBF 		b	_port_irq_epilogue
 529              	.LVL39:
 530              		.cfi_endproc
 531              	.LFE126:
 532              		.size	VectorD8, .-VectorD8
 533 0016 00BFAFF3 		.section	.text.VectorDC,"ax",%progbits
 533      0080AFF3 
 533      0080
 534              		.align	2
 535              		.p2align 4,,15
 536              		.global	VectorDC
 537              		.thumb
 538              		.thumb_func
 539              		.type	VectorDC, %function
 540              	VectorDC:
 541              	.LFB127:
 542              		.loc 1 384 0
 543              		.cfi_startproc
 544              		@ args = 0, pretend = 0, frame = 0
 545              		@ frame_needed = 0, uses_anonymous_args = 0
 546 0000 08B5     		push	{r3, lr}
 547              	.LCFI7:
 548              		.cfi_def_cfa_offset 8
 549              		.cfi_offset 3, -8
 550              		.cfi_offset 14, -4
 551              		.loc 1 388 0
 552 0002 40F20000 		movw	r0, #:lower16:.LANCHOR2
 553 0006 C0F20000 		movt	r0, #:upper16:.LANCHOR2
 554 000a FFF7FEFF 		bl	serve_usart_irq
 555              	.LVL40:
 556              		.loc 1 391 0
 557 000e BDE80840 		pop	{r3, lr}
 558              		.loc 1 390 0
 559 0012 FFF7FEBF 		b	_port_irq_epilogue
 560              	.LVL41:
 561              		.cfi_endproc
 562              	.LFE127:
ARM GAS  C:\Users\Mohamad\AppData\Local\Temp\ccSvAY8z.s 			page 11


 563              		.size	VectorDC, .-VectorDC
 564 0016 00BFAFF3 		.section	.text.Vector15C,"ax",%progbits
 564      0080AFF3 
 564      0080
 565              		.align	2
 566              		.p2align 4,,15
 567              		.global	Vector15C
 568              		.thumb
 569              		.thumb_func
 570              		.type	Vector15C, %function
 571              	Vector15C:
 572              	.LFB128:
 573              		.loc 1 441 0
 574              		.cfi_startproc
 575              		@ args = 0, pretend = 0, frame = 0
 576              		@ frame_needed = 0, uses_anonymous_args = 0
 577 0000 08B5     		push	{r3, lr}
 578              	.LCFI8:
 579              		.cfi_def_cfa_offset 8
 580              		.cfi_offset 3, -8
 581              		.cfi_offset 14, -4
 582              		.loc 1 445 0
 583 0002 40F20000 		movw	r0, #:lower16:.LANCHOR3
 584 0006 C0F20000 		movt	r0, #:upper16:.LANCHOR3
 585 000a FFF7FEFF 		bl	serve_usart_irq
 586              	.LVL42:
 587              		.loc 1 448 0
 588 000e BDE80840 		pop	{r3, lr}
 589              		.loc 1 447 0
 590 0012 FFF7FEBF 		b	_port_irq_epilogue
 591              	.LVL43:
 592              		.cfi_endproc
 593              	.LFE128:
 594              		.size	Vector15C, .-Vector15C
 595 0016 00BFAFF3 		.section	.text.uart_lld_init,"ax",%progbits
 595      0080AFF3 
 595      0080
 596              		.align	2
 597              		.p2align 4,,15
 598              		.global	uart_lld_init
 599              		.thumb
 600              		.thumb_func
 601              		.type	uart_lld_init, %function
 602              	uart_lld_init:
 603              	.LFB129:
 604              		.loc 1 460 0
 605              		.cfi_startproc
 606              		@ args = 0, pretend = 0, frame = 0
 607              		@ frame_needed = 0, uses_anonymous_args = 0
 608 0000 2DE9F843 		push	{r3, r4, r5, r6, r7, r8, r9, lr}
 609              	.LCFI9:
 610              		.cfi_def_cfa_offset 32
 611              		.cfi_offset 3, -32
 612              		.cfi_offset 4, -28
 613              		.cfi_offset 5, -24
 614              		.cfi_offset 6, -20
 615              		.cfi_offset 7, -16
ARM GAS  C:\Users\Mohamad\AppData\Local\Temp\ccSvAY8z.s 			page 12


 616              		.cfi_offset 8, -12
 617              		.cfi_offset 9, -8
 618              		.cfi_offset 14, -4
 619              		.loc 1 463 0
 620 0004 40F20007 		movw	r7, #:lower16:.LANCHOR0
 621 0008 C0F20007 		movt	r7, #:upper16:.LANCHOR0
 622              		.loc 1 466 0
 623 000c 254C     		ldr	r4, .L78
 624              		.loc 1 463 0
 625 000e 3846     		mov	r0, r7
 626              		.loc 1 471 0
 627 0010 40F20006 		movw	r6, #:lower16:.LANCHOR1
 628              		.loc 1 463 0
 629 0014 FFF7FEFF 		bl	uartObjectInit
 630              	.LVL44:
 631              		.loc 1 471 0
 632 0018 C0F20006 		movt	r6, #:upper16:.LANCHOR1
 633              		.loc 1 464 0
 634 001c 4FF48053 		mov	r3, #4096
 635              		.loc 1 465 0
 636 0020 4FF00608 		mov	r8, #6
 637              		.loc 1 464 0
 638 0024 C4F20103 		movt	r3, 16385
 639              		.loc 1 467 0
 640 0028 04F11809 		add	r9, r4, #24
 641              		.loc 1 471 0
 642 002c 3046     		mov	r0, r6
 643              		.loc 1 479 0
 644 002e 40F20005 		movw	r5, #:lower16:.LANCHOR2
 645 0032 C0F20005 		movt	r5, #:upper16:.LANCHOR2
 646              		.loc 1 464 0
 647 0036 BB60     		str	r3, [r7, #8]
 648              		.loc 1 466 0
 649 0038 3C61     		str	r4, [r7, #16]
 650              		.loc 1 465 0
 651 003a C7F80C80 		str	r8, [r7, #12]
 652              		.loc 1 467 0
 653 003e C7F81490 		str	r9, [r7, #20]
 654              		.loc 1 471 0
 655 0042 FFF7FEFF 		bl	uartObjectInit
 656              	.LVL45:
 657              		.loc 1 472 0
 658 0046 4FF48843 		mov	r3, #17408
 659              		.loc 1 474 0
 660 004a A4F16001 		sub	r1, r4, #96
 661              		.loc 1 475 0
 662 004e A4F15402 		sub	r2, r4, #84
 663              		.loc 1 472 0
 664 0052 C4F20003 		movt	r3, 16384
 665              		.loc 1 479 0
 666 0056 2846     		mov	r0, r5
 667              		.loc 1 503 0
 668 0058 40F20007 		movw	r7, #:lower16:.LANCHOR3
 669 005c C0F20007 		movt	r7, #:upper16:.LANCHOR3
 670              		.loc 1 472 0
 671 0060 B360     		str	r3, [r6, #8]
 672              		.loc 1 474 0
ARM GAS  C:\Users\Mohamad\AppData\Local\Temp\ccSvAY8z.s 			page 13


 673 0062 3161     		str	r1, [r6, #16]
 674              		.loc 1 475 0
 675 0064 7261     		str	r2, [r6, #20]
 676              		.loc 1 473 0
 677 0066 C6F80C80 		str	r8, [r6, #12]
 678              		.loc 1 479 0
 679 006a FFF7FEFF 		bl	uartObjectInit
 680              	.LVL46:
 681              		.loc 1 480 0
 682 006e 4FF49043 		mov	r3, #18432
 683              		.loc 1 482 0
 684 0072 A4F19001 		sub	r1, r4, #144
 685              		.loc 1 483 0
 686 0076 A4F17802 		sub	r2, r4, #120
 687              		.loc 1 480 0
 688 007a C4F20003 		movt	r3, 16384
 689              		.loc 1 503 0
 690 007e 3846     		mov	r0, r7
 691              		.loc 1 480 0
 692 0080 AB60     		str	r3, [r5, #8]
 693              		.loc 1 481 0
 694 0082 C5F80C80 		str	r8, [r5, #12]
 695              		.loc 1 482 0
 696 0086 2961     		str	r1, [r5, #16]
 697              		.loc 1 483 0
 698 0088 6A61     		str	r2, [r5, #20]
 699              		.loc 1 503 0
 700 008a FFF7FEFF 		bl	uartObjectInit
 701              	.LVL47:
 702              		.loc 1 504 0
 703 008e 4FF4A050 		mov	r0, #5120
 704 0092 C4F20100 		movt	r0, 16385
 705              		.loc 1 505 0
 706 0096 243C     		subs	r4, r4, #36
 707              		.loc 1 504 0
 708 0098 B860     		str	r0, [r7, #8]
 709              		.loc 1 505 0
 710 009a 3C61     		str	r4, [r7, #16]
 711              		.loc 1 506 0
 712 009c C7F81490 		str	r9, [r7, #20]
 713 00a0 BDE8F883 		pop	{r3, r4, r5, r6, r7, r8, r9, pc}
 714              	.L79:
 715              		.align	2
 716              	.L78:
 717 00a4 9C000000 		.word	_stm32_dma_streams+156
 718              		.cfi_endproc
 719              	.LFE129:
 720              		.size	uart_lld_init, .-uart_lld_init
 721 00a8 AFF30080 		.section	.text.uart_lld_start,"ax",%progbits
 721      AFF30080 
 722              		.align	2
 723              		.p2align 4,,15
 724              		.global	uart_lld_start
 725              		.thumb
 726              		.thumb_func
 727              		.type	uart_lld_start, %function
 728              	uart_lld_start:
ARM GAS  C:\Users\Mohamad\AppData\Local\Temp\ccSvAY8z.s 			page 14


 729              	.LFB130:
 730              		.loc 1 517 0
 731              		.cfi_startproc
 732              		@ args = 0, pretend = 0, frame = 0
 733              		@ frame_needed = 0, uses_anonymous_args = 0
 734              	.LVL48:
 735 0000 F8B5     		push	{r3, r4, r5, r6, r7, lr}
 736              	.LCFI10:
 737              		.cfi_def_cfa_offset 24
 738              		.cfi_offset 3, -24
 739              		.cfi_offset 4, -20
 740              		.cfi_offset 5, -16
 741              		.cfi_offset 6, -12
 742              		.cfi_offset 7, -8
 743              		.cfi_offset 14, -4
 744              		.loc 1 519 0
 745 0002 0378     		ldrb	r3, [r0, #0]	@ zero_extendqisi2
 746 0004 012B     		cmp	r3, #1
 747              		.loc 1 517 0
 748 0006 0446     		mov	r4, r0
 749              		.loc 1 519 0
 750 0008 3BD0     		beq	.L93
 751 000a 8568     		ldr	r5, [r0, #8]
 752              	.LVL49:
 753              	.L81:
 754              		.loc 1 671 0
 755 000c 0020     		movs	r0, #0
 756 000e A070     		strb	r0, [r4, #2]
 757              		.loc 1 672 0
 758 0010 6070     		strb	r0, [r4, #1]
 759              	.LVL50:
 760              	.LBB22:
 761              	.LBB23:
 762              		.loc 1 204 0
 763 0012 2046     		mov	r0, r4
 764 0014 FFF7FEFF 		bl	usart_stop
 765              	.LVL51:
 766              		.loc 1 208 0
 767 0018 4FF48056 		mov	r6, #4096
 768 001c A268     		ldr	r2, [r4, #8]
 769 001e C4F20106 		movt	r6, 16385
 770 0022 B242     		cmp	r2, r6
 771 0024 4BD0     		beq	.L87
 772 0026 4FF4A057 		mov	r7, #5120
 773 002a C4F20107 		movt	r7, 16385
 774 002e BA42     		cmp	r2, r7
 775 0030 45D0     		beq	.L87
 776              		.loc 1 214 0
 777 0032 6368     		ldr	r3, [r4, #4]
 778 0034 4DF68060 		movw	r0, #56960
 779 0038 5969     		ldr	r1, [r3, #20]
 780 003a C0F28020 		movt	r0, 640
 781 003e B0FBF1F6 		udiv	r6, r0, r1
 782 0042 B2B2     		uxth	r2, r6
 783 0044 2A81     		strh	r2, [r5, #8]	@ movhi
 784              	.L89:
 785              		.loc 1 226 0
ARM GAS  C:\Users\Mohamad\AppData\Local\Temp\ccSvAY8z.s 			page 15


 786 0046 5F68     		ldr	r7, [r3, #4]
 787              		.loc 1 231 0
 788 0048 188B     		ldrh	r0, [r3, #24]
 789              		.loc 1 223 0
 790 004a 598B     		ldrh	r1, [r3, #26]
 791              		.loc 1 224 0
 792 004c 9A8B     		ldrh	r2, [r3, #28]
 793              		.loc 1 217 0
 794 004e 2B88     		ldrh	r3, [r5, #0]
 795              		.loc 1 218 0
 796 0050 AB88     		ldrh	r3, [r5, #4]
 797              		.loc 1 227 0
 798 0052 42F20C16 		movw	r6, #8460
 799 0056 42F24C13 		movw	r3, #8524
 800 005a 002F     		cmp	r7, #0
 801 005c 08BF     		it	eq
 802 005e 3346     		moveq	r3, r6
 803              	.LVL52:
 804              		.loc 1 231 0
 805 0060 0343     		orrs	r3, r3, r0
 806              	.LVL53:
 807              		.loc 1 223 0
 808 0062 41F04001 		orr	r1, r1, #64
 809              		.loc 1 219 0
 810 0066 0020     		movs	r0, #0
 811              		.loc 1 224 0
 812 0068 42F0C102 		orr	r2, r2, #193
 813              		.loc 1 219 0
 814 006c 2880     		strh	r0, [r5, #0]	@ movhi
 815              		.loc 1 223 0
 816 006e 89B2     		uxth	r1, r1
 817              		.loc 1 224 0
 818 0070 92B2     		uxth	r2, r2
 819              		.loc 1 234 0
 820 0072 2046     		mov	r0, r4
 821              		.loc 1 223 0
 822 0074 2982     		strh	r1, [r5, #16]	@ movhi
 823              		.loc 1 224 0
 824 0076 AA82     		strh	r2, [r5, #20]	@ movhi
 825              		.loc 1 231 0
 826 0078 AB81     		strh	r3, [r5, #12]	@ movhi
 827              	.LBE23:
 828              	.LBE22:
 829              		.loc 1 674 0
 830 007a BDE8F840 		pop	{r3, r4, r5, r6, r7, lr}
 831              	.LBB26:
 832              	.LBB24:
 833              		.loc 1 234 0
 834 007e FFF7FEBF 		b	set_rx_idle_loop
 835              	.LVL54:
 836              	.L93:
 837              	.LBE24:
 838              	.LBE26:
 839              		.loc 1 521 0
 840 0082 4948     		ldr	r0, .L101
 841              	.LVL55:
 842 0084 8442     		cmp	r4, r0
ARM GAS  C:\Users\Mohamad\AppData\Local\Temp\ccSvAY8z.s 			page 16


 843 0086 47D0     		beq	.L96
 844              		.loc 1 542 0
 845 0088 4849     		ldr	r1, .L101+4
 846 008a 8C42     		cmp	r4, r1
 847 008c 61D0     		beq	.L97
 848              		.loc 1 563 0
 849 008e 484A     		ldr	r2, .L101+8
 850 0090 9442     		cmp	r4, r2
 851 0092 74D0     		beq	.L98
 852              		.loc 1 642 0
 853 0094 474D     		ldr	r5, .L101+12
 854 0096 AC42     		cmp	r4, r5
 855 0098 21D0     		beq	.L99
 856              	.L83:
 857              		.loc 1 664 0
 858 009a 6668     		ldr	r6, [r4, #4]
 859 009c 378B     		ldrh	r7, [r6, #24]
 860 009e 07F4A053 		and	r3, r7, #5120
 861 00a2 B3F5805F 		cmp	r3, #4096
 862 00a6 15D0     		beq	.L100
 863              	.L86:
 864              		.loc 1 666 0
 865 00a8 2069     		ldr	r0, [r4, #16]
 866              		.loc 1 667 0
 867 00aa 6269     		ldr	r2, [r4, #20]
 868              		.loc 1 666 0
 869 00ac A568     		ldr	r5, [r4, #8]
 870 00ae 0668     		ldr	r6, [r0, #0]
 871              		.loc 1 667 0
 872 00b0 1768     		ldr	r7, [r2, #0]
 873              		.loc 1 666 0
 874 00b2 2B1D     		adds	r3, r5, #4
 875              		.loc 1 668 0
 876 00b4 0021     		movs	r1, #0
 877              		.loc 1 666 0
 878 00b6 B360     		str	r3, [r6, #8]
 879              		.loc 1 667 0
 880 00b8 BB60     		str	r3, [r7, #8]
 881              		.loc 1 668 0
 882 00ba 2183     		strh	r1, [r4, #24]	@ movhi
 883 00bc A6E7     		b	.L81
 884              	.LVL56:
 885              	.L87:
 886              	.LBB27:
 887              	.LBB25:
 888              		.loc 1 212 0
 889 00be 6368     		ldr	r3, [r4, #4]
 890 00c0 4FF43D47 		mov	r7, #48384
 891 00c4 5869     		ldr	r0, [r3, #20]
 892 00c6 C0F20157 		movt	r7, 1281
 893 00ca B7FBF0F1 		udiv	r1, r7, r0
 894 00ce 8EB2     		uxth	r6, r1
 895 00d0 2E81     		strh	r6, [r5, #8]	@ movhi
 896 00d2 B8E7     		b	.L89
 897              	.LVL57:
 898              	.L100:
 899              	.LBE25:
ARM GAS  C:\Users\Mohamad\AppData\Local\Temp\ccSvAY8z.s 			page 17


 900              	.LBE27:
 901              		.loc 1 665 0
 902 00d4 E168     		ldr	r1, [r4, #12]
 903 00d6 41F42055 		orr	r5, r1, #10240
 904 00da E560     		str	r5, [r4, #12]
 905 00dc E4E7     		b	.L86
 906              	.L99:
 907              	.LBB28:
 908              		.loc 1 654 0
 909 00de 4FF46056 		mov	r6, #14336
 910              		.loc 1 644 0
 911 00e2 0C21     		movs	r1, #12
 912 00e4 344A     		ldr	r2, .L101+16
 913 00e6 2069     		ldr	r0, [r4, #16]
 914 00e8 2346     		mov	r3, r4
 915              		.loc 1 654 0
 916 00ea C4F20206 		movt	r6, 16386
 917              		.loc 1 644 0
 918 00ee FFF7FEFF 		bl	dmaStreamAllocate
 919              	.LVL58:
 920              		.loc 1 649 0
 921 00f2 0C21     		movs	r1, #12
 922 00f4 314A     		ldr	r2, .L101+20
 923 00f6 6069     		ldr	r0, [r4, #20]
 924 00f8 2346     		mov	r3, r4
 925 00fa FFF7FEFF 		bl	dmaStreamAllocate
 926              	.LVL59:
 927              		.loc 1 654 0
 928 00fe 776C     		ldr	r7, [r6, #68]
 929 0100 47F02003 		orr	r3, r7, #32
 930              		.loc 1 655 0
 931 0104 4720     		movs	r0, #71
 932 0106 C021     		movs	r1, #192
 933              		.loc 1 654 0
 934 0108 7364     		str	r3, [r6, #68]
 935              		.loc 1 655 0
 936 010a FFF7FEFF 		bl	nvicEnableVector
 937              	.LVL60:
 938              		.loc 1 657 0
 939 010e E068     		ldr	r0, [r4, #12]
 940 0110 40F02061 		orr	r1, r0, #167772160
 941 0114 E160     		str	r1, [r4, #12]
 942 0116 C0E7     		b	.L83
 943              	.L96:
 944              	.LBE28:
 945              	.LBB29:
 946              		.loc 1 523 0
 947 0118 0C21     		movs	r1, #12
 948 011a 274A     		ldr	r2, .L101+16
 949 011c 2069     		ldr	r0, [r4, #16]
 950 011e 2346     		mov	r3, r4
 951 0120 FFF7FEFF 		bl	dmaStreamAllocate
 952              	.LVL61:
 953              		.loc 1 528 0
 954 0124 0C21     		movs	r1, #12
 955 0126 2346     		mov	r3, r4
 956 0128 244A     		ldr	r2, .L101+20
ARM GAS  C:\Users\Mohamad\AppData\Local\Temp\ccSvAY8z.s 			page 18


 957 012a 6069     		ldr	r0, [r4, #20]
 958 012c FFF7FEFF 		bl	dmaStreamAllocate
 959              	.LVL62:
 960              		.loc 1 533 0
 961 0130 4FF46053 		mov	r3, #14336
 962 0134 C4F20203 		movt	r3, 16386
 963              		.loc 1 534 0
 964 0138 2520     		movs	r0, #37
 965              		.loc 1 533 0
 966 013a 596C     		ldr	r1, [r3, #68]
 967 013c 41F01005 		orr	r5, r1, #16
 968 0140 5D64     		str	r5, [r3, #68]
 969              	.L95:
 970              	.LBE29:
 971              	.LBB30:
 972              		.loc 1 576 0
 973 0142 C021     		movs	r1, #192
 974 0144 FFF7FEFF 		bl	nvicEnableVector
 975              	.LVL63:
 976              		.loc 1 578 0
 977 0148 E068     		ldr	r0, [r4, #12]
 978 014a 40F00062 		orr	r2, r0, #134217728
 979 014e E260     		str	r2, [r4, #12]
 980 0150 A3E7     		b	.L83
 981              	.L97:
 982              	.LBE30:
 983              	.LBB31:
 984              		.loc 1 554 0
 985 0152 4FF46055 		mov	r5, #14336
 986              		.loc 1 544 0
 987 0156 0C21     		movs	r1, #12
 988 0158 174A     		ldr	r2, .L101+16
 989 015a 2069     		ldr	r0, [r4, #16]
 990 015c 2346     		mov	r3, r4
 991              		.loc 1 554 0
 992 015e C4F20205 		movt	r5, 16386
 993              		.loc 1 544 0
 994 0162 FFF7FEFF 		bl	dmaStreamAllocate
 995              	.LVL64:
 996              		.loc 1 549 0
 997 0166 0C21     		movs	r1, #12
 998 0168 144A     		ldr	r2, .L101+20
 999 016a 6069     		ldr	r0, [r4, #20]
 1000 016c 2346     		mov	r3, r4
 1001 016e FFF7FEFF 		bl	dmaStreamAllocate
 1002              	.LVL65:
 1003              		.loc 1 554 0
 1004 0172 2F6C     		ldr	r7, [r5, #64]
 1005              		.loc 1 555 0
 1006 0174 2620     		movs	r0, #38
 1007              		.loc 1 554 0
 1008 0176 47F40036 		orr	r6, r7, #131072
 1009              	.L94:
 1010              	.LBE31:
 1011              	.LBB32:
 1012              		.loc 1 575 0
 1013 017a 2E64     		str	r6, [r5, #64]
ARM GAS  C:\Users\Mohamad\AppData\Local\Temp\ccSvAY8z.s 			page 19


 1014 017c E1E7     		b	.L95
 1015              	.L98:
 1016 017e 4FF46055 		mov	r5, #14336
 1017              		.loc 1 565 0
 1018 0182 0C21     		movs	r1, #12
 1019 0184 0C4A     		ldr	r2, .L101+16
 1020 0186 2069     		ldr	r0, [r4, #16]
 1021 0188 2346     		mov	r3, r4
 1022              		.loc 1 575 0
 1023 018a C4F20205 		movt	r5, 16386
 1024              		.loc 1 565 0
 1025 018e FFF7FEFF 		bl	dmaStreamAllocate
 1026              	.LVL66:
 1027              		.loc 1 570 0
 1028 0192 0A4A     		ldr	r2, .L101+20
 1029 0194 6069     		ldr	r0, [r4, #20]
 1030 0196 0C21     		movs	r1, #12
 1031 0198 2346     		mov	r3, r4
 1032 019a FFF7FEFF 		bl	dmaStreamAllocate
 1033              	.LVL67:
 1034              		.loc 1 575 0
 1035 019e 2A6C     		ldr	r2, [r5, #64]
 1036              		.loc 1 576 0
 1037 01a0 2720     		movs	r0, #39
 1038              		.loc 1 575 0
 1039 01a2 42F48026 		orr	r6, r2, #262144
 1040 01a6 E8E7     		b	.L94
 1041              	.L102:
 1042              		.align	2
 1043              	.L101:
 1044 01a8 00000000 		.word	.LANCHOR0
 1045 01ac 00000000 		.word	.LANCHOR1
 1046 01b0 00000000 		.word	.LANCHOR2
 1047 01b4 00000000 		.word	.LANCHOR3
 1048 01b8 00000000 		.word	uart_lld_serve_rx_end_irq
 1049 01bc 00000000 		.word	uart_lld_serve_tx_end_irq
 1050              	.LBE32:
 1051              		.cfi_endproc
 1052              	.LFE130:
 1053              		.size	uart_lld_start, .-uart_lld_start
 1054              		.section	.text.uart_lld_stop,"ax",%progbits
 1055              		.align	2
 1056              		.p2align 4,,15
 1057              		.global	uart_lld_stop
 1058              		.thumb
 1059              		.thumb_func
 1060              		.type	uart_lld_stop, %function
 1061              	uart_lld_stop:
 1062              	.LFB131:
 1063              		.loc 1 683 0
 1064              		.cfi_startproc
 1065              		@ args = 0, pretend = 0, frame = 0
 1066              		@ frame_needed = 0, uses_anonymous_args = 0
 1067              	.LVL68:
 1068              		.loc 1 685 0
 1069 0000 0378     		ldrb	r3, [r0, #0]	@ zero_extendqisi2
 1070 0002 022B     		cmp	r3, #2
ARM GAS  C:\Users\Mohamad\AppData\Local\Temp\ccSvAY8z.s 			page 20


 1071              		.loc 1 683 0
 1072 0004 10B5     		push	{r4, lr}
 1073              	.LCFI11:
 1074              		.cfi_def_cfa_offset 8
 1075              		.cfi_offset 4, -8
 1076              		.cfi_offset 14, -4
 1077              		.loc 1 683 0
 1078 0006 0446     		mov	r4, r0
 1079              		.loc 1 685 0
 1080 0008 00D0     		beq	.L110
 1081              	.LVL69:
 1082              	.L103:
 1083 000a 10BD     		pop	{r4, pc}
 1084              	.LVL70:
 1085              	.L110:
 1086              		.loc 1 686 0
 1087 000c FFF7FEFF 		bl	usart_stop
 1088              	.LVL71:
 1089              		.loc 1 687 0
 1090 0010 2069     		ldr	r0, [r4, #16]
 1091 0012 FFF7FEFF 		bl	dmaStreamRelease
 1092              	.LVL72:
 1093              		.loc 1 688 0
 1094 0016 6069     		ldr	r0, [r4, #20]
 1095 0018 FFF7FEFF 		bl	dmaStreamRelease
 1096              	.LVL73:
 1097              		.loc 1 691 0
 1098 001c 1D48     		ldr	r0, .L114
 1099 001e 8442     		cmp	r4, r0
 1100 0020 14D0     		beq	.L111
 1101              		.loc 1 699 0
 1102 0022 1D49     		ldr	r1, .L114+4
 1103 0024 8C42     		cmp	r4, r1
 1104 0026 1DD0     		beq	.L112
 1105              		.loc 1 707 0
 1106 0028 1C4A     		ldr	r2, .L114+8
 1107 002a 9442     		cmp	r4, r2
 1108 002c 26D0     		beq	.L113
 1109              		.loc 1 731 0
 1110 002e 1C4B     		ldr	r3, .L114+12
 1111 0030 9C42     		cmp	r4, r3
 1112 0032 EAD1     		bne	.L103
 1113              		.loc 1 732 0
 1114 0034 4720     		movs	r0, #71
 1115 0036 FFF7FEFF 		bl	nvicDisableVector
 1116              	.LVL74:
 1117              		.loc 1 733 0
 1118 003a 4FF46050 		mov	r0, #14336
 1119 003e C4F20200 		movt	r0, 16386
 1120 0042 416C     		ldr	r1, [r0, #68]
 1121 0044 21F02002 		bic	r2, r1, #32
 1122 0048 4264     		str	r2, [r0, #68]
 1123              		.loc 1 734 0
 1124 004a DEE7     		b	.L103
 1125              	.L111:
 1126              		.loc 1 692 0
 1127 004c 2520     		movs	r0, #37
ARM GAS  C:\Users\Mohamad\AppData\Local\Temp\ccSvAY8z.s 			page 21


 1128 004e FFF7FEFF 		bl	nvicDisableVector
 1129              	.LVL75:
 1130              		.loc 1 693 0
 1131 0052 4FF46051 		mov	r1, #14336
 1132 0056 C4F20201 		movt	r1, 16386
 1133 005a 4B6C     		ldr	r3, [r1, #68]
 1134 005c 23F01002 		bic	r2, r3, #16
 1135 0060 4A64     		str	r2, [r1, #68]
 1136              		.loc 1 694 0
 1137 0062 10BD     		pop	{r4, pc}
 1138              	.L112:
 1139              		.loc 1 700 0
 1140 0064 2620     		movs	r0, #38
 1141 0066 FFF7FEFF 		bl	nvicDisableVector
 1142              	.LVL76:
 1143              		.loc 1 701 0
 1144 006a 4FF46053 		mov	r3, #14336
 1145 006e C4F20203 		movt	r3, 16386
 1146 0072 1A6C     		ldr	r2, [r3, #64]
 1147 0074 22F40030 		bic	r0, r2, #131072
 1148 0078 1864     		str	r0, [r3, #64]
 1149              		.loc 1 702 0
 1150 007a 10BD     		pop	{r4, pc}
 1151              	.L113:
 1152              		.loc 1 708 0
 1153 007c 2720     		movs	r0, #39
 1154 007e FFF7FEFF 		bl	nvicDisableVector
 1155              	.LVL77:
 1156              		.loc 1 709 0
 1157 0082 4FF46053 		mov	r3, #14336
 1158 0086 C4F20203 		movt	r3, 16386
 1159 008a 186C     		ldr	r0, [r3, #64]
 1160 008c 20F48021 		bic	r1, r0, #262144
 1161 0090 1964     		str	r1, [r3, #64]
 1162              		.loc 1 710 0
 1163 0092 10BD     		pop	{r4, pc}
 1164              	.L115:
 1165              		.align	2
 1166              	.L114:
 1167 0094 00000000 		.word	.LANCHOR0
 1168 0098 00000000 		.word	.LANCHOR1
 1169 009c 00000000 		.word	.LANCHOR2
 1170 00a0 00000000 		.word	.LANCHOR3
 1171              		.cfi_endproc
 1172              	.LFE131:
 1173              		.size	uart_lld_stop, .-uart_lld_stop
 1174 00a4 AFF30080 		.section	.text.uart_lld_start_send,"ax",%progbits
 1174      AFF30080 
 1174      AFF30080 
 1175              		.align	2
 1176              		.p2align 4,,15
 1177              		.global	uart_lld_start_send
 1178              		.thumb
 1179              		.thumb_func
 1180              		.type	uart_lld_start_send, %function
 1181              	uart_lld_start_send:
 1182              	.LFB132:
ARM GAS  C:\Users\Mohamad\AppData\Local\Temp\ccSvAY8z.s 			page 22


 1183              		.loc 1 751 0
 1184              		.cfi_startproc
 1185              		@ args = 0, pretend = 0, frame = 0
 1186              		@ frame_needed = 0, uses_anonymous_args = 0
 1187              		@ link register save eliminated.
 1188              	.LVL78:
 1189              		.loc 1 754 0
 1190 0000 4369     		ldr	r3, [r0, #20]
 1191              		.loc 1 756 0
 1192 0002 C068     		ldr	r0, [r0, #12]
 1193              	.LVL79:
 1194              		.loc 1 754 0
 1195 0004 1B68     		ldr	r3, [r3, #0]
 1196              		.loc 1 756 0
 1197 0006 40F48A60 		orr	r0, r0, #1104
 1198              		.loc 1 754 0
 1199 000a DA60     		str	r2, [r3, #12]
 1200              		.loc 1 755 0
 1201 000c 5960     		str	r1, [r3, #4]
 1202              		.loc 1 756 0
 1203 000e 1860     		str	r0, [r3, #0]
 1204              		.loc 1 758 0
 1205 0010 1A68     		ldr	r2, [r3, #0]
 1206              	.LVL80:
 1207 0012 42F00101 		orr	r1, r2, #1
 1208              	.LVL81:
 1209 0016 1960     		str	r1, [r3, #0]
 1210 0018 7047     		bx	lr
 1211              		.cfi_endproc
 1212              	.LFE132:
 1213              		.size	uart_lld_start_send, .-uart_lld_start_send
 1214 001a 00BFAFF3 		.section	.text.uart_lld_stop_send,"ax",%progbits
 1214      0080
 1215              		.align	2
 1216              		.p2align 4,,15
 1217              		.global	uart_lld_stop_send
 1218              		.thumb
 1219              		.thumb_func
 1220              		.type	uart_lld_stop_send, %function
 1221              	uart_lld_stop_send:
 1222              	.LFB133:
 1223              		.loc 1 772 0
 1224              		.cfi_startproc
 1225              		@ args = 0, pretend = 0, frame = 0
 1226              		@ frame_needed = 0, uses_anonymous_args = 0
 1227              		@ link register save eliminated.
 1228              	.LVL82:
 1229              		.loc 1 774 0
 1230 0000 4169     		ldr	r1, [r0, #20]
 1231 0002 0A68     		ldr	r2, [r1, #0]
 1232 0004 1368     		ldr	r3, [r2, #0]
 1233 0006 23F01F00 		bic	r0, r3, #31
 1234              	.LVL83:
 1235 000a 1060     		str	r0, [r2, #0]
 1236              	.L118:
 1237              		.loc 1 774 0 is_stmt 0 discriminator 1
 1238 000c 1368     		ldr	r3, [r2, #0]
ARM GAS  C:\Users\Mohamad\AppData\Local\Temp\ccSvAY8z.s 			page 23


 1239 000e DB07     		lsls	r3, r3, #31
 1240 0010 FCD4     		bmi	.L118
 1241              		.loc 1 774 0 discriminator 2
 1242 0012 087A     		ldrb	r0, [r1, #8]	@ zero_extendqisi2
 1243 0014 4B68     		ldr	r3, [r1, #4]
 1244 0016 3D21     		movs	r1, #61
 1245 0018 01FA00F1 		lsl	r1, r1, r0
 1246 001c 1960     		str	r1, [r3, #0]
 1247              		.loc 1 775 0 is_stmt 1 discriminator 2
 1248 001e 5068     		ldr	r0, [r2, #4]
 1249              		.loc 1 776 0 discriminator 2
 1250 0020 7047     		bx	lr
 1251              		.cfi_endproc
 1252              	.LFE133:
 1253              		.size	uart_lld_stop_send, .-uart_lld_stop_send
 1254 0022 00BFAFF3 		.section	.text.uart_lld_start_receive,"ax",%progbits
 1254      0080AFF3 
 1254      0080AFF3 
 1254      0080
 1255              		.align	2
 1256              		.p2align 4,,15
 1257              		.global	uart_lld_start_receive
 1258              		.thumb
 1259              		.thumb_func
 1260              		.type	uart_lld_start_receive, %function
 1261              	uart_lld_start_receive:
 1262              	.LFB134:
 1263              		.loc 1 789 0
 1264              		.cfi_startproc
 1265              		@ args = 0, pretend = 0, frame = 0
 1266              		@ frame_needed = 0, uses_anonymous_args = 0
 1267              		@ link register save eliminated.
 1268              	.LVL84:
 1269 0000 70B4     		push	{r4, r5, r6}
 1270              	.LCFI12:
 1271              		.cfi_def_cfa_offset 12
 1272              		.cfi_offset 4, -12
 1273              		.cfi_offset 5, -8
 1274              		.cfi_offset 6, -4
 1275              		.loc 1 792 0
 1276 0002 0569     		ldr	r5, [r0, #16]
 1277 0004 2C68     		ldr	r4, [r5, #0]
 1278 0006 2368     		ldr	r3, [r4, #0]
 1279 0008 23F01F06 		bic	r6, r3, #31
 1280 000c 2660     		str	r6, [r4, #0]
 1281              	.L121:
 1282              		.loc 1 792 0 is_stmt 0 discriminator 1
 1283 000e 2368     		ldr	r3, [r4, #0]
 1284 0010 DB07     		lsls	r3, r3, #31
 1285 0012 FCD4     		bmi	.L121
 1286              		.loc 1 792 0 discriminator 2
 1287 0014 2E7A     		ldrb	r6, [r5, #8]	@ zero_extendqisi2
 1288 0016 6B68     		ldr	r3, [r5, #4]
 1289 0018 3D25     		movs	r5, #61
 1290 001a 05FA06F5 		lsl	r5, r5, r6
 1291 001e 1D60     		str	r5, [r3, #0]
 1292              		.loc 1 797 0 is_stmt 1 discriminator 2
ARM GAS  C:\Users\Mohamad\AppData\Local\Temp\ccSvAY8z.s 			page 24


 1293 0020 C068     		ldr	r0, [r0, #12]
 1294              	.LVL85:
 1295              		.loc 1 795 0 discriminator 2
 1296 0022 E260     		str	r2, [r4, #12]
 1297              		.loc 1 797 0 discriminator 2
 1298 0024 40F48262 		orr	r2, r0, #1040
 1299              	.LVL86:
 1300              		.loc 1 796 0 discriminator 2
 1301 0028 6160     		str	r1, [r4, #4]
 1302              		.loc 1 797 0 discriminator 2
 1303 002a 2260     		str	r2, [r4, #0]
 1304              		.loc 1 799 0 discriminator 2
 1305 002c 2168     		ldr	r1, [r4, #0]
 1306              	.LVL87:
 1307 002e 41F00103 		orr	r3, r1, #1
 1308 0032 2360     		str	r3, [r4, #0]
 1309              		.loc 1 800 0 discriminator 2
 1310 0034 70BC     		pop	{r4, r5, r6}
 1311 0036 7047     		bx	lr
 1312              		.cfi_endproc
 1313              	.LFE134:
 1314              		.size	uart_lld_start_receive, .-uart_lld_start_receive
 1315 0038 AFF30080 		.section	.text.uart_lld_stop_receive,"ax",%progbits
 1315      AFF30080 
 1316              		.align	2
 1317              		.p2align 4,,15
 1318              		.global	uart_lld_stop_receive
 1319              		.thumb
 1320              		.thumb_func
 1321              		.type	uart_lld_stop_receive, %function
 1322              	uart_lld_stop_receive:
 1323              	.LFB135:
 1324              		.loc 1 813 0
 1325              		.cfi_startproc
 1326              		@ args = 0, pretend = 0, frame = 0
 1327              		@ frame_needed = 0, uses_anonymous_args = 0
 1328              	.LVL88:
 1329              		.loc 1 816 0
 1330 0000 0169     		ldr	r1, [r0, #16]
 1331 0002 0A68     		ldr	r2, [r1, #0]
 1332 0004 1368     		ldr	r3, [r2, #0]
 1333              		.loc 1 813 0
 1334 0006 10B5     		push	{r4, lr}
 1335              	.LCFI13:
 1336              		.cfi_def_cfa_offset 8
 1337              		.cfi_offset 4, -8
 1338              		.cfi_offset 14, -4
 1339              		.loc 1 816 0
 1340 0008 23F01F04 		bic	r4, r3, #31
 1341 000c 1460     		str	r4, [r2, #0]
 1342              	.L124:
 1343              		.loc 1 816 0 is_stmt 0 discriminator 1
 1344 000e 1368     		ldr	r3, [r2, #0]
 1345 0010 DB07     		lsls	r3, r3, #31
 1346 0012 FCD4     		bmi	.L124
 1347              		.loc 1 816 0 discriminator 2
 1348 0014 0C7A     		ldrb	r4, [r1, #8]	@ zero_extendqisi2
ARM GAS  C:\Users\Mohamad\AppData\Local\Temp\ccSvAY8z.s 			page 25


 1349 0016 4B68     		ldr	r3, [r1, #4]
 1350 0018 3D21     		movs	r1, #61
 1351 001a 01FA04F1 		lsl	r1, r1, r4
 1352 001e 1960     		str	r1, [r3, #0]
 1353              		.loc 1 817 0 is_stmt 1 discriminator 2
 1354 0020 5468     		ldr	r4, [r2, #4]
 1355              	.LVL89:
 1356              		.loc 1 818 0 discriminator 2
 1357 0022 FFF7FEFF 		bl	set_rx_idle_loop
 1358              	.LVL90:
 1359              		.loc 1 820 0 discriminator 2
 1360 0026 2046     		mov	r0, r4
 1361 0028 10BD     		pop	{r4, pc}
 1362              		.cfi_endproc
 1363              	.LFE135:
 1364              		.size	uart_lld_stop_receive, .-uart_lld_stop_receive
 1365              		.global	UARTD6
 1366              		.global	UARTD3
 1367              		.global	UARTD2
 1368              		.global	UARTD1
 1369 002a 00BFAFF3 		.section	.bss.UARTD1,"aw",%nobits
 1369      0080
 1370              		.align	2
 1371              		.set	.LANCHOR0,. + 0
 1372              		.type	UARTD1, %object
 1373              		.size	UARTD1, 28
 1374              	UARTD1:
 1375 0000 00000000 		.space	28
 1375      00000000 
 1375      00000000 
 1375      00000000 
 1375      00000000 
 1376              		.section	.bss.UARTD2,"aw",%nobits
 1377              		.align	2
 1378              		.set	.LANCHOR1,. + 0
 1379              		.type	UARTD2, %object
 1380              		.size	UARTD2, 28
 1381              	UARTD2:
 1382 0000 00000000 		.space	28
 1382      00000000 
 1382      00000000 
 1382      00000000 
 1382      00000000 
 1383              		.section	.bss.UARTD3,"aw",%nobits
 1384              		.align	2
 1385              		.set	.LANCHOR2,. + 0
 1386              		.type	UARTD3, %object
 1387              		.size	UARTD3, 28
 1388              	UARTD3:
 1389 0000 00000000 		.space	28
 1389      00000000 
 1389      00000000 
 1389      00000000 
 1389      00000000 
 1390              		.section	.bss.UARTD6,"aw",%nobits
 1391              		.align	2
 1392              		.set	.LANCHOR3,. + 0
ARM GAS  C:\Users\Mohamad\AppData\Local\Temp\ccSvAY8z.s 			page 26


 1393              		.type	UARTD6, %object
 1394              		.size	UARTD6, 28
 1395              	UARTD6:
 1396 0000 00000000 		.space	28
 1396      00000000 
 1396      00000000 
 1396      00000000 
 1396      00000000 
 1397              		.text
 1398              	.Letext0:
 1399              		.file 2 "c:\\chibistudio\\tools\\gnu tools arm embedded\\4.7 2014q2\\bin\\../lib/gcc/arm-none-eabi
 1400              		.file 3 "c:\\chibistudio\\tools\\gnu tools arm embedded\\4.7 2014q2\\bin\\../lib/gcc/arm-none-eabi
 1401              		.file 4 "../../chibios/os/ports/GCC/ARMCMx/chtypes.h"
 1402              		.file 5 "../../chibios/os/hal/platforms/STM32F4xx/stm32f4xx.h"
 1403              		.file 6 "../../chibios/os/hal/platforms/STM32F4xx/stm32_dma.h"
 1404              		.file 7 "../../chibios/os/hal/include/uart.h"
 1405              		.file 8 "../../chibios/os/hal/platforms/STM32/USARTv1/uart_lld.h"
 1406              		.file 9 "../../chibios/os/ports/common/ARMCMx/CMSIS/include/core_cm4.h"
 1407              		.file 10 "../../chibios/os/ports/GCC/ARMCMx/chcore_v7m.h"
 1408              		.file 11 "../../chibios/os/ports/common/ARMCMx/nvic.h"
 1409              		.section	.debug_info,"",%progbits
 1410              	.Ldebug_info0:
 1411 0000 580F0000 		.4byte	0xf58
 1412 0004 0200     		.2byte	0x2
 1413 0006 00000000 		.4byte	.Ldebug_abbrev0
 1414 000a 04       		.byte	0x4
 1415 000b 01       		.uleb128 0x1
 1416 000c 99030000 		.4byte	.LASF126
 1417 0010 01       		.byte	0x1
 1418 0011 DA010000 		.4byte	.LASF127
 1419 0015 D0040000 		.4byte	.LASF128
 1420 0019 C8000000 		.4byte	.Ldebug_ranges0+0xc8
 1421 001d 00000000 		.4byte	0
 1422 0021 00000000 		.4byte	0
 1423 0025 00000000 		.4byte	.Ldebug_line0
 1424 0029 02       		.uleb128 0x2
 1425 002a 04       		.byte	0x4
 1426 002b 05       		.byte	0x5
 1427 002c 696E7400 		.ascii	"int\000"
 1428 0030 03       		.uleb128 0x3
 1429 0031 4A000000 		.4byte	.LASF2
 1430 0035 02       		.byte	0x2
 1431 0036 D5       		.byte	0xd5
 1432 0037 3B000000 		.4byte	0x3b
 1433 003b 04       		.uleb128 0x4
 1434 003c 04       		.byte	0x4
 1435 003d 07       		.byte	0x7
 1436 003e 32020000 		.4byte	.LASF0
 1437 0042 04       		.uleb128 0x4
 1438 0043 01       		.byte	0x1
 1439 0044 06       		.byte	0x6
 1440 0045 0B010000 		.4byte	.LASF1
 1441 0049 03       		.uleb128 0x3
 1442 004a B4050000 		.4byte	.LASF3
 1443 004e 03       		.byte	0x3
 1444 004f 2A       		.byte	0x2a
 1445 0050 54000000 		.4byte	0x54
ARM GAS  C:\Users\Mohamad\AppData\Local\Temp\ccSvAY8z.s 			page 27


 1446 0054 04       		.uleb128 0x4
 1447 0055 01       		.byte	0x1
 1448 0056 08       		.byte	0x8
 1449 0057 84040000 		.4byte	.LASF4
 1450 005b 04       		.uleb128 0x4
 1451 005c 02       		.byte	0x2
 1452 005d 05       		.byte	0x5
 1453 005e 92040000 		.4byte	.LASF5
 1454 0062 03       		.uleb128 0x3
 1455 0063 65010000 		.4byte	.LASF6
 1456 0067 03       		.byte	0x3
 1457 0068 36       		.byte	0x36
 1458 0069 6D000000 		.4byte	0x6d
 1459 006d 04       		.uleb128 0x4
 1460 006e 02       		.byte	0x2
 1461 006f 07       		.byte	0x7
 1462 0070 A3020000 		.4byte	.LASF7
 1463 0074 03       		.uleb128 0x3
 1464 0075 7C040000 		.4byte	.LASF8
 1465 0079 03       		.byte	0x3
 1466 007a 4F       		.byte	0x4f
 1467 007b 7F000000 		.4byte	0x7f
 1468 007f 04       		.uleb128 0x4
 1469 0080 04       		.byte	0x4
 1470 0081 05       		.byte	0x5
 1471 0082 53010000 		.4byte	.LASF9
 1472 0086 03       		.uleb128 0x3
 1473 0087 F4040000 		.4byte	.LASF10
 1474 008b 03       		.byte	0x3
 1475 008c 50       		.byte	0x50
 1476 008d 91000000 		.4byte	0x91
 1477 0091 04       		.uleb128 0x4
 1478 0092 04       		.byte	0x4
 1479 0093 07       		.byte	0x7
 1480 0094 6A020000 		.4byte	.LASF11
 1481 0098 04       		.uleb128 0x4
 1482 0099 08       		.byte	0x8
 1483 009a 05       		.byte	0x5
 1484 009b FD000000 		.4byte	.LASF12
 1485 009f 04       		.uleb128 0x4
 1486 00a0 08       		.byte	0x8
 1487 00a1 07       		.byte	0x7
 1488 00a2 6E010000 		.4byte	.LASF13
 1489 00a6 03       		.uleb128 0x3
 1490 00a7 91000000 		.4byte	.LASF14
 1491 00ab 04       		.byte	0x4
 1492 00ac 2B       		.byte	0x2b
 1493 00ad B1000000 		.4byte	0xb1
 1494 00b1 04       		.uleb128 0x4
 1495 00b2 01       		.byte	0x1
 1496 00b3 02       		.byte	0x2
 1497 00b4 76040000 		.4byte	.LASF15
 1498 00b8 05       		.uleb128 0x5
 1499 00b9 04       		.byte	0x4
 1500 00ba 06       		.uleb128 0x6
 1501 00bb 86000000 		.4byte	0x86
 1502 00bf 04       		.uleb128 0x4
ARM GAS  C:\Users\Mohamad\AppData\Local\Temp\ccSvAY8z.s 			page 28


 1503 00c0 04       		.byte	0x4
 1504 00c1 07       		.byte	0x7
 1505 00c2 43030000 		.4byte	.LASF16
 1506 00c6 04       		.uleb128 0x4
 1507 00c7 01       		.byte	0x1
 1508 00c8 08       		.byte	0x8
 1509 00c9 05050000 		.4byte	.LASF17
 1510 00cd 07       		.uleb128 0x7
 1511 00ce 86000000 		.4byte	0x86
 1512 00d2 DD000000 		.4byte	0xdd
 1513 00d6 08       		.uleb128 0x8
 1514 00d7 BF000000 		.4byte	0xbf
 1515 00db 01       		.byte	0x1
 1516 00dc 00       		.byte	0
 1517 00dd 06       		.uleb128 0x6
 1518 00de 62000000 		.4byte	0x62
 1519 00e2 06       		.uleb128 0x6
 1520 00e3 74000000 		.4byte	0x74
 1521 00e7 09       		.uleb128 0x9
 1522 00e8 18       		.byte	0x18
 1523 00e9 05       		.byte	0x5
 1524 00ea B102     		.2byte	0x2b1
 1525 00ec 4A010000 		.4byte	0x14a
 1526 00f0 0A       		.uleb128 0xa
 1527 00f1 435200   		.ascii	"CR\000"
 1528 00f4 05       		.byte	0x5
 1529 00f5 B302     		.2byte	0x2b3
 1530 00f7 BA000000 		.4byte	0xba
 1531 00fb 02       		.byte	0x2
 1532 00fc 23       		.byte	0x23
 1533 00fd 00       		.uleb128 0
 1534 00fe 0B       		.uleb128 0xb
 1535 00ff 54050000 		.4byte	.LASF18
 1536 0103 05       		.byte	0x5
 1537 0104 B402     		.2byte	0x2b4
 1538 0106 BA000000 		.4byte	0xba
 1539 010a 02       		.byte	0x2
 1540 010b 23       		.byte	0x23
 1541 010c 04       		.uleb128 0x4
 1542 010d 0A       		.uleb128 0xa
 1543 010e 50415200 		.ascii	"PAR\000"
 1544 0112 05       		.byte	0x5
 1545 0113 B502     		.2byte	0x2b5
 1546 0115 BA000000 		.4byte	0xba
 1547 0119 02       		.byte	0x2
 1548 011a 23       		.byte	0x23
 1549 011b 08       		.uleb128 0x8
 1550 011c 0B       		.uleb128 0xb
 1551 011d 5B000000 		.4byte	.LASF19
 1552 0121 05       		.byte	0x5
 1553 0122 B602     		.2byte	0x2b6
 1554 0124 BA000000 		.4byte	0xba
 1555 0128 02       		.byte	0x2
 1556 0129 23       		.byte	0x23
 1557 012a 0C       		.uleb128 0xc
 1558 012b 0B       		.uleb128 0xb
 1559 012c 8E050000 		.4byte	.LASF20
ARM GAS  C:\Users\Mohamad\AppData\Local\Temp\ccSvAY8z.s 			page 29


 1560 0130 05       		.byte	0x5
 1561 0131 B702     		.2byte	0x2b7
 1562 0133 BA000000 		.4byte	0xba
 1563 0137 02       		.byte	0x2
 1564 0138 23       		.byte	0x23
 1565 0139 10       		.uleb128 0x10
 1566 013a 0A       		.uleb128 0xa
 1567 013b 46435200 		.ascii	"FCR\000"
 1568 013f 05       		.byte	0x5
 1569 0140 B802     		.2byte	0x2b8
 1570 0142 BA000000 		.4byte	0xba
 1571 0146 02       		.byte	0x2
 1572 0147 23       		.byte	0x23
 1573 0148 14       		.uleb128 0x14
 1574 0149 00       		.byte	0
 1575 014a 0C       		.uleb128 0xc
 1576 014b 59050000 		.4byte	.LASF21
 1577 014f 05       		.byte	0x5
 1578 0150 B902     		.2byte	0x2b9
 1579 0152 E7000000 		.4byte	0xe7
 1580 0156 09       		.uleb128 0x9
 1581 0157 90       		.byte	0x90
 1582 0158 05       		.byte	0x5
 1583 0159 5804     		.2byte	0x458
 1584 015b 43030000 		.4byte	0x343
 1585 015f 0A       		.uleb128 0xa
 1586 0160 435200   		.ascii	"CR\000"
 1587 0163 05       		.byte	0x5
 1588 0164 5A04     		.2byte	0x45a
 1589 0166 BA000000 		.4byte	0xba
 1590 016a 02       		.byte	0x2
 1591 016b 23       		.byte	0x23
 1592 016c 00       		.uleb128 0
 1593 016d 0B       		.uleb128 0xb
 1594 016e 8F010000 		.4byte	.LASF22
 1595 0172 05       		.byte	0x5
 1596 0173 5B04     		.2byte	0x45b
 1597 0175 BA000000 		.4byte	0xba
 1598 0179 02       		.byte	0x2
 1599 017a 23       		.byte	0x23
 1600 017b 04       		.uleb128 0x4
 1601 017c 0B       		.uleb128 0xb
 1602 017d E4050000 		.4byte	.LASF23
 1603 0181 05       		.byte	0x5
 1604 0182 5C04     		.2byte	0x45c
 1605 0184 BA000000 		.4byte	0xba
 1606 0188 02       		.byte	0x2
 1607 0189 23       		.byte	0x23
 1608 018a 08       		.uleb128 0x8
 1609 018b 0A       		.uleb128 0xa
 1610 018c 43495200 		.ascii	"CIR\000"
 1611 0190 05       		.byte	0x5
 1612 0191 5D04     		.2byte	0x45d
 1613 0193 BA000000 		.4byte	0xba
 1614 0197 02       		.byte	0x2
 1615 0198 23       		.byte	0x23
 1616 0199 0C       		.uleb128 0xc
ARM GAS  C:\Users\Mohamad\AppData\Local\Temp\ccSvAY8z.s 			page 30


 1617 019a 0B       		.uleb128 0xb
 1618 019b 20010000 		.4byte	.LASF24
 1619 019f 05       		.byte	0x5
 1620 01a0 5E04     		.2byte	0x45e
 1621 01a2 BA000000 		.4byte	0xba
 1622 01a6 02       		.byte	0x2
 1623 01a7 23       		.byte	0x23
 1624 01a8 10       		.uleb128 0x10
 1625 01a9 0B       		.uleb128 0xb
 1626 01aa 34050000 		.4byte	.LASF25
 1627 01ae 05       		.byte	0x5
 1628 01af 5F04     		.2byte	0x45f
 1629 01b1 BA000000 		.4byte	0xba
 1630 01b5 02       		.byte	0x2
 1631 01b6 23       		.byte	0x23
 1632 01b7 14       		.uleb128 0x14
 1633 01b8 0B       		.uleb128 0xb
 1634 01b9 D7020000 		.4byte	.LASF26
 1635 01bd 05       		.byte	0x5
 1636 01be 6004     		.2byte	0x460
 1637 01c0 BA000000 		.4byte	0xba
 1638 01c4 02       		.byte	0x2
 1639 01c5 23       		.byte	0x23
 1640 01c6 18       		.uleb128 0x18
 1641 01c7 0B       		.uleb128 0xb
 1642 01c8 13040000 		.4byte	.LASF27
 1643 01cc 05       		.byte	0x5
 1644 01cd 6104     		.2byte	0x461
 1645 01cf 86000000 		.4byte	0x86
 1646 01d3 02       		.byte	0x2
 1647 01d4 23       		.byte	0x23
 1648 01d5 1C       		.uleb128 0x1c
 1649 01d6 0B       		.uleb128 0xb
 1650 01d7 F9030000 		.4byte	.LASF28
 1651 01db 05       		.byte	0x5
 1652 01dc 6204     		.2byte	0x462
 1653 01de BA000000 		.4byte	0xba
 1654 01e2 02       		.byte	0x2
 1655 01e3 23       		.byte	0x23
 1656 01e4 20       		.uleb128 0x20
 1657 01e5 0B       		.uleb128 0xb
 1658 01e6 5C010000 		.4byte	.LASF29
 1659 01ea 05       		.byte	0x5
 1660 01eb 6304     		.2byte	0x463
 1661 01ed BA000000 		.4byte	0xba
 1662 01f1 02       		.byte	0x2
 1663 01f2 23       		.byte	0x23
 1664 01f3 24       		.uleb128 0x24
 1665 01f4 0B       		.uleb128 0xb
 1666 01f5 1D040000 		.4byte	.LASF30
 1667 01f9 05       		.byte	0x5
 1668 01fa 6404     		.2byte	0x464
 1669 01fc CD000000 		.4byte	0xcd
 1670 0200 02       		.byte	0x2
 1671 0201 23       		.byte	0x23
 1672 0202 28       		.uleb128 0x28
 1673 0203 0B       		.uleb128 0xb
ARM GAS  C:\Users\Mohamad\AppData\Local\Temp\ccSvAY8z.s 			page 31


 1674 0204 DC050000 		.4byte	.LASF31
 1675 0208 05       		.byte	0x5
 1676 0209 6504     		.2byte	0x465
 1677 020b BA000000 		.4byte	0xba
 1678 020f 02       		.byte	0x2
 1679 0210 23       		.byte	0x23
 1680 0211 30       		.uleb128 0x30
 1681 0212 0B       		.uleb128 0xb
 1682 0213 6C050000 		.4byte	.LASF32
 1683 0217 05       		.byte	0x5
 1684 0218 6604     		.2byte	0x466
 1685 021a BA000000 		.4byte	0xba
 1686 021e 02       		.byte	0x2
 1687 021f 23       		.byte	0x23
 1688 0220 34       		.uleb128 0x34
 1689 0221 0B       		.uleb128 0xb
 1690 0222 77030000 		.4byte	.LASF33
 1691 0226 05       		.byte	0x5
 1692 0227 6704     		.2byte	0x467
 1693 0229 BA000000 		.4byte	0xba
 1694 022d 02       		.byte	0x2
 1695 022e 23       		.byte	0x23
 1696 022f 38       		.uleb128 0x38
 1697 0230 0B       		.uleb128 0xb
 1698 0231 27040000 		.4byte	.LASF34
 1699 0235 05       		.byte	0x5
 1700 0236 6804     		.2byte	0x468
 1701 0238 86000000 		.4byte	0x86
 1702 023c 02       		.byte	0x2
 1703 023d 23       		.byte	0x23
 1704 023e 3C       		.uleb128 0x3c
 1705 023f 0B       		.uleb128 0xb
 1706 0240 FD040000 		.4byte	.LASF35
 1707 0244 05       		.byte	0x5
 1708 0245 6904     		.2byte	0x469
 1709 0247 BA000000 		.4byte	0xba
 1710 024b 02       		.byte	0x2
 1711 024c 23       		.byte	0x23
 1712 024d 40       		.uleb128 0x40
 1713 024e 0B       		.uleb128 0xb
 1714 024f B2040000 		.4byte	.LASF36
 1715 0253 05       		.byte	0x5
 1716 0254 6A04     		.2byte	0x46a
 1717 0256 BA000000 		.4byte	0xba
 1718 025a 02       		.byte	0x2
 1719 025b 23       		.byte	0x23
 1720 025c 44       		.uleb128 0x44
 1721 025d 0B       		.uleb128 0xb
 1722 025e 31040000 		.4byte	.LASF37
 1723 0262 05       		.byte	0x5
 1724 0263 6B04     		.2byte	0x46b
 1725 0265 CD000000 		.4byte	0xcd
 1726 0269 02       		.byte	0x2
 1727 026a 23       		.byte	0x23
 1728 026b 48       		.uleb128 0x48
 1729 026c 0B       		.uleb128 0xb
 1730 026d DA000000 		.4byte	.LASF38
ARM GAS  C:\Users\Mohamad\AppData\Local\Temp\ccSvAY8z.s 			page 32


 1731 0271 05       		.byte	0x5
 1732 0272 6C04     		.2byte	0x46c
 1733 0274 BA000000 		.4byte	0xba
 1734 0278 02       		.byte	0x2
 1735 0279 23       		.byte	0x23
 1736 027a 50       		.uleb128 0x50
 1737 027b 0B       		.uleb128 0xb
 1738 027c 87000000 		.4byte	.LASF39
 1739 0280 05       		.byte	0x5
 1740 0281 6D04     		.2byte	0x46d
 1741 0283 BA000000 		.4byte	0xba
 1742 0287 02       		.byte	0x2
 1743 0288 23       		.byte	0x23
 1744 0289 54       		.uleb128 0x54
 1745 028a 0B       		.uleb128 0xb
 1746 028b 9C040000 		.4byte	.LASF40
 1747 028f 05       		.byte	0x5
 1748 0290 6E04     		.2byte	0x46e
 1749 0292 BA000000 		.4byte	0xba
 1750 0296 02       		.byte	0x2
 1751 0297 23       		.byte	0x23
 1752 0298 58       		.uleb128 0x58
 1753 0299 0B       		.uleb128 0xb
 1754 029a 3B040000 		.4byte	.LASF41
 1755 029e 05       		.byte	0x5
 1756 029f 6F04     		.2byte	0x46f
 1757 02a1 86000000 		.4byte	0x86
 1758 02a5 02       		.byte	0x2
 1759 02a6 23       		.byte	0x23
 1760 02a7 5C       		.uleb128 0x5c
 1761 02a8 0B       		.uleb128 0xb
 1762 02a9 17000000 		.4byte	.LASF42
 1763 02ad 05       		.byte	0x5
 1764 02ae 7004     		.2byte	0x470
 1765 02b0 BA000000 		.4byte	0xba
 1766 02b4 02       		.byte	0x2
 1767 02b5 23       		.byte	0x23
 1768 02b6 60       		.uleb128 0x60
 1769 02b7 0B       		.uleb128 0xb
 1770 02b8 01030000 		.4byte	.LASF43
 1771 02bc 05       		.byte	0x5
 1772 02bd 7104     		.2byte	0x471
 1773 02bf BA000000 		.4byte	0xba
 1774 02c3 02       		.byte	0x2
 1775 02c4 23       		.byte	0x23
 1776 02c5 64       		.uleb128 0x64
 1777 02c6 0B       		.uleb128 0xb
 1778 02c7 45040000 		.4byte	.LASF44
 1779 02cb 05       		.byte	0x5
 1780 02cc 7204     		.2byte	0x472
 1781 02ce CD000000 		.4byte	0xcd
 1782 02d2 02       		.byte	0x2
 1783 02d3 23       		.byte	0x23
 1784 02d4 68       		.uleb128 0x68
 1785 02d5 0B       		.uleb128 0xb
 1786 02d6 99050000 		.4byte	.LASF45
 1787 02da 05       		.byte	0x5
ARM GAS  C:\Users\Mohamad\AppData\Local\Temp\ccSvAY8z.s 			page 33


 1788 02db 7304     		.2byte	0x473
 1789 02dd BA000000 		.4byte	0xba
 1790 02e1 02       		.byte	0x2
 1791 02e2 23       		.byte	0x23
 1792 02e3 70       		.uleb128 0x70
 1793 02e4 0A       		.uleb128 0xa
 1794 02e5 43535200 		.ascii	"CSR\000"
 1795 02e9 05       		.byte	0x5
 1796 02ea 7404     		.2byte	0x474
 1797 02ec BA000000 		.4byte	0xba
 1798 02f0 02       		.byte	0x2
 1799 02f1 23       		.byte	0x23
 1800 02f2 74       		.uleb128 0x74
 1801 02f3 0B       		.uleb128 0xb
 1802 02f4 4F040000 		.4byte	.LASF46
 1803 02f8 05       		.byte	0x5
 1804 02f9 7504     		.2byte	0x475
 1805 02fb CD000000 		.4byte	0xcd
 1806 02ff 02       		.byte	0x2
 1807 0300 23       		.byte	0x23
 1808 0301 78       		.uleb128 0x78
 1809 0302 0B       		.uleb128 0xb
 1810 0303 93050000 		.4byte	.LASF47
 1811 0307 05       		.byte	0x5
 1812 0308 7604     		.2byte	0x476
 1813 030a BA000000 		.4byte	0xba
 1814 030e 03       		.byte	0x3
 1815 030f 23       		.byte	0x23
 1816 0310 8001     		.uleb128 0x80
 1817 0312 0B       		.uleb128 0xb
 1818 0313 CC020000 		.4byte	.LASF48
 1819 0317 05       		.byte	0x5
 1820 0318 7704     		.2byte	0x477
 1821 031a BA000000 		.4byte	0xba
 1822 031e 03       		.byte	0x3
 1823 031f 23       		.byte	0x23
 1824 0320 8401     		.uleb128 0x84
 1825 0322 0B       		.uleb128 0xb
 1826 0323 02040000 		.4byte	.LASF49
 1827 0327 05       		.byte	0x5
 1828 0328 7804     		.2byte	0x478
 1829 032a BA000000 		.4byte	0xba
 1830 032e 03       		.byte	0x3
 1831 032f 23       		.byte	0x23
 1832 0330 8801     		.uleb128 0x88
 1833 0332 0B       		.uleb128 0xb
 1834 0333 F5000000 		.4byte	.LASF50
 1835 0337 05       		.byte	0x5
 1836 0338 7904     		.2byte	0x479
 1837 033a BA000000 		.4byte	0xba
 1838 033e 03       		.byte	0x3
 1839 033f 23       		.byte	0x23
 1840 0340 8C01     		.uleb128 0x8c
 1841 0342 00       		.byte	0
 1842 0343 0C       		.uleb128 0xc
 1843 0344 86020000 		.4byte	.LASF51
 1844 0348 05       		.byte	0x5
ARM GAS  C:\Users\Mohamad\AppData\Local\Temp\ccSvAY8z.s 			page 34


 1845 0349 7B04     		.2byte	0x47b
 1846 034b 56010000 		.4byte	0x156
 1847 034f 09       		.uleb128 0x9
 1848 0350 1C       		.byte	0x1c
 1849 0351 05       		.byte	0x5
 1850 0352 2905     		.2byte	0x529
 1851 0354 29040000 		.4byte	0x429
 1852 0358 0A       		.uleb128 0xa
 1853 0359 535200   		.ascii	"SR\000"
 1854 035c 05       		.byte	0x5
 1855 035d 2B05     		.2byte	0x52b
 1856 035f DD000000 		.4byte	0xdd
 1857 0363 02       		.byte	0x2
 1858 0364 23       		.byte	0x23
 1859 0365 00       		.uleb128 0
 1860 0366 0B       		.uleb128 0xb
 1861 0367 13040000 		.4byte	.LASF27
 1862 036b 05       		.byte	0x5
 1863 036c 2C05     		.2byte	0x52c
 1864 036e 62000000 		.4byte	0x62
 1865 0372 02       		.byte	0x2
 1866 0373 23       		.byte	0x23
 1867 0374 02       		.uleb128 0x2
 1868 0375 0A       		.uleb128 0xa
 1869 0376 445200   		.ascii	"DR\000"
 1870 0379 05       		.byte	0x5
 1871 037a 2D05     		.2byte	0x52d
 1872 037c DD000000 		.4byte	0xdd
 1873 0380 02       		.byte	0x2
 1874 0381 23       		.byte	0x23
 1875 0382 04       		.uleb128 0x4
 1876 0383 0B       		.uleb128 0xb
 1877 0384 1D040000 		.4byte	.LASF30
 1878 0388 05       		.byte	0x5
 1879 0389 2E05     		.2byte	0x52e
 1880 038b 62000000 		.4byte	0x62
 1881 038f 02       		.byte	0x2
 1882 0390 23       		.byte	0x23
 1883 0391 06       		.uleb128 0x6
 1884 0392 0A       		.uleb128 0xa
 1885 0393 42525200 		.ascii	"BRR\000"
 1886 0397 05       		.byte	0x5
 1887 0398 2F05     		.2byte	0x52f
 1888 039a DD000000 		.4byte	0xdd
 1889 039e 02       		.byte	0x2
 1890 039f 23       		.byte	0x23
 1891 03a0 08       		.uleb128 0x8
 1892 03a1 0B       		.uleb128 0xb
 1893 03a2 27040000 		.4byte	.LASF34
 1894 03a6 05       		.byte	0x5
 1895 03a7 3005     		.2byte	0x530
 1896 03a9 62000000 		.4byte	0x62
 1897 03ad 02       		.byte	0x2
 1898 03ae 23       		.byte	0x23
 1899 03af 0A       		.uleb128 0xa
 1900 03b0 0A       		.uleb128 0xa
 1901 03b1 43523100 		.ascii	"CR1\000"
ARM GAS  C:\Users\Mohamad\AppData\Local\Temp\ccSvAY8z.s 			page 35


 1902 03b5 05       		.byte	0x5
 1903 03b6 3105     		.2byte	0x531
 1904 03b8 DD000000 		.4byte	0xdd
 1905 03bc 02       		.byte	0x2
 1906 03bd 23       		.byte	0x23
 1907 03be 0C       		.uleb128 0xc
 1908 03bf 0B       		.uleb128 0xb
 1909 03c0 31040000 		.4byte	.LASF37
 1910 03c4 05       		.byte	0x5
 1911 03c5 3205     		.2byte	0x532
 1912 03c7 62000000 		.4byte	0x62
 1913 03cb 02       		.byte	0x2
 1914 03cc 23       		.byte	0x23
 1915 03cd 0E       		.uleb128 0xe
 1916 03ce 0A       		.uleb128 0xa
 1917 03cf 43523200 		.ascii	"CR2\000"
 1918 03d3 05       		.byte	0x5
 1919 03d4 3305     		.2byte	0x533
 1920 03d6 DD000000 		.4byte	0xdd
 1921 03da 02       		.byte	0x2
 1922 03db 23       		.byte	0x23
 1923 03dc 10       		.uleb128 0x10
 1924 03dd 0B       		.uleb128 0xb
 1925 03de 3B040000 		.4byte	.LASF41
 1926 03e2 05       		.byte	0x5
 1927 03e3 3405     		.2byte	0x534
 1928 03e5 62000000 		.4byte	0x62
 1929 03e9 02       		.byte	0x2
 1930 03ea 23       		.byte	0x23
 1931 03eb 12       		.uleb128 0x12
 1932 03ec 0A       		.uleb128 0xa
 1933 03ed 43523300 		.ascii	"CR3\000"
 1934 03f1 05       		.byte	0x5
 1935 03f2 3505     		.2byte	0x535
 1936 03f4 DD000000 		.4byte	0xdd
 1937 03f8 02       		.byte	0x2
 1938 03f9 23       		.byte	0x23
 1939 03fa 14       		.uleb128 0x14
 1940 03fb 0B       		.uleb128 0xb
 1941 03fc 45040000 		.4byte	.LASF44
 1942 0400 05       		.byte	0x5
 1943 0401 3605     		.2byte	0x536
 1944 0403 62000000 		.4byte	0x62
 1945 0407 02       		.byte	0x2
 1946 0408 23       		.byte	0x23
 1947 0409 16       		.uleb128 0x16
 1948 040a 0B       		.uleb128 0xb
 1949 040b 29010000 		.4byte	.LASF52
 1950 040f 05       		.byte	0x5
 1951 0410 3705     		.2byte	0x537
 1952 0412 DD000000 		.4byte	0xdd
 1953 0416 02       		.byte	0x2
 1954 0417 23       		.byte	0x23
 1955 0418 18       		.uleb128 0x18
 1956 0419 0B       		.uleb128 0xb
 1957 041a 4F040000 		.4byte	.LASF46
 1958 041e 05       		.byte	0x5
ARM GAS  C:\Users\Mohamad\AppData\Local\Temp\ccSvAY8z.s 			page 36


 1959 041f 3805     		.2byte	0x538
 1960 0421 62000000 		.4byte	0x62
 1961 0425 02       		.byte	0x2
 1962 0426 23       		.byte	0x23
 1963 0427 1A       		.uleb128 0x1a
 1964 0428 00       		.byte	0
 1965 0429 0C       		.uleb128 0xc
 1966 042a F3020000 		.4byte	.LASF53
 1967 042e 05       		.byte	0x5
 1968 042f 3905     		.2byte	0x539
 1969 0431 4F030000 		.4byte	0x34f
 1970 0435 0D       		.uleb128 0xd
 1971 0436 0C       		.byte	0xc
 1972 0437 06       		.byte	0x6
 1973 0438 DA       		.byte	0xda
 1974 0439 84040000 		.4byte	0x484
 1975 043d 0E       		.uleb128 0xe
 1976 043e 6F000000 		.4byte	.LASF54
 1977 0442 06       		.byte	0x6
 1978 0443 DB       		.byte	0xdb
 1979 0444 84040000 		.4byte	0x484
 1980 0448 02       		.byte	0x2
 1981 0449 23       		.byte	0x23
 1982 044a 00       		.uleb128 0
 1983 044b 0E       		.uleb128 0xe
 1984 044c CB040000 		.4byte	.LASF55
 1985 0450 06       		.byte	0x6
 1986 0451 DC       		.byte	0xdc
 1987 0452 8A040000 		.4byte	0x48a
 1988 0456 02       		.byte	0x2
 1989 0457 23       		.byte	0x23
 1990 0458 04       		.uleb128 0x4
 1991 0459 0E       		.uleb128 0xe
 1992 045a 9C020000 		.4byte	.LASF56
 1993 045e 06       		.byte	0x6
 1994 045f DD       		.byte	0xdd
 1995 0460 49000000 		.4byte	0x49
 1996 0464 02       		.byte	0x2
 1997 0465 23       		.byte	0x23
 1998 0466 08       		.uleb128 0x8
 1999 0467 0E       		.uleb128 0xe
 2000 0468 BF010000 		.4byte	.LASF57
 2001 046c 06       		.byte	0x6
 2002 046d DF       		.byte	0xdf
 2003 046e 49000000 		.4byte	0x49
 2004 0472 02       		.byte	0x2
 2005 0473 23       		.byte	0x23
 2006 0474 09       		.uleb128 0x9
 2007 0475 0E       		.uleb128 0xe
 2008 0476 A2000000 		.4byte	.LASF58
 2009 047a 06       		.byte	0x6
 2010 047b E0       		.byte	0xe0
 2011 047c 49000000 		.4byte	0x49
 2012 0480 02       		.byte	0x2
 2013 0481 23       		.byte	0x23
 2014 0482 0A       		.uleb128 0xa
 2015 0483 00       		.byte	0
ARM GAS  C:\Users\Mohamad\AppData\Local\Temp\ccSvAY8z.s 			page 37


 2016 0484 0F       		.uleb128 0xf
 2017 0485 04       		.byte	0x4
 2018 0486 4A010000 		.4byte	0x14a
 2019 048a 0F       		.uleb128 0xf
 2020 048b 04       		.byte	0x4
 2021 048c BA000000 		.4byte	0xba
 2022 0490 03       		.uleb128 0x3
 2023 0491 59040000 		.4byte	.LASF59
 2024 0495 06       		.byte	0x6
 2025 0496 E1       		.byte	0xe1
 2026 0497 35040000 		.4byte	0x435
 2027 049b 03       		.uleb128 0x3
 2028 049c 36010000 		.4byte	.LASF60
 2029 04a0 06       		.byte	0x6
 2030 04a1 EA       		.byte	0xea
 2031 04a2 A6040000 		.4byte	0x4a6
 2032 04a6 0F       		.uleb128 0xf
 2033 04a7 04       		.byte	0x4
 2034 04a8 AC040000 		.4byte	0x4ac
 2035 04ac 10       		.uleb128 0x10
 2036 04ad 01       		.byte	0x1
 2037 04ae BD040000 		.4byte	0x4bd
 2038 04b2 11       		.uleb128 0x11
 2039 04b3 B8000000 		.4byte	0xb8
 2040 04b7 11       		.uleb128 0x11
 2041 04b8 86000000 		.4byte	0x86
 2042 04bc 00       		.byte	0
 2043 04bd 0F       		.uleb128 0xf
 2044 04be 04       		.byte	0x4
 2045 04bf C3040000 		.4byte	0x4c3
 2046 04c3 12       		.uleb128 0x12
 2047 04c4 90040000 		.4byte	0x490
 2048 04c8 13       		.uleb128 0x13
 2049 04c9 01       		.byte	0x1
 2050 04ca 07       		.byte	0x7
 2051 04cb 48       		.byte	0x48
 2052 04cc E3040000 		.4byte	0x4e3
 2053 04d0 14       		.uleb128 0x14
 2054 04d1 B6020000 		.4byte	.LASF61
 2055 04d5 00       		.sleb128 0
 2056 04d6 14       		.uleb128 0x14
 2057 04d7 C2020000 		.4byte	.LASF62
 2058 04db 01       		.sleb128 1
 2059 04dc 14       		.uleb128 0x14
 2060 04dd 12020000 		.4byte	.LASF63
 2061 04e1 02       		.sleb128 2
 2062 04e2 00       		.byte	0
 2063 04e3 03       		.uleb128 0x3
 2064 04e4 A6040000 		.4byte	.LASF64
 2065 04e8 07       		.byte	0x7
 2066 04e9 4C       		.byte	0x4c
 2067 04ea C8040000 		.4byte	0x4c8
 2068 04ee 13       		.uleb128 0x13
 2069 04ef 01       		.byte	0x1
 2070 04f0 07       		.byte	0x7
 2071 04f1 51       		.byte	0x51
 2072 04f2 09050000 		.4byte	0x509
ARM GAS  C:\Users\Mohamad\AppData\Local\Temp\ccSvAY8z.s 			page 38


 2073 04f6 14       		.uleb128 0x14
 2074 04f7 47050000 		.4byte	.LASF65
 2075 04fb 00       		.sleb128 0
 2076 04fc 14       		.uleb128 0x14
 2077 04fd 1D020000 		.4byte	.LASF66
 2078 0501 01       		.sleb128 1
 2079 0502 14       		.uleb128 0x14
 2080 0503 BA040000 		.4byte	.LASF67
 2081 0507 02       		.sleb128 2
 2082 0508 00       		.byte	0
 2083 0509 03       		.uleb128 0x3
 2084 050a EB030000 		.4byte	.LASF68
 2085 050e 07       		.byte	0x7
 2086 050f 55       		.byte	0x55
 2087 0510 EE040000 		.4byte	0x4ee
 2088 0514 13       		.uleb128 0x13
 2089 0515 01       		.byte	0x1
 2090 0516 07       		.byte	0x7
 2091 0517 5A       		.byte	0x5a
 2092 0518 2F050000 		.4byte	0x52f
 2093 051c 14       		.uleb128 0x14
 2094 051d 27050000 		.4byte	.LASF69
 2095 0521 00       		.sleb128 0
 2096 0522 14       		.uleb128 0x14
 2097 0523 2D000000 		.4byte	.LASF70
 2098 0527 01       		.sleb128 1
 2099 0528 14       		.uleb128 0x14
 2100 0529 5D030000 		.4byte	.LASF71
 2101 052d 02       		.sleb128 2
 2102 052e 00       		.byte	0
 2103 052f 03       		.uleb128 0x3
 2104 0530 97010000 		.4byte	.LASF72
 2105 0534 07       		.byte	0x7
 2106 0535 5E       		.byte	0x5e
 2107 0536 14050000 		.4byte	0x514
 2108 053a 0C       		.uleb128 0xc
 2109 053b 21000000 		.4byte	.LASF73
 2110 053f 08       		.byte	0x8
 2111 0540 FE01     		.2byte	0x1fe
 2112 0542 86000000 		.4byte	0x86
 2113 0546 0C       		.uleb128 0xc
 2114 0547 B4010000 		.4byte	.LASF74
 2115 054b 08       		.byte	0x8
 2116 054c 0302     		.2byte	0x203
 2117 054e 52050000 		.4byte	0x552
 2118 0552 15       		.uleb128 0x15
 2119 0553 B4010000 		.4byte	.LASF74
 2120 0557 1C       		.byte	0x1c
 2121 0558 08       		.byte	0x8
 2122 0559 4B02     		.2byte	0x24b
 2123 055b E7050000 		.4byte	0x5e7
 2124 055f 0B       		.uleb128 0xb
 2125 0560 45010000 		.4byte	.LASF75
 2126 0564 08       		.byte	0x8
 2127 0565 4F02     		.2byte	0x24f
 2128 0567 E3040000 		.4byte	0x4e3
 2129 056b 02       		.byte	0x2
ARM GAS  C:\Users\Mohamad\AppData\Local\Temp\ccSvAY8z.s 			page 39


 2130 056c 23       		.byte	0x23
 2131 056d 00       		.uleb128 0
 2132 056e 0B       		.uleb128 0xb
 2133 056f 4B010000 		.4byte	.LASF76
 2134 0573 08       		.byte	0x8
 2135 0574 5302     		.2byte	0x253
 2136 0576 09050000 		.4byte	0x509
 2137 057a 02       		.byte	0x2
 2138 057b 23       		.byte	0x23
 2139 057c 01       		.uleb128 0x1
 2140 057d 0B       		.uleb128 0xb
 2141 057e 2E010000 		.4byte	.LASF77
 2142 0582 08       		.byte	0x8
 2143 0583 5702     		.2byte	0x257
 2144 0585 2F050000 		.4byte	0x52f
 2145 0589 02       		.byte	0x2
 2146 058a 23       		.byte	0x23
 2147 058b 02       		.uleb128 0x2
 2148 058c 0B       		.uleb128 0xb
 2149 058d 20050000 		.4byte	.LASF78
 2150 0591 08       		.byte	0x8
 2151 0592 5B02     		.2byte	0x25b
 2152 0594 EE060000 		.4byte	0x6ee
 2153 0598 02       		.byte	0x2
 2154 0599 23       		.byte	0x23
 2155 059a 04       		.uleb128 0x4
 2156 059b 0B       		.uleb128 0xb
 2157 059c 2C020000 		.4byte	.LASF79
 2158 05a0 08       		.byte	0x8
 2159 05a1 6302     		.2byte	0x263
 2160 05a3 F9060000 		.4byte	0x6f9
 2161 05a7 02       		.byte	0x2
 2162 05a8 23       		.byte	0x23
 2163 05a9 08       		.uleb128 0x8
 2164 05aa 0B       		.uleb128 0xb
 2165 05ab CE050000 		.4byte	.LASF80
 2166 05af 08       		.byte	0x8
 2167 05b0 6702     		.2byte	0x267
 2168 05b2 86000000 		.4byte	0x86
 2169 05b6 02       		.byte	0x2
 2170 05b7 23       		.byte	0x23
 2171 05b8 0C       		.uleb128 0xc
 2172 05b9 0B       		.uleb128 0xb
 2173 05ba 76000000 		.4byte	.LASF81
 2174 05be 08       		.byte	0x8
 2175 05bf 6B02     		.2byte	0x26b
 2176 05c1 BD040000 		.4byte	0x4bd
 2177 05c5 02       		.byte	0x2
 2178 05c6 23       		.byte	0x23
 2179 05c7 10       		.uleb128 0x10
 2180 05c8 0B       		.uleb128 0xb
 2181 05c9 0D040000 		.4byte	.LASF82
 2182 05cd 08       		.byte	0x8
 2183 05ce 6F02     		.2byte	0x26f
 2184 05d0 BD040000 		.4byte	0x4bd
 2185 05d4 02       		.byte	0x2
 2186 05d5 23       		.byte	0x23
ARM GAS  C:\Users\Mohamad\AppData\Local\Temp\ccSvAY8z.s 			page 40


 2187 05d6 14       		.uleb128 0x14
 2188 05d7 0B       		.uleb128 0xb
 2189 05d8 D4000000 		.4byte	.LASF83
 2190 05dc 08       		.byte	0x8
 2191 05dd 7302     		.2byte	0x273
 2192 05df DD000000 		.4byte	0xdd
 2193 05e3 02       		.byte	0x2
 2194 05e4 23       		.byte	0x23
 2195 05e5 18       		.uleb128 0x18
 2196 05e6 00       		.byte	0
 2197 05e7 0C       		.uleb128 0xc
 2198 05e8 17010000 		.4byte	.LASF84
 2199 05ec 08       		.byte	0x8
 2200 05ed 0A02     		.2byte	0x20a
 2201 05ef F3050000 		.4byte	0x5f3
 2202 05f3 0F       		.uleb128 0xf
 2203 05f4 04       		.byte	0x4
 2204 05f5 F9050000 		.4byte	0x5f9
 2205 05f9 10       		.uleb128 0x10
 2206 05fa 01       		.byte	0x1
 2207 05fb 05060000 		.4byte	0x605
 2208 05ff 11       		.uleb128 0x11
 2209 0600 05060000 		.4byte	0x605
 2210 0604 00       		.byte	0
 2211 0605 0F       		.uleb128 0xf
 2212 0606 04       		.byte	0x4
 2213 0607 46050000 		.4byte	0x546
 2214 060b 0C       		.uleb128 0xc
 2215 060c 98000000 		.4byte	.LASF85
 2216 0610 08       		.byte	0x8
 2217 0611 1202     		.2byte	0x212
 2218 0613 17060000 		.4byte	0x617
 2219 0617 0F       		.uleb128 0xf
 2220 0618 04       		.byte	0x4
 2221 0619 1D060000 		.4byte	0x61d
 2222 061d 10       		.uleb128 0x10
 2223 061e 01       		.byte	0x1
 2224 061f 2E060000 		.4byte	0x62e
 2225 0623 11       		.uleb128 0x11
 2226 0624 05060000 		.4byte	0x605
 2227 0628 11       		.uleb128 0x11
 2228 0629 62000000 		.4byte	0x62
 2229 062d 00       		.byte	0
 2230 062e 0C       		.uleb128 0xc
 2231 062f 7C020000 		.4byte	.LASF86
 2232 0633 08       		.byte	0x8
 2233 0634 1A02     		.2byte	0x21a
 2234 0636 3A060000 		.4byte	0x63a
 2235 063a 0F       		.uleb128 0xf
 2236 063b 04       		.byte	0x4
 2237 063c 40060000 		.4byte	0x640
 2238 0640 10       		.uleb128 0x10
 2239 0641 01       		.byte	0x1
 2240 0642 51060000 		.4byte	0x651
 2241 0646 11       		.uleb128 0x11
 2242 0647 05060000 		.4byte	0x605
 2243 064b 11       		.uleb128 0x11
ARM GAS  C:\Users\Mohamad\AppData\Local\Temp\ccSvAY8z.s 			page 41


 2244 064c 3A050000 		.4byte	0x53a
 2245 0650 00       		.byte	0
 2246 0651 09       		.uleb128 0x9
 2247 0652 20       		.byte	0x20
 2248 0653 08       		.byte	0x8
 2249 0654 2002     		.2byte	0x220
 2250 0656 E2060000 		.4byte	0x6e2
 2251 065a 0B       		.uleb128 0xb
 2252 065b 3D050000 		.4byte	.LASF87
 2253 065f 08       		.byte	0x8
 2254 0660 2402     		.2byte	0x224
 2255 0662 E7050000 		.4byte	0x5e7
 2256 0666 02       		.byte	0x2
 2257 0667 23       		.byte	0x23
 2258 0668 00       		.uleb128 0
 2259 0669 0B       		.uleb128 0xb
 2260 066a 6C040000 		.4byte	.LASF88
 2261 066e 08       		.byte	0x8
 2262 066f 2802     		.2byte	0x228
 2263 0671 E7050000 		.4byte	0x5e7
 2264 0675 02       		.byte	0x2
 2265 0676 23       		.byte	0x23
 2266 0677 04       		.uleb128 0x4
 2267 0678 0B       		.uleb128 0xb
 2268 0679 E2030000 		.4byte	.LASF89
 2269 067d 08       		.byte	0x8
 2270 067e 2C02     		.2byte	0x22c
 2271 0680 E7050000 		.4byte	0x5e7
 2272 0684 02       		.byte	0x2
 2273 0685 23       		.byte	0x23
 2274 0686 08       		.uleb128 0x8
 2275 0687 0B       		.uleb128 0xb
 2276 0688 51000000 		.4byte	.LASF90
 2277 068c 08       		.byte	0x8
 2278 068d 3002     		.2byte	0x230
 2279 068f 0B060000 		.4byte	0x60b
 2280 0693 02       		.byte	0x2
 2281 0694 23       		.byte	0x23
 2282 0695 0C       		.uleb128 0xc
 2283 0696 0B       		.uleb128 0xb
 2284 0697 6E030000 		.4byte	.LASF91
 2285 069b 08       		.byte	0x8
 2286 069c 3402     		.2byte	0x234
 2287 069e 2E060000 		.4byte	0x62e
 2288 06a2 02       		.byte	0x2
 2289 06a3 23       		.byte	0x23
 2290 06a4 10       		.uleb128 0x10
 2291 06a5 0B       		.uleb128 0xb
 2292 06a6 D6050000 		.4byte	.LASF92
 2293 06aa 08       		.byte	0x8
 2294 06ab 3902     		.2byte	0x239
 2295 06ad 86000000 		.4byte	0x86
 2296 06b1 02       		.byte	0x2
 2297 06b2 23       		.byte	0x23
 2298 06b3 14       		.uleb128 0x14
 2299 06b4 0A       		.uleb128 0xa
 2300 06b5 63723100 		.ascii	"cr1\000"
ARM GAS  C:\Users\Mohamad\AppData\Local\Temp\ccSvAY8z.s 			page 42


 2301 06b9 08       		.byte	0x8
 2302 06ba 3D02     		.2byte	0x23d
 2303 06bc 62000000 		.4byte	0x62
 2304 06c0 02       		.byte	0x2
 2305 06c1 23       		.byte	0x23
 2306 06c2 18       		.uleb128 0x18
 2307 06c3 0A       		.uleb128 0xa
 2308 06c4 63723200 		.ascii	"cr2\000"
 2309 06c8 08       		.byte	0x8
 2310 06c9 4102     		.2byte	0x241
 2311 06cb 62000000 		.4byte	0x62
 2312 06cf 02       		.byte	0x2
 2313 06d0 23       		.byte	0x23
 2314 06d1 1A       		.uleb128 0x1a
 2315 06d2 0A       		.uleb128 0xa
 2316 06d3 63723300 		.ascii	"cr3\000"
 2317 06d7 08       		.byte	0x8
 2318 06d8 4502     		.2byte	0x245
 2319 06da 62000000 		.4byte	0x62
 2320 06de 02       		.byte	0x2
 2321 06df 23       		.byte	0x23
 2322 06e0 1C       		.uleb128 0x1c
 2323 06e1 00       		.byte	0
 2324 06e2 0C       		.uleb128 0xc
 2325 06e3 BC000000 		.4byte	.LASF93
 2326 06e7 08       		.byte	0x8
 2327 06e8 4602     		.2byte	0x246
 2328 06ea 51060000 		.4byte	0x651
 2329 06ee 0F       		.uleb128 0xf
 2330 06ef 04       		.byte	0x4
 2331 06f0 F4060000 		.4byte	0x6f4
 2332 06f4 12       		.uleb128 0x12
 2333 06f5 E2060000 		.4byte	0x6e2
 2334 06f9 0F       		.uleb128 0xf
 2335 06fa 04       		.byte	0x4
 2336 06fb 29040000 		.4byte	0x429
 2337 06ff 16       		.uleb128 0x16
 2338 0700 74050000 		.4byte	.LASF106
 2339 0704 01       		.byte	0x1
 2340 0705 F3       		.byte	0xf3
 2341 0706 01       		.byte	0x1
 2342 0707 01       		.byte	0x1
 2343 0708 23070000 		.4byte	0x723
 2344 070c 17       		.uleb128 0x17
 2345 070d 36030000 		.4byte	.LASF94
 2346 0711 01       		.byte	0x1
 2347 0712 F3       		.byte	0xf3
 2348 0713 05060000 		.4byte	0x605
 2349 0717 17       		.uleb128 0x17
 2350 0718 C8050000 		.4byte	.LASF95
 2351 071c 01       		.byte	0x1
 2352 071d F3       		.byte	0xf3
 2353 071e 86000000 		.4byte	0x86
 2354 0722 00       		.byte	0
 2355 0723 18       		.uleb128 0x18
 2356 0724 C9010000 		.4byte	.LASF96
 2357 0728 01       		.byte	0x1
ARM GAS  C:\Users\Mohamad\AppData\Local\Temp\ccSvAY8z.s 			page 43


 2358 0729 A0       		.byte	0xa0
 2359 072a 01       		.byte	0x1
 2360 072b 00000000 		.4byte	.LFB119
 2361 072f 30000000 		.4byte	.LFE119
 2362 0733 00000000 		.4byte	.LLST0
 2363 0737 01       		.byte	0x1
 2364 0738 5B070000 		.4byte	0x75b
 2365 073c 19       		.uleb128 0x19
 2366 073d 36030000 		.4byte	.LASF94
 2367 0741 01       		.byte	0x1
 2368 0742 A0       		.byte	0xa0
 2369 0743 05060000 		.4byte	0x605
 2370 0747 20000000 		.4byte	.LLST1
 2371 074b 1A       		.uleb128 0x1a
 2372 074c 1B050000 		.4byte	.LASF99
 2373 0750 01       		.byte	0x1
 2374 0751 A1       		.byte	0xa1
 2375 0752 86000000 		.4byte	0x86
 2376 0756 50000000 		.4byte	.LLST2
 2377 075a 00       		.byte	0
 2378 075b 18       		.uleb128 0x18
 2379 075c 7C000000 		.4byte	.LASF97
 2380 0760 01       		.byte	0x1
 2381 0761 B5       		.byte	0xb5
 2382 0762 01       		.byte	0x1
 2383 0763 00000000 		.4byte	.LFB120
 2384 0767 4C000000 		.4byte	.LFE120
 2385 076b A2000000 		.4byte	.LLST3
 2386 076f 01       		.byte	0x1
 2387 0770 84070000 		.4byte	0x784
 2388 0774 19       		.uleb128 0x19
 2389 0775 36030000 		.4byte	.LASF94
 2390 0779 01       		.byte	0x1
 2391 077a B5       		.byte	0xb5
 2392 077b 05060000 		.4byte	0x605
 2393 077f C2000000 		.4byte	.LLST4
 2394 0783 00       		.byte	0
 2395 0784 1B       		.uleb128 0x1b
 2396 0785 4C030000 		.4byte	.LASF129
 2397 0789 01       		.byte	0x1
 2398 078a 8B       		.byte	0x8b
 2399 078b 01       		.byte	0x1
 2400 078c 3A050000 		.4byte	0x53a
 2401 0790 01       		.byte	0x1
 2402 0791 AB070000 		.4byte	0x7ab
 2403 0795 1C       		.uleb128 0x1c
 2404 0796 737200   		.ascii	"sr\000"
 2405 0799 01       		.byte	0x1
 2406 079a 8B       		.byte	0x8b
 2407 079b 62000000 		.4byte	0x62
 2408 079f 1D       		.uleb128 0x1d
 2409 07a0 73747300 		.ascii	"sts\000"
 2410 07a4 01       		.byte	0x1
 2411 07a5 8C       		.byte	0x8c
 2412 07a6 3A050000 		.4byte	0x53a
 2413 07aa 00       		.byte	0
 2414 07ab 1E       		.uleb128 0x1e
ARM GAS  C:\Users\Mohamad\AppData\Local\Temp\ccSvAY8z.s 			page 44


 2415 07ac 26030000 		.4byte	.LASF98
 2416 07b0 01       		.byte	0x1
 2417 07b1 3801     		.2byte	0x138
 2418 07b3 01       		.byte	0x1
 2419 07b4 00000000 		.4byte	.LFB124
 2420 07b8 7A000000 		.4byte	.LFE124
 2421 07bc E3000000 		.4byte	.LLST5
 2422 07c0 01       		.byte	0x1
 2423 07c1 3A080000 		.4byte	0x83a
 2424 07c5 1F       		.uleb128 0x1f
 2425 07c6 36030000 		.4byte	.LASF94
 2426 07ca 01       		.byte	0x1
 2427 07cb 3801     		.2byte	0x138
 2428 07cd 05060000 		.4byte	0x605
 2429 07d1 03010000 		.4byte	.LLST6
 2430 07d5 20       		.uleb128 0x20
 2431 07d6 737200   		.ascii	"sr\000"
 2432 07d9 01       		.byte	0x1
 2433 07da 3901     		.2byte	0x139
 2434 07dc 62000000 		.4byte	0x62
 2435 07e0 21010000 		.4byte	.LLST7
 2436 07e4 21       		.uleb128 0x21
 2437 07e5 7500     		.ascii	"u\000"
 2438 07e7 01       		.byte	0x1
 2439 07e8 3A01     		.2byte	0x13a
 2440 07ea F9060000 		.4byte	0x6f9
 2441 07ee 01       		.byte	0x1
 2442 07ef 55       		.byte	0x55
 2443 07f0 22       		.uleb128 0x22
 2444 07f1 84070000 		.4byte	0x784
 2445 07f5 20000000 		.4byte	.LBB4
 2446 07f9 00000000 		.4byte	.Ldebug_ranges0+0
 2447 07fd 01       		.byte	0x1
 2448 07fe 4201     		.2byte	0x142
 2449 0800 1D080000 		.4byte	0x81d
 2450 0804 23       		.uleb128 0x23
 2451 0805 95070000 		.4byte	0x795
 2452 0809 3F010000 		.4byte	.LLST8
 2453 080d 24       		.uleb128 0x24
 2454 080e 18000000 		.4byte	.Ldebug_ranges0+0x18
 2455 0812 25       		.uleb128 0x25
 2456 0813 9F070000 		.4byte	0x79f
 2457 0817 5D010000 		.4byte	.LLST9
 2458 081b 00       		.byte	0
 2459 081c 00       		.byte	0
 2460 081d 26       		.uleb128 0x26
 2461 081e 5A000000 		.4byte	.LVL16
 2462 0822 2D080000 		.4byte	0x82d
 2463 0826 27       		.uleb128 0x27
 2464 0827 01       		.byte	0x1
 2465 0828 50       		.byte	0x50
 2466 0829 02       		.byte	0x2
 2467 082a 76       		.byte	0x76
 2468 082b 00       		.sleb128 0
 2469 082c 00       		.byte	0
 2470 082d 28       		.uleb128 0x28
 2471 082e 72000000 		.4byte	.LVL18
ARM GAS  C:\Users\Mohamad\AppData\Local\Temp\ccSvAY8z.s 			page 45


 2472 0832 27       		.uleb128 0x27
 2473 0833 01       		.byte	0x1
 2474 0834 50       		.byte	0x50
 2475 0835 02       		.byte	0x2
 2476 0836 76       		.byte	0x76
 2477 0837 00       		.sleb128 0
 2478 0838 00       		.byte	0
 2479 0839 00       		.byte	0
 2480 083a 1E       		.uleb128 0x1e
 2481 083b 7F030000 		.4byte	.LASF100
 2482 083f 01       		.byte	0x1
 2483 0840 1B01     		.2byte	0x11b
 2484 0842 01       		.byte	0x1
 2485 0843 00000000 		.4byte	.LFB123
 2486 0847 4A000000 		.4byte	.LFE123
 2487 084b 87010000 		.4byte	.LLST10
 2488 084f 01       		.byte	0x1
 2489 0850 8E080000 		.4byte	0x88e
 2490 0854 1F       		.uleb128 0x1f
 2491 0855 36030000 		.4byte	.LASF94
 2492 0859 01       		.byte	0x1
 2493 085a 1B01     		.2byte	0x11b
 2494 085c 05060000 		.4byte	0x605
 2495 0860 A7010000 		.4byte	.LLST11
 2496 0864 1F       		.uleb128 0x1f
 2497 0865 C8050000 		.4byte	.LASF95
 2498 0869 01       		.byte	0x1
 2499 086a 1B01     		.2byte	0x11b
 2500 086c 86000000 		.4byte	0x86
 2501 0870 DB010000 		.4byte	.LLST12
 2502 0874 26       		.uleb128 0x26
 2503 0875 36000000 		.4byte	.LVL23
 2504 0879 84080000 		.4byte	0x884
 2505 087d 27       		.uleb128 0x27
 2506 087e 01       		.byte	0x1
 2507 087f 50       		.byte	0x50
 2508 0880 02       		.byte	0x2
 2509 0881 74       		.byte	0x74
 2510 0882 00       		.sleb128 0
 2511 0883 00       		.byte	0
 2512 0884 29       		.uleb128 0x29
 2513 0885 48000000 		.4byte	.LVL25
 2514 0889 C90E0000 		.4byte	0xec9
 2515 088d 00       		.byte	0
 2516 088e 2A       		.uleb128 0x2a
 2517 088f FF060000 		.4byte	0x6ff
 2518 0893 00000000 		.4byte	.LFB122
 2519 0897 66000000 		.4byte	.LFE122
 2520 089b 15020000 		.4byte	.LLST13
 2521 089f 01       		.byte	0x1
 2522 08a0 19090000 		.4byte	0x919
 2523 08a4 23       		.uleb128 0x23
 2524 08a5 0C070000 		.4byte	0x70c
 2525 08a9 35020000 		.4byte	.LLST14
 2526 08ad 23       		.uleb128 0x23
 2527 08ae 17070000 		.4byte	0x717
 2528 08b2 69020000 		.4byte	.LLST15
ARM GAS  C:\Users\Mohamad\AppData\Local\Temp\ccSvAY8z.s 			page 46


 2529 08b6 2B       		.uleb128 0x2b
 2530 08b7 FF060000 		.4byte	0x6ff
 2531 08bb 1E000000 		.4byte	.LBB10
 2532 08bf 30000000 		.4byte	.Ldebug_ranges0+0x30
 2533 08c3 01       		.byte	0x1
 2534 08c4 F3       		.byte	0xf3
 2535 08c5 FF080000 		.4byte	0x8ff
 2536 08c9 23       		.uleb128 0x23
 2537 08ca 0C070000 		.4byte	0x70c
 2538 08ce A3020000 		.4byte	.LLST16
 2539 08d2 24       		.uleb128 0x24
 2540 08d3 50000000 		.4byte	.Ldebug_ranges0+0x50
 2541 08d7 2C       		.uleb128 0x2c
 2542 08d8 17070000 		.4byte	0x717
 2543 08dc 26       		.uleb128 0x26
 2544 08dd 4A000000 		.4byte	.LVL30
 2545 08e1 EC080000 		.4byte	0x8ec
 2546 08e5 27       		.uleb128 0x27
 2547 08e6 01       		.byte	0x1
 2548 08e7 50       		.byte	0x50
 2549 08e8 02       		.byte	0x2
 2550 08e9 74       		.byte	0x74
 2551 08ea 00       		.sleb128 0
 2552 08eb 00       		.byte	0
 2553 08ec 2D       		.uleb128 0x2d
 2554 08ed 66000000 		.4byte	.LVL35
 2555 08f1 01       		.byte	0x1
 2556 08f2 23070000 		.4byte	0x723
 2557 08f6 27       		.uleb128 0x27
 2558 08f7 01       		.byte	0x1
 2559 08f8 50       		.byte	0x50
 2560 08f9 02       		.byte	0x2
 2561 08fa 74       		.byte	0x74
 2562 08fb 00       		.sleb128 0
 2563 08fc 00       		.byte	0
 2564 08fd 00       		.byte	0
 2565 08fe 00       		.byte	0
 2566 08ff 26       		.uleb128 0x26
 2567 0900 1C000000 		.4byte	.LVL28
 2568 0904 0F090000 		.4byte	0x90f
 2569 0908 27       		.uleb128 0x27
 2570 0909 01       		.byte	0x1
 2571 090a 50       		.byte	0x50
 2572 090b 02       		.byte	0x2
 2573 090c 74       		.byte	0x74
 2574 090d 00       		.sleb128 0
 2575 090e 00       		.byte	0
 2576 090f 29       		.uleb128 0x29
 2577 0910 56000000 		.4byte	.LVL33
 2578 0914 C90E0000 		.4byte	0xec9
 2579 0918 00       		.byte	0
 2580 0919 2E       		.uleb128 0x2e
 2581 091a 01       		.byte	0x1
 2582 091b 0B030000 		.4byte	.LASF101
 2583 091f 01       		.byte	0x1
 2584 0920 5A01     		.2byte	0x15a
 2585 0922 01       		.byte	0x1
ARM GAS  C:\Users\Mohamad\AppData\Local\Temp\ccSvAY8z.s 			page 47


 2586 0923 00000000 		.4byte	.LFB125
 2587 0927 16000000 		.4byte	.LFE125
 2588 092b C1020000 		.4byte	.LLST17
 2589 092f 01       		.byte	0x1
 2590 0930 56090000 		.4byte	0x956
 2591 0934 2F       		.uleb128 0x2f
 2592 0935 0E000000 		.4byte	.LVL36
 2593 0939 AB070000 		.4byte	0x7ab
 2594 093d 4B090000 		.4byte	0x94b
 2595 0941 27       		.uleb128 0x27
 2596 0942 01       		.byte	0x1
 2597 0943 50       		.byte	0x50
 2598 0944 05       		.byte	0x5
 2599 0945 03       		.byte	0x3
 2600 0946 00000000 		.4byte	.LANCHOR0
 2601 094a 00       		.byte	0
 2602 094b 30       		.uleb128 0x30
 2603 094c 16000000 		.4byte	.LVL37
 2604 0950 01       		.byte	0x1
 2605 0951 D40E0000 		.4byte	0xed4
 2606 0955 00       		.byte	0
 2607 0956 2E       		.uleb128 0x2e
 2608 0957 01       		.byte	0x1
 2609 0958 14030000 		.4byte	.LASF102
 2610 095c 01       		.byte	0x1
 2611 095d 6D01     		.2byte	0x16d
 2612 095f 01       		.byte	0x1
 2613 0960 00000000 		.4byte	.LFB126
 2614 0964 16000000 		.4byte	.LFE126
 2615 0968 E1020000 		.4byte	.LLST18
 2616 096c 01       		.byte	0x1
 2617 096d 93090000 		.4byte	0x993
 2618 0971 2F       		.uleb128 0x2f
 2619 0972 0E000000 		.4byte	.LVL38
 2620 0976 AB070000 		.4byte	0x7ab
 2621 097a 88090000 		.4byte	0x988
 2622 097e 27       		.uleb128 0x27
 2623 097f 01       		.byte	0x1
 2624 0980 50       		.byte	0x50
 2625 0981 05       		.byte	0x5
 2626 0982 03       		.byte	0x3
 2627 0983 00000000 		.4byte	.LANCHOR1
 2628 0987 00       		.byte	0
 2629 0988 30       		.uleb128 0x30
 2630 0989 16000000 		.4byte	.LVL39
 2631 098d 01       		.byte	0x1
 2632 098e D40E0000 		.4byte	0xed4
 2633 0992 00       		.byte	0
 2634 0993 2E       		.uleb128 0x2e
 2635 0994 01       		.byte	0x1
 2636 0995 1D030000 		.4byte	.LASF103
 2637 0999 01       		.byte	0x1
 2638 099a 8001     		.2byte	0x180
 2639 099c 01       		.byte	0x1
 2640 099d 00000000 		.4byte	.LFB127
 2641 09a1 16000000 		.4byte	.LFE127
 2642 09a5 01030000 		.4byte	.LLST19
ARM GAS  C:\Users\Mohamad\AppData\Local\Temp\ccSvAY8z.s 			page 48


 2643 09a9 01       		.byte	0x1
 2644 09aa D0090000 		.4byte	0x9d0
 2645 09ae 2F       		.uleb128 0x2f
 2646 09af 0E000000 		.4byte	.LVL40
 2647 09b3 AB070000 		.4byte	0x7ab
 2648 09b7 C5090000 		.4byte	0x9c5
 2649 09bb 27       		.uleb128 0x27
 2650 09bc 01       		.byte	0x1
 2651 09bd 50       		.byte	0x50
 2652 09be 05       		.byte	0x5
 2653 09bf 03       		.byte	0x3
 2654 09c0 00000000 		.4byte	.LANCHOR2
 2655 09c4 00       		.byte	0
 2656 09c5 30       		.uleb128 0x30
 2657 09c6 16000000 		.4byte	.LVL41
 2658 09ca 01       		.byte	0x1
 2659 09cb D40E0000 		.4byte	0xed4
 2660 09cf 00       		.byte	0
 2661 09d0 2E       		.uleb128 0x2e
 2662 09d1 01       		.byte	0x1
 2663 09d2 92020000 		.4byte	.LASF104
 2664 09d6 01       		.byte	0x1
 2665 09d7 B901     		.2byte	0x1b9
 2666 09d9 01       		.byte	0x1
 2667 09da 00000000 		.4byte	.LFB128
 2668 09de 16000000 		.4byte	.LFE128
 2669 09e2 21030000 		.4byte	.LLST20
 2670 09e6 01       		.byte	0x1
 2671 09e7 0D0A0000 		.4byte	0xa0d
 2672 09eb 2F       		.uleb128 0x2f
 2673 09ec 0E000000 		.4byte	.LVL42
 2674 09f0 AB070000 		.4byte	0x7ab
 2675 09f4 020A0000 		.4byte	0xa02
 2676 09f8 27       		.uleb128 0x27
 2677 09f9 01       		.byte	0x1
 2678 09fa 50       		.byte	0x50
 2679 09fb 05       		.byte	0x5
 2680 09fc 03       		.byte	0x3
 2681 09fd 00000000 		.4byte	.LANCHOR3
 2682 0a01 00       		.byte	0
 2683 0a02 30       		.uleb128 0x30
 2684 0a03 16000000 		.4byte	.LVL43
 2685 0a07 01       		.byte	0x1
 2686 0a08 D40E0000 		.4byte	0xed4
 2687 0a0c 00       		.byte	0
 2688 0a0d 2E       		.uleb128 0x2e
 2689 0a0e 01       		.byte	0x1
 2690 0a0f 3C000000 		.4byte	.LASF105
 2691 0a13 01       		.byte	0x1
 2692 0a14 CC01     		.2byte	0x1cc
 2693 0a16 01       		.byte	0x1
 2694 0a17 00000000 		.4byte	.LFB129
 2695 0a1b A8000000 		.4byte	.LFE129
 2696 0a1f 41030000 		.4byte	.LLST21
 2697 0a23 01       		.byte	0x1
 2698 0a24 750A0000 		.4byte	0xa75
 2699 0a28 2F       		.uleb128 0x2f
ARM GAS  C:\Users\Mohamad\AppData\Local\Temp\ccSvAY8z.s 			page 49


 2700 0a29 18000000 		.4byte	.LVL44
 2701 0a2d DF0E0000 		.4byte	0xedf
 2702 0a31 3C0A0000 		.4byte	0xa3c
 2703 0a35 27       		.uleb128 0x27
 2704 0a36 01       		.byte	0x1
 2705 0a37 50       		.byte	0x50
 2706 0a38 02       		.byte	0x2
 2707 0a39 77       		.byte	0x77
 2708 0a3a 00       		.sleb128 0
 2709 0a3b 00       		.byte	0
 2710 0a3c 2F       		.uleb128 0x2f
 2711 0a3d 46000000 		.4byte	.LVL45
 2712 0a41 DF0E0000 		.4byte	0xedf
 2713 0a45 500A0000 		.4byte	0xa50
 2714 0a49 27       		.uleb128 0x27
 2715 0a4a 01       		.byte	0x1
 2716 0a4b 50       		.byte	0x50
 2717 0a4c 02       		.byte	0x2
 2718 0a4d 76       		.byte	0x76
 2719 0a4e 00       		.sleb128 0
 2720 0a4f 00       		.byte	0
 2721 0a50 2F       		.uleb128 0x2f
 2722 0a51 6E000000 		.4byte	.LVL46
 2723 0a55 DF0E0000 		.4byte	0xedf
 2724 0a59 640A0000 		.4byte	0xa64
 2725 0a5d 27       		.uleb128 0x27
 2726 0a5e 01       		.byte	0x1
 2727 0a5f 50       		.byte	0x50
 2728 0a60 02       		.byte	0x2
 2729 0a61 75       		.byte	0x75
 2730 0a62 00       		.sleb128 0
 2731 0a63 00       		.byte	0
 2732 0a64 31       		.uleb128 0x31
 2733 0a65 8E000000 		.4byte	.LVL47
 2734 0a69 DF0E0000 		.4byte	0xedf
 2735 0a6d 27       		.uleb128 0x27
 2736 0a6e 01       		.byte	0x1
 2737 0a6f 50       		.byte	0x50
 2738 0a70 02       		.byte	0x2
 2739 0a71 77       		.byte	0x77
 2740 0a72 00       		.sleb128 0
 2741 0a73 00       		.byte	0
 2742 0a74 00       		.byte	0
 2743 0a75 16       		.uleb128 0x16
 2744 0a76 BC050000 		.4byte	.LASF107
 2745 0a7a 01       		.byte	0x1
 2746 0a7b C7       		.byte	0xc7
 2747 0a7c 01       		.byte	0x1
 2748 0a7d 01       		.byte	0x1
 2749 0a7e A20A0000 		.4byte	0xaa2
 2750 0a82 17       		.uleb128 0x17
 2751 0a83 36030000 		.4byte	.LASF94
 2752 0a87 01       		.byte	0x1
 2753 0a88 C7       		.byte	0xc7
 2754 0a89 05060000 		.4byte	0x605
 2755 0a8d 1D       		.uleb128 0x1d
 2756 0a8e 63723100 		.ascii	"cr1\000"
ARM GAS  C:\Users\Mohamad\AppData\Local\Temp\ccSvAY8z.s 			page 50


 2757 0a92 01       		.byte	0x1
 2758 0a93 C8       		.byte	0xc8
 2759 0a94 62000000 		.4byte	0x62
 2760 0a98 1D       		.uleb128 0x1d
 2761 0a99 7500     		.ascii	"u\000"
 2762 0a9b 01       		.byte	0x1
 2763 0a9c C9       		.byte	0xc9
 2764 0a9d F9060000 		.4byte	0x6f9
 2765 0aa1 00       		.byte	0
 2766 0aa2 2E       		.uleb128 0x2e
 2767 0aa3 01       		.byte	0x1
 2768 0aa4 A5010000 		.4byte	.LASF108
 2769 0aa8 01       		.byte	0x1
 2770 0aa9 0502     		.2byte	0x205
 2771 0aab 01       		.byte	0x1
 2772 0aac 00000000 		.4byte	.LFB130
 2773 0ab0 C0010000 		.4byte	.LFE130
 2774 0ab4 61030000 		.4byte	.LLST22
 2775 0ab8 01       		.byte	0x1
 2776 0ab9 AF0C0000 		.4byte	0xcaf
 2777 0abd 1F       		.uleb128 0x1f
 2778 0abe 36030000 		.4byte	.LASF94
 2779 0ac2 01       		.byte	0x1
 2780 0ac3 0502     		.2byte	0x205
 2781 0ac5 05060000 		.4byte	0x605
 2782 0ac9 81030000 		.4byte	.LLST23
 2783 0acd 22       		.uleb128 0x22
 2784 0ace 750A0000 		.4byte	0xa75
 2785 0ad2 12000000 		.4byte	.LBB22
 2786 0ad6 70000000 		.4byte	.Ldebug_ranges0+0x70
 2787 0ada 01       		.byte	0x1
 2788 0adb A102     		.2byte	0x2a1
 2789 0add 280B0000 		.4byte	0xb28
 2790 0ae1 23       		.uleb128 0x23
 2791 0ae2 820A0000 		.4byte	0xa82
 2792 0ae6 B5030000 		.4byte	.LLST24
 2793 0aea 24       		.uleb128 0x24
 2794 0aeb 90000000 		.4byte	.Ldebug_ranges0+0x90
 2795 0aef 25       		.uleb128 0x25
 2796 0af0 8D0A0000 		.4byte	0xa8d
 2797 0af4 D3030000 		.4byte	.LLST25
 2798 0af8 25       		.uleb128 0x25
 2799 0af9 980A0000 		.4byte	0xa98
 2800 0afd FF030000 		.4byte	.LLST26
 2801 0b01 2F       		.uleb128 0x2f
 2802 0b02 18000000 		.4byte	.LVL51
 2803 0b06 5B070000 		.4byte	0x75b
 2804 0b0a 150B0000 		.4byte	0xb15
 2805 0b0e 27       		.uleb128 0x27
 2806 0b0f 01       		.byte	0x1
 2807 0b10 50       		.byte	0x50
 2808 0b11 02       		.byte	0x2
 2809 0b12 74       		.byte	0x74
 2810 0b13 00       		.sleb128 0
 2811 0b14 00       		.byte	0
 2812 0b15 2D       		.uleb128 0x2d
 2813 0b16 82000000 		.4byte	.LVL54
ARM GAS  C:\Users\Mohamad\AppData\Local\Temp\ccSvAY8z.s 			page 51


 2814 0b1a 01       		.byte	0x1
 2815 0b1b 23070000 		.4byte	0x723
 2816 0b1f 27       		.uleb128 0x27
 2817 0b20 01       		.byte	0x1
 2818 0b21 50       		.byte	0x50
 2819 0b22 02       		.byte	0x2
 2820 0b23 74       		.byte	0x74
 2821 0b24 00       		.sleb128 0
 2822 0b25 00       		.byte	0
 2823 0b26 00       		.byte	0
 2824 0b27 00       		.byte	0
 2825 0b28 32       		.uleb128 0x32
 2826 0b29 DE000000 		.4byte	.LBB28
 2827 0b2d 18010000 		.4byte	.LBE28
 2828 0b31 9A0B0000 		.4byte	0xb9a
 2829 0b35 33       		.uleb128 0x33
 2830 0b36 6200     		.ascii	"b\000"
 2831 0b38 01       		.byte	0x1
 2832 0b39 8302     		.2byte	0x283
 2833 0b3b A6000000 		.4byte	0xa6
 2834 0b3f 2F       		.uleb128 0x2f
 2835 0b40 F2000000 		.4byte	.LVL58
 2836 0b44 F30E0000 		.4byte	0xef3
 2837 0b48 610B0000 		.4byte	0xb61
 2838 0b4c 27       		.uleb128 0x27
 2839 0b4d 01       		.byte	0x1
 2840 0b4e 53       		.byte	0x53
 2841 0b4f 02       		.byte	0x2
 2842 0b50 74       		.byte	0x74
 2843 0b51 00       		.sleb128 0
 2844 0b52 27       		.uleb128 0x27
 2845 0b53 01       		.byte	0x1
 2846 0b54 52       		.byte	0x52
 2847 0b55 05       		.byte	0x5
 2848 0b56 03       		.byte	0x3
 2849 0b57 00000000 		.4byte	uart_lld_serve_rx_end_irq
 2850 0b5b 27       		.uleb128 0x27
 2851 0b5c 01       		.byte	0x1
 2852 0b5d 51       		.byte	0x51
 2853 0b5e 01       		.byte	0x1
 2854 0b5f 3C       		.byte	0x3c
 2855 0b60 00       		.byte	0
 2856 0b61 2F       		.uleb128 0x2f
 2857 0b62 FE000000 		.4byte	.LVL59
 2858 0b66 F30E0000 		.4byte	0xef3
 2859 0b6a 830B0000 		.4byte	0xb83
 2860 0b6e 27       		.uleb128 0x27
 2861 0b6f 01       		.byte	0x1
 2862 0b70 53       		.byte	0x53
 2863 0b71 02       		.byte	0x2
 2864 0b72 74       		.byte	0x74
 2865 0b73 00       		.sleb128 0
 2866 0b74 27       		.uleb128 0x27
 2867 0b75 01       		.byte	0x1
 2868 0b76 52       		.byte	0x52
 2869 0b77 05       		.byte	0x5
 2870 0b78 03       		.byte	0x3
ARM GAS  C:\Users\Mohamad\AppData\Local\Temp\ccSvAY8z.s 			page 52


 2871 0b79 00000000 		.4byte	uart_lld_serve_tx_end_irq
 2872 0b7d 27       		.uleb128 0x27
 2873 0b7e 01       		.byte	0x1
 2874 0b7f 51       		.byte	0x51
 2875 0b80 01       		.byte	0x1
 2876 0b81 3C       		.byte	0x3c
 2877 0b82 00       		.byte	0
 2878 0b83 31       		.uleb128 0x31
 2879 0b84 0E010000 		.4byte	.LVL60
 2880 0b88 1B0F0000 		.4byte	0xf1b
 2881 0b8c 27       		.uleb128 0x27
 2882 0b8d 01       		.byte	0x1
 2883 0b8e 51       		.byte	0x51
 2884 0b8f 02       		.byte	0x2
 2885 0b90 08       		.byte	0x8
 2886 0b91 C0       		.byte	0xc0
 2887 0b92 27       		.uleb128 0x27
 2888 0b93 01       		.byte	0x1
 2889 0b94 50       		.byte	0x50
 2890 0b95 02       		.byte	0x2
 2891 0b96 08       		.byte	0x8
 2892 0b97 47       		.byte	0x47
 2893 0b98 00       		.byte	0
 2894 0b99 00       		.byte	0
 2895 0b9a 32       		.uleb128 0x32
 2896 0b9b 18010000 		.4byte	.LBB29
 2897 0b9f 42010000 		.4byte	.LBE29
 2898 0ba3 F20B0000 		.4byte	0xbf2
 2899 0ba7 33       		.uleb128 0x33
 2900 0ba8 6200     		.ascii	"b\000"
 2901 0baa 01       		.byte	0x1
 2902 0bab 0A02     		.2byte	0x20a
 2903 0bad A6000000 		.4byte	0xa6
 2904 0bb1 2F       		.uleb128 0x2f
 2905 0bb2 24010000 		.4byte	.LVL61
 2906 0bb6 F30E0000 		.4byte	0xef3
 2907 0bba D30B0000 		.4byte	0xbd3
 2908 0bbe 27       		.uleb128 0x27
 2909 0bbf 01       		.byte	0x1
 2910 0bc0 53       		.byte	0x53
 2911 0bc1 02       		.byte	0x2
 2912 0bc2 74       		.byte	0x74
 2913 0bc3 00       		.sleb128 0
 2914 0bc4 27       		.uleb128 0x27
 2915 0bc5 01       		.byte	0x1
 2916 0bc6 52       		.byte	0x52
 2917 0bc7 05       		.byte	0x5
 2918 0bc8 03       		.byte	0x3
 2919 0bc9 00000000 		.4byte	uart_lld_serve_rx_end_irq
 2920 0bcd 27       		.uleb128 0x27
 2921 0bce 01       		.byte	0x1
 2922 0bcf 51       		.byte	0x51
 2923 0bd0 01       		.byte	0x1
 2924 0bd1 3C       		.byte	0x3c
 2925 0bd2 00       		.byte	0
 2926 0bd3 31       		.uleb128 0x31
 2927 0bd4 30010000 		.4byte	.LVL62
ARM GAS  C:\Users\Mohamad\AppData\Local\Temp\ccSvAY8z.s 			page 53


 2928 0bd8 F30E0000 		.4byte	0xef3
 2929 0bdc 27       		.uleb128 0x27
 2930 0bdd 01       		.byte	0x1
 2931 0bde 53       		.byte	0x53
 2932 0bdf 02       		.byte	0x2
 2933 0be0 74       		.byte	0x74
 2934 0be1 00       		.sleb128 0
 2935 0be2 27       		.uleb128 0x27
 2936 0be3 01       		.byte	0x1
 2937 0be4 52       		.byte	0x52
 2938 0be5 05       		.byte	0x5
 2939 0be6 03       		.byte	0x3
 2940 0be7 00000000 		.4byte	uart_lld_serve_tx_end_irq
 2941 0beb 27       		.uleb128 0x27
 2942 0bec 01       		.byte	0x1
 2943 0bed 51       		.byte	0x51
 2944 0bee 01       		.byte	0x1
 2945 0bef 3C       		.byte	0x3c
 2946 0bf0 00       		.byte	0
 2947 0bf1 00       		.byte	0
 2948 0bf2 34       		.uleb128 0x34
 2949 0bf3 B0000000 		.4byte	.Ldebug_ranges0+0xb0
 2950 0bf7 5A0C0000 		.4byte	0xc5a
 2951 0bfb 33       		.uleb128 0x33
 2952 0bfc 6200     		.ascii	"b\000"
 2953 0bfe 01       		.byte	0x1
 2954 0bff 3402     		.2byte	0x234
 2955 0c01 A6000000 		.4byte	0xa6
 2956 0c05 2F       		.uleb128 0x2f
 2957 0c06 48010000 		.4byte	.LVL63
 2958 0c0a 1B0F0000 		.4byte	0xf1b
 2959 0c0e 190C0000 		.4byte	0xc19
 2960 0c12 27       		.uleb128 0x27
 2961 0c13 01       		.byte	0x1
 2962 0c14 51       		.byte	0x51
 2963 0c15 02       		.byte	0x2
 2964 0c16 08       		.byte	0x8
 2965 0c17 C0       		.byte	0xc0
 2966 0c18 00       		.byte	0
 2967 0c19 2F       		.uleb128 0x2f
 2968 0c1a 92010000 		.4byte	.LVL66
 2969 0c1e F30E0000 		.4byte	0xef3
 2970 0c22 3B0C0000 		.4byte	0xc3b
 2971 0c26 27       		.uleb128 0x27
 2972 0c27 01       		.byte	0x1
 2973 0c28 53       		.byte	0x53
 2974 0c29 02       		.byte	0x2
 2975 0c2a 74       		.byte	0x74
 2976 0c2b 00       		.sleb128 0
 2977 0c2c 27       		.uleb128 0x27
 2978 0c2d 01       		.byte	0x1
 2979 0c2e 52       		.byte	0x52
 2980 0c2f 05       		.byte	0x5
 2981 0c30 03       		.byte	0x3
 2982 0c31 00000000 		.4byte	uart_lld_serve_rx_end_irq
 2983 0c35 27       		.uleb128 0x27
 2984 0c36 01       		.byte	0x1
ARM GAS  C:\Users\Mohamad\AppData\Local\Temp\ccSvAY8z.s 			page 54


 2985 0c37 51       		.byte	0x51
 2986 0c38 01       		.byte	0x1
 2987 0c39 3C       		.byte	0x3c
 2988 0c3a 00       		.byte	0
 2989 0c3b 31       		.uleb128 0x31
 2990 0c3c 9E010000 		.4byte	.LVL67
 2991 0c40 F30E0000 		.4byte	0xef3
 2992 0c44 27       		.uleb128 0x27
 2993 0c45 01       		.byte	0x1
 2994 0c46 53       		.byte	0x53
 2995 0c47 02       		.byte	0x2
 2996 0c48 74       		.byte	0x74
 2997 0c49 00       		.sleb128 0
 2998 0c4a 27       		.uleb128 0x27
 2999 0c4b 01       		.byte	0x1
 3000 0c4c 52       		.byte	0x52
 3001 0c4d 05       		.byte	0x5
 3002 0c4e 03       		.byte	0x3
 3003 0c4f 00000000 		.4byte	uart_lld_serve_tx_end_irq
 3004 0c53 27       		.uleb128 0x27
 3005 0c54 01       		.byte	0x1
 3006 0c55 51       		.byte	0x51
 3007 0c56 01       		.byte	0x1
 3008 0c57 3C       		.byte	0x3c
 3009 0c58 00       		.byte	0
 3010 0c59 00       		.byte	0
 3011 0c5a 35       		.uleb128 0x35
 3012 0c5b 52010000 		.4byte	.LBB31
 3013 0c5f 7A010000 		.4byte	.LBE31
 3014 0c63 33       		.uleb128 0x33
 3015 0c64 6200     		.ascii	"b\000"
 3016 0c66 01       		.byte	0x1
 3017 0c67 1F02     		.2byte	0x21f
 3018 0c69 A6000000 		.4byte	0xa6
 3019 0c6d 2F       		.uleb128 0x2f
 3020 0c6e 66010000 		.4byte	.LVL64
 3021 0c72 F30E0000 		.4byte	0xef3
 3022 0c76 8F0C0000 		.4byte	0xc8f
 3023 0c7a 27       		.uleb128 0x27
 3024 0c7b 01       		.byte	0x1
 3025 0c7c 53       		.byte	0x53
 3026 0c7d 02       		.byte	0x2
 3027 0c7e 74       		.byte	0x74
 3028 0c7f 00       		.sleb128 0
 3029 0c80 27       		.uleb128 0x27
 3030 0c81 01       		.byte	0x1
 3031 0c82 52       		.byte	0x52
 3032 0c83 05       		.byte	0x5
 3033 0c84 03       		.byte	0x3
 3034 0c85 00000000 		.4byte	uart_lld_serve_rx_end_irq
 3035 0c89 27       		.uleb128 0x27
 3036 0c8a 01       		.byte	0x1
 3037 0c8b 51       		.byte	0x51
 3038 0c8c 01       		.byte	0x1
 3039 0c8d 3C       		.byte	0x3c
 3040 0c8e 00       		.byte	0
 3041 0c8f 31       		.uleb128 0x31
ARM GAS  C:\Users\Mohamad\AppData\Local\Temp\ccSvAY8z.s 			page 55


 3042 0c90 72010000 		.4byte	.LVL65
 3043 0c94 F30E0000 		.4byte	0xef3
 3044 0c98 27       		.uleb128 0x27
 3045 0c99 01       		.byte	0x1
 3046 0c9a 53       		.byte	0x53
 3047 0c9b 02       		.byte	0x2
 3048 0c9c 74       		.byte	0x74
 3049 0c9d 00       		.sleb128 0
 3050 0c9e 27       		.uleb128 0x27
 3051 0c9f 01       		.byte	0x1
 3052 0ca0 52       		.byte	0x52
 3053 0ca1 05       		.byte	0x5
 3054 0ca2 03       		.byte	0x3
 3055 0ca3 00000000 		.4byte	uart_lld_serve_tx_end_irq
 3056 0ca7 27       		.uleb128 0x27
 3057 0ca8 01       		.byte	0x1
 3058 0ca9 51       		.byte	0x51
 3059 0caa 01       		.byte	0x1
 3060 0cab 3C       		.byte	0x3c
 3061 0cac 00       		.byte	0
 3062 0cad 00       		.byte	0
 3063 0cae 00       		.byte	0
 3064 0caf 2E       		.uleb128 0x2e
 3065 0cb0 01       		.byte	0x1
 3066 0cb1 FD050000 		.4byte	.LASF109
 3067 0cb5 01       		.byte	0x1
 3068 0cb6 AB02     		.2byte	0x2ab
 3069 0cb8 01       		.byte	0x1
 3070 0cb9 00000000 		.4byte	.LFB131
 3071 0cbd A4000000 		.4byte	.LFE131
 3072 0cc1 1D040000 		.4byte	.LLST27
 3073 0cc5 01       		.byte	0x1
 3074 0cc6 420D0000 		.4byte	0xd42
 3075 0cca 1F       		.uleb128 0x1f
 3076 0ccb 36030000 		.4byte	.LASF94
 3077 0ccf 01       		.byte	0x1
 3078 0cd0 AB02     		.2byte	0x2ab
 3079 0cd2 05060000 		.4byte	0x605
 3080 0cd6 3D040000 		.4byte	.LLST28
 3081 0cda 29       		.uleb128 0x29
 3082 0cdb 10000000 		.4byte	.LVL71
 3083 0cdf 5B070000 		.4byte	0x75b
 3084 0ce3 29       		.uleb128 0x29
 3085 0ce4 16000000 		.4byte	.LVL72
 3086 0ce8 350F0000 		.4byte	0xf35
 3087 0cec 29       		.uleb128 0x29
 3088 0ced 1C000000 		.4byte	.LVL73
 3089 0cf1 350F0000 		.4byte	0xf35
 3090 0cf5 2F       		.uleb128 0x2f
 3091 0cf6 3A000000 		.4byte	.LVL74
 3092 0cfa 4A0F0000 		.4byte	0xf4a
 3093 0cfe 090D0000 		.4byte	0xd09
 3094 0d02 27       		.uleb128 0x27
 3095 0d03 01       		.byte	0x1
 3096 0d04 50       		.byte	0x50
 3097 0d05 02       		.byte	0x2
 3098 0d06 08       		.byte	0x8
ARM GAS  C:\Users\Mohamad\AppData\Local\Temp\ccSvAY8z.s 			page 56


 3099 0d07 47       		.byte	0x47
 3100 0d08 00       		.byte	0
 3101 0d09 2F       		.uleb128 0x2f
 3102 0d0a 52000000 		.4byte	.LVL75
 3103 0d0e 4A0F0000 		.4byte	0xf4a
 3104 0d12 1D0D0000 		.4byte	0xd1d
 3105 0d16 27       		.uleb128 0x27
 3106 0d17 01       		.byte	0x1
 3107 0d18 50       		.byte	0x50
 3108 0d19 02       		.byte	0x2
 3109 0d1a 08       		.byte	0x8
 3110 0d1b 25       		.byte	0x25
 3111 0d1c 00       		.byte	0
 3112 0d1d 2F       		.uleb128 0x2f
 3113 0d1e 6A000000 		.4byte	.LVL76
 3114 0d22 4A0F0000 		.4byte	0xf4a
 3115 0d26 310D0000 		.4byte	0xd31
 3116 0d2a 27       		.uleb128 0x27
 3117 0d2b 01       		.byte	0x1
 3118 0d2c 50       		.byte	0x50
 3119 0d2d 02       		.byte	0x2
 3120 0d2e 08       		.byte	0x8
 3121 0d2f 26       		.byte	0x26
 3122 0d30 00       		.byte	0
 3123 0d31 31       		.uleb128 0x31
 3124 0d32 82000000 		.4byte	.LVL77
 3125 0d36 4A0F0000 		.4byte	0xf4a
 3126 0d3a 27       		.uleb128 0x27
 3127 0d3b 01       		.byte	0x1
 3128 0d3c 50       		.byte	0x50
 3129 0d3d 02       		.byte	0x2
 3130 0d3e 08       		.byte	0x8
 3131 0d3f 27       		.byte	0x27
 3132 0d40 00       		.byte	0
 3133 0d41 00       		.byte	0
 3134 0d42 36       		.uleb128 0x36
 3135 0d43 01       		.byte	0x1
 3136 0d44 E9050000 		.4byte	.LASF110
 3137 0d48 01       		.byte	0x1
 3138 0d49 EF02     		.2byte	0x2ef
 3139 0d4b 01       		.byte	0x1
 3140 0d4c 00000000 		.4byte	.LFB132
 3141 0d50 1A000000 		.4byte	.LFE132
 3142 0d54 02       		.byte	0x2
 3143 0d55 7D       		.byte	0x7d
 3144 0d56 00       		.sleb128 0
 3145 0d57 01       		.byte	0x1
 3146 0d58 8B0D0000 		.4byte	0xd8b
 3147 0d5c 1F       		.uleb128 0x1f
 3148 0d5d 36030000 		.4byte	.LASF94
 3149 0d61 01       		.byte	0x1
 3150 0d62 EF02     		.2byte	0x2ef
 3151 0d64 05060000 		.4byte	0x605
 3152 0d68 71040000 		.4byte	.LLST29
 3153 0d6c 37       		.uleb128 0x37
 3154 0d6d 6E00     		.ascii	"n\000"
 3155 0d6f 01       		.byte	0x1
ARM GAS  C:\Users\Mohamad\AppData\Local\Temp\ccSvAY8z.s 			page 57


 3156 0d70 EF02     		.2byte	0x2ef
 3157 0d72 30000000 		.4byte	0x30
 3158 0d76 92040000 		.4byte	.LLST30
 3159 0d7a 1F       		.uleb128 0x1f
 3160 0d7b 3F020000 		.4byte	.LASF111
 3161 0d7f 01       		.byte	0x1
 3162 0d80 EF02     		.2byte	0x2ef
 3163 0d82 8B0D0000 		.4byte	0xd8b
 3164 0d86 B1040000 		.4byte	.LLST31
 3165 0d8a 00       		.byte	0
 3166 0d8b 0F       		.uleb128 0xf
 3167 0d8c 04       		.byte	0x4
 3168 0d8d 910D0000 		.4byte	0xd91
 3169 0d91 38       		.uleb128 0x38
 3170 0d92 39       		.uleb128 0x39
 3171 0d93 01       		.byte	0x1
 3172 0d94 57020000 		.4byte	.LASF113
 3173 0d98 01       		.byte	0x1
 3174 0d99 0403     		.2byte	0x304
 3175 0d9b 01       		.byte	0x1
 3176 0d9c 30000000 		.4byte	0x30
 3177 0da0 00000000 		.4byte	.LFB133
 3178 0da4 22000000 		.4byte	.LFE133
 3179 0da8 02       		.byte	0x2
 3180 0da9 7D       		.byte	0x7d
 3181 0daa 00       		.sleb128 0
 3182 0dab 01       		.byte	0x1
 3183 0dac C10D0000 		.4byte	0xdc1
 3184 0db0 1F       		.uleb128 0x1f
 3185 0db1 36030000 		.4byte	.LASF94
 3186 0db5 01       		.byte	0x1
 3187 0db6 0403     		.2byte	0x304
 3188 0db8 05060000 		.4byte	0x605
 3189 0dbc D0040000 		.4byte	.LLST32
 3190 0dc0 00       		.byte	0
 3191 0dc1 2E       		.uleb128 0x2e
 3192 0dc2 01       		.byte	0x1
 3193 0dc3 00000000 		.4byte	.LASF112
 3194 0dc7 01       		.byte	0x1
 3195 0dc8 1503     		.2byte	0x315
 3196 0dca 01       		.byte	0x1
 3197 0dcb 00000000 		.4byte	.LFB134
 3198 0dcf 38000000 		.4byte	.LFE134
 3199 0dd3 F1040000 		.4byte	.LLST33
 3200 0dd7 01       		.byte	0x1
 3201 0dd8 0B0E0000 		.4byte	0xe0b
 3202 0ddc 1F       		.uleb128 0x1f
 3203 0ddd 36030000 		.4byte	.LASF94
 3204 0de1 01       		.byte	0x1
 3205 0de2 1503     		.2byte	0x315
 3206 0de4 05060000 		.4byte	0x605
 3207 0de8 11050000 		.4byte	.LLST34
 3208 0dec 37       		.uleb128 0x37
 3209 0ded 6E00     		.ascii	"n\000"
 3210 0def 01       		.byte	0x1
 3211 0df0 1503     		.2byte	0x315
 3212 0df2 30000000 		.4byte	0x30
ARM GAS  C:\Users\Mohamad\AppData\Local\Temp\ccSvAY8z.s 			page 58


 3213 0df6 32050000 		.4byte	.LLST35
 3214 0dfa 1F       		.uleb128 0x1f
 3215 0dfb D4000000 		.4byte	.LASF83
 3216 0dff 01       		.byte	0x1
 3217 0e00 1503     		.2byte	0x315
 3218 0e02 B8000000 		.4byte	0xb8
 3219 0e06 51050000 		.4byte	.LLST36
 3220 0e0a 00       		.byte	0
 3221 0e0b 3A       		.uleb128 0x3a
 3222 0e0c 01       		.byte	0x1
 3223 0e0d 9E050000 		.4byte	.LASF114
 3224 0e11 01       		.byte	0x1
 3225 0e12 2D03     		.2byte	0x32d
 3226 0e14 01       		.byte	0x1
 3227 0e15 30000000 		.4byte	0x30
 3228 0e19 00000000 		.4byte	.LFB135
 3229 0e1d 2A000000 		.4byte	.LFE135
 3230 0e21 70050000 		.4byte	.LLST37
 3231 0e25 01       		.byte	0x1
 3232 0e26 500E0000 		.4byte	0xe50
 3233 0e2a 1F       		.uleb128 0x1f
 3234 0e2b 36030000 		.4byte	.LASF94
 3235 0e2f 01       		.byte	0x1
 3236 0e30 2D03     		.2byte	0x32d
 3237 0e32 05060000 		.4byte	0x605
 3238 0e36 90050000 		.4byte	.LLST38
 3239 0e3a 21       		.uleb128 0x21
 3240 0e3b 6E00     		.ascii	"n\000"
 3241 0e3d 01       		.byte	0x1
 3242 0e3e 2E03     		.2byte	0x32e
 3243 0e40 30000000 		.4byte	0x30
 3244 0e44 01       		.byte	0x1
 3245 0e45 54       		.byte	0x54
 3246 0e46 29       		.uleb128 0x29
 3247 0e47 26000000 		.4byte	.LVL90
 3248 0e4b 23070000 		.4byte	0x723
 3249 0e4f 00       		.byte	0
 3250 0e50 3B       		.uleb128 0x3b
 3251 0e51 C7000000 		.4byte	.LASF115
 3252 0e55 09       		.byte	0x9
 3253 0e56 9806     		.2byte	0x698
 3254 0e58 E2000000 		.4byte	0xe2
 3255 0e5c 01       		.byte	0x1
 3256 0e5d 01       		.byte	0x1
 3257 0e5e 07       		.uleb128 0x7
 3258 0e5f 90040000 		.4byte	0x490
 3259 0e63 6E0E0000 		.4byte	0xe6e
 3260 0e67 08       		.uleb128 0x8
 3261 0e68 BF000000 		.4byte	0xbf
 3262 0e6c 0F       		.byte	0xf
 3263 0e6d 00       		.byte	0
 3264 0e6e 3B       		.uleb128 0x3b
 3265 0e6f A9000000 		.4byte	.LASF116
 3266 0e73 06       		.byte	0x6
 3267 0e74 BB01     		.2byte	0x1bb
 3268 0e76 7C0E0000 		.4byte	0xe7c
 3269 0e7a 01       		.byte	0x1
ARM GAS  C:\Users\Mohamad\AppData\Local\Temp\ccSvAY8z.s 			page 59


 3270 0e7b 01       		.byte	0x1
 3271 0e7c 12       		.uleb128 0x12
 3272 0e7d 5E0E0000 		.4byte	0xe5e
 3273 0e81 3C       		.uleb128 0x3c
 3274 0e82 1D060000 		.4byte	.LASF117
 3275 0e86 01       		.byte	0x1
 3276 0e87 60       		.byte	0x60
 3277 0e88 46050000 		.4byte	0x546
 3278 0e8c 01       		.byte	0x1
 3279 0e8d 05       		.byte	0x5
 3280 0e8e 03       		.byte	0x3
 3281 0e8f 00000000 		.4byte	UARTD1
 3282 0e93 3C       		.uleb128 0x3c
 3283 0e94 24060000 		.4byte	.LASF118
 3284 0e98 01       		.byte	0x1
 3285 0e99 65       		.byte	0x65
 3286 0e9a 46050000 		.4byte	0x546
 3287 0e9e 01       		.byte	0x1
 3288 0e9f 05       		.byte	0x5
 3289 0ea0 03       		.byte	0x3
 3290 0ea1 00000000 		.4byte	UARTD2
 3291 0ea5 3C       		.uleb128 0x3c
 3292 0ea6 2B060000 		.4byte	.LASF119
 3293 0eaa 01       		.byte	0x1
 3294 0eab 6A       		.byte	0x6a
 3295 0eac 46050000 		.4byte	0x546
 3296 0eb0 01       		.byte	0x1
 3297 0eb1 05       		.byte	0x5
 3298 0eb2 03       		.byte	0x3
 3299 0eb3 00000000 		.4byte	UARTD3
 3300 0eb7 3C       		.uleb128 0x3c
 3301 0eb8 3C030000 		.4byte	.LASF120
 3302 0ebc 01       		.byte	0x1
 3303 0ebd 79       		.byte	0x79
 3304 0ebe 46050000 		.4byte	0x546
 3305 0ec2 01       		.byte	0x1
 3306 0ec3 05       		.byte	0x5
 3307 0ec4 03       		.byte	0x3
 3308 0ec5 00000000 		.4byte	UARTD6
 3309 0ec9 3D       		.uleb128 0x3d
 3310 0eca 01       		.byte	0x1
 3311 0ecb 85010000 		.4byte	.LASF121
 3312 0ecf 0A       		.byte	0xa
 3313 0ed0 0102     		.2byte	0x201
 3314 0ed2 01       		.byte	0x1
 3315 0ed3 01       		.byte	0x1
 3316 0ed4 3D       		.uleb128 0x3d
 3317 0ed5 01       		.byte	0x1
 3318 0ed6 E0020000 		.4byte	.LASF122
 3319 0eda 0A       		.byte	0xa
 3320 0edb 0302     		.2byte	0x203
 3321 0edd 01       		.byte	0x1
 3322 0ede 01       		.byte	0x1
 3323 0edf 3E       		.uleb128 0x3e
 3324 0ee0 01       		.byte	0x1
 3325 0ee1 60000000 		.4byte	.LASF123
 3326 0ee5 07       		.byte	0x7
ARM GAS  C:\Users\Mohamad\AppData\Local\Temp\ccSvAY8z.s 			page 60


 3327 0ee6 6E       		.byte	0x6e
 3328 0ee7 01       		.byte	0x1
 3329 0ee8 01       		.byte	0x1
 3330 0ee9 F30E0000 		.4byte	0xef3
 3331 0eed 11       		.uleb128 0x11
 3332 0eee 05060000 		.4byte	0x605
 3333 0ef2 00       		.byte	0
 3334 0ef3 3F       		.uleb128 0x3f
 3335 0ef4 01       		.byte	0x1
 3336 0ef5 0B060000 		.4byte	.LASF130
 3337 0ef9 06       		.byte	0x6
 3338 0efa C201     		.2byte	0x1c2
 3339 0efc 01       		.byte	0x1
 3340 0efd A6000000 		.4byte	0xa6
 3341 0f01 01       		.byte	0x1
 3342 0f02 1B0F0000 		.4byte	0xf1b
 3343 0f06 11       		.uleb128 0x11
 3344 0f07 BD040000 		.4byte	0x4bd
 3345 0f0b 11       		.uleb128 0x11
 3346 0f0c 86000000 		.4byte	0x86
 3347 0f10 11       		.uleb128 0x11
 3348 0f11 9B040000 		.4byte	0x49b
 3349 0f15 11       		.uleb128 0x11
 3350 0f16 B8000000 		.4byte	0xb8
 3351 0f1a 00       		.byte	0
 3352 0f1b 40       		.uleb128 0x40
 3353 0f1c 01       		.byte	0x1
 3354 0f1d E4000000 		.4byte	.LASF124
 3355 0f21 0B       		.byte	0xb
 3356 0f22 2301     		.2byte	0x123
 3357 0f24 01       		.byte	0x1
 3358 0f25 01       		.byte	0x1
 3359 0f26 350F0000 		.4byte	0xf35
 3360 0f2a 11       		.uleb128 0x11
 3361 0f2b 86000000 		.4byte	0x86
 3362 0f2f 11       		.uleb128 0x11
 3363 0f30 86000000 		.4byte	0x86
 3364 0f34 00       		.byte	0
 3365 0f35 40       		.uleb128 0x40
 3366 0f36 01       		.byte	0x1
 3367 0f37 0A050000 		.4byte	.LASF125
 3368 0f3b 06       		.byte	0x6
 3369 0f3c C601     		.2byte	0x1c6
 3370 0f3e 01       		.byte	0x1
 3371 0f3f 01       		.byte	0x1
 3372 0f40 4A0F0000 		.4byte	0xf4a
 3373 0f44 11       		.uleb128 0x11
 3374 0f45 BD040000 		.4byte	0x4bd
 3375 0f49 00       		.byte	0
 3376 0f4a 41       		.uleb128 0x41
 3377 0f4b 01       		.byte	0x1
 3378 0f4c 45020000 		.4byte	.LASF131
 3379 0f50 0B       		.byte	0xb
 3380 0f51 2401     		.2byte	0x124
 3381 0f53 01       		.byte	0x1
 3382 0f54 01       		.byte	0x1
 3383 0f55 11       		.uleb128 0x11
ARM GAS  C:\Users\Mohamad\AppData\Local\Temp\ccSvAY8z.s 			page 61


 3384 0f56 86000000 		.4byte	0x86
 3385 0f5a 00       		.byte	0
 3386 0f5b 00       		.byte	0
 3387              		.section	.debug_abbrev,"",%progbits
 3388              	.Ldebug_abbrev0:
 3389 0000 01       		.uleb128 0x1
 3390 0001 11       		.uleb128 0x11
 3391 0002 01       		.byte	0x1
 3392 0003 25       		.uleb128 0x25
 3393 0004 0E       		.uleb128 0xe
 3394 0005 13       		.uleb128 0x13
 3395 0006 0B       		.uleb128 0xb
 3396 0007 03       		.uleb128 0x3
 3397 0008 0E       		.uleb128 0xe
 3398 0009 1B       		.uleb128 0x1b
 3399 000a 0E       		.uleb128 0xe
 3400 000b 55       		.uleb128 0x55
 3401 000c 06       		.uleb128 0x6
 3402 000d 11       		.uleb128 0x11
 3403 000e 01       		.uleb128 0x1
 3404 000f 52       		.uleb128 0x52
 3405 0010 01       		.uleb128 0x1
 3406 0011 10       		.uleb128 0x10
 3407 0012 06       		.uleb128 0x6
 3408 0013 00       		.byte	0
 3409 0014 00       		.byte	0
 3410 0015 02       		.uleb128 0x2
 3411 0016 24       		.uleb128 0x24
 3412 0017 00       		.byte	0
 3413 0018 0B       		.uleb128 0xb
 3414 0019 0B       		.uleb128 0xb
 3415 001a 3E       		.uleb128 0x3e
 3416 001b 0B       		.uleb128 0xb
 3417 001c 03       		.uleb128 0x3
 3418 001d 08       		.uleb128 0x8
 3419 001e 00       		.byte	0
 3420 001f 00       		.byte	0
 3421 0020 03       		.uleb128 0x3
 3422 0021 16       		.uleb128 0x16
 3423 0022 00       		.byte	0
 3424 0023 03       		.uleb128 0x3
 3425 0024 0E       		.uleb128 0xe
 3426 0025 3A       		.uleb128 0x3a
 3427 0026 0B       		.uleb128 0xb
 3428 0027 3B       		.uleb128 0x3b
 3429 0028 0B       		.uleb128 0xb
 3430 0029 49       		.uleb128 0x49
 3431 002a 13       		.uleb128 0x13
 3432 002b 00       		.byte	0
 3433 002c 00       		.byte	0
 3434 002d 04       		.uleb128 0x4
 3435 002e 24       		.uleb128 0x24
 3436 002f 00       		.byte	0
 3437 0030 0B       		.uleb128 0xb
 3438 0031 0B       		.uleb128 0xb
 3439 0032 3E       		.uleb128 0x3e
 3440 0033 0B       		.uleb128 0xb
ARM GAS  C:\Users\Mohamad\AppData\Local\Temp\ccSvAY8z.s 			page 62


 3441 0034 03       		.uleb128 0x3
 3442 0035 0E       		.uleb128 0xe
 3443 0036 00       		.byte	0
 3444 0037 00       		.byte	0
 3445 0038 05       		.uleb128 0x5
 3446 0039 0F       		.uleb128 0xf
 3447 003a 00       		.byte	0
 3448 003b 0B       		.uleb128 0xb
 3449 003c 0B       		.uleb128 0xb
 3450 003d 00       		.byte	0
 3451 003e 00       		.byte	0
 3452 003f 06       		.uleb128 0x6
 3453 0040 35       		.uleb128 0x35
 3454 0041 00       		.byte	0
 3455 0042 49       		.uleb128 0x49
 3456 0043 13       		.uleb128 0x13
 3457 0044 00       		.byte	0
 3458 0045 00       		.byte	0
 3459 0046 07       		.uleb128 0x7
 3460 0047 01       		.uleb128 0x1
 3461 0048 01       		.byte	0x1
 3462 0049 49       		.uleb128 0x49
 3463 004a 13       		.uleb128 0x13
 3464 004b 01       		.uleb128 0x1
 3465 004c 13       		.uleb128 0x13
 3466 004d 00       		.byte	0
 3467 004e 00       		.byte	0
 3468 004f 08       		.uleb128 0x8
 3469 0050 21       		.uleb128 0x21
 3470 0051 00       		.byte	0
 3471 0052 49       		.uleb128 0x49
 3472 0053 13       		.uleb128 0x13
 3473 0054 2F       		.uleb128 0x2f
 3474 0055 0B       		.uleb128 0xb
 3475 0056 00       		.byte	0
 3476 0057 00       		.byte	0
 3477 0058 09       		.uleb128 0x9
 3478 0059 13       		.uleb128 0x13
 3479 005a 01       		.byte	0x1
 3480 005b 0B       		.uleb128 0xb
 3481 005c 0B       		.uleb128 0xb
 3482 005d 3A       		.uleb128 0x3a
 3483 005e 0B       		.uleb128 0xb
 3484 005f 3B       		.uleb128 0x3b
 3485 0060 05       		.uleb128 0x5
 3486 0061 01       		.uleb128 0x1
 3487 0062 13       		.uleb128 0x13
 3488 0063 00       		.byte	0
 3489 0064 00       		.byte	0
 3490 0065 0A       		.uleb128 0xa
 3491 0066 0D       		.uleb128 0xd
 3492 0067 00       		.byte	0
 3493 0068 03       		.uleb128 0x3
 3494 0069 08       		.uleb128 0x8
 3495 006a 3A       		.uleb128 0x3a
 3496 006b 0B       		.uleb128 0xb
 3497 006c 3B       		.uleb128 0x3b
ARM GAS  C:\Users\Mohamad\AppData\Local\Temp\ccSvAY8z.s 			page 63


 3498 006d 05       		.uleb128 0x5
 3499 006e 49       		.uleb128 0x49
 3500 006f 13       		.uleb128 0x13
 3501 0070 38       		.uleb128 0x38
 3502 0071 0A       		.uleb128 0xa
 3503 0072 00       		.byte	0
 3504 0073 00       		.byte	0
 3505 0074 0B       		.uleb128 0xb
 3506 0075 0D       		.uleb128 0xd
 3507 0076 00       		.byte	0
 3508 0077 03       		.uleb128 0x3
 3509 0078 0E       		.uleb128 0xe
 3510 0079 3A       		.uleb128 0x3a
 3511 007a 0B       		.uleb128 0xb
 3512 007b 3B       		.uleb128 0x3b
 3513 007c 05       		.uleb128 0x5
 3514 007d 49       		.uleb128 0x49
 3515 007e 13       		.uleb128 0x13
 3516 007f 38       		.uleb128 0x38
 3517 0080 0A       		.uleb128 0xa
 3518 0081 00       		.byte	0
 3519 0082 00       		.byte	0
 3520 0083 0C       		.uleb128 0xc
 3521 0084 16       		.uleb128 0x16
 3522 0085 00       		.byte	0
 3523 0086 03       		.uleb128 0x3
 3524 0087 0E       		.uleb128 0xe
 3525 0088 3A       		.uleb128 0x3a
 3526 0089 0B       		.uleb128 0xb
 3527 008a 3B       		.uleb128 0x3b
 3528 008b 05       		.uleb128 0x5
 3529 008c 49       		.uleb128 0x49
 3530 008d 13       		.uleb128 0x13
 3531 008e 00       		.byte	0
 3532 008f 00       		.byte	0
 3533 0090 0D       		.uleb128 0xd
 3534 0091 13       		.uleb128 0x13
 3535 0092 01       		.byte	0x1
 3536 0093 0B       		.uleb128 0xb
 3537 0094 0B       		.uleb128 0xb
 3538 0095 3A       		.uleb128 0x3a
 3539 0096 0B       		.uleb128 0xb
 3540 0097 3B       		.uleb128 0x3b
 3541 0098 0B       		.uleb128 0xb
 3542 0099 01       		.uleb128 0x1
 3543 009a 13       		.uleb128 0x13
 3544 009b 00       		.byte	0
 3545 009c 00       		.byte	0
 3546 009d 0E       		.uleb128 0xe
 3547 009e 0D       		.uleb128 0xd
 3548 009f 00       		.byte	0
 3549 00a0 03       		.uleb128 0x3
 3550 00a1 0E       		.uleb128 0xe
 3551 00a2 3A       		.uleb128 0x3a
 3552 00a3 0B       		.uleb128 0xb
 3553 00a4 3B       		.uleb128 0x3b
 3554 00a5 0B       		.uleb128 0xb
ARM GAS  C:\Users\Mohamad\AppData\Local\Temp\ccSvAY8z.s 			page 64


 3555 00a6 49       		.uleb128 0x49
 3556 00a7 13       		.uleb128 0x13
 3557 00a8 38       		.uleb128 0x38
 3558 00a9 0A       		.uleb128 0xa
 3559 00aa 00       		.byte	0
 3560 00ab 00       		.byte	0
 3561 00ac 0F       		.uleb128 0xf
 3562 00ad 0F       		.uleb128 0xf
 3563 00ae 00       		.byte	0
 3564 00af 0B       		.uleb128 0xb
 3565 00b0 0B       		.uleb128 0xb
 3566 00b1 49       		.uleb128 0x49
 3567 00b2 13       		.uleb128 0x13
 3568 00b3 00       		.byte	0
 3569 00b4 00       		.byte	0
 3570 00b5 10       		.uleb128 0x10
 3571 00b6 15       		.uleb128 0x15
 3572 00b7 01       		.byte	0x1
 3573 00b8 27       		.uleb128 0x27
 3574 00b9 0C       		.uleb128 0xc
 3575 00ba 01       		.uleb128 0x1
 3576 00bb 13       		.uleb128 0x13
 3577 00bc 00       		.byte	0
 3578 00bd 00       		.byte	0
 3579 00be 11       		.uleb128 0x11
 3580 00bf 05       		.uleb128 0x5
 3581 00c0 00       		.byte	0
 3582 00c1 49       		.uleb128 0x49
 3583 00c2 13       		.uleb128 0x13
 3584 00c3 00       		.byte	0
 3585 00c4 00       		.byte	0
 3586 00c5 12       		.uleb128 0x12
 3587 00c6 26       		.uleb128 0x26
 3588 00c7 00       		.byte	0
 3589 00c8 49       		.uleb128 0x49
 3590 00c9 13       		.uleb128 0x13
 3591 00ca 00       		.byte	0
 3592 00cb 00       		.byte	0
 3593 00cc 13       		.uleb128 0x13
 3594 00cd 04       		.uleb128 0x4
 3595 00ce 01       		.byte	0x1
 3596 00cf 0B       		.uleb128 0xb
 3597 00d0 0B       		.uleb128 0xb
 3598 00d1 3A       		.uleb128 0x3a
 3599 00d2 0B       		.uleb128 0xb
 3600 00d3 3B       		.uleb128 0x3b
 3601 00d4 0B       		.uleb128 0xb
 3602 00d5 01       		.uleb128 0x1
 3603 00d6 13       		.uleb128 0x13
 3604 00d7 00       		.byte	0
 3605 00d8 00       		.byte	0
 3606 00d9 14       		.uleb128 0x14
 3607 00da 28       		.uleb128 0x28
 3608 00db 00       		.byte	0
 3609 00dc 03       		.uleb128 0x3
 3610 00dd 0E       		.uleb128 0xe
 3611 00de 1C       		.uleb128 0x1c
ARM GAS  C:\Users\Mohamad\AppData\Local\Temp\ccSvAY8z.s 			page 65


 3612 00df 0D       		.uleb128 0xd
 3613 00e0 00       		.byte	0
 3614 00e1 00       		.byte	0
 3615 00e2 15       		.uleb128 0x15
 3616 00e3 13       		.uleb128 0x13
 3617 00e4 01       		.byte	0x1
 3618 00e5 03       		.uleb128 0x3
 3619 00e6 0E       		.uleb128 0xe
 3620 00e7 0B       		.uleb128 0xb
 3621 00e8 0B       		.uleb128 0xb
 3622 00e9 3A       		.uleb128 0x3a
 3623 00ea 0B       		.uleb128 0xb
 3624 00eb 3B       		.uleb128 0x3b
 3625 00ec 05       		.uleb128 0x5
 3626 00ed 01       		.uleb128 0x1
 3627 00ee 13       		.uleb128 0x13
 3628 00ef 00       		.byte	0
 3629 00f0 00       		.byte	0
 3630 00f1 16       		.uleb128 0x16
 3631 00f2 2E       		.uleb128 0x2e
 3632 00f3 01       		.byte	0x1
 3633 00f4 03       		.uleb128 0x3
 3634 00f5 0E       		.uleb128 0xe
 3635 00f6 3A       		.uleb128 0x3a
 3636 00f7 0B       		.uleb128 0xb
 3637 00f8 3B       		.uleb128 0x3b
 3638 00f9 0B       		.uleb128 0xb
 3639 00fa 27       		.uleb128 0x27
 3640 00fb 0C       		.uleb128 0xc
 3641 00fc 20       		.uleb128 0x20
 3642 00fd 0B       		.uleb128 0xb
 3643 00fe 01       		.uleb128 0x1
 3644 00ff 13       		.uleb128 0x13
 3645 0100 00       		.byte	0
 3646 0101 00       		.byte	0
 3647 0102 17       		.uleb128 0x17
 3648 0103 05       		.uleb128 0x5
 3649 0104 00       		.byte	0
 3650 0105 03       		.uleb128 0x3
 3651 0106 0E       		.uleb128 0xe
 3652 0107 3A       		.uleb128 0x3a
 3653 0108 0B       		.uleb128 0xb
 3654 0109 3B       		.uleb128 0x3b
 3655 010a 0B       		.uleb128 0xb
 3656 010b 49       		.uleb128 0x49
 3657 010c 13       		.uleb128 0x13
 3658 010d 00       		.byte	0
 3659 010e 00       		.byte	0
 3660 010f 18       		.uleb128 0x18
 3661 0110 2E       		.uleb128 0x2e
 3662 0111 01       		.byte	0x1
 3663 0112 03       		.uleb128 0x3
 3664 0113 0E       		.uleb128 0xe
 3665 0114 3A       		.uleb128 0x3a
 3666 0115 0B       		.uleb128 0xb
 3667 0116 3B       		.uleb128 0x3b
 3668 0117 0B       		.uleb128 0xb
ARM GAS  C:\Users\Mohamad\AppData\Local\Temp\ccSvAY8z.s 			page 66


 3669 0118 27       		.uleb128 0x27
 3670 0119 0C       		.uleb128 0xc
 3671 011a 11       		.uleb128 0x11
 3672 011b 01       		.uleb128 0x1
 3673 011c 12       		.uleb128 0x12
 3674 011d 01       		.uleb128 0x1
 3675 011e 40       		.uleb128 0x40
 3676 011f 06       		.uleb128 0x6
 3677 0120 9742     		.uleb128 0x2117
 3678 0122 0C       		.uleb128 0xc
 3679 0123 01       		.uleb128 0x1
 3680 0124 13       		.uleb128 0x13
 3681 0125 00       		.byte	0
 3682 0126 00       		.byte	0
 3683 0127 19       		.uleb128 0x19
 3684 0128 05       		.uleb128 0x5
 3685 0129 00       		.byte	0
 3686 012a 03       		.uleb128 0x3
 3687 012b 0E       		.uleb128 0xe
 3688 012c 3A       		.uleb128 0x3a
 3689 012d 0B       		.uleb128 0xb
 3690 012e 3B       		.uleb128 0x3b
 3691 012f 0B       		.uleb128 0xb
 3692 0130 49       		.uleb128 0x49
 3693 0131 13       		.uleb128 0x13
 3694 0132 02       		.uleb128 0x2
 3695 0133 06       		.uleb128 0x6
 3696 0134 00       		.byte	0
 3697 0135 00       		.byte	0
 3698 0136 1A       		.uleb128 0x1a
 3699 0137 34       		.uleb128 0x34
 3700 0138 00       		.byte	0
 3701 0139 03       		.uleb128 0x3
 3702 013a 0E       		.uleb128 0xe
 3703 013b 3A       		.uleb128 0x3a
 3704 013c 0B       		.uleb128 0xb
 3705 013d 3B       		.uleb128 0x3b
 3706 013e 0B       		.uleb128 0xb
 3707 013f 49       		.uleb128 0x49
 3708 0140 13       		.uleb128 0x13
 3709 0141 02       		.uleb128 0x2
 3710 0142 06       		.uleb128 0x6
 3711 0143 00       		.byte	0
 3712 0144 00       		.byte	0
 3713 0145 1B       		.uleb128 0x1b
 3714 0146 2E       		.uleb128 0x2e
 3715 0147 01       		.byte	0x1
 3716 0148 03       		.uleb128 0x3
 3717 0149 0E       		.uleb128 0xe
 3718 014a 3A       		.uleb128 0x3a
 3719 014b 0B       		.uleb128 0xb
 3720 014c 3B       		.uleb128 0x3b
 3721 014d 0B       		.uleb128 0xb
 3722 014e 27       		.uleb128 0x27
 3723 014f 0C       		.uleb128 0xc
 3724 0150 49       		.uleb128 0x49
 3725 0151 13       		.uleb128 0x13
ARM GAS  C:\Users\Mohamad\AppData\Local\Temp\ccSvAY8z.s 			page 67


 3726 0152 20       		.uleb128 0x20
 3727 0153 0B       		.uleb128 0xb
 3728 0154 01       		.uleb128 0x1
 3729 0155 13       		.uleb128 0x13
 3730 0156 00       		.byte	0
 3731 0157 00       		.byte	0
 3732 0158 1C       		.uleb128 0x1c
 3733 0159 05       		.uleb128 0x5
 3734 015a 00       		.byte	0
 3735 015b 03       		.uleb128 0x3
 3736 015c 08       		.uleb128 0x8
 3737 015d 3A       		.uleb128 0x3a
 3738 015e 0B       		.uleb128 0xb
 3739 015f 3B       		.uleb128 0x3b
 3740 0160 0B       		.uleb128 0xb
 3741 0161 49       		.uleb128 0x49
 3742 0162 13       		.uleb128 0x13
 3743 0163 00       		.byte	0
 3744 0164 00       		.byte	0
 3745 0165 1D       		.uleb128 0x1d
 3746 0166 34       		.uleb128 0x34
 3747 0167 00       		.byte	0
 3748 0168 03       		.uleb128 0x3
 3749 0169 08       		.uleb128 0x8
 3750 016a 3A       		.uleb128 0x3a
 3751 016b 0B       		.uleb128 0xb
 3752 016c 3B       		.uleb128 0x3b
 3753 016d 0B       		.uleb128 0xb
 3754 016e 49       		.uleb128 0x49
 3755 016f 13       		.uleb128 0x13
 3756 0170 00       		.byte	0
 3757 0171 00       		.byte	0
 3758 0172 1E       		.uleb128 0x1e
 3759 0173 2E       		.uleb128 0x2e
 3760 0174 01       		.byte	0x1
 3761 0175 03       		.uleb128 0x3
 3762 0176 0E       		.uleb128 0xe
 3763 0177 3A       		.uleb128 0x3a
 3764 0178 0B       		.uleb128 0xb
 3765 0179 3B       		.uleb128 0x3b
 3766 017a 05       		.uleb128 0x5
 3767 017b 27       		.uleb128 0x27
 3768 017c 0C       		.uleb128 0xc
 3769 017d 11       		.uleb128 0x11
 3770 017e 01       		.uleb128 0x1
 3771 017f 12       		.uleb128 0x12
 3772 0180 01       		.uleb128 0x1
 3773 0181 40       		.uleb128 0x40
 3774 0182 06       		.uleb128 0x6
 3775 0183 9742     		.uleb128 0x2117
 3776 0185 0C       		.uleb128 0xc
 3777 0186 01       		.uleb128 0x1
 3778 0187 13       		.uleb128 0x13
 3779 0188 00       		.byte	0
 3780 0189 00       		.byte	0
 3781 018a 1F       		.uleb128 0x1f
 3782 018b 05       		.uleb128 0x5
ARM GAS  C:\Users\Mohamad\AppData\Local\Temp\ccSvAY8z.s 			page 68


 3783 018c 00       		.byte	0
 3784 018d 03       		.uleb128 0x3
 3785 018e 0E       		.uleb128 0xe
 3786 018f 3A       		.uleb128 0x3a
 3787 0190 0B       		.uleb128 0xb
 3788 0191 3B       		.uleb128 0x3b
 3789 0192 05       		.uleb128 0x5
 3790 0193 49       		.uleb128 0x49
 3791 0194 13       		.uleb128 0x13
 3792 0195 02       		.uleb128 0x2
 3793 0196 06       		.uleb128 0x6
 3794 0197 00       		.byte	0
 3795 0198 00       		.byte	0
 3796 0199 20       		.uleb128 0x20
 3797 019a 34       		.uleb128 0x34
 3798 019b 00       		.byte	0
 3799 019c 03       		.uleb128 0x3
 3800 019d 08       		.uleb128 0x8
 3801 019e 3A       		.uleb128 0x3a
 3802 019f 0B       		.uleb128 0xb
 3803 01a0 3B       		.uleb128 0x3b
 3804 01a1 05       		.uleb128 0x5
 3805 01a2 49       		.uleb128 0x49
 3806 01a3 13       		.uleb128 0x13
 3807 01a4 02       		.uleb128 0x2
 3808 01a5 06       		.uleb128 0x6
 3809 01a6 00       		.byte	0
 3810 01a7 00       		.byte	0
 3811 01a8 21       		.uleb128 0x21
 3812 01a9 34       		.uleb128 0x34
 3813 01aa 00       		.byte	0
 3814 01ab 03       		.uleb128 0x3
 3815 01ac 08       		.uleb128 0x8
 3816 01ad 3A       		.uleb128 0x3a
 3817 01ae 0B       		.uleb128 0xb
 3818 01af 3B       		.uleb128 0x3b
 3819 01b0 05       		.uleb128 0x5
 3820 01b1 49       		.uleb128 0x49
 3821 01b2 13       		.uleb128 0x13
 3822 01b3 02       		.uleb128 0x2
 3823 01b4 0A       		.uleb128 0xa
 3824 01b5 00       		.byte	0
 3825 01b6 00       		.byte	0
 3826 01b7 22       		.uleb128 0x22
 3827 01b8 1D       		.uleb128 0x1d
 3828 01b9 01       		.byte	0x1
 3829 01ba 31       		.uleb128 0x31
 3830 01bb 13       		.uleb128 0x13
 3831 01bc 52       		.uleb128 0x52
 3832 01bd 01       		.uleb128 0x1
 3833 01be 55       		.uleb128 0x55
 3834 01bf 06       		.uleb128 0x6
 3835 01c0 58       		.uleb128 0x58
 3836 01c1 0B       		.uleb128 0xb
 3837 01c2 59       		.uleb128 0x59
 3838 01c3 05       		.uleb128 0x5
 3839 01c4 01       		.uleb128 0x1
ARM GAS  C:\Users\Mohamad\AppData\Local\Temp\ccSvAY8z.s 			page 69


 3840 01c5 13       		.uleb128 0x13
 3841 01c6 00       		.byte	0
 3842 01c7 00       		.byte	0
 3843 01c8 23       		.uleb128 0x23
 3844 01c9 05       		.uleb128 0x5
 3845 01ca 00       		.byte	0
 3846 01cb 31       		.uleb128 0x31
 3847 01cc 13       		.uleb128 0x13
 3848 01cd 02       		.uleb128 0x2
 3849 01ce 06       		.uleb128 0x6
 3850 01cf 00       		.byte	0
 3851 01d0 00       		.byte	0
 3852 01d1 24       		.uleb128 0x24
 3853 01d2 0B       		.uleb128 0xb
 3854 01d3 01       		.byte	0x1
 3855 01d4 55       		.uleb128 0x55
 3856 01d5 06       		.uleb128 0x6
 3857 01d6 00       		.byte	0
 3858 01d7 00       		.byte	0
 3859 01d8 25       		.uleb128 0x25
 3860 01d9 34       		.uleb128 0x34
 3861 01da 00       		.byte	0
 3862 01db 31       		.uleb128 0x31
 3863 01dc 13       		.uleb128 0x13
 3864 01dd 02       		.uleb128 0x2
 3865 01de 06       		.uleb128 0x6
 3866 01df 00       		.byte	0
 3867 01e0 00       		.byte	0
 3868 01e1 26       		.uleb128 0x26
 3869 01e2 898201   		.uleb128 0x4109
 3870 01e5 01       		.byte	0x1
 3871 01e6 11       		.uleb128 0x11
 3872 01e7 01       		.uleb128 0x1
 3873 01e8 01       		.uleb128 0x1
 3874 01e9 13       		.uleb128 0x13
 3875 01ea 00       		.byte	0
 3876 01eb 00       		.byte	0
 3877 01ec 27       		.uleb128 0x27
 3878 01ed 8A8201   		.uleb128 0x410a
 3879 01f0 00       		.byte	0
 3880 01f1 02       		.uleb128 0x2
 3881 01f2 0A       		.uleb128 0xa
 3882 01f3 9142     		.uleb128 0x2111
 3883 01f5 0A       		.uleb128 0xa
 3884 01f6 00       		.byte	0
 3885 01f7 00       		.byte	0
 3886 01f8 28       		.uleb128 0x28
 3887 01f9 898201   		.uleb128 0x4109
 3888 01fc 01       		.byte	0x1
 3889 01fd 11       		.uleb128 0x11
 3890 01fe 01       		.uleb128 0x1
 3891 01ff 00       		.byte	0
 3892 0200 00       		.byte	0
 3893 0201 29       		.uleb128 0x29
 3894 0202 898201   		.uleb128 0x4109
 3895 0205 00       		.byte	0
 3896 0206 11       		.uleb128 0x11
ARM GAS  C:\Users\Mohamad\AppData\Local\Temp\ccSvAY8z.s 			page 70


 3897 0207 01       		.uleb128 0x1
 3898 0208 31       		.uleb128 0x31
 3899 0209 13       		.uleb128 0x13
 3900 020a 00       		.byte	0
 3901 020b 00       		.byte	0
 3902 020c 2A       		.uleb128 0x2a
 3903 020d 2E       		.uleb128 0x2e
 3904 020e 01       		.byte	0x1
 3905 020f 31       		.uleb128 0x31
 3906 0210 13       		.uleb128 0x13
 3907 0211 11       		.uleb128 0x11
 3908 0212 01       		.uleb128 0x1
 3909 0213 12       		.uleb128 0x12
 3910 0214 01       		.uleb128 0x1
 3911 0215 40       		.uleb128 0x40
 3912 0216 06       		.uleb128 0x6
 3913 0217 9742     		.uleb128 0x2117
 3914 0219 0C       		.uleb128 0xc
 3915 021a 01       		.uleb128 0x1
 3916 021b 13       		.uleb128 0x13
 3917 021c 00       		.byte	0
 3918 021d 00       		.byte	0
 3919 021e 2B       		.uleb128 0x2b
 3920 021f 1D       		.uleb128 0x1d
 3921 0220 01       		.byte	0x1
 3922 0221 31       		.uleb128 0x31
 3923 0222 13       		.uleb128 0x13
 3924 0223 52       		.uleb128 0x52
 3925 0224 01       		.uleb128 0x1
 3926 0225 55       		.uleb128 0x55
 3927 0226 06       		.uleb128 0x6
 3928 0227 58       		.uleb128 0x58
 3929 0228 0B       		.uleb128 0xb
 3930 0229 59       		.uleb128 0x59
 3931 022a 0B       		.uleb128 0xb
 3932 022b 01       		.uleb128 0x1
 3933 022c 13       		.uleb128 0x13
 3934 022d 00       		.byte	0
 3935 022e 00       		.byte	0
 3936 022f 2C       		.uleb128 0x2c
 3937 0230 05       		.uleb128 0x5
 3938 0231 00       		.byte	0
 3939 0232 31       		.uleb128 0x31
 3940 0233 13       		.uleb128 0x13
 3941 0234 00       		.byte	0
 3942 0235 00       		.byte	0
 3943 0236 2D       		.uleb128 0x2d
 3944 0237 898201   		.uleb128 0x4109
 3945 023a 01       		.byte	0x1
 3946 023b 11       		.uleb128 0x11
 3947 023c 01       		.uleb128 0x1
 3948 023d 9542     		.uleb128 0x2115
 3949 023f 0C       		.uleb128 0xc
 3950 0240 31       		.uleb128 0x31
 3951 0241 13       		.uleb128 0x13
 3952 0242 00       		.byte	0
 3953 0243 00       		.byte	0
ARM GAS  C:\Users\Mohamad\AppData\Local\Temp\ccSvAY8z.s 			page 71


 3954 0244 2E       		.uleb128 0x2e
 3955 0245 2E       		.uleb128 0x2e
 3956 0246 01       		.byte	0x1
 3957 0247 3F       		.uleb128 0x3f
 3958 0248 0C       		.uleb128 0xc
 3959 0249 03       		.uleb128 0x3
 3960 024a 0E       		.uleb128 0xe
 3961 024b 3A       		.uleb128 0x3a
 3962 024c 0B       		.uleb128 0xb
 3963 024d 3B       		.uleb128 0x3b
 3964 024e 05       		.uleb128 0x5
 3965 024f 27       		.uleb128 0x27
 3966 0250 0C       		.uleb128 0xc
 3967 0251 11       		.uleb128 0x11
 3968 0252 01       		.uleb128 0x1
 3969 0253 12       		.uleb128 0x12
 3970 0254 01       		.uleb128 0x1
 3971 0255 40       		.uleb128 0x40
 3972 0256 06       		.uleb128 0x6
 3973 0257 9742     		.uleb128 0x2117
 3974 0259 0C       		.uleb128 0xc
 3975 025a 01       		.uleb128 0x1
 3976 025b 13       		.uleb128 0x13
 3977 025c 00       		.byte	0
 3978 025d 00       		.byte	0
 3979 025e 2F       		.uleb128 0x2f
 3980 025f 898201   		.uleb128 0x4109
 3981 0262 01       		.byte	0x1
 3982 0263 11       		.uleb128 0x11
 3983 0264 01       		.uleb128 0x1
 3984 0265 31       		.uleb128 0x31
 3985 0266 13       		.uleb128 0x13
 3986 0267 01       		.uleb128 0x1
 3987 0268 13       		.uleb128 0x13
 3988 0269 00       		.byte	0
 3989 026a 00       		.byte	0
 3990 026b 30       		.uleb128 0x30
 3991 026c 898201   		.uleb128 0x4109
 3992 026f 00       		.byte	0
 3993 0270 11       		.uleb128 0x11
 3994 0271 01       		.uleb128 0x1
 3995 0272 9542     		.uleb128 0x2115
 3996 0274 0C       		.uleb128 0xc
 3997 0275 31       		.uleb128 0x31
 3998 0276 13       		.uleb128 0x13
 3999 0277 00       		.byte	0
 4000 0278 00       		.byte	0
 4001 0279 31       		.uleb128 0x31
 4002 027a 898201   		.uleb128 0x4109
 4003 027d 01       		.byte	0x1
 4004 027e 11       		.uleb128 0x11
 4005 027f 01       		.uleb128 0x1
 4006 0280 31       		.uleb128 0x31
 4007 0281 13       		.uleb128 0x13
 4008 0282 00       		.byte	0
 4009 0283 00       		.byte	0
 4010 0284 32       		.uleb128 0x32
ARM GAS  C:\Users\Mohamad\AppData\Local\Temp\ccSvAY8z.s 			page 72


 4011 0285 0B       		.uleb128 0xb
 4012 0286 01       		.byte	0x1
 4013 0287 11       		.uleb128 0x11
 4014 0288 01       		.uleb128 0x1
 4015 0289 12       		.uleb128 0x12
 4016 028a 01       		.uleb128 0x1
 4017 028b 01       		.uleb128 0x1
 4018 028c 13       		.uleb128 0x13
 4019 028d 00       		.byte	0
 4020 028e 00       		.byte	0
 4021 028f 33       		.uleb128 0x33
 4022 0290 34       		.uleb128 0x34
 4023 0291 00       		.byte	0
 4024 0292 03       		.uleb128 0x3
 4025 0293 08       		.uleb128 0x8
 4026 0294 3A       		.uleb128 0x3a
 4027 0295 0B       		.uleb128 0xb
 4028 0296 3B       		.uleb128 0x3b
 4029 0297 05       		.uleb128 0x5
 4030 0298 49       		.uleb128 0x49
 4031 0299 13       		.uleb128 0x13
 4032 029a 00       		.byte	0
 4033 029b 00       		.byte	0
 4034 029c 34       		.uleb128 0x34
 4035 029d 0B       		.uleb128 0xb
 4036 029e 01       		.byte	0x1
 4037 029f 55       		.uleb128 0x55
 4038 02a0 06       		.uleb128 0x6
 4039 02a1 01       		.uleb128 0x1
 4040 02a2 13       		.uleb128 0x13
 4041 02a3 00       		.byte	0
 4042 02a4 00       		.byte	0
 4043 02a5 35       		.uleb128 0x35
 4044 02a6 0B       		.uleb128 0xb
 4045 02a7 01       		.byte	0x1
 4046 02a8 11       		.uleb128 0x11
 4047 02a9 01       		.uleb128 0x1
 4048 02aa 12       		.uleb128 0x12
 4049 02ab 01       		.uleb128 0x1
 4050 02ac 00       		.byte	0
 4051 02ad 00       		.byte	0
 4052 02ae 36       		.uleb128 0x36
 4053 02af 2E       		.uleb128 0x2e
 4054 02b0 01       		.byte	0x1
 4055 02b1 3F       		.uleb128 0x3f
 4056 02b2 0C       		.uleb128 0xc
 4057 02b3 03       		.uleb128 0x3
 4058 02b4 0E       		.uleb128 0xe
 4059 02b5 3A       		.uleb128 0x3a
 4060 02b6 0B       		.uleb128 0xb
 4061 02b7 3B       		.uleb128 0x3b
 4062 02b8 05       		.uleb128 0x5
 4063 02b9 27       		.uleb128 0x27
 4064 02ba 0C       		.uleb128 0xc
 4065 02bb 11       		.uleb128 0x11
 4066 02bc 01       		.uleb128 0x1
 4067 02bd 12       		.uleb128 0x12
ARM GAS  C:\Users\Mohamad\AppData\Local\Temp\ccSvAY8z.s 			page 73


 4068 02be 01       		.uleb128 0x1
 4069 02bf 40       		.uleb128 0x40
 4070 02c0 0A       		.uleb128 0xa
 4071 02c1 9742     		.uleb128 0x2117
 4072 02c3 0C       		.uleb128 0xc
 4073 02c4 01       		.uleb128 0x1
 4074 02c5 13       		.uleb128 0x13
 4075 02c6 00       		.byte	0
 4076 02c7 00       		.byte	0
 4077 02c8 37       		.uleb128 0x37
 4078 02c9 05       		.uleb128 0x5
 4079 02ca 00       		.byte	0
 4080 02cb 03       		.uleb128 0x3
 4081 02cc 08       		.uleb128 0x8
 4082 02cd 3A       		.uleb128 0x3a
 4083 02ce 0B       		.uleb128 0xb
 4084 02cf 3B       		.uleb128 0x3b
 4085 02d0 05       		.uleb128 0x5
 4086 02d1 49       		.uleb128 0x49
 4087 02d2 13       		.uleb128 0x13
 4088 02d3 02       		.uleb128 0x2
 4089 02d4 06       		.uleb128 0x6
 4090 02d5 00       		.byte	0
 4091 02d6 00       		.byte	0
 4092 02d7 38       		.uleb128 0x38
 4093 02d8 26       		.uleb128 0x26
 4094 02d9 00       		.byte	0
 4095 02da 00       		.byte	0
 4096 02db 00       		.byte	0
 4097 02dc 39       		.uleb128 0x39
 4098 02dd 2E       		.uleb128 0x2e
 4099 02de 01       		.byte	0x1
 4100 02df 3F       		.uleb128 0x3f
 4101 02e0 0C       		.uleb128 0xc
 4102 02e1 03       		.uleb128 0x3
 4103 02e2 0E       		.uleb128 0xe
 4104 02e3 3A       		.uleb128 0x3a
 4105 02e4 0B       		.uleb128 0xb
 4106 02e5 3B       		.uleb128 0x3b
 4107 02e6 05       		.uleb128 0x5
 4108 02e7 27       		.uleb128 0x27
 4109 02e8 0C       		.uleb128 0xc
 4110 02e9 49       		.uleb128 0x49
 4111 02ea 13       		.uleb128 0x13
 4112 02eb 11       		.uleb128 0x11
 4113 02ec 01       		.uleb128 0x1
 4114 02ed 12       		.uleb128 0x12
 4115 02ee 01       		.uleb128 0x1
 4116 02ef 40       		.uleb128 0x40
 4117 02f0 0A       		.uleb128 0xa
 4118 02f1 9742     		.uleb128 0x2117
 4119 02f3 0C       		.uleb128 0xc
 4120 02f4 01       		.uleb128 0x1
 4121 02f5 13       		.uleb128 0x13
 4122 02f6 00       		.byte	0
 4123 02f7 00       		.byte	0
 4124 02f8 3A       		.uleb128 0x3a
ARM GAS  C:\Users\Mohamad\AppData\Local\Temp\ccSvAY8z.s 			page 74


 4125 02f9 2E       		.uleb128 0x2e
 4126 02fa 01       		.byte	0x1
 4127 02fb 3F       		.uleb128 0x3f
 4128 02fc 0C       		.uleb128 0xc
 4129 02fd 03       		.uleb128 0x3
 4130 02fe 0E       		.uleb128 0xe
 4131 02ff 3A       		.uleb128 0x3a
 4132 0300 0B       		.uleb128 0xb
 4133 0301 3B       		.uleb128 0x3b
 4134 0302 05       		.uleb128 0x5
 4135 0303 27       		.uleb128 0x27
 4136 0304 0C       		.uleb128 0xc
 4137 0305 49       		.uleb128 0x49
 4138 0306 13       		.uleb128 0x13
 4139 0307 11       		.uleb128 0x11
 4140 0308 01       		.uleb128 0x1
 4141 0309 12       		.uleb128 0x12
 4142 030a 01       		.uleb128 0x1
 4143 030b 40       		.uleb128 0x40
 4144 030c 06       		.uleb128 0x6
 4145 030d 9742     		.uleb128 0x2117
 4146 030f 0C       		.uleb128 0xc
 4147 0310 01       		.uleb128 0x1
 4148 0311 13       		.uleb128 0x13
 4149 0312 00       		.byte	0
 4150 0313 00       		.byte	0
 4151 0314 3B       		.uleb128 0x3b
 4152 0315 34       		.uleb128 0x34
 4153 0316 00       		.byte	0
 4154 0317 03       		.uleb128 0x3
 4155 0318 0E       		.uleb128 0xe
 4156 0319 3A       		.uleb128 0x3a
 4157 031a 0B       		.uleb128 0xb
 4158 031b 3B       		.uleb128 0x3b
 4159 031c 05       		.uleb128 0x5
 4160 031d 49       		.uleb128 0x49
 4161 031e 13       		.uleb128 0x13
 4162 031f 3F       		.uleb128 0x3f
 4163 0320 0C       		.uleb128 0xc
 4164 0321 3C       		.uleb128 0x3c
 4165 0322 0C       		.uleb128 0xc
 4166 0323 00       		.byte	0
 4167 0324 00       		.byte	0
 4168 0325 3C       		.uleb128 0x3c
 4169 0326 34       		.uleb128 0x34
 4170 0327 00       		.byte	0
 4171 0328 03       		.uleb128 0x3
 4172 0329 0E       		.uleb128 0xe
 4173 032a 3A       		.uleb128 0x3a
 4174 032b 0B       		.uleb128 0xb
 4175 032c 3B       		.uleb128 0x3b
 4176 032d 0B       		.uleb128 0xb
 4177 032e 49       		.uleb128 0x49
 4178 032f 13       		.uleb128 0x13
 4179 0330 3F       		.uleb128 0x3f
 4180 0331 0C       		.uleb128 0xc
 4181 0332 02       		.uleb128 0x2
ARM GAS  C:\Users\Mohamad\AppData\Local\Temp\ccSvAY8z.s 			page 75


 4182 0333 0A       		.uleb128 0xa
 4183 0334 00       		.byte	0
 4184 0335 00       		.byte	0
 4185 0336 3D       		.uleb128 0x3d
 4186 0337 2E       		.uleb128 0x2e
 4187 0338 00       		.byte	0
 4188 0339 3F       		.uleb128 0x3f
 4189 033a 0C       		.uleb128 0xc
 4190 033b 03       		.uleb128 0x3
 4191 033c 0E       		.uleb128 0xe
 4192 033d 3A       		.uleb128 0x3a
 4193 033e 0B       		.uleb128 0xb
 4194 033f 3B       		.uleb128 0x3b
 4195 0340 05       		.uleb128 0x5
 4196 0341 27       		.uleb128 0x27
 4197 0342 0C       		.uleb128 0xc
 4198 0343 3C       		.uleb128 0x3c
 4199 0344 0C       		.uleb128 0xc
 4200 0345 00       		.byte	0
 4201 0346 00       		.byte	0
 4202 0347 3E       		.uleb128 0x3e
 4203 0348 2E       		.uleb128 0x2e
 4204 0349 01       		.byte	0x1
 4205 034a 3F       		.uleb128 0x3f
 4206 034b 0C       		.uleb128 0xc
 4207 034c 03       		.uleb128 0x3
 4208 034d 0E       		.uleb128 0xe
 4209 034e 3A       		.uleb128 0x3a
 4210 034f 0B       		.uleb128 0xb
 4211 0350 3B       		.uleb128 0x3b
 4212 0351 0B       		.uleb128 0xb
 4213 0352 27       		.uleb128 0x27
 4214 0353 0C       		.uleb128 0xc
 4215 0354 3C       		.uleb128 0x3c
 4216 0355 0C       		.uleb128 0xc
 4217 0356 01       		.uleb128 0x1
 4218 0357 13       		.uleb128 0x13
 4219 0358 00       		.byte	0
 4220 0359 00       		.byte	0
 4221 035a 3F       		.uleb128 0x3f
 4222 035b 2E       		.uleb128 0x2e
 4223 035c 01       		.byte	0x1
 4224 035d 3F       		.uleb128 0x3f
 4225 035e 0C       		.uleb128 0xc
 4226 035f 03       		.uleb128 0x3
 4227 0360 0E       		.uleb128 0xe
 4228 0361 3A       		.uleb128 0x3a
 4229 0362 0B       		.uleb128 0xb
 4230 0363 3B       		.uleb128 0x3b
 4231 0364 05       		.uleb128 0x5
 4232 0365 27       		.uleb128 0x27
 4233 0366 0C       		.uleb128 0xc
 4234 0367 49       		.uleb128 0x49
 4235 0368 13       		.uleb128 0x13
 4236 0369 3C       		.uleb128 0x3c
 4237 036a 0C       		.uleb128 0xc
 4238 036b 01       		.uleb128 0x1
ARM GAS  C:\Users\Mohamad\AppData\Local\Temp\ccSvAY8z.s 			page 76


 4239 036c 13       		.uleb128 0x13
 4240 036d 00       		.byte	0
 4241 036e 00       		.byte	0
 4242 036f 40       		.uleb128 0x40
 4243 0370 2E       		.uleb128 0x2e
 4244 0371 01       		.byte	0x1
 4245 0372 3F       		.uleb128 0x3f
 4246 0373 0C       		.uleb128 0xc
 4247 0374 03       		.uleb128 0x3
 4248 0375 0E       		.uleb128 0xe
 4249 0376 3A       		.uleb128 0x3a
 4250 0377 0B       		.uleb128 0xb
 4251 0378 3B       		.uleb128 0x3b
 4252 0379 05       		.uleb128 0x5
 4253 037a 27       		.uleb128 0x27
 4254 037b 0C       		.uleb128 0xc
 4255 037c 3C       		.uleb128 0x3c
 4256 037d 0C       		.uleb128 0xc
 4257 037e 01       		.uleb128 0x1
 4258 037f 13       		.uleb128 0x13
 4259 0380 00       		.byte	0
 4260 0381 00       		.byte	0
 4261 0382 41       		.uleb128 0x41
 4262 0383 2E       		.uleb128 0x2e
 4263 0384 01       		.byte	0x1
 4264 0385 3F       		.uleb128 0x3f
 4265 0386 0C       		.uleb128 0xc
 4266 0387 03       		.uleb128 0x3
 4267 0388 0E       		.uleb128 0xe
 4268 0389 3A       		.uleb128 0x3a
 4269 038a 0B       		.uleb128 0xb
 4270 038b 3B       		.uleb128 0x3b
 4271 038c 05       		.uleb128 0x5
 4272 038d 27       		.uleb128 0x27
 4273 038e 0C       		.uleb128 0xc
 4274 038f 3C       		.uleb128 0x3c
 4275 0390 0C       		.uleb128 0xc
 4276 0391 00       		.byte	0
 4277 0392 00       		.byte	0
 4278 0393 00       		.byte	0
 4279              		.section	.debug_loc,"",%progbits
 4280              	.Ldebug_loc0:
 4281              	.LLST0:
 4282 0000 00000000 		.4byte	.LFB119
 4283 0004 04000000 		.4byte	.LCFI0
 4284 0008 0200     		.2byte	0x2
 4285 000a 7D       		.byte	0x7d
 4286 000b 00       		.sleb128 0
 4287 000c 04000000 		.4byte	.LCFI0
 4288 0010 30000000 		.4byte	.LFE119
 4289 0014 0200     		.2byte	0x2
 4290 0016 7D       		.byte	0x7d
 4291 0017 04       		.sleb128 4
 4292 0018 00000000 		.4byte	0
 4293 001c 00000000 		.4byte	0
 4294              	.LLST1:
 4295 0020 00000000 		.4byte	.LVL0
ARM GAS  C:\Users\Mohamad\AppData\Local\Temp\ccSvAY8z.s 			page 77


 4296 0024 10000000 		.4byte	.LVL1
 4297 0028 0100     		.2byte	0x1
 4298 002a 50       		.byte	0x50
 4299 002b 10000000 		.4byte	.LVL1
 4300 002f 22000000 		.4byte	.LVL4
 4301 0033 0300     		.2byte	0x3
 4302 0035 71       		.byte	0x71
 4303 0036 68       		.sleb128 -24
 4304 0037 9F       		.byte	0x9f
 4305 0038 22000000 		.4byte	.LVL4
 4306 003c 30000000 		.4byte	.LFE119
 4307 0040 0600     		.2byte	0x6
 4308 0042 73       		.byte	0x73
 4309 0043 0C       		.sleb128 12
 4310 0044 06       		.byte	0x6
 4311 0045 48       		.byte	0x48
 4312 0046 1C       		.byte	0x1c
 4313 0047 9F       		.byte	0x9f
 4314 0048 00000000 		.4byte	0
 4315 004c 00000000 		.4byte	0
 4316              	.LLST2:
 4317 0050 1E000000 		.4byte	.LVL2
 4318 0054 20000000 		.4byte	.LVL3
 4319 0058 0100     		.2byte	0x1
 4320 005a 52       		.byte	0x52
 4321 005b 20000000 		.4byte	.LVL3
 4322 005f 22000000 		.4byte	.LVL4
 4323 0063 1400     		.2byte	0x14
 4324 0065 0A       		.byte	0xa
 4325 0066 1001     		.2byte	0x110
 4326 0068 0A       		.byte	0xa
 4327 0069 0001     		.2byte	0x100
 4328 006b 71       		.byte	0x71
 4329 006c 6C       		.sleb128 -20
 4330 006d 06       		.byte	0x6
 4331 006e 23       		.byte	0x23
 4332 006f 0C       		.uleb128 0xc
 4333 0070 06       		.byte	0x6
 4334 0071 30       		.byte	0x30
 4335 0072 2E       		.byte	0x2e
 4336 0073 28       		.byte	0x28
 4337 0074 0100     		.2byte	0x1
 4338 0076 16       		.byte	0x16
 4339 0077 13       		.byte	0x13
 4340 0078 9F       		.byte	0x9f
 4341 0079 22000000 		.4byte	.LVL4
 4342 007d 30000000 		.4byte	.LFE119
 4343 0081 1700     		.2byte	0x17
 4344 0083 0A       		.byte	0xa
 4345 0084 1001     		.2byte	0x110
 4346 0086 0A       		.byte	0xa
 4347 0087 0001     		.2byte	0x100
 4348 0089 73       		.byte	0x73
 4349 008a 0C       		.sleb128 12
 4350 008b 06       		.byte	0x6
 4351 008c 44       		.byte	0x44
 4352 008d 1C       		.byte	0x1c
ARM GAS  C:\Users\Mohamad\AppData\Local\Temp\ccSvAY8z.s 			page 78


 4353 008e 06       		.byte	0x6
 4354 008f 23       		.byte	0x23
 4355 0090 0C       		.uleb128 0xc
 4356 0091 06       		.byte	0x6
 4357 0092 30       		.byte	0x30
 4358 0093 2E       		.byte	0x2e
 4359 0094 28       		.byte	0x28
 4360 0095 0100     		.2byte	0x1
 4361 0097 16       		.byte	0x16
 4362 0098 13       		.byte	0x13
 4363 0099 9F       		.byte	0x9f
 4364 009a 00000000 		.4byte	0
 4365 009e 00000000 		.4byte	0
 4366              	.LLST3:
 4367 00a2 00000000 		.4byte	.LFB120
 4368 00a6 02000000 		.4byte	.LCFI1
 4369 00aa 0200     		.2byte	0x2
 4370 00ac 7D       		.byte	0x7d
 4371 00ad 00       		.sleb128 0
 4372 00ae 02000000 		.4byte	.LCFI1
 4373 00b2 4C000000 		.4byte	.LFE120
 4374 00b6 0200     		.2byte	0x2
 4375 00b8 7D       		.byte	0x7d
 4376 00b9 08       		.sleb128 8
 4377 00ba 00000000 		.4byte	0
 4378 00be 00000000 		.4byte	0
 4379              	.LLST4:
 4380 00c2 00000000 		.4byte	.LVL5
 4381 00c6 3C000000 		.4byte	.LVL6
 4382 00ca 0100     		.2byte	0x1
 4383 00cc 50       		.byte	0x50
 4384 00cd 3C000000 		.4byte	.LVL6
 4385 00d1 4C000000 		.4byte	.LFE120
 4386 00d5 0400     		.2byte	0x4
 4387 00d7 F3       		.byte	0xf3
 4388 00d8 01       		.uleb128 0x1
 4389 00d9 50       		.byte	0x50
 4390 00da 9F       		.byte	0x9f
 4391 00db 00000000 		.4byte	0
 4392 00df 00000000 		.4byte	0
 4393              	.LLST5:
 4394 00e3 00000000 		.4byte	.LFB124
 4395 00e7 02000000 		.4byte	.LCFI2
 4396 00eb 0200     		.2byte	0x2
 4397 00ed 7D       		.byte	0x7d
 4398 00ee 00       		.sleb128 0
 4399 00ef 02000000 		.4byte	.LCFI2
 4400 00f3 7A000000 		.4byte	.LFE124
 4401 00f7 0200     		.2byte	0x2
 4402 00f9 7D       		.byte	0x7d
 4403 00fa 10       		.sleb128 16
 4404 00fb 00000000 		.4byte	0
 4405 00ff 00000000 		.4byte	0
 4406              	.LLST6:
 4407 0103 00000000 		.4byte	.LVL7
 4408 0107 16000000 		.4byte	.LVL10
 4409 010b 0100     		.2byte	0x1
ARM GAS  C:\Users\Mohamad\AppData\Local\Temp\ccSvAY8z.s 			page 79


 4410 010d 50       		.byte	0x50
 4411 010e 16000000 		.4byte	.LVL10
 4412 0112 7A000000 		.4byte	.LFE124
 4413 0116 0100     		.2byte	0x1
 4414 0118 56       		.byte	0x56
 4415 0119 00000000 		.4byte	0
 4416 011d 00000000 		.4byte	0
 4417              	.LLST7:
 4418 0121 0E000000 		.4byte	.LVL9
 4419 0125 5E000000 		.4byte	.LVL17
 4420 0129 0100     		.2byte	0x1
 4421 012b 54       		.byte	0x54
 4422 012c 74000000 		.4byte	.LVL19
 4423 0130 7A000000 		.4byte	.LFE124
 4424 0134 0100     		.2byte	0x1
 4425 0136 54       		.byte	0x54
 4426 0137 00000000 		.4byte	0
 4427 013b 00000000 		.4byte	0
 4428              	.LLST8:
 4429 013f 20000000 		.4byte	.LVL11
 4430 0143 5A000000 		.4byte	.LVL16
 4431 0147 0100     		.2byte	0x1
 4432 0149 54       		.byte	0x54
 4433 014a 74000000 		.4byte	.LVL19
 4434 014e 7A000000 		.4byte	.LFE124
 4435 0152 0100     		.2byte	0x1
 4436 0154 54       		.byte	0x54
 4437 0155 00000000 		.4byte	0
 4438 0159 00000000 		.4byte	0
 4439              	.LLST9:
 4440 015d 20000000 		.4byte	.LVL11
 4441 0161 2E000000 		.4byte	.LVL12
 4442 0165 0200     		.2byte	0x2
 4443 0167 30       		.byte	0x30
 4444 0168 9F       		.byte	0x9f
 4445 0169 2E000000 		.4byte	.LVL12
 4446 016d 59000000 		.4byte	.LVL16-1
 4447 0171 0100     		.2byte	0x1
 4448 0173 51       		.byte	0x51
 4449 0174 74000000 		.4byte	.LVL19
 4450 0178 7A000000 		.4byte	.LFE124
 4451 017c 0100     		.2byte	0x1
 4452 017e 51       		.byte	0x51
 4453 017f 00000000 		.4byte	0
 4454 0183 00000000 		.4byte	0
 4455              	.LLST10:
 4456 0187 00000000 		.4byte	.LFB123
 4457 018b 06000000 		.4byte	.LCFI3
 4458 018f 0200     		.2byte	0x2
 4459 0191 7D       		.byte	0x7d
 4460 0192 00       		.sleb128 0
 4461 0193 06000000 		.4byte	.LCFI3
 4462 0197 4A000000 		.4byte	.LFE123
 4463 019b 0200     		.2byte	0x2
 4464 019d 7D       		.byte	0x7d
 4465 019e 08       		.sleb128 8
 4466 019f 00000000 		.4byte	0
ARM GAS  C:\Users\Mohamad\AppData\Local\Temp\ccSvAY8z.s 			page 80


 4467 01a3 00000000 		.4byte	0
 4468              	.LLST11:
 4469 01a7 00000000 		.4byte	.LVL21
 4470 01ab 0A000000 		.4byte	.LVL22
 4471 01af 0100     		.2byte	0x1
 4472 01b1 50       		.byte	0x50
 4473 01b2 0A000000 		.4byte	.LVL22
 4474 01b6 44000000 		.4byte	.LVL24
 4475 01ba 0100     		.2byte	0x1
 4476 01bc 54       		.byte	0x54
 4477 01bd 44000000 		.4byte	.LVL24
 4478 01c1 47000000 		.4byte	.LVL25-1
 4479 01c5 0100     		.2byte	0x1
 4480 01c7 50       		.byte	0x50
 4481 01c8 47000000 		.4byte	.LVL25-1
 4482 01cc 4A000000 		.4byte	.LFE123
 4483 01d0 0100     		.2byte	0x1
 4484 01d2 54       		.byte	0x54
 4485 01d3 00000000 		.4byte	0
 4486 01d7 00000000 		.4byte	0
 4487              	.LLST12:
 4488 01db 00000000 		.4byte	.LVL21
 4489 01df 0A000000 		.4byte	.LVL22
 4490 01e3 0100     		.2byte	0x1
 4491 01e5 51       		.byte	0x51
 4492 01e6 0A000000 		.4byte	.LVL22
 4493 01ea 44000000 		.4byte	.LVL24
 4494 01ee 0400     		.2byte	0x4
 4495 01f0 F3       		.byte	0xf3
 4496 01f1 01       		.uleb128 0x1
 4497 01f2 51       		.byte	0x51
 4498 01f3 9F       		.byte	0x9f
 4499 01f4 44000000 		.4byte	.LVL24
 4500 01f8 47000000 		.4byte	.LVL25-1
 4501 01fc 0100     		.2byte	0x1
 4502 01fe 51       		.byte	0x51
 4503 01ff 47000000 		.4byte	.LVL25-1
 4504 0203 4A000000 		.4byte	.LFE123
 4505 0207 0400     		.2byte	0x4
 4506 0209 F3       		.byte	0xf3
 4507 020a 01       		.uleb128 0x1
 4508 020b 51       		.byte	0x51
 4509 020c 9F       		.byte	0x9f
 4510 020d 00000000 		.4byte	0
 4511 0211 00000000 		.4byte	0
 4512              	.LLST13:
 4513 0215 00000000 		.4byte	.LFB122
 4514 0219 06000000 		.4byte	.LCFI4
 4515 021d 0200     		.2byte	0x2
 4516 021f 7D       		.byte	0x7d
 4517 0220 00       		.sleb128 0
 4518 0221 06000000 		.4byte	.LCFI4
 4519 0225 66000000 		.4byte	.LFE122
 4520 0229 0200     		.2byte	0x2
 4521 022b 7D       		.byte	0x7d
 4522 022c 08       		.sleb128 8
 4523 022d 00000000 		.4byte	0
ARM GAS  C:\Users\Mohamad\AppData\Local\Temp\ccSvAY8z.s 			page 81


 4524 0231 00000000 		.4byte	0
 4525              	.LLST14:
 4526 0235 00000000 		.4byte	.LVL26
 4527 0239 0A000000 		.4byte	.LVL27
 4528 023d 0100     		.2byte	0x1
 4529 023f 50       		.byte	0x50
 4530 0240 0A000000 		.4byte	.LVL27
 4531 0244 52000000 		.4byte	.LVL32
 4532 0248 0100     		.2byte	0x1
 4533 024a 54       		.byte	0x54
 4534 024b 52000000 		.4byte	.LVL32
 4535 024f 55000000 		.4byte	.LVL33-1
 4536 0253 0100     		.2byte	0x1
 4537 0255 50       		.byte	0x50
 4538 0256 55000000 		.4byte	.LVL33-1
 4539 025a 66000000 		.4byte	.LFE122
 4540 025e 0100     		.2byte	0x1
 4541 0260 54       		.byte	0x54
 4542 0261 00000000 		.4byte	0
 4543 0265 00000000 		.4byte	0
 4544              	.LLST15:
 4545 0269 00000000 		.4byte	.LVL26
 4546 026d 0A000000 		.4byte	.LVL27
 4547 0271 0100     		.2byte	0x1
 4548 0273 51       		.byte	0x51
 4549 0274 0A000000 		.4byte	.LVL27
 4550 0278 52000000 		.4byte	.LVL32
 4551 027c 0400     		.2byte	0x4
 4552 027e F3       		.byte	0xf3
 4553 027f 01       		.uleb128 0x1
 4554 0280 51       		.byte	0x51
 4555 0281 9F       		.byte	0x9f
 4556 0282 52000000 		.4byte	.LVL32
 4557 0286 55000000 		.4byte	.LVL33-1
 4558 028a 0100     		.2byte	0x1
 4559 028c 51       		.byte	0x51
 4560 028d 55000000 		.4byte	.LVL33-1
 4561 0291 66000000 		.4byte	.LFE122
 4562 0295 0400     		.2byte	0x4
 4563 0297 F3       		.byte	0xf3
 4564 0298 01       		.uleb128 0x1
 4565 0299 51       		.byte	0x51
 4566 029a 9F       		.byte	0x9f
 4567 029b 00000000 		.4byte	0
 4568 029f 00000000 		.4byte	0
 4569              	.LLST16:
 4570 02a3 1E000000 		.4byte	.LVL29
 4571 02a7 50000000 		.4byte	.LVL31
 4572 02ab 0100     		.2byte	0x1
 4573 02ad 54       		.byte	0x54
 4574 02ae 58000000 		.4byte	.LVL34
 4575 02b2 66000000 		.4byte	.LFE122
 4576 02b6 0100     		.2byte	0x1
 4577 02b8 54       		.byte	0x54
 4578 02b9 00000000 		.4byte	0
 4579 02bd 00000000 		.4byte	0
 4580              	.LLST17:
ARM GAS  C:\Users\Mohamad\AppData\Local\Temp\ccSvAY8z.s 			page 82


 4581 02c1 00000000 		.4byte	.LFB125
 4582 02c5 02000000 		.4byte	.LCFI5
 4583 02c9 0200     		.2byte	0x2
 4584 02cb 7D       		.byte	0x7d
 4585 02cc 00       		.sleb128 0
 4586 02cd 02000000 		.4byte	.LCFI5
 4587 02d1 16000000 		.4byte	.LFE125
 4588 02d5 0200     		.2byte	0x2
 4589 02d7 7D       		.byte	0x7d
 4590 02d8 08       		.sleb128 8
 4591 02d9 00000000 		.4byte	0
 4592 02dd 00000000 		.4byte	0
 4593              	.LLST18:
 4594 02e1 00000000 		.4byte	.LFB126
 4595 02e5 02000000 		.4byte	.LCFI6
 4596 02e9 0200     		.2byte	0x2
 4597 02eb 7D       		.byte	0x7d
 4598 02ec 00       		.sleb128 0
 4599 02ed 02000000 		.4byte	.LCFI6
 4600 02f1 16000000 		.4byte	.LFE126
 4601 02f5 0200     		.2byte	0x2
 4602 02f7 7D       		.byte	0x7d
 4603 02f8 08       		.sleb128 8
 4604 02f9 00000000 		.4byte	0
 4605 02fd 00000000 		.4byte	0
 4606              	.LLST19:
 4607 0301 00000000 		.4byte	.LFB127
 4608 0305 02000000 		.4byte	.LCFI7
 4609 0309 0200     		.2byte	0x2
 4610 030b 7D       		.byte	0x7d
 4611 030c 00       		.sleb128 0
 4612 030d 02000000 		.4byte	.LCFI7
 4613 0311 16000000 		.4byte	.LFE127
 4614 0315 0200     		.2byte	0x2
 4615 0317 7D       		.byte	0x7d
 4616 0318 08       		.sleb128 8
 4617 0319 00000000 		.4byte	0
 4618 031d 00000000 		.4byte	0
 4619              	.LLST20:
 4620 0321 00000000 		.4byte	.LFB128
 4621 0325 02000000 		.4byte	.LCFI8
 4622 0329 0200     		.2byte	0x2
 4623 032b 7D       		.byte	0x7d
 4624 032c 00       		.sleb128 0
 4625 032d 02000000 		.4byte	.LCFI8
 4626 0331 16000000 		.4byte	.LFE128
 4627 0335 0200     		.2byte	0x2
 4628 0337 7D       		.byte	0x7d
 4629 0338 08       		.sleb128 8
 4630 0339 00000000 		.4byte	0
 4631 033d 00000000 		.4byte	0
 4632              	.LLST21:
 4633 0341 00000000 		.4byte	.LFB129
 4634 0345 04000000 		.4byte	.LCFI9
 4635 0349 0200     		.2byte	0x2
 4636 034b 7D       		.byte	0x7d
 4637 034c 00       		.sleb128 0
ARM GAS  C:\Users\Mohamad\AppData\Local\Temp\ccSvAY8z.s 			page 83


 4638 034d 04000000 		.4byte	.LCFI9
 4639 0351 A8000000 		.4byte	.LFE129
 4640 0355 0200     		.2byte	0x2
 4641 0357 7D       		.byte	0x7d
 4642 0358 20       		.sleb128 32
 4643 0359 00000000 		.4byte	0
 4644 035d 00000000 		.4byte	0
 4645              	.LLST22:
 4646 0361 00000000 		.4byte	.LFB130
 4647 0365 02000000 		.4byte	.LCFI10
 4648 0369 0200     		.2byte	0x2
 4649 036b 7D       		.byte	0x7d
 4650 036c 00       		.sleb128 0
 4651 036d 02000000 		.4byte	.LCFI10
 4652 0371 C0010000 		.4byte	.LFE130
 4653 0375 0200     		.2byte	0x2
 4654 0377 7D       		.byte	0x7d
 4655 0378 18       		.sleb128 24
 4656 0379 00000000 		.4byte	0
 4657 037d 00000000 		.4byte	0
 4658              	.LLST23:
 4659 0381 00000000 		.4byte	.LVL48
 4660 0385 0C000000 		.4byte	.LVL49
 4661 0389 0100     		.2byte	0x1
 4662 038b 50       		.byte	0x50
 4663 038c 0C000000 		.4byte	.LVL49
 4664 0390 82000000 		.4byte	.LVL54
 4665 0394 0100     		.2byte	0x1
 4666 0396 54       		.byte	0x54
 4667 0397 82000000 		.4byte	.LVL54
 4668 039b 84000000 		.4byte	.LVL55
 4669 039f 0100     		.2byte	0x1
 4670 03a1 50       		.byte	0x50
 4671 03a2 84000000 		.4byte	.LVL55
 4672 03a6 C0010000 		.4byte	.LFE130
 4673 03aa 0100     		.2byte	0x1
 4674 03ac 54       		.byte	0x54
 4675 03ad 00000000 		.4byte	0
 4676 03b1 00000000 		.4byte	0
 4677              	.LLST24:
 4678 03b5 12000000 		.4byte	.LVL50
 4679 03b9 82000000 		.4byte	.LVL54
 4680 03bd 0100     		.2byte	0x1
 4681 03bf 54       		.byte	0x54
 4682 03c0 BE000000 		.4byte	.LVL56
 4683 03c4 D4000000 		.4byte	.LVL57
 4684 03c8 0100     		.2byte	0x1
 4685 03ca 54       		.byte	0x54
 4686 03cb 00000000 		.4byte	0
 4687 03cf 00000000 		.4byte	0
 4688              	.LLST25:
 4689 03d3 60000000 		.4byte	.LVL52
 4690 03d7 62000000 		.4byte	.LVL53
 4691 03db 0100     		.2byte	0x1
 4692 03dd 53       		.byte	0x53
 4693 03de 62000000 		.4byte	.LVL53
 4694 03e2 82000000 		.4byte	.LVL54
ARM GAS  C:\Users\Mohamad\AppData\Local\Temp\ccSvAY8z.s 			page 84


 4695 03e6 0F00     		.2byte	0xf
 4696 03e8 0A       		.byte	0xa
 4697 03e9 4C21     		.2byte	0x214c
 4698 03eb 76       		.byte	0x76
 4699 03ec 00       		.sleb128 0
 4700 03ed 77       		.byte	0x77
 4701 03ee 00       		.sleb128 0
 4702 03ef 30       		.byte	0x30
 4703 03f0 2E       		.byte	0x2e
 4704 03f1 28       		.byte	0x28
 4705 03f2 0100     		.2byte	0x1
 4706 03f4 16       		.byte	0x16
 4707 03f5 13       		.byte	0x13
 4708 03f6 9F       		.byte	0x9f
 4709 03f7 00000000 		.4byte	0
 4710 03fb 00000000 		.4byte	0
 4711              	.LLST26:
 4712 03ff 12000000 		.4byte	.LVL50
 4713 0403 82000000 		.4byte	.LVL54
 4714 0407 0100     		.2byte	0x1
 4715 0409 55       		.byte	0x55
 4716 040a BE000000 		.4byte	.LVL56
 4717 040e D4000000 		.4byte	.LVL57
 4718 0412 0100     		.2byte	0x1
 4719 0414 55       		.byte	0x55
 4720 0415 00000000 		.4byte	0
 4721 0419 00000000 		.4byte	0
 4722              	.LLST27:
 4723 041d 00000000 		.4byte	.LFB131
 4724 0421 06000000 		.4byte	.LCFI11
 4725 0425 0200     		.2byte	0x2
 4726 0427 7D       		.byte	0x7d
 4727 0428 00       		.sleb128 0
 4728 0429 06000000 		.4byte	.LCFI11
 4729 042d A4000000 		.4byte	.LFE131
 4730 0431 0200     		.2byte	0x2
 4731 0433 7D       		.byte	0x7d
 4732 0434 08       		.sleb128 8
 4733 0435 00000000 		.4byte	0
 4734 0439 00000000 		.4byte	0
 4735              	.LLST28:
 4736 043d 00000000 		.4byte	.LVL68
 4737 0441 0A000000 		.4byte	.LVL69
 4738 0445 0100     		.2byte	0x1
 4739 0447 50       		.byte	0x50
 4740 0448 0A000000 		.4byte	.LVL69
 4741 044c 0C000000 		.4byte	.LVL70
 4742 0450 0100     		.2byte	0x1
 4743 0452 54       		.byte	0x54
 4744 0453 0C000000 		.4byte	.LVL70
 4745 0457 0F000000 		.4byte	.LVL71-1
 4746 045b 0100     		.2byte	0x1
 4747 045d 50       		.byte	0x50
 4748 045e 0F000000 		.4byte	.LVL71-1
 4749 0462 A4000000 		.4byte	.LFE131
 4750 0466 0100     		.2byte	0x1
 4751 0468 54       		.byte	0x54
ARM GAS  C:\Users\Mohamad\AppData\Local\Temp\ccSvAY8z.s 			page 85


 4752 0469 00000000 		.4byte	0
 4753 046d 00000000 		.4byte	0
 4754              	.LLST29:
 4755 0471 00000000 		.4byte	.LVL78
 4756 0475 04000000 		.4byte	.LVL79
 4757 0479 0100     		.2byte	0x1
 4758 047b 50       		.byte	0x50
 4759 047c 04000000 		.4byte	.LVL79
 4760 0480 1A000000 		.4byte	.LFE132
 4761 0484 0400     		.2byte	0x4
 4762 0486 F3       		.byte	0xf3
 4763 0487 01       		.uleb128 0x1
 4764 0488 50       		.byte	0x50
 4765 0489 9F       		.byte	0x9f
 4766 048a 00000000 		.4byte	0
 4767 048e 00000000 		.4byte	0
 4768              	.LLST30:
 4769 0492 00000000 		.4byte	.LVL78
 4770 0496 16000000 		.4byte	.LVL81
 4771 049a 0100     		.2byte	0x1
 4772 049c 51       		.byte	0x51
 4773 049d 16000000 		.4byte	.LVL81
 4774 04a1 1A000000 		.4byte	.LFE132
 4775 04a5 0200     		.2byte	0x2
 4776 04a7 73       		.byte	0x73
 4777 04a8 04       		.sleb128 4
 4778 04a9 00000000 		.4byte	0
 4779 04ad 00000000 		.4byte	0
 4780              	.LLST31:
 4781 04b1 00000000 		.4byte	.LVL78
 4782 04b5 12000000 		.4byte	.LVL80
 4783 04b9 0100     		.2byte	0x1
 4784 04bb 52       		.byte	0x52
 4785 04bc 12000000 		.4byte	.LVL80
 4786 04c0 1A000000 		.4byte	.LFE132
 4787 04c4 0200     		.2byte	0x2
 4788 04c6 73       		.byte	0x73
 4789 04c7 0C       		.sleb128 12
 4790 04c8 00000000 		.4byte	0
 4791 04cc 00000000 		.4byte	0
 4792              	.LLST32:
 4793 04d0 00000000 		.4byte	.LVL82
 4794 04d4 0A000000 		.4byte	.LVL83
 4795 04d8 0100     		.2byte	0x1
 4796 04da 50       		.byte	0x50
 4797 04db 0A000000 		.4byte	.LVL83
 4798 04df 22000000 		.4byte	.LFE133
 4799 04e3 0400     		.2byte	0x4
 4800 04e5 F3       		.byte	0xf3
 4801 04e6 01       		.uleb128 0x1
 4802 04e7 50       		.byte	0x50
 4803 04e8 9F       		.byte	0x9f
 4804 04e9 00000000 		.4byte	0
 4805 04ed 00000000 		.4byte	0
 4806              	.LLST33:
 4807 04f1 00000000 		.4byte	.LFB134
 4808 04f5 02000000 		.4byte	.LCFI12
ARM GAS  C:\Users\Mohamad\AppData\Local\Temp\ccSvAY8z.s 			page 86


 4809 04f9 0200     		.2byte	0x2
 4810 04fb 7D       		.byte	0x7d
 4811 04fc 00       		.sleb128 0
 4812 04fd 02000000 		.4byte	.LCFI12
 4813 0501 38000000 		.4byte	.LFE134
 4814 0505 0200     		.2byte	0x2
 4815 0507 7D       		.byte	0x7d
 4816 0508 0C       		.sleb128 12
 4817 0509 00000000 		.4byte	0
 4818 050d 00000000 		.4byte	0
 4819              	.LLST34:
 4820 0511 00000000 		.4byte	.LVL84
 4821 0515 22000000 		.4byte	.LVL85
 4822 0519 0100     		.2byte	0x1
 4823 051b 50       		.byte	0x50
 4824 051c 22000000 		.4byte	.LVL85
 4825 0520 38000000 		.4byte	.LFE134
 4826 0524 0400     		.2byte	0x4
 4827 0526 F3       		.byte	0xf3
 4828 0527 01       		.uleb128 0x1
 4829 0528 50       		.byte	0x50
 4830 0529 9F       		.byte	0x9f
 4831 052a 00000000 		.4byte	0
 4832 052e 00000000 		.4byte	0
 4833              	.LLST35:
 4834 0532 00000000 		.4byte	.LVL84
 4835 0536 2E000000 		.4byte	.LVL87
 4836 053a 0100     		.2byte	0x1
 4837 053c 51       		.byte	0x51
 4838 053d 2E000000 		.4byte	.LVL87
 4839 0541 38000000 		.4byte	.LFE134
 4840 0545 0200     		.2byte	0x2
 4841 0547 74       		.byte	0x74
 4842 0548 04       		.sleb128 4
 4843 0549 00000000 		.4byte	0
 4844 054d 00000000 		.4byte	0
 4845              	.LLST36:
 4846 0551 00000000 		.4byte	.LVL84
 4847 0555 28000000 		.4byte	.LVL86
 4848 0559 0100     		.2byte	0x1
 4849 055b 52       		.byte	0x52
 4850 055c 28000000 		.4byte	.LVL86
 4851 0560 38000000 		.4byte	.LFE134
 4852 0564 0200     		.2byte	0x2
 4853 0566 74       		.byte	0x74
 4854 0567 0C       		.sleb128 12
 4855 0568 00000000 		.4byte	0
 4856 056c 00000000 		.4byte	0
 4857              	.LLST37:
 4858 0570 00000000 		.4byte	.LFB135
 4859 0574 08000000 		.4byte	.LCFI13
 4860 0578 0200     		.2byte	0x2
 4861 057a 7D       		.byte	0x7d
 4862 057b 00       		.sleb128 0
 4863 057c 08000000 		.4byte	.LCFI13
 4864 0580 2A000000 		.4byte	.LFE135
 4865 0584 0200     		.2byte	0x2
ARM GAS  C:\Users\Mohamad\AppData\Local\Temp\ccSvAY8z.s 			page 87


 4866 0586 7D       		.byte	0x7d
 4867 0587 08       		.sleb128 8
 4868 0588 00000000 		.4byte	0
 4869 058c 00000000 		.4byte	0
 4870              	.LLST38:
 4871 0590 00000000 		.4byte	.LVL88
 4872 0594 25000000 		.4byte	.LVL90-1
 4873 0598 0100     		.2byte	0x1
 4874 059a 50       		.byte	0x50
 4875 059b 25000000 		.4byte	.LVL90-1
 4876 059f 2A000000 		.4byte	.LFE135
 4877 05a3 0400     		.2byte	0x4
 4878 05a5 F3       		.byte	0xf3
 4879 05a6 01       		.uleb128 0x1
 4880 05a7 50       		.byte	0x50
 4881 05a8 9F       		.byte	0x9f
 4882 05a9 00000000 		.4byte	0
 4883 05ad 00000000 		.4byte	0
 4884              		.section	.debug_aranges,"",%progbits
 4885 0000 94000000 		.4byte	0x94
 4886 0004 0200     		.2byte	0x2
 4887 0006 00000000 		.4byte	.Ldebug_info0
 4888 000a 04       		.byte	0x4
 4889 000b 00       		.byte	0
 4890 000c 0000     		.2byte	0
 4891 000e 0000     		.2byte	0
 4892 0010 00000000 		.4byte	.LFB119
 4893 0014 30000000 		.4byte	.LFE119-.LFB119
 4894 0018 00000000 		.4byte	.LFB120
 4895 001c 4C000000 		.4byte	.LFE120-.LFB120
 4896 0020 00000000 		.4byte	.LFB124
 4897 0024 7A000000 		.4byte	.LFE124-.LFB124
 4898 0028 00000000 		.4byte	.LFB123
 4899 002c 4A000000 		.4byte	.LFE123-.LFB123
 4900 0030 00000000 		.4byte	.LFB122
 4901 0034 66000000 		.4byte	.LFE122-.LFB122
 4902 0038 00000000 		.4byte	.LFB125
 4903 003c 16000000 		.4byte	.LFE125-.LFB125
 4904 0040 00000000 		.4byte	.LFB126
 4905 0044 16000000 		.4byte	.LFE126-.LFB126
 4906 0048 00000000 		.4byte	.LFB127
 4907 004c 16000000 		.4byte	.LFE127-.LFB127
 4908 0050 00000000 		.4byte	.LFB128
 4909 0054 16000000 		.4byte	.LFE128-.LFB128
 4910 0058 00000000 		.4byte	.LFB129
 4911 005c A8000000 		.4byte	.LFE129-.LFB129
 4912 0060 00000000 		.4byte	.LFB130
 4913 0064 C0010000 		.4byte	.LFE130-.LFB130
 4914 0068 00000000 		.4byte	.LFB131
 4915 006c A4000000 		.4byte	.LFE131-.LFB131
 4916 0070 00000000 		.4byte	.LFB132
 4917 0074 1A000000 		.4byte	.LFE132-.LFB132
 4918 0078 00000000 		.4byte	.LFB133
 4919 007c 22000000 		.4byte	.LFE133-.LFB133
 4920 0080 00000000 		.4byte	.LFB134
 4921 0084 38000000 		.4byte	.LFE134-.LFB134
 4922 0088 00000000 		.4byte	.LFB135
ARM GAS  C:\Users\Mohamad\AppData\Local\Temp\ccSvAY8z.s 			page 88


 4923 008c 2A000000 		.4byte	.LFE135-.LFB135
 4924 0090 00000000 		.4byte	0
 4925 0094 00000000 		.4byte	0
 4926              		.section	.debug_ranges,"",%progbits
 4927              	.Ldebug_ranges0:
 4928 0000 20000000 		.4byte	.LBB4
 4929 0004 56000000 		.4byte	.LBE4
 4930 0008 74000000 		.4byte	.LBB7
 4931 000c 7A000000 		.4byte	.LBE7
 4932 0010 00000000 		.4byte	0
 4933 0014 00000000 		.4byte	0
 4934 0018 20000000 		.4byte	.LBB5
 4935 001c 56000000 		.4byte	.LBE5
 4936 0020 74000000 		.4byte	.LBB6
 4937 0024 7A000000 		.4byte	.LBE6
 4938 0028 00000000 		.4byte	0
 4939 002c 00000000 		.4byte	0
 4940 0030 1E000000 		.4byte	.LBB10
 4941 0034 52000000 		.4byte	.LBE10
 4942 0038 58000000 		.4byte	.LBB14
 4943 003c 5E000000 		.4byte	.LBE14
 4944 0040 62000000 		.4byte	.LBB15
 4945 0044 66000000 		.4byte	.LBE15
 4946 0048 00000000 		.4byte	0
 4947 004c 00000000 		.4byte	0
 4948 0050 1E000000 		.4byte	.LBB11
 4949 0054 52000000 		.4byte	.LBE11
 4950 0058 58000000 		.4byte	.LBB12
 4951 005c 5E000000 		.4byte	.LBE12
 4952 0060 62000000 		.4byte	.LBB13
 4953 0064 66000000 		.4byte	.LBE13
 4954 0068 00000000 		.4byte	0
 4955 006c 00000000 		.4byte	0
 4956 0070 12000000 		.4byte	.LBB22
 4957 0074 7A000000 		.4byte	.LBE22
 4958 0078 7E000000 		.4byte	.LBB26
 4959 007c 82000000 		.4byte	.LBE26
 4960 0080 BE000000 		.4byte	.LBB27
 4961 0084 D4000000 		.4byte	.LBE27
 4962 0088 00000000 		.4byte	0
 4963 008c 00000000 		.4byte	0
 4964 0090 12000000 		.4byte	.LBB23
 4965 0094 7A000000 		.4byte	.LBE23
 4966 0098 7E000000 		.4byte	.LBB24
 4967 009c 82000000 		.4byte	.LBE24
 4968 00a0 BE000000 		.4byte	.LBB25
 4969 00a4 D4000000 		.4byte	.LBE25
 4970 00a8 00000000 		.4byte	0
 4971 00ac 00000000 		.4byte	0
 4972 00b0 42010000 		.4byte	.LBB30
 4973 00b4 52010000 		.4byte	.LBE30
 4974 00b8 7A010000 		.4byte	.LBB32
 4975 00bc C0010000 		.4byte	.LBE32
 4976 00c0 00000000 		.4byte	0
 4977 00c4 00000000 		.4byte	0
 4978 00c8 00000000 		.4byte	.LFB119
 4979 00cc 30000000 		.4byte	.LFE119
ARM GAS  C:\Users\Mohamad\AppData\Local\Temp\ccSvAY8z.s 			page 89


 4980 00d0 00000000 		.4byte	.LFB120
 4981 00d4 4C000000 		.4byte	.LFE120
 4982 00d8 00000000 		.4byte	.LFB124
 4983 00dc 7A000000 		.4byte	.LFE124
 4984 00e0 00000000 		.4byte	.LFB123
 4985 00e4 4A000000 		.4byte	.LFE123
 4986 00e8 00000000 		.4byte	.LFB122
 4987 00ec 66000000 		.4byte	.LFE122
 4988 00f0 00000000 		.4byte	.LFB125
 4989 00f4 16000000 		.4byte	.LFE125
 4990 00f8 00000000 		.4byte	.LFB126
 4991 00fc 16000000 		.4byte	.LFE126
 4992 0100 00000000 		.4byte	.LFB127
 4993 0104 16000000 		.4byte	.LFE127
 4994 0108 00000000 		.4byte	.LFB128
 4995 010c 16000000 		.4byte	.LFE128
 4996 0110 00000000 		.4byte	.LFB129
 4997 0114 A8000000 		.4byte	.LFE129
 4998 0118 00000000 		.4byte	.LFB130
 4999 011c C0010000 		.4byte	.LFE130
 5000 0120 00000000 		.4byte	.LFB131
 5001 0124 A4000000 		.4byte	.LFE131
 5002 0128 00000000 		.4byte	.LFB132
 5003 012c 1A000000 		.4byte	.LFE132
 5004 0130 00000000 		.4byte	.LFB133
 5005 0134 22000000 		.4byte	.LFE133
 5006 0138 00000000 		.4byte	.LFB134
 5007 013c 38000000 		.4byte	.LFE134
 5008 0140 00000000 		.4byte	.LFB135
 5009 0144 2A000000 		.4byte	.LFE135
 5010 0148 00000000 		.4byte	0
 5011 014c 00000000 		.4byte	0
 5012              		.section	.debug_line,"",%progbits
 5013              	.Ldebug_line0:
 5014 0000 B6050000 		.section	.debug_str,"MS",%progbits,1
 5014      02006F02 
 5014      00000201 
 5014      FB0E0D00 
 5014      01010101 
 5015              	.LASF112:
 5016 0000 75617274 		.ascii	"uart_lld_start_receive\000"
 5016      5F6C6C64 
 5016      5F737461 
 5016      72745F72 
 5016      65636569 
 5017              	.LASF42:
 5018 0017 41504231 		.ascii	"APB1LPENR\000"
 5018      4C50454E 
 5018      5200
 5019              	.LASF73:
 5020 0021 75617274 		.ascii	"uartflags_t\000"
 5020      666C6167 
 5020      735F7400 
 5021              	.LASF70:
 5022 002d 55415254 		.ascii	"UART_RX_ACTIVE\000"
 5022      5F52585F 
 5022      41435449 
ARM GAS  C:\Users\Mohamad\AppData\Local\Temp\ccSvAY8z.s 			page 90


 5022      564500
 5023              	.LASF105:
 5024 003c 75617274 		.ascii	"uart_lld_init\000"
 5024      5F6C6C64 
 5024      5F696E69 
 5024      7400
 5025              	.LASF2:
 5026 004a 73697A65 		.ascii	"size_t\000"
 5026      5F7400
 5027              	.LASF90:
 5028 0051 72786368 		.ascii	"rxchar_cb\000"
 5028      61725F63 
 5028      6200
 5029              	.LASF19:
 5030 005b 4D304152 		.ascii	"M0AR\000"
 5030      00
 5031              	.LASF123:
 5032 0060 75617274 		.ascii	"uartObjectInit\000"
 5032      4F626A65 
 5032      6374496E 
 5032      697400
 5033              	.LASF54:
 5034 006f 73747265 		.ascii	"stream\000"
 5034      616D00
 5035              	.LASF81:
 5036 0076 646D6172 		.ascii	"dmarx\000"
 5036      7800
 5037              	.LASF97:
 5038 007c 75736172 		.ascii	"usart_stop\000"
 5038      745F7374 
 5038      6F7000
 5039              	.LASF39:
 5040 0087 41484232 		.ascii	"AHB2LPENR\000"
 5040      4C50454E 
 5040      5200
 5041              	.LASF14:
 5042 0091 626F6F6C 		.ascii	"bool_t\000"
 5042      5F7400
 5043              	.LASF85:
 5044 0098 75617274 		.ascii	"uartccb_t\000"
 5044      6363625F 
 5044      7400
 5045              	.LASF58:
 5046 00a2 76656374 		.ascii	"vector\000"
 5046      6F7200
 5047              	.LASF116:
 5048 00a9 5F73746D 		.ascii	"_stm32_dma_streams\000"
 5048      33325F64 
 5048      6D615F73 
 5048      74726561 
 5048      6D7300
 5049              	.LASF93:
 5050 00bc 55415254 		.ascii	"UARTConfig\000"
 5050      436F6E66 
 5050      696700
 5051              	.LASF115:
 5052 00c7 49544D5F 		.ascii	"ITM_RxBuffer\000"
ARM GAS  C:\Users\Mohamad\AppData\Local\Temp\ccSvAY8z.s 			page 91


 5052      52784275 
 5052      66666572 
 5052      00
 5053              	.LASF83:
 5054 00d4 72786275 		.ascii	"rxbuf\000"
 5054      6600
 5055              	.LASF38:
 5056 00da 41484231 		.ascii	"AHB1LPENR\000"
 5056      4C50454E 
 5056      5200
 5057              	.LASF124:
 5058 00e4 6E766963 		.ascii	"nvicEnableVector\000"
 5058      456E6162 
 5058      6C655665 
 5058      63746F72 
 5058      00
 5059              	.LASF50:
 5060 00f5 44434B43 		.ascii	"DCKCFGR\000"
 5060      46475200 
 5061              	.LASF12:
 5062 00fd 6C6F6E67 		.ascii	"long long int\000"
 5062      206C6F6E 
 5062      6720696E 
 5062      7400
 5063              	.LASF1:
 5064 010b 7369676E 		.ascii	"signed char\000"
 5064      65642063 
 5064      68617200 
 5065              	.LASF84:
 5066 0117 75617274 		.ascii	"uartcb_t\000"
 5066      63625F74 
 5066      00
 5067              	.LASF24:
 5068 0120 41484231 		.ascii	"AHB1RSTR\000"
 5068      52535452 
 5068      00
 5069              	.LASF52:
 5070 0129 47545052 		.ascii	"GTPR\000"
 5070      00
 5071              	.LASF77:
 5072 012e 72787374 		.ascii	"rxstate\000"
 5072      61746500 
 5073              	.LASF60:
 5074 0136 73746D33 		.ascii	"stm32_dmaisr_t\000"
 5074      325F646D 
 5074      61697372 
 5074      5F7400
 5075              	.LASF75:
 5076 0145 73746174 		.ascii	"state\000"
 5076      6500
 5077              	.LASF76:
 5078 014b 74787374 		.ascii	"txstate\000"
 5078      61746500 
 5079              	.LASF9:
 5080 0153 6C6F6E67 		.ascii	"long int\000"
 5080      20696E74 
 5080      00
ARM GAS  C:\Users\Mohamad\AppData\Local\Temp\ccSvAY8z.s 			page 92


 5081              	.LASF29:
 5082 015c 41504232 		.ascii	"APB2RSTR\000"
 5082      52535452 
 5082      00
 5083              	.LASF6:
 5084 0165 75696E74 		.ascii	"uint16_t\000"
 5084      31365F74 
 5084      00
 5085              	.LASF13:
 5086 016e 6C6F6E67 		.ascii	"long long unsigned int\000"
 5086      206C6F6E 
 5086      6720756E 
 5086      7369676E 
 5086      65642069 
 5087              	.LASF121:
 5088 0185 706F7274 		.ascii	"port_halt\000"
 5088      5F68616C 
 5088      7400
 5089              	.LASF22:
 5090 018f 504C4C43 		.ascii	"PLLCFGR\000"
 5090      46475200 
 5091              	.LASF72:
 5092 0197 75617274 		.ascii	"uartrxstate_t\000"
 5092      72787374 
 5092      6174655F 
 5092      7400
 5093              	.LASF108:
 5094 01a5 75617274 		.ascii	"uart_lld_start\000"
 5094      5F6C6C64 
 5094      5F737461 
 5094      727400
 5095              	.LASF74:
 5096 01b4 55415254 		.ascii	"UARTDriver\000"
 5096      44726976 
 5096      657200
 5097              	.LASF57:
 5098 01bf 73656C66 		.ascii	"selfindex\000"
 5098      696E6465 
 5098      7800
 5099              	.LASF96:
 5100 01c9 7365745F 		.ascii	"set_rx_idle_loop\000"
 5100      72785F69 
 5100      646C655F 
 5100      6C6F6F70 
 5100      00
 5101              	.LASF127:
 5102 01da 2E2E2F2E 		.ascii	"../../chibios/os/hal/platforms/STM32/USARTv1/uart_l"
 5102      2E2F6368 
 5102      6962696F 
 5102      732F6F73 
 5102      2F68616C 
 5103 020d 6C642E63 		.ascii	"ld.c\000"
 5103      00
 5104              	.LASF63:
 5105 0212 55415254 		.ascii	"UART_READY\000"
 5105      5F524541 
 5105      445900
ARM GAS  C:\Users\Mohamad\AppData\Local\Temp\ccSvAY8z.s 			page 93


 5106              	.LASF66:
 5107 021d 55415254 		.ascii	"UART_TX_ACTIVE\000"
 5107      5F54585F 
 5107      41435449 
 5107      564500
 5108              	.LASF79:
 5109 022c 75736172 		.ascii	"usart\000"
 5109      7400
 5110              	.LASF0:
 5111 0232 756E7369 		.ascii	"unsigned int\000"
 5111      676E6564 
 5111      20696E74 
 5111      00
 5112              	.LASF111:
 5113 023f 74786275 		.ascii	"txbuf\000"
 5113      6600
 5114              	.LASF131:
 5115 0245 6E766963 		.ascii	"nvicDisableVector\000"
 5115      44697361 
 5115      626C6556 
 5115      6563746F 
 5115      7200
 5116              	.LASF113:
 5117 0257 75617274 		.ascii	"uart_lld_stop_send\000"
 5117      5F6C6C64 
 5117      5F73746F 
 5117      705F7365 
 5117      6E6400
 5118              	.LASF11:
 5119 026a 6C6F6E67 		.ascii	"long unsigned int\000"
 5119      20756E73 
 5119      69676E65 
 5119      6420696E 
 5119      7400
 5120              	.LASF86:
 5121 027c 75617274 		.ascii	"uartecb_t\000"
 5121      6563625F 
 5121      7400
 5122              	.LASF51:
 5123 0286 5243435F 		.ascii	"RCC_TypeDef\000"
 5123      54797065 
 5123      44656600 
 5124              	.LASF104:
 5125 0292 56656374 		.ascii	"Vector15C\000"
 5125      6F723135 
 5125      4300
 5126              	.LASF56:
 5127 029c 69736869 		.ascii	"ishift\000"
 5127      667400
 5128              	.LASF7:
 5129 02a3 73686F72 		.ascii	"short unsigned int\000"
 5129      7420756E 
 5129      7369676E 
 5129      65642069 
 5129      6E7400
 5130              	.LASF61:
 5131 02b6 55415254 		.ascii	"UART_UNINIT\000"
ARM GAS  C:\Users\Mohamad\AppData\Local\Temp\ccSvAY8z.s 			page 94


 5131      5F554E49 
 5131      4E495400 
 5132              	.LASF62:
 5133 02c2 55415254 		.ascii	"UART_STOP\000"
 5133      5F53544F 
 5133      5000
 5134              	.LASF48:
 5135 02cc 504C4C49 		.ascii	"PLLI2SCFGR\000"
 5135      32534346 
 5135      475200
 5136              	.LASF26:
 5137 02d7 41484233 		.ascii	"AHB3RSTR\000"
 5137      52535452 
 5137      00
 5138              	.LASF122:
 5139 02e0 5F706F72 		.ascii	"_port_irq_epilogue\000"
 5139      745F6972 
 5139      715F6570 
 5139      696C6F67 
 5139      756500
 5140              	.LASF53:
 5141 02f3 55534152 		.ascii	"USART_TypeDef\000"
 5141      545F5479 
 5141      70654465 
 5141      6600
 5142              	.LASF43:
 5143 0301 41504232 		.ascii	"APB2LPENR\000"
 5143      4C50454E 
 5143      5200
 5144              	.LASF101:
 5145 030b 56656374 		.ascii	"VectorD4\000"
 5145      6F724434 
 5145      00
 5146              	.LASF102:
 5147 0314 56656374 		.ascii	"VectorD8\000"
 5147      6F724438 
 5147      00
 5148              	.LASF103:
 5149 031d 56656374 		.ascii	"VectorDC\000"
 5149      6F724443 
 5149      00
 5150              	.LASF98:
 5151 0326 73657276 		.ascii	"serve_usart_irq\000"
 5151      655F7573 
 5151      6172745F 
 5151      69727100 
 5152              	.LASF94:
 5153 0336 75617274 		.ascii	"uartp\000"
 5153      7000
 5154              	.LASF120:
 5155 033c 55415254 		.ascii	"UARTD6\000"
 5155      443600
 5156              	.LASF16:
 5157 0343 73697A65 		.ascii	"sizetype\000"
 5157      74797065 
 5157      00
 5158              	.LASF129:
ARM GAS  C:\Users\Mohamad\AppData\Local\Temp\ccSvAY8z.s 			page 95


 5159 034c 7472616E 		.ascii	"translate_errors\000"
 5159      736C6174 
 5159      655F6572 
 5159      726F7273 
 5159      00
 5160              	.LASF71:
 5161 035d 55415254 		.ascii	"UART_RX_COMPLETE\000"
 5161      5F52585F 
 5161      434F4D50 
 5161      4C455445 
 5161      00
 5162              	.LASF91:
 5163 036e 72786572 		.ascii	"rxerr_cb\000"
 5163      725F6362 
 5163      00
 5164              	.LASF33:
 5165 0377 41484233 		.ascii	"AHB3ENR\000"
 5165      454E5200 
 5166              	.LASF100:
 5167 037f 75617274 		.ascii	"uart_lld_serve_tx_end_irq\000"
 5167      5F6C6C64 
 5167      5F736572 
 5167      76655F74 
 5167      785F656E 
 5168              	.LASF126:
 5169 0399 474E5520 		.ascii	"GNU C 4.7.4 20140401 (release) [ARM/embedded-4_7-br"
 5169      4320342E 
 5169      372E3420 
 5169      32303134 
 5169      30343031 
 5170 03cc 616E6368 		.ascii	"anch revision 209195]\000"
 5170      20726576 
 5170      6973696F 
 5170      6E203230 
 5170      39313935 
 5171              	.LASF89:
 5172 03e2 7278656E 		.ascii	"rxend_cb\000"
 5172      645F6362 
 5172      00
 5173              	.LASF68:
 5174 03eb 75617274 		.ascii	"uarttxstate_t\000"
 5174      74787374 
 5174      6174655F 
 5174      7400
 5175              	.LASF28:
 5176 03f9 41504231 		.ascii	"APB1RSTR\000"
 5176      52535452 
 5176      00
 5177              	.LASF49:
 5178 0402 504C4C53 		.ascii	"PLLSAICFGR\000"
 5178      41494346 
 5178      475200
 5179              	.LASF82:
 5180 040d 646D6174 		.ascii	"dmatx\000"
 5180      7800
 5181              	.LASF27:
 5182 0413 52455345 		.ascii	"RESERVED0\000"
ARM GAS  C:\Users\Mohamad\AppData\Local\Temp\ccSvAY8z.s 			page 96


 5182      52564544 
 5182      3000
 5183              	.LASF30:
 5184 041d 52455345 		.ascii	"RESERVED1\000"
 5184      52564544 
 5184      3100
 5185              	.LASF34:
 5186 0427 52455345 		.ascii	"RESERVED2\000"
 5186      52564544 
 5186      3200
 5187              	.LASF37:
 5188 0431 52455345 		.ascii	"RESERVED3\000"
 5188      52564544 
 5188      3300
 5189              	.LASF41:
 5190 043b 52455345 		.ascii	"RESERVED4\000"
 5190      52564544 
 5190      3400
 5191              	.LASF44:
 5192 0445 52455345 		.ascii	"RESERVED5\000"
 5192      52564544 
 5192      3500
 5193              	.LASF46:
 5194 044f 52455345 		.ascii	"RESERVED6\000"
 5194      52564544 
 5194      3600
 5195              	.LASF59:
 5196 0459 73746D33 		.ascii	"stm32_dma_stream_t\000"
 5196      325F646D 
 5196      615F7374 
 5196      7265616D 
 5196      5F7400
 5197              	.LASF88:
 5198 046c 7478656E 		.ascii	"txend2_cb\000"
 5198      64325F63 
 5198      6200
 5199              	.LASF15:
 5200 0476 5F426F6F 		.ascii	"_Bool\000"
 5200      6C00
 5201              	.LASF8:
 5202 047c 696E7433 		.ascii	"int32_t\000"
 5202      325F7400 
 5203              	.LASF4:
 5204 0484 756E7369 		.ascii	"unsigned char\000"
 5204      676E6564 
 5204      20636861 
 5204      7200
 5205              	.LASF5:
 5206 0492 73686F72 		.ascii	"short int\000"
 5206      7420696E 
 5206      7400
 5207              	.LASF40:
 5208 049c 41484233 		.ascii	"AHB3LPENR\000"
 5208      4C50454E 
 5208      5200
 5209              	.LASF64:
 5210 04a6 75617274 		.ascii	"uartstate_t\000"
ARM GAS  C:\Users\Mohamad\AppData\Local\Temp\ccSvAY8z.s 			page 97


 5210      73746174 
 5210      655F7400 
 5211              	.LASF36:
 5212 04b2 41504232 		.ascii	"APB2ENR\000"
 5212      454E5200 
 5213              	.LASF67:
 5214 04ba 55415254 		.ascii	"UART_TX_COMPLETE\000"
 5214      5F54585F 
 5214      434F4D50 
 5214      4C455445 
 5214      00
 5215              	.LASF55:
 5216 04cb 69666372 		.ascii	"ifcr\000"
 5216      00
 5217              	.LASF128:
 5218 04d0 433A5C43 		.ascii	"C:\\ChibiStudio\\workspace\\DCM_test_3\000"
 5218      68696269 
 5218      53747564 
 5218      696F5C77 
 5218      6F726B73 
 5219              	.LASF10:
 5220 04f4 75696E74 		.ascii	"uint32_t\000"
 5220      33325F74 
 5220      00
 5221              	.LASF35:
 5222 04fd 41504231 		.ascii	"APB1ENR\000"
 5222      454E5200 
 5223              	.LASF17:
 5224 0505 63686172 		.ascii	"char\000"
 5224      00
 5225              	.LASF125:
 5226 050a 646D6153 		.ascii	"dmaStreamRelease\000"
 5226      74726561 
 5226      6D52656C 
 5226      65617365 
 5226      00
 5227              	.LASF99:
 5228 051b 6D6F6465 		.ascii	"mode\000"
 5228      00
 5229              	.LASF78:
 5230 0520 636F6E66 		.ascii	"config\000"
 5230      696700
 5231              	.LASF69:
 5232 0527 55415254 		.ascii	"UART_RX_IDLE\000"
 5232      5F52585F 
 5232      49444C45 
 5232      00
 5233              	.LASF25:
 5234 0534 41484232 		.ascii	"AHB2RSTR\000"
 5234      52535452 
 5234      00
 5235              	.LASF87:
 5236 053d 7478656E 		.ascii	"txend1_cb\000"
 5236      64315F63 
 5236      6200
 5237              	.LASF65:
 5238 0547 55415254 		.ascii	"UART_TX_IDLE\000"
ARM GAS  C:\Users\Mohamad\AppData\Local\Temp\ccSvAY8z.s 			page 98


 5238      5F54585F 
 5238      49444C45 
 5238      00
 5239              	.LASF18:
 5240 0554 4E445452 		.ascii	"NDTR\000"
 5240      00
 5241              	.LASF21:
 5242 0559 444D415F 		.ascii	"DMA_Stream_TypeDef\000"
 5242      53747265 
 5242      616D5F54 
 5242      79706544 
 5242      656600
 5243              	.LASF32:
 5244 056c 41484232 		.ascii	"AHB2ENR\000"
 5244      454E5200 
 5245              	.LASF106:
 5246 0574 75617274 		.ascii	"uart_lld_serve_rx_end_irq\000"
 5246      5F6C6C64 
 5246      5F736572 
 5246      76655F72 
 5246      785F656E 
 5247              	.LASF20:
 5248 058e 4D314152 		.ascii	"M1AR\000"
 5248      00
 5249              	.LASF47:
 5250 0593 53534347 		.ascii	"SSCGR\000"
 5250      5200
 5251              	.LASF45:
 5252 0599 42444352 		.ascii	"BDCR\000"
 5252      00
 5253              	.LASF114:
 5254 059e 75617274 		.ascii	"uart_lld_stop_receive\000"
 5254      5F6C6C64 
 5254      5F73746F 
 5254      705F7265 
 5254      63656976 
 5255              	.LASF3:
 5256 05b4 75696E74 		.ascii	"uint8_t\000"
 5256      385F7400 
 5257              	.LASF107:
 5258 05bc 75736172 		.ascii	"usart_start\000"
 5258      745F7374 
 5258      61727400 
 5259              	.LASF95:
 5260 05c8 666C6167 		.ascii	"flags\000"
 5260      7300
 5261              	.LASF80:
 5262 05ce 646D616D 		.ascii	"dmamode\000"
 5262      6F646500 
 5263              	.LASF92:
 5264 05d6 73706565 		.ascii	"speed\000"
 5264      6400
 5265              	.LASF31:
 5266 05dc 41484231 		.ascii	"AHB1ENR\000"
 5266      454E5200 
 5267              	.LASF23:
 5268 05e4 43464752 		.ascii	"CFGR\000"
ARM GAS  C:\Users\Mohamad\AppData\Local\Temp\ccSvAY8z.s 			page 99


 5268      00
 5269              	.LASF110:
 5270 05e9 75617274 		.ascii	"uart_lld_start_send\000"
 5270      5F6C6C64 
 5270      5F737461 
 5270      72745F73 
 5270      656E6400 
 5271              	.LASF109:
 5272 05fd 75617274 		.ascii	"uart_lld_stop\000"
 5272      5F6C6C64 
 5272      5F73746F 
 5272      7000
 5273              	.LASF130:
 5274 060b 646D6153 		.ascii	"dmaStreamAllocate\000"
 5274      74726561 
 5274      6D416C6C 
 5274      6F636174 
 5274      6500
 5275              	.LASF117:
 5276 061d 55415254 		.ascii	"UARTD1\000"
 5276      443100
 5277              	.LASF118:
 5278 0624 55415254 		.ascii	"UARTD2\000"
 5278      443200
 5279              	.LASF119:
 5280 062b 55415254 		.ascii	"UARTD3\000"
 5280      443300
 5281              		.ident	"GCC: (GNU Tools for ARM Embedded Processors) 4.7.4 20140401 (release) [ARM/embedded-4_7-br
ARM GAS  C:\Users\Mohamad\AppData\Local\Temp\ccSvAY8z.s 			page 100


DEFINED SYMBOLS
                            *ABS*:00000000 uart_lld.c
C:\Users\Mohamad\AppData\Local\Temp\ccSvAY8z.s:19     .text.set_rx_idle_loop:00000000 $t
C:\Users\Mohamad\AppData\Local\Temp\ccSvAY8z.s:24     .text.set_rx_idle_loop:00000000 set_rx_idle_loop
C:\Users\Mohamad\AppData\Local\Temp\ccSvAY8z.s:78     .text.usart_stop:00000000 $t
C:\Users\Mohamad\AppData\Local\Temp\ccSvAY8z.s:83     .text.usart_stop:00000000 usart_stop
C:\Users\Mohamad\AppData\Local\Temp\ccSvAY8z.s:151    .text.serve_usart_irq:00000000 $t
C:\Users\Mohamad\AppData\Local\Temp\ccSvAY8z.s:156    .text.serve_usart_irq:00000000 serve_usart_irq
C:\Users\Mohamad\AppData\Local\Temp\ccSvAY8z.s:277    .text.uart_lld_serve_tx_end_irq:00000000 $t
C:\Users\Mohamad\AppData\Local\Temp\ccSvAY8z.s:282    .text.uart_lld_serve_tx_end_irq:00000000 uart_lld_serve_tx_end_irq
C:\Users\Mohamad\AppData\Local\Temp\ccSvAY8z.s:356    .text.uart_lld_serve_rx_end_irq:00000000 $t
C:\Users\Mohamad\AppData\Local\Temp\ccSvAY8z.s:361    .text.uart_lld_serve_rx_end_irq:00000000 uart_lld_serve_rx_end_irq
C:\Users\Mohamad\AppData\Local\Temp\ccSvAY8z.s:472    .text.VectorD4:00000000 $t
C:\Users\Mohamad\AppData\Local\Temp\ccSvAY8z.s:478    .text.VectorD4:00000000 VectorD4
C:\Users\Mohamad\AppData\Local\Temp\ccSvAY8z.s:1371   .bss.UARTD1:00000000 .LANCHOR0
C:\Users\Mohamad\AppData\Local\Temp\ccSvAY8z.s:503    .text.VectorD8:00000000 $t
C:\Users\Mohamad\AppData\Local\Temp\ccSvAY8z.s:509    .text.VectorD8:00000000 VectorD8
C:\Users\Mohamad\AppData\Local\Temp\ccSvAY8z.s:1378   .bss.UARTD2:00000000 .LANCHOR1
C:\Users\Mohamad\AppData\Local\Temp\ccSvAY8z.s:534    .text.VectorDC:00000000 $t
C:\Users\Mohamad\AppData\Local\Temp\ccSvAY8z.s:540    .text.VectorDC:00000000 VectorDC
C:\Users\Mohamad\AppData\Local\Temp\ccSvAY8z.s:1385   .bss.UARTD3:00000000 .LANCHOR2
C:\Users\Mohamad\AppData\Local\Temp\ccSvAY8z.s:565    .text.Vector15C:00000000 $t
C:\Users\Mohamad\AppData\Local\Temp\ccSvAY8z.s:571    .text.Vector15C:00000000 Vector15C
C:\Users\Mohamad\AppData\Local\Temp\ccSvAY8z.s:1392   .bss.UARTD6:00000000 .LANCHOR3
C:\Users\Mohamad\AppData\Local\Temp\ccSvAY8z.s:596    .text.uart_lld_init:00000000 $t
C:\Users\Mohamad\AppData\Local\Temp\ccSvAY8z.s:602    .text.uart_lld_init:00000000 uart_lld_init
C:\Users\Mohamad\AppData\Local\Temp\ccSvAY8z.s:717    .text.uart_lld_init:000000a4 $d
C:\Users\Mohamad\AppData\Local\Temp\ccSvAY8z.s:722    .text.uart_lld_start:00000000 $t
C:\Users\Mohamad\AppData\Local\Temp\ccSvAY8z.s:728    .text.uart_lld_start:00000000 uart_lld_start
C:\Users\Mohamad\AppData\Local\Temp\ccSvAY8z.s:1044   .text.uart_lld_start:000001a8 $d
C:\Users\Mohamad\AppData\Local\Temp\ccSvAY8z.s:1055   .text.uart_lld_stop:00000000 $t
C:\Users\Mohamad\AppData\Local\Temp\ccSvAY8z.s:1061   .text.uart_lld_stop:00000000 uart_lld_stop
C:\Users\Mohamad\AppData\Local\Temp\ccSvAY8z.s:1167   .text.uart_lld_stop:00000094 $d
C:\Users\Mohamad\AppData\Local\Temp\ccSvAY8z.s:1175   .text.uart_lld_start_send:00000000 $t
C:\Users\Mohamad\AppData\Local\Temp\ccSvAY8z.s:1181   .text.uart_lld_start_send:00000000 uart_lld_start_send
C:\Users\Mohamad\AppData\Local\Temp\ccSvAY8z.s:1215   .text.uart_lld_stop_send:00000000 $t
C:\Users\Mohamad\AppData\Local\Temp\ccSvAY8z.s:1221   .text.uart_lld_stop_send:00000000 uart_lld_stop_send
C:\Users\Mohamad\AppData\Local\Temp\ccSvAY8z.s:1255   .text.uart_lld_start_receive:00000000 $t
C:\Users\Mohamad\AppData\Local\Temp\ccSvAY8z.s:1261   .text.uart_lld_start_receive:00000000 uart_lld_start_receive
C:\Users\Mohamad\AppData\Local\Temp\ccSvAY8z.s:1316   .text.uart_lld_stop_receive:00000000 $t
C:\Users\Mohamad\AppData\Local\Temp\ccSvAY8z.s:1322   .text.uart_lld_stop_receive:00000000 uart_lld_stop_receive
C:\Users\Mohamad\AppData\Local\Temp\ccSvAY8z.s:1395   .bss.UARTD6:00000000 UARTD6
C:\Users\Mohamad\AppData\Local\Temp\ccSvAY8z.s:1388   .bss.UARTD3:00000000 UARTD3
C:\Users\Mohamad\AppData\Local\Temp\ccSvAY8z.s:1381   .bss.UARTD2:00000000 UARTD2
C:\Users\Mohamad\AppData\Local\Temp\ccSvAY8z.s:1374   .bss.UARTD1:00000000 UARTD1
C:\Users\Mohamad\AppData\Local\Temp\ccSvAY8z.s:1370   .bss.UARTD1:00000000 $d
C:\Users\Mohamad\AppData\Local\Temp\ccSvAY8z.s:1377   .bss.UARTD2:00000000 $d
C:\Users\Mohamad\AppData\Local\Temp\ccSvAY8z.s:1384   .bss.UARTD3:00000000 $d
C:\Users\Mohamad\AppData\Local\Temp\ccSvAY8z.s:1391   .bss.UARTD6:00000000 $d
                     .debug_frame:00000010 $d
C:\Users\Mohamad\AppData\Local\Temp\ccSvAY8z.s:721    .text.uart_lld_init:000000a8 $t
C:\Users\Mohamad\AppData\Local\Temp\ccSvAY8z.s:1174   .text.uart_lld_stop:000000a4 $t

UNDEFINED SYMBOLS
port_halt
_port_irq_epilogue
uartObjectInit
ARM GAS  C:\Users\Mohamad\AppData\Local\Temp\ccSvAY8z.s 			page 101


_stm32_dma_streams
dmaStreamAllocate
nvicEnableVector
dmaStreamRelease
nvicDisableVector
