ARM GAS  C:\Users\Mohamad\AppData\Local\Temp\cceoe6gg.s 			page 1


   1              		.syntax unified
   2              		.cpu cortex-m4
   3              		.fpu softvfp
   4              		.eabi_attribute 20, 1
   5              		.eabi_attribute 21, 1
   6              		.eabi_attribute 23, 3
   7              		.eabi_attribute 24, 1
   8              		.eabi_attribute 25, 1
   9              		.eabi_attribute 26, 1
  10              		.eabi_attribute 30, 2
  11              		.eabi_attribute 34, 1
  12              		.eabi_attribute 18, 4
  13              		.thumb
  14              		.file	"uart.c"
  15              		.text
  16              	.Ltext0:
  17              		.cfi_sections	.debug_frame
  18              		.section	.text.uartInit,"ax",%progbits
  19              		.align	2
  20              		.p2align 4,,15
  21              		.global	uartInit
  22              		.thumb
  23              		.thumb_func
  24              		.type	uartInit, %function
  25              	uartInit:
  26              	.LFB118:
  27              		.file 1 "../../chibios/os/hal/src/uart.c"
  28              		.loc 1 68 0
  29              		.cfi_startproc
  30              		@ args = 0, pretend = 0, frame = 0
  31              		@ frame_needed = 0, uses_anonymous_args = 0
  32              		@ link register save eliminated.
  33              		.loc 1 71 0
  34              		.loc 1 70 0
  35 0000 FFF7FEBF 		b	uart_lld_init
  36              	.LVL0:
  37              		.cfi_endproc
  38              	.LFE118:
  39              		.size	uartInit, .-uartInit
  40 0004 AFF30080 		.section	.text.uartObjectInit,"ax",%progbits
  40      AFF30080 
  40      AFF30080 
  41              		.align	2
  42              		.p2align 4,,15
  43              		.global	uartObjectInit
  44              		.thumb
  45              		.thumb_func
  46              		.type	uartObjectInit, %function
  47              	uartObjectInit:
  48              	.LFB119:
  49              		.loc 1 80 0
  50              		.cfi_startproc
  51              		@ args = 0, pretend = 0, frame = 0
  52              		@ frame_needed = 0, uses_anonymous_args = 0
  53              		@ link register save eliminated.
  54              	.LVL1:
  55              		.loc 1 83 0
ARM GAS  C:\Users\Mohamad\AppData\Local\Temp\cceoe6gg.s 			page 2


  56 0000 0023     		movs	r3, #0
  57              		.loc 1 82 0
  58 0002 0122     		movs	r2, #1
  59 0004 0270     		strb	r2, [r0, #0]
  60              		.loc 1 83 0
  61 0006 4370     		strb	r3, [r0, #1]
  62              		.loc 1 84 0
  63 0008 8370     		strb	r3, [r0, #2]
  64              		.loc 1 85 0
  65 000a 4360     		str	r3, [r0, #4]
  66 000c 7047     		bx	lr
  67              		.cfi_endproc
  68              	.LFE119:
  69              		.size	uartObjectInit, .-uartObjectInit
  70 000e 00BF     		.section	.text.uartStart,"ax",%progbits
  71              		.align	2
  72              		.p2align 4,,15
  73              		.global	uartStart
  74              		.thumb
  75              		.thumb_func
  76              		.type	uartStart, %function
  77              	uartStart:
  78              	.LFB120:
  79              		.loc 1 100 0
  80              		.cfi_startproc
  81              		@ args = 0, pretend = 0, frame = 0
  82              		@ frame_needed = 0, uses_anonymous_args = 0
  83              	.LVL2:
  84 0000 10B5     		push	{r4, lr}
  85              	.LCFI0:
  86              		.cfi_def_cfa_offset 8
  87              		.cfi_offset 4, -8
  88              		.cfi_offset 14, -4
  89              	.LBB2:
  90              		.loc 1 104 0
  91 0002 2023     		movs	r3, #32
  92              	.LVL3:
  93              	.LBE2:
  94              		.loc 1 100 0
  95 0004 0446     		mov	r4, r0
  96              	.LBB3:
  97              		.loc 1 104 0
  98              	@ 104 "../../chibios/os/hal/src/uart.c" 1
  99 0006 83F31188 		msr     BASEPRI, r3
 100              	@ 0 "" 2
 101              	.LVL4:
 102              		.thumb
 103              	.LBE3:
 104              		.loc 1 108 0
 105 000a 4160     		str	r1, [r0, #4]
 106              		.loc 1 109 0
 107 000c FFF7FEFF 		bl	uart_lld_start
 108              	.LVL5:
 109              		.loc 1 110 0
 110 0010 0223     		movs	r3, #2
 111 0012 2370     		strb	r3, [r4, #0]
 112              	.LBB4:
ARM GAS  C:\Users\Mohamad\AppData\Local\Temp\cceoe6gg.s 			page 3


 113              		.loc 1 111 0
 114 0014 0023     		movs	r3, #0
 115              	.LVL6:
 116              	@ 111 "../../chibios/os/hal/src/uart.c" 1
 117 0016 83F31188 		msr     BASEPRI, r3
 118              	@ 0 "" 2
 119              	.LVL7:
 120              		.thumb
 121 001a 10BD     		pop	{r4, pc}
 122              	.LBE4:
 123              		.cfi_endproc
 124              	.LFE120:
 125              		.size	uartStart, .-uartStart
 126 001c AFF30080 		.section	.text.uartStop,"ax",%progbits
 127              		.align	2
 128              		.p2align 4,,15
 129              		.global	uartStop
 130              		.thumb
 131              		.thumb_func
 132              		.type	uartStop, %function
 133              	uartStop:
 134              	.LFB121:
 135              		.loc 1 121 0
 136              		.cfi_startproc
 137              		@ args = 0, pretend = 0, frame = 0
 138              		@ frame_needed = 0, uses_anonymous_args = 0
 139              	.LVL8:
 140 0000 10B5     		push	{r4, lr}
 141              	.LCFI1:
 142              		.cfi_def_cfa_offset 8
 143              		.cfi_offset 4, -8
 144              		.cfi_offset 14, -4
 145              	.LBB5:
 146              		.loc 1 125 0
 147 0002 2023     		movs	r3, #32
 148              	.LVL9:
 149              	.LBE5:
 150              		.loc 1 121 0
 151 0004 0446     		mov	r4, r0
 152              	.LBB6:
 153              		.loc 1 125 0
 154              	@ 125 "../../chibios/os/hal/src/uart.c" 1
 155 0006 83F31188 		msr     BASEPRI, r3
 156              	@ 0 "" 2
 157              	.LVL10:
 158              		.thumb
 159              	.LBE6:
 160              		.loc 1 129 0
 161 000a FFF7FEFF 		bl	uart_lld_stop
 162              	.LVL11:
 163              		.loc 1 131 0
 164 000e 0023     		movs	r3, #0
 165              		.loc 1 130 0
 166 0010 0122     		movs	r2, #1
 167 0012 2270     		strb	r2, [r4, #0]
 168              		.loc 1 131 0
 169 0014 6370     		strb	r3, [r4, #1]
ARM GAS  C:\Users\Mohamad\AppData\Local\Temp\cceoe6gg.s 			page 4


 170              		.loc 1 132 0
 171 0016 A370     		strb	r3, [r4, #2]
 172              	.LBB7:
 173              		.loc 1 133 0
 174              	@ 133 "../../chibios/os/hal/src/uart.c" 1
 175 0018 83F31188 		msr     BASEPRI, r3
 176              	@ 0 "" 2
 177              	.LVL12:
 178              		.thumb
 179 001c 10BD     		pop	{r4, pc}
 180              	.LBE7:
 181              		.cfi_endproc
 182              	.LFE121:
 183              		.size	uartStop, .-uartStop
 184 001e 00BF     		.section	.text.uartStartSend,"ax",%progbits
 185              		.align	2
 186              		.p2align 4,,15
 187              		.global	uartStartSend
 188              		.thumb
 189              		.thumb_func
 190              		.type	uartStartSend, %function
 191              	uartStartSend:
 192              	.LFB122:
 193              		.loc 1 147 0
 194              		.cfi_startproc
 195              		@ args = 0, pretend = 0, frame = 0
 196              		@ frame_needed = 0, uses_anonymous_args = 0
 197              	.LVL13:
 198 0000 10B5     		push	{r4, lr}
 199              	.LCFI2:
 200              		.cfi_def_cfa_offset 8
 201              		.cfi_offset 4, -8
 202              		.cfi_offset 14, -4
 203              	.LBB8:
 204              		.loc 1 152 0
 205 0002 2023     		movs	r3, #32
 206              	.LVL14:
 207              	.LBE8:
 208              		.loc 1 147 0
 209 0004 0446     		mov	r4, r0
 210              	.LBB9:
 211              		.loc 1 152 0
 212              	@ 152 "../../chibios/os/hal/src/uart.c" 1
 213 0006 83F31188 		msr     BASEPRI, r3
 214              	@ 0 "" 2
 215              	.LVL15:
 216              		.thumb
 217              	.LBE9:
 218              		.loc 1 158 0
 219 000a FFF7FEFF 		bl	uart_lld_start_send
 220              	.LVL16:
 221              		.loc 1 159 0
 222 000e 0123     		movs	r3, #1
 223 0010 6370     		strb	r3, [r4, #1]
 224              	.LBB10:
 225              		.loc 1 160 0
 226 0012 0023     		movs	r3, #0
ARM GAS  C:\Users\Mohamad\AppData\Local\Temp\cceoe6gg.s 			page 5


 227              	.LVL17:
 228              	@ 160 "../../chibios/os/hal/src/uart.c" 1
 229 0014 83F31188 		msr     BASEPRI, r3
 230              	@ 0 "" 2
 231              	.LVL18:
 232              		.thumb
 233 0018 10BD     		pop	{r4, pc}
 234              	.LBE10:
 235              		.cfi_endproc
 236              	.LFE122:
 237              		.size	uartStartSend, .-uartStartSend
 238 001a 00BFAFF3 		.section	.text.uartStartSendI,"ax",%progbits
 238      0080
 239              		.align	2
 240              		.p2align 4,,15
 241              		.global	uartStartSendI
 242              		.thumb
 243              		.thumb_func
 244              		.type	uartStartSendI, %function
 245              	uartStartSendI:
 246              	.LFB123:
 247              		.loc 1 175 0
 248              		.cfi_startproc
 249              		@ args = 0, pretend = 0, frame = 0
 250              		@ frame_needed = 0, uses_anonymous_args = 0
 251              	.LVL19:
 252 0000 10B5     		push	{r4, lr}
 253              	.LCFI3:
 254              		.cfi_def_cfa_offset 8
 255              		.cfi_offset 4, -8
 256              		.cfi_offset 14, -4
 257              		.loc 1 175 0
 258 0002 0446     		mov	r4, r0
 259              		.loc 1 185 0
 260 0004 FFF7FEFF 		bl	uart_lld_start_send
 261              	.LVL20:
 262              		.loc 1 186 0
 263 0008 0123     		movs	r3, #1
 264 000a 6370     		strb	r3, [r4, #1]
 265 000c 10BD     		pop	{r4, pc}
 266              		.cfi_endproc
 267              	.LFE123:
 268              		.size	uartStartSendI, .-uartStartSendI
 269 000e 00BF     		.section	.text.uartStopSend,"ax",%progbits
 270              		.align	2
 271              		.p2align 4,,15
 272              		.global	uartStopSend
 273              		.thumb
 274              		.thumb_func
 275              		.type	uartStopSend, %function
 276              	uartStopSend:
 277              	.LFB124:
 278              		.loc 1 201 0
 279              		.cfi_startproc
 280              		@ args = 0, pretend = 0, frame = 0
 281              		@ frame_needed = 0, uses_anonymous_args = 0
 282              	.LVL21:
ARM GAS  C:\Users\Mohamad\AppData\Local\Temp\cceoe6gg.s 			page 6


 283 0000 10B5     		push	{r4, lr}
 284              	.LCFI4:
 285              		.cfi_def_cfa_offset 8
 286              		.cfi_offset 4, -8
 287              		.cfi_offset 14, -4
 288              	.LBB11:
 289              		.loc 1 206 0
 290 0002 2023     		movs	r3, #32
 291              	.LVL22:
 292              	.LBE11:
 293              		.loc 1 201 0
 294 0004 0446     		mov	r4, r0
 295              	.LBB12:
 296              		.loc 1 206 0
 297              	@ 206 "../../chibios/os/hal/src/uart.c" 1
 298 0006 83F31188 		msr     BASEPRI, r3
 299              	@ 0 "" 2
 300              	.LVL23:
 301              		.thumb
 302              	.LBE12:
 303              		.loc 1 209 0
 304 000a 4378     		ldrb	r3, [r0, #1]	@ zero_extendqisi2
 305              	.LVL24:
 306 000c 012B     		cmp	r3, #1
 307 000e 04D0     		beq	.L11
 308              		.loc 1 214 0
 309 0010 0020     		movs	r0, #0
 310              	.LVL25:
 311              	.L8:
 312              	.LBB13:
 313              		.loc 1 215 0
 314 0012 0023     		movs	r3, #0
 315              	.LVL26:
 316              	@ 215 "../../chibios/os/hal/src/uart.c" 1
 317 0014 83F31188 		msr     BASEPRI, r3
 318              	@ 0 "" 2
 319              	.LVL27:
 320              		.thumb
 321              	.LBE13:
 322              		.loc 1 217 0
 323 0018 10BD     		pop	{r4, pc}
 324              	.LVL28:
 325              	.L11:
 326              		.loc 1 210 0
 327 001a FFF7FEFF 		bl	uart_lld_stop_send
 328              	.LVL29:
 329              		.loc 1 211 0
 330 001e 0021     		movs	r1, #0
 331 0020 6170     		strb	r1, [r4, #1]
 332 0022 F6E7     		b	.L8
 333              		.cfi_endproc
 334              	.LFE124:
 335              		.size	uartStopSend, .-uartStopSend
 336 0024 AFF30080 		.section	.text.uartStopSendI,"ax",%progbits
 336      AFF30080 
 336      AFF30080 
 337              		.align	2
ARM GAS  C:\Users\Mohamad\AppData\Local\Temp\cceoe6gg.s 			page 7


 338              		.p2align 4,,15
 339              		.global	uartStopSendI
 340              		.thumb
 341              		.thumb_func
 342              		.type	uartStopSendI, %function
 343              	uartStopSendI:
 344              	.LFB125:
 345              		.loc 1 232 0
 346              		.cfi_startproc
 347              		@ args = 0, pretend = 0, frame = 0
 348              		@ frame_needed = 0, uses_anonymous_args = 0
 349              	.LVL30:
 350              		.loc 1 238 0
 351 0000 4378     		ldrb	r3, [r0, #1]	@ zero_extendqisi2
 352 0002 012B     		cmp	r3, #1
 353              		.loc 1 232 0
 354 0004 10B5     		push	{r4, lr}
 355              	.LCFI5:
 356              		.cfi_def_cfa_offset 8
 357              		.cfi_offset 4, -8
 358              		.cfi_offset 14, -4
 359              		.loc 1 232 0
 360 0006 0446     		mov	r4, r0
 361              		.loc 1 238 0
 362 0008 01D0     		beq	.L15
 363              		.loc 1 243 0
 364 000a 0020     		movs	r0, #0
 365              	.LVL31:
 366              		.loc 1 244 0
 367 000c 10BD     		pop	{r4, pc}
 368              	.LVL32:
 369              	.L15:
 370              	.LBB14:
 371              		.loc 1 239 0
 372 000e FFF7FEFF 		bl	uart_lld_stop_send
 373              	.LVL33:
 374              		.loc 1 240 0
 375 0012 0021     		movs	r1, #0
 376 0014 6170     		strb	r1, [r4, #1]
 377              		.loc 1 241 0
 378 0016 10BD     		pop	{r4, pc}
 379              	.LBE14:
 380              		.cfi_endproc
 381              	.LFE125:
 382              		.size	uartStopSendI, .-uartStopSendI
 383 0018 AFF30080 		.section	.text.uartStartReceive,"ax",%progbits
 383      AFF30080 
 384              		.align	2
 385              		.p2align 4,,15
 386              		.global	uartStartReceive
 387              		.thumb
 388              		.thumb_func
 389              		.type	uartStartReceive, %function
 390              	uartStartReceive:
 391              	.LFB126:
 392              		.loc 1 257 0
 393              		.cfi_startproc
ARM GAS  C:\Users\Mohamad\AppData\Local\Temp\cceoe6gg.s 			page 8


 394              		@ args = 0, pretend = 0, frame = 0
 395              		@ frame_needed = 0, uses_anonymous_args = 0
 396              	.LVL34:
 397 0000 10B5     		push	{r4, lr}
 398              	.LCFI6:
 399              		.cfi_def_cfa_offset 8
 400              		.cfi_offset 4, -8
 401              		.cfi_offset 14, -4
 402              	.LBB15:
 403              		.loc 1 262 0
 404 0002 2023     		movs	r3, #32
 405              	.LVL35:
 406              	.LBE15:
 407              		.loc 1 257 0
 408 0004 0446     		mov	r4, r0
 409              	.LBB16:
 410              		.loc 1 262 0
 411              	@ 262 "../../chibios/os/hal/src/uart.c" 1
 412 0006 83F31188 		msr     BASEPRI, r3
 413              	@ 0 "" 2
 414              	.LVL36:
 415              		.thumb
 416              	.LBE16:
 417              		.loc 1 268 0
 418 000a FFF7FEFF 		bl	uart_lld_start_receive
 419              	.LVL37:
 420              		.loc 1 269 0
 421 000e 0123     		movs	r3, #1
 422 0010 A370     		strb	r3, [r4, #2]
 423              	.LBB17:
 424              		.loc 1 270 0
 425 0012 0023     		movs	r3, #0
 426              	.LVL38:
 427              	@ 270 "../../chibios/os/hal/src/uart.c" 1
 428 0014 83F31188 		msr     BASEPRI, r3
 429              	@ 0 "" 2
 430              	.LVL39:
 431              		.thumb
 432 0018 10BD     		pop	{r4, pc}
 433              	.LBE17:
 434              		.cfi_endproc
 435              	.LFE126:
 436              		.size	uartStartReceive, .-uartStartReceive
 437 001a 00BFAFF3 		.section	.text.uartStartReceiveI,"ax",%progbits
 437      0080
 438              		.align	2
 439              		.p2align 4,,15
 440              		.global	uartStartReceiveI
 441              		.thumb
 442              		.thumb_func
 443              		.type	uartStartReceiveI, %function
 444              	uartStartReceiveI:
 445              	.LFB127:
 446              		.loc 1 285 0
 447              		.cfi_startproc
 448              		@ args = 0, pretend = 0, frame = 0
 449              		@ frame_needed = 0, uses_anonymous_args = 0
ARM GAS  C:\Users\Mohamad\AppData\Local\Temp\cceoe6gg.s 			page 9


 450              	.LVL40:
 451 0000 10B5     		push	{r4, lr}
 452              	.LCFI7:
 453              		.cfi_def_cfa_offset 8
 454              		.cfi_offset 4, -8
 455              		.cfi_offset 14, -4
 456              		.loc 1 285 0
 457 0002 0446     		mov	r4, r0
 458              		.loc 1 295 0
 459 0004 FFF7FEFF 		bl	uart_lld_start_receive
 460              	.LVL41:
 461              		.loc 1 296 0
 462 0008 0123     		movs	r3, #1
 463 000a A370     		strb	r3, [r4, #2]
 464 000c 10BD     		pop	{r4, pc}
 465              		.cfi_endproc
 466              	.LFE127:
 467              		.size	uartStartReceiveI, .-uartStartReceiveI
 468 000e 00BF     		.section	.text.uartStopReceive,"ax",%progbits
 469              		.align	2
 470              		.p2align 4,,15
 471              		.global	uartStopReceive
 472              		.thumb
 473              		.thumb_func
 474              		.type	uartStopReceive, %function
 475              	uartStopReceive:
 476              	.LFB128:
 477              		.loc 1 311 0
 478              		.cfi_startproc
 479              		@ args = 0, pretend = 0, frame = 0
 480              		@ frame_needed = 0, uses_anonymous_args = 0
 481              	.LVL42:
 482 0000 10B5     		push	{r4, lr}
 483              	.LCFI8:
 484              		.cfi_def_cfa_offset 8
 485              		.cfi_offset 4, -8
 486              		.cfi_offset 14, -4
 487              	.LBB18:
 488              		.loc 1 316 0
 489 0002 2023     		movs	r3, #32
 490              	.LVL43:
 491              	.LBE18:
 492              		.loc 1 311 0
 493 0004 0446     		mov	r4, r0
 494              	.LBB19:
 495              		.loc 1 316 0
 496              	@ 316 "../../chibios/os/hal/src/uart.c" 1
 497 0006 83F31188 		msr     BASEPRI, r3
 498              	@ 0 "" 2
 499              	.LVL44:
 500              		.thumb
 501              	.LBE19:
 502              		.loc 1 320 0
 503 000a 8378     		ldrb	r3, [r0, #2]	@ zero_extendqisi2
 504              	.LVL45:
 505 000c 012B     		cmp	r3, #1
 506 000e 04D0     		beq	.L21
ARM GAS  C:\Users\Mohamad\AppData\Local\Temp\cceoe6gg.s 			page 10


 507              		.loc 1 325 0
 508 0010 0020     		movs	r0, #0
 509              	.LVL46:
 510              	.L19:
 511              	.LBB20:
 512              		.loc 1 326 0
 513 0012 0023     		movs	r3, #0
 514              	.LVL47:
 515              	@ 326 "../../chibios/os/hal/src/uart.c" 1
 516 0014 83F31188 		msr     BASEPRI, r3
 517              	@ 0 "" 2
 518              	.LVL48:
 519              		.thumb
 520              	.LBE20:
 521              		.loc 1 328 0
 522 0018 10BD     		pop	{r4, pc}
 523              	.LVL49:
 524              	.L21:
 525              		.loc 1 321 0
 526 001a FFF7FEFF 		bl	uart_lld_stop_receive
 527              	.LVL50:
 528              		.loc 1 322 0
 529 001e 0021     		movs	r1, #0
 530 0020 A170     		strb	r1, [r4, #2]
 531 0022 F6E7     		b	.L19
 532              		.cfi_endproc
 533              	.LFE128:
 534              		.size	uartStopReceive, .-uartStopReceive
 535 0024 AFF30080 		.section	.text.uartStopReceiveI,"ax",%progbits
 535      AFF30080 
 535      AFF30080 
 536              		.align	2
 537              		.p2align 4,,15
 538              		.global	uartStopReceiveI
 539              		.thumb
 540              		.thumb_func
 541              		.type	uartStopReceiveI, %function
 542              	uartStopReceiveI:
 543              	.LFB129:
 544              		.loc 1 343 0
 545              		.cfi_startproc
 546              		@ args = 0, pretend = 0, frame = 0
 547              		@ frame_needed = 0, uses_anonymous_args = 0
 548              	.LVL51:
 549              		.loc 1 350 0
 550 0000 8378     		ldrb	r3, [r0, #2]	@ zero_extendqisi2
 551 0002 012B     		cmp	r3, #1
 552              		.loc 1 343 0
 553 0004 10B5     		push	{r4, lr}
 554              	.LCFI9:
 555              		.cfi_def_cfa_offset 8
 556              		.cfi_offset 4, -8
 557              		.cfi_offset 14, -4
 558              		.loc 1 343 0
 559 0006 0446     		mov	r4, r0
 560              		.loc 1 350 0
 561 0008 01D0     		beq	.L25
ARM GAS  C:\Users\Mohamad\AppData\Local\Temp\cceoe6gg.s 			page 11


 562              		.loc 1 355 0
 563 000a 0020     		movs	r0, #0
 564              	.LVL52:
 565              		.loc 1 356 0
 566 000c 10BD     		pop	{r4, pc}
 567              	.LVL53:
 568              	.L25:
 569              	.LBB21:
 570              		.loc 1 351 0
 571 000e FFF7FEFF 		bl	uart_lld_stop_receive
 572              	.LVL54:
 573              		.loc 1 352 0
 574 0012 0021     		movs	r1, #0
 575 0014 A170     		strb	r1, [r4, #2]
 576              		.loc 1 353 0
 577 0016 10BD     		pop	{r4, pc}
 578              	.LBE21:
 579              		.cfi_endproc
 580              	.LFE129:
 581              		.size	uartStopReceiveI, .-uartStopReceiveI
 582 0018 AFF30080 		.text
 582      AFF30080 
 583              	.Letext0:
 584              		.file 2 "c:\\chibistudio\\tools\\gnu tools arm embedded\\4.7 2014q2\\bin\\../lib/gcc/arm-none-eabi
 585              		.file 3 "c:\\chibistudio\\tools\\gnu tools arm embedded\\4.7 2014q2\\bin\\../lib/gcc/arm-none-eabi
 586              		.file 4 "../../chibios/os/hal/platforms/STM32F4xx/stm32f4xx.h"
 587              		.file 5 "../../chibios/os/hal/platforms/STM32F4xx/stm32_dma.h"
 588              		.file 6 "../../chibios/os/hal/include/uart.h"
 589              		.file 7 "../../chibios/os/hal/platforms/STM32/USARTv1/uart_lld.h"
 590              		.file 8 "../../chibios/os/ports/common/ARMCMx/CMSIS/include/core_cm4.h"