ARM GAS  C:\Users\Mohamad\AppData\Local\Temp\ccSvAY8z.s 			page 1


   1              		.syntax unified
   2              		.cpu cortex-m4
   3              		.fpu softvfp
   4              		.eabi_attribute 20, 1
   5              		.eabi_attribute 21, 1
   6              		.eabi_attribute 23, 3
   7              		.eabi_attribute 24, 1
   8              		.eabi_attribute 25, 1
   9              		.eabi_attribute 26, 1
  10              		.eabi_attribute 30, 2
  11              		.eabi_attribute 34, 1
  12              		.eabi_attribute 18, 4
  13              		.thumb
  14              		.file	"uart_lld.c"
  15              		.text
  16              	.Ltext0:
  17              		.cfi_sections	.debug_frame
  18              		.section	.text.set_rx_idle_loop,"ax",%progbits
  19              		.align	2
  20              		.p2align 4,,15
  21              		.thumb
  22              		.thumb_func
  23              		.type	set_rx_idle_loop, %function
  24              	set_rx_idle_loop:
  25              	.LFB119:
  26              		.file 1 "../../chibios/os/hal/platforms/STM32/USARTv1/uart_lld.c"
  27              		.loc 1 160 0
  28              		.cfi_startproc
  29              		@ args = 0, pretend = 0, frame = 0
  30              		@ frame_needed = 0, uses_anonymous_args = 0
  31              		@ link register save eliminated.
  32              	.LVL0:
  33              		.loc 1 165 0
  34 0000 4368     		ldr	r3, [r0, #4]
  35              		.loc 1 160 0
  36 0002 10B4     		push	{r4}
  37              	.LCFI0:
  38              		.cfi_def_cfa_offset 4
  39              		.cfi_offset 4, -4
  40              		.loc 1 169 0
  41 0004 0469     		ldr	r4, [r0, #16]
  42              		.loc 1 165 0
  43 0006 DA68     		ldr	r2, [r3, #12]
  44              		.loc 1 169 0
  45 0008 2368     		ldr	r3, [r4, #0]
  46 000a 00F11801 		add	r1, r0, #24
  47              		.loc 1 171 0
  48 000e C068     		ldr	r0, [r0, #12]
  49              	.LVL1:
  50              		.loc 1 169 0
  51 0010 D960     		str	r1, [r3, #12]
  52              		.loc 1 166 0
  53 0012 002A     		cmp	r2, #0
  54 0014 14BF     		ite	ne
  55 0016 4FF48872 		movne	r2, #272
  56 001a 4FF48072 		moveq	r2, #256
  57              	.LVL2:
ARM GAS  C:\Users\Mohamad\AppData\Local\Temp\ccSvAY8z.s 			page 2


  58              		.loc 1 171 0
  59 001e 0243     		orrs	r2, r2, r0
  60              	.LVL3:
  61              		.loc 1 170 0
  62 0020 0121     		movs	r1, #1
  63              	.LVL4:
  64 0022 5960     		str	r1, [r3, #4]
  65              		.loc 1 171 0
  66 0024 1A60     		str	r2, [r3, #0]
  67              		.loc 1 172 0
  68 0026 1868     		ldr	r0, [r3, #0]
  69 0028 0843     		orrs	r0, r0, r1
  70 002a 1860     		str	r0, [r3, #0]
  71              		.loc 1 173 0
  72 002c 10BC     		pop	{r4}
  73 002e 7047     		bx	lr
  74              		.cfi_endproc
  75              	.LFE119:
  76              		.size	set_rx_idle_loop, .-set_rx_idle_loop
  77              		.section	.text.usart_stop,"ax",%progbits
  78              		.align	2
  79              		.p2align 4,,15
  80              		.thumb
  81              		.thumb_func
  82              		.type	usart_stop, %function
  83              	usart_stop:
  84              	.LFB120:
  85              		.loc 1 181 0
  86              		.cfi_startproc
  87              		@ args = 0, pretend = 0, frame = 0
  88              		@ frame_needed = 0, uses_anonymous_args = 0
  89              		@ link register save eliminated.
  90              	.LVL5:
  91 0000 30B4     		push	{r4, r5}
  92              	.LCFI1:
  93              		.cfi_def_cfa_offset 8
  94              		.cfi_offset 4, -8
  95              		.cfi_offset 5, -4
  96              		.loc 1 184 0
  97 0002 0469     		ldr	r4, [r0, #16]
  98 0004 2268     		ldr	r2, [r4, #0]
  99 0006 1368     		ldr	r3, [r2, #0]
 100 0008 23F01F01 		bic	r1, r3, #31
 101 000c 1160     		str	r1, [r2, #0]
 102              	.L5:
 103              		.loc 1 184 0 is_stmt 0 discriminator 1
 104 000e 1568     		ldr	r5, [r2, #0]
 105 0010 EB07     		lsls	r3, r5, #31
 106 0012 FCD4     		bmi	.L5
 107              		.loc 1 184 0 discriminator 2
 108 0014 257A     		ldrb	r5, [r4, #8]	@ zero_extendqisi2
 109              		.loc 1 185 0 is_stmt 1 discriminator 2
 110 0016 4169     		ldr	r1, [r0, #20]
 111              		.loc 1 184 0 discriminator 2
 112 0018 6368     		ldr	r3, [r4, #4]
 113              		.loc 1 185 0 discriminator 2
 114 001a 0A68     		ldr	r2, [r1, #0]
ARM GAS  C:\Users\Mohamad\AppData\Local\Temp\ccSvAY8z.s 			page 3


 115              		.loc 1 184 0 discriminator 2
 116 001c 3D24     		movs	r4, #61
 117 001e 04FA05F4 		lsl	r4, r4, r5
 118 0022 1C60     		str	r4, [r3, #0]
 119              		.loc 1 185 0 discriminator 2
 120 0024 1368     		ldr	r3, [r2, #0]
 121 0026 23F01F04 		bic	r4, r3, #31
 122 002a 1460     		str	r4, [r2, #0]
 123              	.L6:
 124              		.loc 1 185 0 is_stmt 0 discriminator 1
 125 002c 1368     		ldr	r3, [r2, #0]
 126 002e 13F00103 		ands	r3, r3, #1
 127 0032 FBD1     		bne	.L6
 128              		.loc 1 185 0 discriminator 2
 129 0034 0C7A     		ldrb	r4, [r1, #8]	@ zero_extendqisi2
 130              		.loc 1 188 0 is_stmt 1 discriminator 2
 131 0036 8268     		ldr	r2, [r0, #8]
 132              		.loc 1 185 0 discriminator 2
 133 0038 4968     		ldr	r1, [r1, #4]
 134 003a 3D20     		movs	r0, #61
 135              	.LVL6:
 136 003c 00FA04F0 		lsl	r0, r0, r4
 137 0040 0860     		str	r0, [r1, #0]
 138              		.loc 1 188 0 discriminator 2
 139 0042 9381     		strh	r3, [r2, #12]	@ movhi
 140              		.loc 1 189 0 discriminator 2
 141 0044 1382     		strh	r3, [r2, #16]	@ movhi
 142              		.loc 1 190 0 discriminator 2
 143 0046 9382     		strh	r3, [r2, #20]	@ movhi
 144              		.loc 1 191 0 discriminator 2
 145 0048 30BC     		pop	{r4, r5}
 146 004a 7047     		bx	lr
 147              		.cfi_endproc
 148              	.LFE120:
 149              		.size	usart_stop, .-usart_stop
 150 004c AFF30080 		.section	.text.serve_usart_irq,"ax",%progbits
 151              		.align	2
 152              		.p2align 4,,15
 153              		.thumb
 154              		.thumb_func
 155              		.type	serve_usart_irq, %function
 156              	serve_usart_irq:
 157              	.LFB124:
 158              		.loc 1 312 0
 159              		.cfi_startproc
 160              		@ args = 0, pretend = 0, frame = 0
 161              		@ frame_needed = 0, uses_anonymous_args = 0
 162              	.LVL7:
 163 0000 70B5     		push	{r4, r5, r6, lr}
 164              	.LCFI2:
 165              		.cfi_def_cfa_offset 16
 166              		.cfi_offset 4, -16
 167              		.cfi_offset 5, -12
 168              		.cfi_offset 6, -8
 169              		.cfi_offset 14, -4
 170              		.loc 1 314 0
 171 0002 8568     		ldr	r5, [r0, #8]
ARM GAS  C:\Users\Mohamad\AppData\Local\Temp\ccSvAY8z.s 			page 4


 172              	.LVL8:
 173              		.loc 1 316 0
 174 0004 2C88     		ldrh	r4, [r5, #0]
 175              		.loc 1 317 0
 176 0006 AA88     		ldrh	r2, [r5, #4]
 177              		.loc 1 318 0
 178 0008 40F20F13 		movw	r3, #271
 179              		.loc 1 316 0
 180 000c A4B2     		uxth	r4, r4
 181              	.LVL9:
 182              		.loc 1 318 0
 183 000e 2340     		ands	r3, r3, r4
 184              		.loc 1 312 0
 185 0010 0646     		mov	r6, r0
 186              		.loc 1 318 0
 187 0012 13B3     		cbz	r3, .L12
 188              		.loc 1 321 0
 189 0014 4068     		ldr	r0, [r0, #4]
 190              	.LVL10:
 191 0016 0369     		ldr	r3, [r0, #16]
 192              		.loc 1 320 0
 193 0018 4FF6FF62 		movw	r2, #65279
 194 001c 2A80     		strh	r2, [r5, #0]	@ movhi
 195              		.loc 1 321 0
 196 001e E3B1     		cbz	r3, .L12
 197              	.LVL11:
 198              	.LBB4:
 199              	.LBB5:
 200              		.loc 1 142 0
 201 0020 04F00801 		and	r1, r4, #8
 202 0024 88B2     		uxth	r0, r1
 203              		.loc 1 143 0
 204 0026 0028     		cmp	r0, #0
 205 0028 14BF     		ite	ne
 206 002a 1021     		movne	r1, #16
 207 002c 0021     		moveq	r1, #0
 208              	.LVL12:
 209              		.loc 1 144 0
 210 002e E207     		lsls	r2, r4, #31
 211              		.loc 1 146 0
 212 0030 04F00202 		and	r2, r4, #2
 213 0034 90B2     		uxth	r0, r2
 214              		.loc 1 145 0
 215 0036 48BF     		it	mi
 216 0038 41F00401 		orrmi	r1, r1, #4
 217              	.LVL13:
 218              		.loc 1 146 0
 219 003c 08B1     		cbz	r0, .L16
 220              		.loc 1 147 0
 221 003e 41F00801 		orr	r1, r1, #8
 222              	.LVL14:
 223              	.L16:
 224              		.loc 1 148 0
 225 0042 04F00402 		and	r2, r4, #4
 226 0046 90B2     		uxth	r0, r2
 227 0048 A0B9     		cbnz	r0, .L41
 228              	.L17:
ARM GAS  C:\Users\Mohamad\AppData\Local\Temp\ccSvAY8z.s 			page 5


 229              		.loc 1 150 0
 230 004a 04F48072 		and	r2, r4, #256
 231 004e 90B2     		uxth	r0, r2
 232 0050 08B1     		cbz	r0, .L18
 233              		.loc 1 151 0
 234 0052 41F04001 		orr	r1, r1, #64
 235              	.LVL15:
 236              	.L18:
 237              	.LBE5:
 238              	.LBE4:
 239              		.loc 1 322 0
 240 0056 3046     		mov	r0, r6
 241 0058 9847     		blx	r3
 242              	.LVL16:
 243              	.L12:
 244              		.loc 1 324 0
 245 005a 04F04004 		and	r4, r4, #64
 246              	.LVL17:
 247 005e A4B2     		uxth	r4, r4
 248 0060 3CB1     		cbz	r4, .L10
 249              		.loc 1 328 0
 250 0062 7368     		ldr	r3, [r6, #4]
 251 0064 5968     		ldr	r1, [r3, #4]
 252              		.loc 1 325 0
 253 0066 4FF6BF72 		movw	r2, #65471
 254 006a 2A80     		strh	r2, [r5, #0]	@ movhi
 255              		.loc 1 328 0
 256 006c 09B1     		cbz	r1, .L10
 257              		.loc 1 329 0
 258 006e 3046     		mov	r0, r6
 259 0070 8847     		blx	r1
 260              	.LVL18:
 261              	.L10:
 262 0072 70BD     		pop	{r4, r5, r6, pc}
 263              	.LVL19:
 264              	.L41:
 265              	.LBB7:
 266              	.LBB6:
 267              		.loc 1 149 0
 268 0074 41F02001 		orr	r1, r1, #32
 269              	.LVL20:
 270 0078 E7E7     		b	.L17
 271              	.LBE6:
 272              	.LBE7:
 273              		.cfi_endproc
 274              	.LFE124:
 275              		.size	serve_usart_irq, .-serve_usart_irq
 276 007a 00BFAFF3 		.section	.text.uart_lld_serve_tx_end_irq,"ax",%progbits
 276      0080
 277              		.align	2
 278              		.p2align 4,,15
 279              		.thumb
 280              		.thumb_func
 281              		.type	uart_lld_serve_tx_end_irq, %function
 282              	uart_lld_serve_tx_end_irq:
 283              	.LFB123:
 284              		.loc 1 283 0
ARM GAS  C:\Users\Mohamad\AppData\Local\Temp\ccSvAY8z.s 			page 6


 285              		.cfi_startproc
 286              		@ args = 0, pretend = 0, frame = 0
 287              		@ frame_needed = 0, uses_anonymous_args = 0
 288              	.LVL21:
 289              		.loc 1 287 0
 290 0000 11F00C0F 		tst	r1, #12
 291              		.loc 1 283 0
 292 0004 10B5     		push	{r4, lr}
 293              	.LCFI3:
 294              		.cfi_def_cfa_offset 8
 295              		.cfi_offset 4, -8
 296              		.cfi_offset 14, -4
 297              		.loc 1 283 0
 298 0006 0446     		mov	r4, r0
 299              		.loc 1 287 0
 300 0008 1CD1     		bne	.L55
 301              	.LVL22:
 302              	.L43:
 303              		.loc 1 294 0
 304 000a 6169     		ldr	r1, [r4, #20]
 305 000c 0A68     		ldr	r2, [r1, #0]
 306 000e 1368     		ldr	r3, [r2, #0]
 307 0010 23F01F00 		bic	r0, r3, #31
 308 0014 1060     		str	r0, [r2, #0]
 309              	.L44:
 310              		.loc 1 294 0 is_stmt 0 discriminator 1
 311 0016 1368     		ldr	r3, [r2, #0]
 312 0018 DB07     		lsls	r3, r3, #31
 313 001a FCD4     		bmi	.L44
 314              		.loc 1 298 0 is_stmt 1 discriminator 2
 315 001c 6368     		ldr	r3, [r4, #4]
 316              		.loc 1 294 0 discriminator 2
 317 001e 087A     		ldrb	r0, [r1, #8]	@ zero_extendqisi2
 318 0020 4A68     		ldr	r2, [r1, #4]
 319              		.loc 1 298 0 discriminator 2
 320 0022 1B68     		ldr	r3, [r3, #0]
 321              		.loc 1 294 0 discriminator 2
 322 0024 3D21     		movs	r1, #61
 323 0026 01FA00F1 		lsl	r1, r1, r0
 324              		.loc 1 297 0 discriminator 2
 325 002a 0220     		movs	r0, #2
 326              		.loc 1 294 0 discriminator 2
 327 002c 1160     		str	r1, [r2, #0]
 328              		.loc 1 297 0 discriminator 2
 329 002e 6070     		strb	r0, [r4, #1]
 330              		.loc 1 298 0 discriminator 2
 331 0030 2BB1     		cbz	r3, .L47
 332              		.loc 1 299 0
 333 0032 2046     		mov	r0, r4
 334 0034 9847     		blx	r3
 335              	.LVL23:
 336              		.loc 1 303 0
 337 0036 6278     		ldrb	r2, [r4, #1]	@ zero_extendqisi2
 338 0038 022A     		cmp	r2, #2
 339 003a 00D0     		beq	.L47
 340 003c 10BD     		pop	{r4, pc}
 341              	.L47:
ARM GAS  C:\Users\Mohamad\AppData\Local\Temp\ccSvAY8z.s 			page 7


 342              		.loc 1 304 0
 343 003e 0023     		movs	r3, #0
 344 0040 6370     		strb	r3, [r4, #1]
 345 0042 10BD     		pop	{r4, pc}
 346              	.LVL24:
 347              	.L55:
 348              		.loc 1 288 0
 349 0044 FFF7FEFF 		bl	port_halt
 350              	.LVL25:
 351 0048 DFE7     		b	.L43
 352              		.cfi_endproc
 353              	.LFE123:
 354              		.size	uart_lld_serve_tx_end_irq, .-uart_lld_serve_tx_end_irq
 355 004a 00BFAFF3 		.section	.text.uart_lld_serve_rx_end_irq,"ax",%progbits
 355      0080
 356              		.align	2
 357              		.p2align 4,,15
 358              		.thumb
 359              		.thumb_func
 360              		.type	uart_lld_serve_rx_end_irq, %function
 361              	uart_lld_serve_rx_end_irq:
 362              	.LFB122:
 363              		.loc 1 243 0
 364              		.cfi_startproc
 365              		@ args = 0, pretend = 0, frame = 0
 366              		@ frame_needed = 0, uses_anonymous_args = 0
 367              	.LVL26:
 368              		.loc 1 247 0
 369 0000 11F00C0F 		tst	r1, #12
 370              		.loc 1 243 0
 371 0004 10B5     		push	{r4, lr}
 372              	.LCFI4:
 373              		.cfi_def_cfa_offset 8
 374              		.cfi_offset 4, -8
 375              		.cfi_offset 14, -4
 376              		.loc 1 243 0
 377 0006 0446     		mov	r4, r0
 378              		.loc 1 247 0
 379 0008 23D1     		bne	.L72
 380              	.LVL27:
 381              	.L57:
 382              		.loc 1 254 0
 383 000a A378     		ldrb	r3, [r4, #2]	@ zero_extendqisi2
 384 000c 3BB9     		cbnz	r3, .L58
 385              		.loc 1 257 0
 386 000e 6168     		ldr	r1, [r4, #4]
 387 0010 CA68     		ldr	r2, [r1, #12]
 388 0012 EAB1     		cbz	r2, .L56
 389              		.loc 1 258 0
 390 0014 238B     		ldrh	r3, [r4, #24]
 391 0016 2046     		mov	r0, r4
 392 0018 99B2     		uxth	r1, r3
 393 001a 9047     		blx	r2
 394              	.LVL28:
 395 001c 10BD     		pop	{r4, pc}
 396              	.L58:
 397              	.LVL29:
ARM GAS  C:\Users\Mohamad\AppData\Local\Temp\ccSvAY8z.s 			page 8


 398              	.LBB10:
 399              	.LBB11:
 400              		.loc 1 263 0
 401 001e 2169     		ldr	r1, [r4, #16]
 402 0020 0A68     		ldr	r2, [r1, #0]
 403 0022 1068     		ldr	r0, [r2, #0]
 404 0024 20F01F03 		bic	r3, r0, #31
 405 0028 1360     		str	r3, [r2, #0]
 406              	.L61:
 407 002a 1068     		ldr	r0, [r2, #0]
 408 002c C307     		lsls	r3, r0, #31
 409 002e FCD4     		bmi	.L61
 410              		.loc 1 265 0
 411 0030 6368     		ldr	r3, [r4, #4]
 412              		.loc 1 263 0
 413 0032 087A     		ldrb	r0, [r1, #8]	@ zero_extendqisi2
 414 0034 4A68     		ldr	r2, [r1, #4]
 415              		.loc 1 265 0
 416 0036 9B68     		ldr	r3, [r3, #8]
 417              		.loc 1 263 0
 418 0038 3D21     		movs	r1, #61
 419 003a 01FA00F1 		lsl	r1, r1, r0
 420              		.loc 1 264 0
 421 003e 0220     		movs	r0, #2
 422              		.loc 1 263 0
 423 0040 1160     		str	r1, [r2, #0]
 424              		.loc 1 264 0
 425 0042 A070     		strb	r0, [r4, #2]
 426              		.loc 1 265 0
 427 0044 43B1     		cbz	r3, .L63
 428              		.loc 1 266 0
 429 0046 2046     		mov	r0, r4
 430 0048 9847     		blx	r3
 431              	.LVL30:
 432              		.loc 1 270 0
 433 004a A278     		ldrb	r2, [r4, #2]	@ zero_extendqisi2
 434 004c 022A     		cmp	r2, #2
 435 004e 03D0     		beq	.L63
 436              	.LVL31:
 437              	.L56:
 438 0050 10BD     		pop	{r4, pc}
 439              	.LVL32:
 440              	.L72:
 441              	.LBE11:
 442              	.LBE10:
 443              		.loc 1 248 0
 444 0052 FFF7FEFF 		bl	port_halt
 445              	.LVL33:
 446 0056 D8E7     		b	.L57
 447              	.LVL34:
 448              	.L63:
 449              	.LBB14:
 450              	.LBB12:
 451              		.loc 1 271 0
 452 0058 0023     		movs	r3, #0
 453              		.loc 1 272 0
 454 005a 2046     		mov	r0, r4
ARM GAS  C:\Users\Mohamad\AppData\Local\Temp\ccSvAY8z.s 			page 9


 455              		.loc 1 271 0
 456 005c A370     		strb	r3, [r4, #2]
 457              	.LBE12:
 458              	.LBE14:
 459              		.loc 1 275 0
 460 005e BDE81040 		pop	{r4, lr}
 461              	.LBB15:
 462              	.LBB13:
 463              		.loc 1 272 0
 464 0062 FFF7FEBF 		b	set_rx_idle_loop
 465              	.LVL35:
 466              	.LBE13:
 467              	.LBE15:
 468              		.cfi_endproc
 469              	.LFE122:
 470              		.size	uart_lld_serve_rx_end_irq, .-uart_lld_serve_rx_end_irq
 471 0066 00BFAFF3 		.section	.text.VectorD4,"ax",%progbits
 471      0080AFF3 
 471      0080
 472              		.align	2
 473              		.p2align 4,,15
 474              		.global	VectorD4
 475              		.thumb
 476              		.thumb_func
 477              		.type	VectorD4, %function
 478              	VectorD4:
 479              	.LFB125:
 480              		.loc 1 346 0
 481              		.cfi_startproc
 482              		@ args = 0, pretend = 0, frame = 0
 483              		@ frame_needed = 0, uses_anonymous_args = 0
 484 0000 08B5     		push	{r3, lr}
 485              	.LCFI5:
 486              		.cfi_def_cfa_offset 8
 487              		.cfi_offset 3, -8
 488              		.cfi_offset 14, -4
 489              		.loc 1 350 0
 490 0002 40F20000 		movw	r0, #:lower16:.LANCHOR0
 491 0006 C0F20000 		movt	r0, #:upper16:.LANCHOR0
 492 000a FFF7FEFF 		bl	serve_usart_irq
 493              	.LVL36:
 494              		.loc 1 353 0
 495 000e BDE80840 		pop	{r3, lr}
 496              		.loc 1 352 0
 497 0012 FFF7FEBF 		b	_port_irq_epilogue
 498              	.LVL37:
 499              		.cfi_endproc
 500              	.LFE125:
 501              		.size	VectorD4, .-VectorD4
 502 0016 00BFAFF3 		.section	.text.VectorD8,"ax",%progbits
 502      0080AFF3 
 502      0080
 503              		.align	2
 504              		.p2align 4,,15
 505              		.global	VectorD8
 506              		.thumb
 507              		.thumb_func
ARM GAS  C:\Users\Mohamad\AppData\Local\Temp\ccSvAY8z.s 			page 10


 508              		.type	VectorD8, %function
 509              	VectorD8:
 510              	.LFB126:
 511              		.loc 1 365 0
 512              		.cfi_startproc
 513              		@ args = 0, pretend = 0, frame = 0
 514              		@ frame_needed = 0, uses_anonymous_args = 0
 515 0000 08B5     		push	{r3, lr}
 516              	.LCFI6:
 517              		.cfi_def_cfa_offset 8
 518              		.cfi_offset 3, -8
 519              		.cfi_offset 14, -4
 520              		.loc 1 369 0
 521 0002 40F20000 		movw	r0, #:lower16:.LANCHOR1
 522 0006 C0F20000 		movt	r0, #:upper16:.LANCHOR1
 523 000a FFF7FEFF 		bl	serve_usart_irq
 524              	.LVL38:
 525              		.loc 1 372 0
 526 000e BDE80840 		pop	{r3, lr}
 527              		.loc 1 371 0
 528 0012 FFF7FEBF 		b	_port_irq_epilogue
 529              	.LVL39:
 530              		.cfi_endproc
 531              	.LFE126:
 532              		.size	VectorD8, .-VectorD8
 533 0016 00BFAFF3 		.section	.text.VectorDC,"ax",%progbits
 533      0080AFF3 
 533      0080
 534              		.align	2
 535              		.p2align 4,,15
 536              		.global	VectorDC
 537              		.thumb
 538              		.thumb_func
 539              		.type	VectorDC, %function
 540              	VectorDC:
 541              	.LFB127:
 542              		.loc 1 384 0
 543              		.cfi_startproc
 544              		@ args = 0, pretend = 0, frame = 0
 545              		@ frame_needed = 0, uses_anonymous_args = 0
 546 0000 08B5     		push	{r3, lr}
 547              	.LCFI7:
 548              		.cfi_def_cfa_offset 8
 549              		.cfi_offset 3, -8
 550              		.cfi_offset 14, -4
 551              		.loc 1 388 0
 552 0002 40F20000 		movw	r0, #:lower16:.LANCHOR2
 553 0006 C0F20000 		movt	r0, #:upper16:.LANCHOR2
 554 000a FFF7FEFF 		bl	serve_usart_irq
 555              	.LVL40:
 556              		.loc 1 391 0
 557 000e BDE80840 		pop	{r3, lr}
 558              		.loc 1 390 0
 559 0012 FFF7FEBF 		b	_port_irq_epilogue
 560              	.LVL41:
 561              		.cfi_endproc
 562              	.LFE127:
ARM GAS  C:\Users\Mohamad\AppData\Local\Temp\ccSvAY8z.s 			page 11


 563              		.size	VectorDC, .-VectorDC
 564 0016 00BFAFF3 		.section	.text.Vector15C,"ax",%progbits
 564      0080AFF3 
 564      0080
 565              		.align	2
 566              		.p2align 4,,15
 567              		.global	Vector15C
 568              		.thumb
 569              		.thumb_func
 570              		.type	Vector15C, %function
 571              	Vector15C:
 572              	.LFB128:
 573              		.loc 1 441 0
 574              		.cfi_startproc
 575              		@ args = 0, pretend = 0, frame = 0
 576              		@ frame_needed = 0, uses_anonymous_args = 0
 577 0000 08B5     		push	{r3, lr}
 578              	.LCFI8:
 579              		.cfi_def_cfa_offset 8
 580              		.cfi_offset 3, -8
 581              		.cfi_offset 14, -4
 582              		.loc 1 445 0
 583 0002 40F20000 		movw	r0, #:lower16:.LANCHOR3
 584 0006 C0F20000 		movt	r0, #:upper16:.LANCHOR3
 585 000a FFF7FEFF 		bl	serve_usart_irq
 586              	.LVL42:
 587              		.loc 1 448 0
 588 000e BDE80840 		pop	{r3, lr}
 589              		.loc 1 447 0
 590 0012 FFF7FEBF 		b	_port_irq_epilogue
 591              	.LVL43:
 592              		.cfi_endproc
 593              	.LFE128:
 594              		.size	Vector15C, .-Vector15C
 595 0016 00BFAFF3 		.section	.text.uart_lld_init,"ax",%progbits
 595      0080AFF3 
 595      0080
 596              		.align	2
 597              		.p2align 4,,15
 598              		.global	uart_lld_init
 599              		.thumb
 600              		.thumb_func
 601              		.type	uart_lld_init, %function
 602              	uart_lld_init:
 603              	.LFB129:
 604              		.loc 1 460 0
 605              		.cfi_startproc
 606              		@ args = 0, pretend = 0, frame = 0
 607              		@ frame_needed = 0, uses_anonymous_args = 0
 608 0000 2DE9F843 		push	{r3, r4, r5, r6, r7, r8, r9, lr}
 609              	.LCFI9:
 610              		.cfi_def_cfa_offset 32
 611              		.cfi_offset 3, -32
 612              		.cfi_offset 4, -28
 613              		.cfi_offset 5, -24
 614              		.cfi_offset 6, -20
 615              		.cfi_offset 7, -16
ARM GAS  C:\Users\Mohamad\AppData\Local\Temp\ccSvAY8z.s 			page 12


 616              		.cfi_offset 8, -12
 617              		.cfi_offset 9, -8
 618              		.cfi_offset 14, -4
 619              		.loc 1 463 0
 620 0004 40F20007 		movw	r7, #:lower16:.LANCHOR0
 621 0008 C0F20007 		movt	r7, #:upper16:.LANCHOR0
 622              		.loc 1 466 0
 623 000c 254C     		ldr	r4, .L78
 624              		.loc 1 463 0
 625 000e 3846     		mov	r0, r7
 626              		.loc 1 471 0
 627 0010 40F20006 		movw	r6, #:lower16:.LANCHOR1
 628              		.loc 1 463 0
 629 0014 FFF7FEFF 		bl	uartObjectInit
 630              	.LVL44:
 631              		.loc 1 471 0
 632 0018 C0F20006 		movt	r6, #:upper16:.LANCHOR1
 633              		.loc 1 464 0
 634 001c 4FF48053 		mov	r3, #4096
 635              		.loc 1 465 0
 636 0020 4FF00608 		mov	r8, #6
 637              		.loc 1 464 0
 638 0024 C4F20103 		movt	r3, 16385
 639              		.loc 1 467 0
 640 0028 04F11809 		add	r9, r4, #24
 641              		.loc 1 471 0
 642 002c 3046     		mov	r0, r6
 643              		.loc 1 479 0
 644 002e 40F20005 		movw	r5, #:lower16:.LANCHOR2
 645 0032 C0F20005 		movt	r5, #:upper16:.LANCHOR2
 646              		.loc 1 464 0
 647 0036 BB60     		str	r3, [r7, #8]
 648              		.loc 1 466 0
 649 0038 3C61     		str	r4, [r7, #16]
 650              		.loc 1 465 0
 651 003a C7F80C80 		str	r8, [r7, #12]
 652              		.loc 1 467 0
 653 003e C7F81490 		str	r9, [r7, #20]
 654              		.loc 1 471 0
 655 0042 FFF7FEFF 		bl	uartObjectInit
 656              	.LVL45:
 657              		.loc 1 472 0
 658 0046 4FF48843 		mov	r3, #17408
 659              		.loc 1 474 0
 660 004a A4F16001 		sub	r1, r4, #96
 661              		.loc 1 475 0
 662 004e A4F15402 		sub	r2, r4, #84
 663              		.loc 1 472 0
 664 0052 C4F20003 		movt	r3, 16384
 665              		.loc 1 479 0
 666 0056 2846     		mov	r0, r5
 667              		.loc 1 503 0
 668 0058 40F20007 		movw	r7, #:lower16:.LANCHOR3
 669 005c C0F20007 		movt	r7, #:upper16:.LANCHOR3
 670              		.loc 1 472 0
 671 0060 B360     		str	r3, [r6, #8]
 672              		.loc 1 474 0
ARM GAS  C:\Users\Mohamad\AppData\Local\Temp\ccSvAY8z.s 			page 13


 673 0062 3161     		str	r1, [r6, #16]
 674              		.loc 1 475 0
 675 0064 7261     		str	r2, [r6, #20]
 676              		.loc 1 473 0
 677 0066 C6F80C80 		str	r8, [r6, #12]
 678              		.loc 1 479 0
 679 006a FFF7FEFF 		bl	uartObjectInit
 680              	.LVL46:
 681              		.loc 1 480 0
 682 006e 4FF49043 		mov	r3, #18432
 683              		.loc 1 482 0
 684 0072 A4F19001 		sub	r1, r4, #144
 685              		.loc 1 483 0
 686 0076 A4F17802 		sub	r2, r4, #120
 687              		.loc 1 480 0
 688 007a C4F20003 		movt	r3, 16384
 689              		.loc 1 503 0
 690 007e 3846     		mov	r0, r7
 691              		.loc 1 480 0
 692 0080 AB60     		str	r3, [r5, #8]
 693              		.loc 1 481 0
 694 0082 C5F80C80 		str	r8, [r5, #12]
 695              		.loc 1 482 0
 696 0086 2961     		str	r1, [r5, #16]
 697              		.loc 1 483 0
 698 0088 6A61     		str	r2, [r5, #20]
 699              		.loc 1 503 0
 700 008a FFF7FEFF 		bl	uartObjectInit
 701              	.LVL47:
 702              		.loc 1 504 0
 703 008e 4FF4A050 		mov	r0, #5120
 704 0092 C4F20100 		movt	r0, 16385
 705              		.loc 1 505 0
 706 0096 243C     		subs	r4, r4, #36
 707              		.loc 1 504 0
 708 0098 B860     		str	r0, [r7, #8]
 709              		.loc 1 505 0
 710 009a 3C61     		str	r4, [r7, #16]
 711              		.loc 1 506 0
 712 009c C7F81490 		str	r9, [r7, #20]
 713 00a0 BDE8F883 		pop	{r3, r4, r5, r6, r7, r8, r9, pc}
 714              	.L79:
 715              		.align	2
 716              	.L78:
 717 00a4 9C000000 		.word	_stm32_dma_streams+156
 718              		.cfi_endproc
 719              	.LFE129:
 720              		.size	uart_lld_init, .-uart_lld_init
 721 00a8 AFF30080 		.section	.text.uart_lld_start,"ax",%progbits
 721      AFF30080 
 722              		.align	2
 723              		.p2align 4,,15
 724              		.global	uart_lld_start
 725              		.thumb
 726              		.thumb_func
 727              		.type	uart_lld_start, %function
 728              	uart_lld_start:
ARM GAS  C:\Users\Mohamad\AppData\Local\Temp\ccSvAY8z.s 			page 14


 729              	.LFB130:
 730              		.loc 1 517 0
 731              		.cfi_startproc
 732              		@ args = 0, pretend = 0, frame = 0
 733              		@ frame_needed = 0, uses_anonymous_args = 0
 734              	.LVL48:
 735 0000 F8B5     		push	{r3, r4, r5, r6, r7, lr}
 736              	.LCFI10:
 737              		.cfi_def_cfa_offset 24
 738              		.cfi_offset 3, -24
 739              		.cfi_offset 4, -20
 740              		.cfi_offset 5, -16
 741              		.cfi_offset 6, -12
 742              		.cfi_offset 7, -8
 743              		.cfi_offset 14, -4
 744              		.loc 1 519 0
 745 0002 0378     		ldrb	r3, [r0, #0]	@ zero_extendqisi2
 746 0004 012B     		cmp	r3, #1
 747              		.loc 1 517 0
 748 0006 0446     		mov	r4, r0
 749              		.loc 1 519 0
 750 0008 3BD0     		beq	.L93
 751 000a 8568     		ldr	r5, [r0, #8]
 752              	.LVL49:
 753              	.L81:
 754              		.loc 1 671 0
 755 000c 0020     		movs	r0, #0
 756 000e A070     		strb	r0, [r4, #2]
 757              		.loc 1 672 0
 758 0010 6070     		strb	r0, [r4, #1]
 759              	.LVL50:
 760              	.LBB22:
 761              	.LBB23:
 762              		.loc 1 204 0
 763 0012 2046     		mov	r0, r4
 764 0014 FFF7FEFF 		bl	usart_stop
 765              	.LVL51:
 766              		.loc 1 208 0
 767 0018 4FF48056 		mov	r6, #4096
 768 001c A268     		ldr	r2, [r4, #8]
 769 001e C4F20106 		movt	r6, 16385
 770 0022 B242     		cmp	r2, r6
 771 0024 4BD0     		beq	.L87
 772 0026 4FF4A057 		mov	r7, #5120
 773 002a C4F20107 		movt	r7, 16385
 774 002e BA42     		cmp	r2, r7
 775 0030 45D0     		beq	.L87
 776              		.loc 1 214 0
 777 0032 6368     		ldr	r3, [r4, #4]
 778 0034 4DF68060 		movw	r0, #56960
 779 0038 5969     		ldr	r1, [r3, #20]
 780 003a C0F28020 		movt	r0, 640
 781 003e B0FBF1F6 		udiv	r6, r0, r1
 782 0042 B2B2     		uxth	r2, r6
 783 0044 2A81     		strh	r2, [r5, #8]	@ movhi
 784              	.L89:
 785              		.loc 1 226 0
ARM GAS  C:\Users\Mohamad\AppData\Local\Temp\ccSvAY8z.s 			page 15


 786 0046 5F68     		ldr	r7, [r3, #4]
 787              		.loc 1 231 0
 788 0048 188B     		ldrh	r0, [r3, #24]
 789              		.loc 1 223 0
 790 004a 598B     		ldrh	r1, [r3, #26]
 791              		.loc 1 224 0
 792 004c 9A8B     		ldrh	r2, [r3, #28]
 793              		.loc 1 217 0
 794 004e 2B88     		ldrh	r3, [r5, #0]
 795              		.loc 1 218 0
 796 0050 AB88     		ldrh	r3, [r5, #4]
 797              		.loc 1 227 0
 798 0052 42F20C16 		movw	r6, #8460
 799 0056 42F24C13 		movw	r3, #8524
 800 005a 002F     		cmp	r7, #0
 801 005c 08BF     		it	eq
 802 005e 3346     		moveq	r3, r6
 803              	.LVL52:
 804              		.loc 1 231 0
 805 0060 0343     		orrs	r3, r3, r0
 806              	.LVL53:
 807              		.loc 1 223 0
 808 0062 41F04001 		orr	r1, r1, #64
 809              		.loc 1 219 0
 810 0066 0020     		movs	r0, #0
 811              		.loc 1 224 0
 812 0068 42F0C102 		orr	r2, r2, #193
 813              		.loc 1 219 0
 814 006c 2880     		strh	r0, [r5, #0]	@ movhi
 815              		.loc 1 223 0
 816 006e 89B2     		uxth	r1, r1
 817              		.loc 1 224 0
 818 0070 92B2     		uxth	r2, r2
 819              		.loc 1 234 0
 820 0072 2046     		mov	r0, r4
 821              		.loc 1 223 0
 822 0074 2982     		strh	r1, [r5, #16]	@ movhi
 823              		.loc 1 224 0
 824 0076 AA82     		strh	r2, [r5, #20]	@ movhi
 825              		.loc 1 231 0
 826 0078 AB81     		strh	r3, [r5, #12]	@ movhi
 827              	.LBE23:
 828              	.LBE22:
 829              		.loc 1 674 0
 830 007a BDE8F840 		pop	{r3, r4, r5, r6, r7, lr}
 831              	.LBB26:
 832              	.LBB24:
 833              		.loc 1 234 0
 834 007e FFF7FEBF 		b	set_rx_idle_loop
 835              	.LVL54:
 836              	.L93:
 837              	.LBE24:
 838              	.LBE26:
 839              		.loc 1 521 0
 840 0082 4948     		ldr	r0, .L101
 841              	.LVL55:
 842 0084 8442     		cmp	r4, r0
ARM GAS  C:\Users\Mohamad\AppData\Local\Temp\ccSvAY8z.s 			page 16


 843 0086 47D0     		beq	.L96
 844              		.loc 1 542 0
 845 0088 4849     		ldr	r1, .L101+4
 846 008a 8C42     		cmp	r4, r1
 847 008c 61D0     		beq	.L97
 848              		.loc 1 563 0
 849 008e 484A     		ldr	r2, .L101+8
 850 0090 9442     		cmp	r4, r2
 851 0092 74D0     		beq	.L98
 852              		.loc 1 642 0
 853 0094 474D     		ldr	r5, .L101+12
 854 0096 AC42     		cmp	r4, r5
 855 0098 21D0     		beq	.L99
 856              	.L83:
 857              		.loc 1 664 0
 858 009a 6668     		ldr	r6, [r4, #4]
 859 009c 378B     		ldrh	r7, [r6, #24]
 860 009e 07F4A053 		and	r3, r7, #5120
 861 00a2 B3F5805F 		cmp	r3, #4096
 862 00a6 15D0     		beq	.L100
 863              	.L86:
 864              		.loc 1 666 0
 865 00a8 2069     		ldr	r0, [r4, #16]
 866              		.loc 1 667 0
 867 00aa 6269     		ldr	r2, [r4, #20]
 868              		.loc 1 666 0
 869 00ac A568     		ldr	r5, [r4, #8]
 870 00ae 0668     		ldr	r6, [r0, #0]
 871              		.loc 1 667 0
 872 00b0 1768     		ldr	r7, [r2, #0]
 873              		.loc 1 666 0
 874 00b2 2B1D     		adds	r3, r5, #4
 875              		.loc 1 668 0
 876 00b4 0021     		movs	r1, #0
 877              		.loc 1 666 0
 878 00b6 B360     		str	r3, [r6, #8]
 879              		.loc 1 667 0
 880 00b8 BB60     		str	r3, [r7, #8]
 881              		.loc 1 668 0
 882 00ba 2183     		strh	r1, [r4, #24]	@ movhi
 883 00bc A6E7     		b	.L81
 884              	.LVL56:
 885              	.L87:
 886              	.LBB27:
 887              	.LBB25:
 888              		.loc 1 212 0
 889 00be 6368     		ldr	r3, [r4, #4]
 890 00c0 4FF43D47 		mov	r7, #48384
 891 00c4 5869     		ldr	r0, [r3, #20]
 892 00c6 C0F20157 		movt	r7, 1281
 893 00ca B7FBF0F1 		udiv	r1, r7, r0
 894 00ce 8EB2     		uxth	r6, r1
 895 00d0 2E81     		strh	r6, [r5, #8]	@ movhi
 896 00d2 B8E7     		b	.L89
 897              	.LVL57:
 898              	.L100:
 899              	.LBE25:
ARM GAS  C:\Users\Mohamad\AppData\Local\Temp\ccSvAY8z.s 			page 17


 900              	.LBE27:
 901              		.loc 1 665 0
 902 00d4 E168     		ldr	r1, [r4, #12]
 903 00d6 41F42055 		orr	r5, r1, #10240
 904 00da E560     		str	r5, [r4, #12]
 905 00dc E4E7     		b	.L86
 906              	.L99:
 907              	.LBB28:
 908              		.loc 1 654 0
 909 00de 4FF46056 		mov	r6, #14336
 910              		.loc 1 644 0
 911 00e2 0C21     		movs	r1, #12
 912 00e4 344A     		ldr	r2, .L101+16
 913 00e6 2069     		ldr	r0, [r4, #16]
 914 00e8 2346     		mov	r3, r4
 915              		.loc 1 654 0
 916 00ea C4F20206 		movt	r6, 16386
 917              		.loc 1 644 0
 918 00ee FFF7FEFF 		bl	dmaStreamAllocate
 919              	.LVL58:
 920              		.loc 1 649 0
 921 00f2 0C21     		movs	r1, #12
 922 00f4 314A     		ldr	r2, .L101+20
 923 00f6 6069     		ldr	r0, [r4, #20]
 924 00f8 2346     		mov	r3, r4
 925 00fa FFF7FEFF 		bl	dmaStreamAllocate
 926              	.LVL59:
 927              		.loc 1 654 0
 928 00fe 776C     		ldr	r7, [r6, #68]
 929 0100 47F02003 		orr	r3, r7, #32
 930              		.loc 1 655 0
 931 0104 4720     		movs	r0, #71
 932 0106 C021     		movs	r1, #192
 933              		.loc 1 654 0
 934 0108 7364     		str	r3, [r6, #68]
 935              		.loc 1 655 0
 936 010a FFF7FEFF 		bl	nvicEnableVector
 937              	.LVL60:
 938              		.loc 1 657 0
 939 010e E068     		ldr	r0, [r4, #12]
 940 0110 40F02061 		orr	r1, r0, #167772160
 941 0114 E160     		str	r1, [r4, #12]
 942 0116 C0E7     		b	.L83
 943              	.L96:
 944              	.LBE28:
 945              	.LBB29:
 946              		.loc 1 523 0
 947 0118 0C21     		movs	r1, #12
 948 011a 274A     		ldr	r2, .L101+16
 949 011c 2069     		ldr	r0, [r4, #16]
 950 011e 2346     		mov	r3, r4
 951 0120 FFF7FEFF 		bl	dmaStreamAllocate
 952              	.LVL61:
 953              		.loc 1 528 0
 954 0124 0C21     		movs	r1, #12
 955 0126 2346     		mov	r3, r4
 956 0128 244A     		ldr	r2, .L101+20
ARM GAS  C:\Users\Mohamad\AppData\Local\Temp\ccSvAY8z.s 			page 18


 957 012a 6069     		ldr	r0, [r4, #20]
 958 012c FFF7FEFF 		bl	dmaStreamAllocate
 959              	.LVL62:
 960              		.loc 1 533 0
 961 0130 4FF46053 		mov	r3, #14336
 962 0134 C4F20203 		movt	r3, 16386
 963              		.loc 1 534 0
 964 0138 2520     		movs	r0, #37
 965              		.loc 1 533 0
 966 013a 596C     		ldr	r1, [r3, #68]
 967 013c 41F01005 		orr	r5, r1, #16
 968 0140 5D64     		str	r5, [r3, #68]
 969              	.L95:
 970              	.LBE29:
 971              	.LBB30:
 972              		.loc 1 576 0
 973 0142 C021     		movs	r1, #192
 974 0144 FFF7FEFF 		bl	nvicEnableVector
 975              	.LVL63:
 976              		.loc 1 578 0
 977 0148 E068     		ldr	r0, [r4, #12]
 978 014a 40F00062 		orr	r2, r0, #134217728
 979 014e E260     		str	r2, [r4, #12]
 980 0150 A3E7     		b	.L83
 981              	.L97:
 982              	.LBE30:
 983              	.LBB31:
 984              		.loc 1 554 0
 985 0152 4FF46055 		mov	r5, #14336
 986              		.loc 1 544 0
 987 0156 0C21     		movs	r1, #12
 988 0158 174A     		ldr	r2, .L101+16
 989 015a 2069     		ldr	r0, [r4, #16]
 990 015c 2346     		mov	r3, r4
 991              		.loc 1 554 0
 992 015e C4F20205 		movt	r5, 16386
 993              		.loc 1 544 0
 994 0162 FFF7FEFF 		bl	dmaStreamAllocate
 995              	.LVL64:
 996              		.loc 1 549 0
 997 0166 0C21     		movs	r1, #12
 998 0168 144A     		ldr	r2, .L101+20
 999 016a 6069     		ldr	r0, [r4, #20]
 1000 016c 2346     		mov	r3, r4
 1001 016e FFF7FEFF 		bl	dmaStreamAllocate
 1002              	.LVL65:
 1003              		.loc 1 554 0
 1004 0172 2F6C     		ldr	r7, [r5, #64]
 1005              		.loc 1 555 0
 1006 0174 2620     		movs	r0, #38
 1007              		.loc 1 554 0
 1008 0176 47F40036 		orr	r6, r7, #131072
 1009              	.L94:
 1010              	.LBE31:
 1011              	.LBB32:
 1012              		.loc 1 575 0
 1013 017a 2E64     		str	r6, [r5, #64]
ARM GAS  C:\Users\Mohamad\AppData\Local\Temp\ccSvAY8z.s 			page 19


 1014 017c E1E7     		b	.L95
 1015              	.L98:
 1016 017e 4FF46055 		mov	r5, #14336
 1017              		.loc 1 565 0
 1018 0182 0C21     		movs	r1, #12
 1019 0184 0C4A     		ldr	r2, .L101+16
 1020 0186 2069     		ldr	r0, [r4, #16]
 1021 0188 2346     		mov	r3, r4
 1022              		.loc 1 575 0
 1023 018a C4F20205 		movt	r5, 16386
 1024              		.loc 1 565 0
 1025 018e FFF7FEFF 		bl	dmaStreamAllocate
 1026              	.LVL66:
 1027              		.loc 1 570 0
 1028 0192 0A4A     		ldr	r2, .L101+20
 1029 0194 6069     		ldr	r0, [r4, #20]
 1030 0196 0C21     		movs	r1, #12
 1031 0198 2346     		mov	r3, r4
 1032 019a FFF7FEFF 		bl	dmaStreamAllocate
 1033              	.LVL67:
 1034              		.loc 1 575 0
 1035 019e 2A6C     		ldr	r2, [r5, #64]
 1036              		.loc 1 576 0
 1037 01a0 2720     		movs	r0, #39
 1038              		.loc 1 575 0
 1039 01a2 42F48026 		orr	r6, r2, #262144
 1040 01a6 E8E7     		b	.L94
 1041              	.L102:
 1042              		.align	2
 1043              	.L101:
 1044 01a8 00000000 		.word	.LANCHOR0
 1045 01ac 00000000 		.word	.LANCHOR1
 1046 01b0 00000000 		.word	.LANCHOR2
 1047 01b4 00000000 		.word	.LANCHOR3
 1048 01b8 00000000 		.word	uart_lld_serve_rx_end_irq
 1049 01bc 00000000 		.word	uart_lld_serve_tx_end_irq
 1050              	.LBE32:
 1051              		.cfi_endproc
 1052              	.LFE130:
 1053              		.size	uart_lld_start, .-uart_lld_start
 1054              		.section	.text.uart_lld_stop,"ax",%progbits
 1055              		.align	2
 1056              		.p2align 4,,15
 1057              		.global	uart_lld_stop
 1058              		.thumb
 1059              		.thumb_func
 1060              		.type	uart_lld_stop, %function
 1061              	uart_lld_stop:
 1062              	.LFB131:
 1063              		.loc 1 683 0
 1064              		.cfi_startproc
 1065              		@ args = 0, pretend = 0, frame = 0
 1066              		@ frame_needed = 0, uses_anonymous_args = 0
 1067              	.LVL68:
 1068              		.loc 1 685 0
 1069 0000 0378     		ldrb	r3, [r0, #0]	@ zero_extendqisi2
 1070 0002 022B     		cmp	r3, #2
ARM GAS  C:\Users\Mohamad\AppData\Local\Temp\ccSvAY8z.s 			page 20


 1071              		.loc 1 683 0
 1072 0004 10B5     		push	{r4, lr}
 1073              	.LCFI11:
 1074              		.cfi_def_cfa_offset 8
 1075              		.cfi_offset 4, -8
 1076              		.cfi_offset 14, -4
 1077              		.loc 1 683 0
 1078 0006 0446     		mov	r4, r0
 1079              		.loc 1 685 0
 1080 0008 00D0     		beq	.L110
 1081              	.LVL69:
 1082              	.L103:
 1083 000a 10BD     		pop	{r4, pc}
 1084              	.LVL70:
 1085              	.L110:
 1086              		.loc 1 686 0
 1087 000c FFF7FEFF 		bl	usart_stop
 1088              	.LVL71:
 1089              		.loc 1 687 0
 1090 0010 2069     		ldr	r0, [r4, #16]
 1091 0012 FFF7FEFF 		bl	dmaStreamRelease
 1092              	.LVL72:
 1093              		.loc 1 688 0
 1094 0016 6069     		ldr	r0, [r4, #20]
 1095 0018 FFF7FEFF 		bl	dmaStreamRelease
 1096              	.LVL73:
 1097              		.loc 1 691 0
 1098 001c 1D48     		ldr	r0, .L114
 1099 001e 8442     		cmp	r4, r0
 1100 0020 14D0     		beq	.L111
 1101              		.loc 1 699 0
 1102 0022 1D49     		ldr	r1, .L114+4
 1103 0024 8C42     		cmp	r4, r1
 1104 0026 1DD0     		beq	.L112
 1105              		.loc 1 707 0
 1106 0028 1C4A     		ldr	r2, .L114+8
 1107 002a 9442     		cmp	r4, r2
 1108 002c 26D0     		beq	.L113
 1109              		.loc 1 731 0
 1110 002e 1C4B     		ldr	r3, .L114+12
 1111 0030 9C42     		cmp	r4, r3
 1112 0032 EAD1     		bne	.L103
 1113              		.loc 1 732 0
 1114 0034 4720     		movs	r0, #71
 1115 0036 FFF7FEFF 		bl	nvicDisableVector
 1116              	.LVL74:
 1117              		.loc 1 733 0
 1118 003a 4FF46050 		mov	r0, #14336
 1119 003e C4F20200 		movt	r0, 16386
 1120 0042 416C     		ldr	r1, [r0, #68]
 1121 0044 21F02002 		bic	r2, r1, #32
 1122 0048 4264     		str	r2, [r0, #68]
 1123              		.loc 1 734 0
 1124 004a DEE7     		b	.L103
 1125              	.L111:
 1126              		.loc 1 692 0
 1127 004c 2520     		movs	r0, #37
ARM GAS  C:\Users\Mohamad\AppData\Local\Temp\ccSvAY8z.s 			page 21


 1128 004e FFF7FEFF 		bl	nvicDisableVector
 1129              	.LVL75:
 1130              		.loc 1 693 0
 1131 0052 4FF46051 		mov	r1, #14336
 1132 0056 C4F20201 		movt	r1, 16386
 1133 005a 4B6C     		ldr	r3, [r1, #68]
 1134 005c 23F01002 		bic	r2, r3, #16
 1135 0060 4A64     		str	r2, [r1, #68]
 1136              		.loc 1 694 0
 1137 0062 10BD     		pop	{r4, pc}
 1138              	.L112:
 1139              		.loc 1 700 0
 1140 0064 2620     		movs	r0, #38
 1141 0066 FFF7FEFF 		bl	nvicDisableVector
 1142              	.LVL76:
 1143              		.loc 1 701 0
 1144 006a 4FF46053 		mov	r3, #14336
 1145 006e C4F20203 		movt	r3, 16386
 1146 0072 1A6C     		ldr	r2, [r3, #64]
 1147 0074 22F40030 		bic	r0, r2, #131072
 1148 0078 1864     		str	r0, [r3, #64]
 1149              		.loc 1 702 0
 1150 007a 10BD     		pop	{r4, pc}
 1151              	.L113:
 1152              		.loc 1 708 0
 1153 007c 2720     		movs	r0, #39
 1154 007e FFF7FEFF 		bl	nvicDisableVector
 1155              	.LVL77:
 1156              		.loc 1 709 0
 1157 0082 4FF46053 		mov	r3, #14336
 1158 0086 C4F20203 		movt	r3, 16386
 1159 008a 186C     		ldr	r0, [r3, #64]
 1160 008c 20F48021 		bic	r1, r0, #262144
 1161 0090 1964     		str	r1, [r3, #64]
 1162              		.loc 1 710 0
 1163 0092 10BD     		pop	{r4, pc}
 1164              	.L115:
 1165              		.align	2
 1166              	.L114:
 1167 0094 00000000 		.word	.LANCHOR0
 1168 0098 00000000 		.word	.LANCHOR1
 1169 009c 00000000 		.word	.LANCHOR2
 1170 00a0 00000000 		.word	.LANCHOR3
 1171              		.cfi_endproc
 1172              	.LFE131:
 1173              		.size	uart_lld_stop, .-uart_lld_stop
 1174 00a4 AFF30080 		.section	.text.uart_lld_start_send,"ax",%progbits
 1174      AFF30080 
 1174      AFF30080 
 1175              		.align	2
 1176              		.p2align 4,,15
 1177              		.global	uart_lld_start_send
 1178              		.thumb
 1179              		.thumb_func
 1180              		.type	uart_lld_start_send, %function
 1181              	uart_lld_start_send:
 1182              	.LFB132:
ARM GAS  C:\Users\Mohamad\AppData\Local\Temp\ccSvAY8z.s 			page 22


 1183              		.loc 1 751 0
 1184              		.cfi_startproc
 1185              		@ args = 0, pretend = 0, frame = 0
 1186              		@ frame_needed = 0, uses_anonymous_args = 0
 1187              		@ link register save eliminated.
 1188              	.LVL78:
 1189              		.loc 1 754 0
 1190 0000 4369     		ldr	r3, [r0, #20]
 1191              		.loc 1 756 0
 1192 0002 C068     		ldr	r0, [r0, #12]
 1193              	.LVL79:
 1194              		.loc 1 754 0
 1195 0004 1B68     		ldr	r3, [r3, #0]
 1196              		.loc 1 756 0
 1197 0006 40F48A60 		orr	r0, r0, #1104
 1198              		.loc 1 754 0
 1199 000a DA60     		str	r2, [r3, #12]
 1200              		.loc 1 755 0
 1201 000c 5960     		str	r1, [r3, #4]
 1202              		.loc 1 756 0
 1203 000e 1860     		str	r0, [r3, #0]
 1204              		.loc 1 758 0
 1205 0010 1A68     		ldr	r2, [r3, #0]
 1206              	.LVL80:
 1207 0012 42F00101 		orr	r1, r2, #1
 1208              	.LVL81:
 1209 0016 1960     		str	r1, [r3, #0]
 1210 0018 7047     		bx	lr
 1211              		.cfi_endproc
 1212              	.LFE132:
 1213              		.size	uart_lld_start_send, .-uart_lld_start_send
 1214 001a 00BFAFF3 		.section	.text.uart_lld_stop_send,"ax",%progbits
 1214      0080
 1215              		.align	2
 1216              		.p2align 4,,15
 1217              		.global	uart_lld_stop_send
 1218              		.thumb
 1219              		.thumb_func
 1220              		.type	uart_lld_stop_send, %function
 1221              	uart_lld_stop_send:
 1222              	.LFB133:
 1223              		.loc 1 772 0
 1224              		.cfi_startproc
 1225              		@ args = 0, pretend = 0, frame = 0
 1226              		@ frame_needed = 0, uses_anonymous_args = 0
 1227              		@ link register save eliminated.
 1228              	.LVL82:
 1229              		.loc 1 774 0
 1230 0000 4169     		ldr	r1, [r0, #20]
 1231 0002 0A68     		ldr	r2, [r1, #0]
 1232 0004 1368     		ldr	r3, [r2, #0]
 1233 0006 23F01F00 		bic	r0, r3, #31
 1234              	.LVL83:
 1235 000a 1060     		str	r0, [r2, #0]
 1236              	.L118:
 1237              		.loc 1 774 0 is_stmt 0 discriminator 1
 1238 000c 1368     		ldr	r3, [r2, #0]
ARM GAS  C:\Users\Mohamad\AppData\Local\Temp\ccSvAY8z.s 			page 23


 1239 000e DB07     		lsls	r3, r3, #31
 1240 0010 FCD4     		bmi	.L118
 1241              		.loc 1 774 0 discriminator 2
 1242 0012 087A     		ldrb	r0, [r1, #8]	@ zero_extendqisi2
 1243 0014 4B68     		ldr	r3, [r1, #4]
 1244 0016 3D21     		movs	r1, #61
 1245 0018 01FA00F1 		lsl	r1, r1, r0
 1246 001c 1960     		str	r1, [r3, #0]
 1247              		.loc 1 775 0 is_stmt 1 discriminator 2
 1248 001e 5068     		ldr	r0, [r2, #4]
 1249              		.loc 1 776 0 discriminator 2
 1250 0020 7047     		bx	lr
 1251              		.cfi_endproc
 1252              	.LFE133:
 1253              		.size	uart_lld_stop_send, .-uart_lld_stop_send
 1254 0022 00BFAFF3 		.section	.text.uart_lld_start_receive,"ax",%progbits
 1254      0080AFF3 
 1254      0080AFF3 
 1254      0080
 1255              		.align	2
 1256              		.p2align 4,,15
 1257              		.global	uart_lld_start_receive
 1258              		.thumb
 1259              		.thumb_func
 1260              		.type	uart_lld_start_receive, %function
 1261              	uart_lld_start_receive:
 1262              	.LFB134:
 1263              		.loc 1 789 0
 1264              		.cfi_startproc
 1265              		@ args = 0, pretend = 0, frame = 0
 1266              		@ frame_needed = 0, uses_anonymous_args = 0
 1267              		@ link register save eliminated.
 1268              	.LVL84:
 1269 0000 70B4     		push	{r4, r5, r6}
 1270              	.LCFI12:
 1271              		.cfi_def_cfa_offset 12
 1272              		.cfi_offset 4, -12
 1273              		.cfi_offset 5, -8
 1274              		.cfi_offset 6, -4
 1275              		.loc 1 792 0
 1276 0002 0569     		ldr	r5, [r0, #16]
 1277 0004 2C68     		ldr	r4, [r5, #0]
 1278 0006 2368     		ldr	r3, [r4, #0]
 1279 0008 23F01F06 		bic	r6, r3, #31
 1280 000c 2660     		str	r6, [r4, #0]
 1281              	.L121:
 1282              		.loc 1 792 0 is_stmt 0 discriminator 1
 1283 000e 2368     		ldr	r3, [r4, #0]
 1284 0010 DB07     		lsls	r3, r3, #31
 1285 0012 FCD4     		bmi	.L121
 1286              		.loc 1 792 0 discriminator 2
 1287 0014 2E7A     		ldrb	r6, [r5, #8]	@ zero_extendqisi2
 1288 0016 6B68     		ldr	r3, [r5, #4]
 1289 0018 3D25     		movs	r5, #61
 1290 001a 05FA06F5 		lsl	r5, r5, r6
 1291 001e 1D60     		str	r5, [r3, #0]
 1292              		.loc 1 797 0 is_stmt 1 discriminator 2
ARM GAS  C:\Users\Mohamad\AppData\Local\Temp\ccSvAY8z.s 			page 24


 1293 0020 C068     		ldr	r0, [r0, #12]
 1294              	.LVL85:
 1295              		.loc 1 795 0 discriminator 2
 1296 0022 E260     		str	r2, [r4, #12]
 1297              		.loc 1 797 0 discriminator 2
 1298 0024 40F48262 		orr	r2, r0, #1040
 1299              	.LVL86:
 1300              		.loc 1 796 0 discriminator 2
 1301 0028 6160     		str	r1, [r4, #4]
 1302              		.loc 1 797 0 discriminator 2
 1303 002a 2260     		str	r2, [r4, #0]
 1304              		.loc 1 799 0 discriminator 2
 1305 002c 2168     		ldr	r1, [r4, #0]
 1306              	.LVL87:
 1307 002e 41F00103 		orr	r3, r1, #1
 1308 0032 2360     		str	r3, [r4, #0]
 1309              		.loc 1 800 0 discriminator 2
 1310 0034 70BC     		pop	{r4, r5, r6}
 1311 0036 7047     		bx	lr
 1312              		.cfi_endproc
 1313              	.LFE134:
 1314              		.size	uart_lld_start_receive, .-uart_lld_start_receive
 1315 0038 AFF30080 		.section	.text.uart_lld_stop_receive,"ax",%progbits
 1315      AFF30080 
 1316              		.align	2
 1317              		.p2align 4,,15
 1318              		.global	uart_lld_stop_receive
 1319              		.thumb
 1320              		.thumb_func
 1321              		.type	uart_lld_stop_receive, %function
 1322              	uart_lld_stop_receive:
 1323              	.LFB135:
 1324              		.loc 1 813 0
 1325              		.cfi_startproc
 1326              		@ args = 0, pretend = 0, frame = 0
 1327              		@ frame_needed = 0, uses_anonymous_args = 0
 1328              	.LVL88:
 1329              		.loc 1 816 0
 1330 0000 0169     		ldr	r1, [r0, #16]
 1331 0002 0A68     		ldr	r2, [r1, #0]
 1332 0004 1368     		ldr	r3, [r2, #0]
 1333              		.loc 1 813 0
 1334 0006 10B5     		push	{r4, lr}
 1335              	.LCFI13:
 1336              		.cfi_def_cfa_offset 8
 1337              		.cfi_offset 4, -8
 1338              		.cfi_offset 14, -4
 1339              		.loc 1 816 0
 1340 0008 23F01F04 		bic	r4, r3, #31
 1341 000c 1460     		str	r4, [r2, #0]
 1342              	.L124:
 1343              		.loc 1 816 0 is_stmt 0 discriminator 1
 1344 000e 1368     		ldr	r3, [r2, #0]
 1345 0010 DB07     		lsls	r3, r3, #31
 1346 0012 FCD4     		bmi	.L124
 1347              		.loc 1 816 0 discriminator 2
 1348 0014 0C7A     		ldrb	r4, [r1, #8]	@ zero_extendqisi2
ARM GAS  C:\Users\Mohamad\AppData\Local\Temp\ccSvAY8z.s 			page 25


 1349 0016 4B68     		ldr	r3, [r1, #4]
 1350 0018 3D21     		movs	r1, #61
 1351 001a 01FA04F1 		lsl	r1, r1, r4
 1352 001e 1960     		str	r1, [r3, #0]
 1353              		.loc 1 817 0 is_stmt 1 discriminator 2
 1354 0020 5468     		ldr	r4, [r2, #4]
 1355              	.LVL89:
 1356              		.loc 1 818 0 discriminator 2
 1357 0022 FFF7FEFF 		bl	set_rx_idle_loop
 1358              	.LVL90:
 1359              		.loc 1 820 0 discriminator 2
 1360 0026 2046     		mov	r0, r4
 1361 0028 10BD     		pop	{r4, pc}
 1362              		.cfi_endproc
 1363              	.LFE135:
 1364              		.size	uart_lld_stop_receive, .-uart_lld_stop_receive
 1365              		.global	UARTD6
 1366              		.global	UARTD3
 1367              		.global	UARTD2
 1368              		.global	UARTD1
 1369 002a 00BFAFF3 		.section	.bss.UARTD1,"aw",%nobits
 1369      0080
 1370              		.align	2
 1371              		.set	.LANCHOR0,. + 0
 1372              		.type	UARTD1, %object
 1373              		.size	UARTD1, 28
 1374              	UARTD1:
 1375 0000 00000000 		.space	28
 1375      00000000 
 1375      00000000 
 1375      00000000 
 1375      00000000 
 1376              		.section	.bss.UARTD2,"aw",%nobits
 1377              		.align	2
 1378              		.set	.LANCHOR1,. + 0
 1379              		.type	UARTD2, %object
 1380              		.size	UARTD2, 28
 1381              	UARTD2:
 1382 0000 00000000 		.space	28
 1382      00000000 
 1382      00000000 
 1382      00000000 
 1382      00000000 
 1383              		.section	.bss.UARTD3,"aw",%nobits
 1384              		.align	2
 1385              		.set	.LANCHOR2,. + 0
 1386              		.type	UARTD3, %object
 1387              		.size	UARTD3, 28
 1388              	UARTD3:
 1389 0000 00000000 		.space	28
 1389      00000000 
 1389      00000000 
 1389      00000000 
 1389      00000000 
 1390              		.section	.bss.UARTD6,"aw",%nobits
 1391              		.align	2
 1392              		.set	.LANCHOR3,. + 0
ARM GAS  C:\Users\Mohamad\AppData\Local\Temp\ccSvAY8z.s 			page 26


 1393              		.type	UARTD6, %object
 1394              		.size	UARTD6, 28
 1395              	UARTD6:
 1396 0000 00000000 		.space	28
 1396      00000000 
 1396      00000000 
 1396      00000000 
 1396      00000000 
 1397              		.text
 1398              	.Letext0:
 1399              		.file 2 "c:\\chibistudio\\tools\\gnu tools arm embedded\\4.7 2014q2\\bin\\../lib/gcc/arm-none-eabi
 1400              		.file 3 "c:\\chibistudio\\tools\\gnu tools arm embedded\\4.7 2014q2\\bin\\../lib/gcc/arm-none-eabi
 1401              		.file 4 "../../chibios/os/ports/GCC/ARMCMx/chtypes.h"
 1402              		.file 5 "../../chibios/os/hal/platforms/STM32F4xx/stm32f4xx.h"
 1403              		.file 6 "../../chibios/os/hal/platforms/STM32F4xx/stm32_dma.h"
 1404              		.file 7 "../../chibios/os/hal/include/uart.h"
 1405              		.file 8 "../../chibios/os/hal/platforms/STM32/USARTv1/uart_lld.h"
 1406              		.file 9 "../../chibios/os/ports/common/ARMCMx/CMSIS/include/core_cm4.h"
 1407              		.file 10 "../../chibios/os/ports/GCC/ARMCMx/chcore_v7m.h"
 1408              		.file 11 "../../chibios/os/ports/common/ARMCMx/nvic.h"