ARM GAS  C:\Users\Mohamad\AppData\Local\Temp\cceoe6gg.s 			page 1


   1              		.syntax unified
   2              		.cpu cortex-m4
   3              		.fpu softvfp
   4              		.eabi_attribute 20, 1
   5              		.eabi_attribute 21, 1
   6              		.eabi_attribute 23, 3
   7              		.eabi_attribute 24, 1
   8              		.eabi_attribute 25, 1
   9              		.eabi_attribute 26, 1
  10              		.eabi_attribute 30, 2
  11              		.eabi_attribute 34, 1
  12              		.eabi_attribute 18, 4
  13              		.thumb
  14              		.file	"uart.c"
  15              		.text
  16              	.Ltext0:
  17              		.cfi_sections	.debug_frame
  18              		.section	.text.uartInit,"ax",%progbits
  19              		.align	2
  20              		.p2align 4,,15
  21              		.global	uartInit
  22              		.thumb
  23              		.thumb_func
  24              		.type	uartInit, %function
  25              	uartInit:
  26              	.LFB118:
  27              		.file 1 "../../chibios/os/hal/src/uart.c"
  28              		.loc 1 68 0
  29              		.cfi_startproc
  30              		@ args = 0, pretend = 0, frame = 0
  31              		@ frame_needed = 0, uses_anonymous_args = 0
  32              		@ link register save eliminated.
  33              		.loc 1 71 0
  34              		.loc 1 70 0
  35 0000 FFF7FEBF 		b	uart_lld_init
  36              	.LVL0:
  37              		.cfi_endproc
  38              	.LFE118:
  39              		.size	uartInit, .-uartInit
  40 0004 AFF30080 		.section	.text.uartObjectInit,"ax",%progbits
  40      AFF30080 
  40      AFF30080 
  41              		.align	2
  42              		.p2align 4,,15
  43              		.global	uartObjectInit
  44              		.thumb
  45              		.thumb_func
  46              		.type	uartObjectInit, %function
  47              	uartObjectInit:
  48              	.LFB119:
  49              		.loc 1 80 0
  50              		.cfi_startproc
  51              		@ args = 0, pretend = 0, frame = 0
  52              		@ frame_needed = 0, uses_anonymous_args = 0
  53              		@ link register save eliminated.
  54              	.LVL1:
  55              		.loc 1 83 0
ARM GAS  C:\Users\Mohamad\AppData\Local\Temp\cceoe6gg.s 			page 2


  56 0000 0023     		movs	r3, #0
  57              		.loc 1 82 0
  58 0002 0122     		movs	r2, #1
  59 0004 0270     		strb	r2, [r0, #0]
  60              		.loc 1 83 0
  61 0006 4370     		strb	r3, [r0, #1]
  62              		.loc 1 84 0
  63 0008 8370     		strb	r3, [r0, #2]
  64              		.loc 1 85 0
  65 000a 4360     		str	r3, [r0, #4]
  66 000c 7047     		bx	lr
  67              		.cfi_endproc
  68              	.LFE119:
  69              		.size	uartObjectInit, .-uartObjectInit
  70 000e 00BF     		.section	.text.uartStart,"ax",%progbits
  71              		.align	2
  72              		.p2align 4,,15
  73              		.global	uartStart
  74              		.thumb
  75              		.thumb_func
  76              		.type	uartStart, %function
  77              	uartStart:
  78              	.LFB120:
  79              		.loc 1 100 0
  80              		.cfi_startproc
  81              		@ args = 0, pretend = 0, frame = 0
  82              		@ frame_needed = 0, uses_anonymous_args = 0
  83              	.LVL2:
  84 0000 10B5     		push	{r4, lr}
  85              	.LCFI0:
  86              		.cfi_def_cfa_offset 8
  87              		.cfi_offset 4, -8
  88              		.cfi_offset 14, -4
  89              	.LBB2:
  90              		.loc 1 104 0
  91 0002 2023     		movs	r3, #32
  92              	.LVL3:
  93              	.LBE2:
  94              		.loc 1 100 0
  95 0004 0446     		mov	r4, r0
  96              	.LBB3:
  97              		.loc 1 104 0
  98              	@ 104 "../../chibios/os/hal/src/uart.c" 1
  99 0006 83F31188 		msr     BASEPRI, r3
 100              	@ 0 "" 2
 101              	.LVL4:
 102              		.thumb
 103              	.LBE3:
 104              		.loc 1 108 0
 105 000a 4160     		str	r1, [r0, #4]
 106              		.loc 1 109 0
 107 000c FFF7FEFF 		bl	uart_lld_start
 108              	.LVL5:
 109              		.loc 1 110 0
 110 0010 0223     		movs	r3, #2
 111 0012 2370     		strb	r3, [r4, #0]
 112              	.LBB4:
ARM GAS  C:\Users\Mohamad\AppData\Local\Temp\cceoe6gg.s 			page 3


 113              		.loc 1 111 0
 114 0014 0023     		movs	r3, #0
 115              	.LVL6:
 116              	@ 111 "../../chibios/os/hal/src/uart.c" 1
 117 0016 83F31188 		msr     BASEPRI, r3
 118              	@ 0 "" 2
 119              	.LVL7:
 120              		.thumb
 121 001a 10BD     		pop	{r4, pc}
 122              	.LBE4:
 123              		.cfi_endproc
 124              	.LFE120:
 125              		.size	uartStart, .-uartStart
 126 001c AFF30080 		.section	.text.uartStop,"ax",%progbits
 127              		.align	2
 128              		.p2align 4,,15
 129              		.global	uartStop
 130              		.thumb
 131              		.thumb_func
 132              		.type	uartStop, %function
 133              	uartStop:
 134              	.LFB121:
 135              		.loc 1 121 0
 136              		.cfi_startproc
 137              		@ args = 0, pretend = 0, frame = 0
 138              		@ frame_needed = 0, uses_anonymous_args = 0
 139              	.LVL8:
 140 0000 10B5     		push	{r4, lr}
 141              	.LCFI1:
 142              		.cfi_def_cfa_offset 8
 143              		.cfi_offset 4, -8
 144              		.cfi_offset 14, -4
 145              	.LBB5:
 146              		.loc 1 125 0
 147 0002 2023     		movs	r3, #32
 148              	.LVL9:
 149              	.LBE5:
 150              		.loc 1 121 0
 151 0004 0446     		mov	r4, r0
 152              	.LBB6:
 153              		.loc 1 125 0
 154              	@ 125 "../../chibios/os/hal/src/uart.c" 1
 155 0006 83F31188 		msr     BASEPRI, r3
 156              	@ 0 "" 2
 157              	.LVL10:
 158              		.thumb
 159              	.LBE6:
 160              		.loc 1 129 0
 161 000a FFF7FEFF 		bl	uart_lld_stop
 162              	.LVL11:
 163              		.loc 1 131 0
 164 000e 0023     		movs	r3, #0
 165              		.loc 1 130 0
 166 0010 0122     		movs	r2, #1
 167 0012 2270     		strb	r2, [r4, #0]
 168              		.loc 1 131 0
 169 0014 6370     		strb	r3, [r4, #1]
ARM GAS  C:\Users\Mohamad\AppData\Local\Temp\cceoe6gg.s 			page 4


 170              		.loc 1 132 0
 171 0016 A370     		strb	r3, [r4, #2]
 172              	.LBB7:
 173              		.loc 1 133 0
 174              	@ 133 "../../chibios/os/hal/src/uart.c" 1
 175 0018 83F31188 		msr     BASEPRI, r3
 176              	@ 0 "" 2
 177              	.LVL12:
 178              		.thumb
 179 001c 10BD     		pop	{r4, pc}
 180              	.LBE7:
 181              		.cfi_endproc
 182              	.LFE121:
 183              		.size	uartStop, .-uartStop
 184 001e 00BF     		.section	.text.uartStartSend,"ax",%progbits
 185              		.align	2
 186              		.p2align 4,,15
 187              		.global	uartStartSend
 188              		.thumb
 189              		.thumb_func
 190              		.type	uartStartSend, %function
 191              	uartStartSend:
 192              	.LFB122:
 193              		.loc 1 147 0
 194              		.cfi_startproc
 195              		@ args = 0, pretend = 0, frame = 0
 196              		@ frame_needed = 0, uses_anonymous_args = 0
 197              	.LVL13:
 198 0000 10B5     		push	{r4, lr}
 199              	.LCFI2:
 200              		.cfi_def_cfa_offset 8
 201              		.cfi_offset 4, -8
 202              		.cfi_offset 14, -4
 203              	.LBB8:
 204              		.loc 1 152 0
 205 0002 2023     		movs	r3, #32
 206              	.LVL14:
 207              	.LBE8:
 208              		.loc 1 147 0
 209 0004 0446     		mov	r4, r0
 210              	.LBB9:
 211              		.loc 1 152 0
 212              	@ 152 "../../chibios/os/hal/src/uart.c" 1
 213 0006 83F31188 		msr     BASEPRI, r3
 214              	@ 0 "" 2
 215              	.LVL15:
 216              		.thumb
 217              	.LBE9:
 218              		.loc 1 158 0
 219 000a FFF7FEFF 		bl	uart_lld_start_send
 220              	.LVL16:
 221              		.loc 1 159 0
 222 000e 0123     		movs	r3, #1
 223 0010 6370     		strb	r3, [r4, #1]
 224              	.LBB10:
 225              		.loc 1 160 0
 226 0012 0023     		movs	r3, #0
ARM GAS  C:\Users\Mohamad\AppData\Local\Temp\cceoe6gg.s 			page 5


 227              	.LVL17:
 228              	@ 160 "../../chibios/os/hal/src/uart.c" 1
 229 0014 83F31188 		msr     BASEPRI, r3
 230              	@ 0 "" 2
 231              	.LVL18:
 232              		.thumb
 233 0018 10BD     		pop	{r4, pc}
 234              	.LBE10:
 235              		.cfi_endproc
 236              	.LFE122:
 237              		.size	uartStartSend, .-uartStartSend
 238 001a 00BFAFF3 		.section	.text.uartStartSendI,"ax",%progbits
 238      0080
 239              		.align	2
 240              		.p2align 4,,15
 241              		.global	uartStartSendI
 242              		.thumb
 243              		.thumb_func
 244              		.type	uartStartSendI, %function
 245              	uartStartSendI:
 246              	.LFB123:
 247              		.loc 1 175 0
 248              		.cfi_startproc
 249              		@ args = 0, pretend = 0, frame = 0
 250              		@ frame_needed = 0, uses_anonymous_args = 0
 251              	.LVL19:
 252 0000 10B5     		push	{r4, lr}
 253              	.LCFI3:
 254              		.cfi_def_cfa_offset 8
 255              		.cfi_offset 4, -8
 256              		.cfi_offset 14, -4
 257              		.loc 1 175 0
 258 0002 0446     		mov	r4, r0
 259              		.loc 1 185 0
 260 0004 FFF7FEFF 		bl	uart_lld_start_send
 261              	.LVL20:
 262              		.loc 1 186 0
 263 0008 0123     		movs	r3, #1
 264 000a 6370     		strb	r3, [r4, #1]
 265 000c 10BD     		pop	{r4, pc}
 266              		.cfi_endproc
 267              	.LFE123:
 268              		.size	uartStartSendI, .-uartStartSendI
 269 000e 00BF     		.section	.text.uartStopSend,"ax",%progbits
 270              		.align	2
 271              		.p2align 4,,15
 272              		.global	uartStopSend
 273              		.thumb
 274              		.thumb_func
 275              		.type	uartStopSend, %function
 276              	uartStopSend:
 277              	.LFB124:
 278              		.loc 1 201 0
 279              		.cfi_startproc
 280              		@ args = 0, pretend = 0, frame = 0
 281              		@ frame_needed = 0, uses_anonymous_args = 0
 282              	.LVL21:
ARM GAS  C:\Users\Mohamad\AppData\Local\Temp\cceoe6gg.s 			page 6


 283 0000 10B5     		push	{r4, lr}
 284              	.LCFI4:
 285              		.cfi_def_cfa_offset 8
 286              		.cfi_offset 4, -8
 287              		.cfi_offset 14, -4
 288              	.LBB11:
 289              		.loc 1 206 0
 290 0002 2023     		movs	r3, #32
 291              	.LVL22:
 292              	.LBE11:
 293              		.loc 1 201 0
 294 0004 0446     		mov	r4, r0
 295              	.LBB12:
 296              		.loc 1 206 0
 297              	@ 206 "../../chibios/os/hal/src/uart.c" 1
 298 0006 83F31188 		msr     BASEPRI, r3
 299              	@ 0 "" 2
 300              	.LVL23:
 301              		.thumb
 302              	.LBE12:
 303              		.loc 1 209 0
 304 000a 4378     		ldrb	r3, [r0, #1]	@ zero_extendqisi2
 305              	.LVL24:
 306 000c 012B     		cmp	r3, #1
 307 000e 04D0     		beq	.L11
 308              		.loc 1 214 0
 309 0010 0020     		movs	r0, #0
 310              	.LVL25:
 311              	.L8:
 312              	.LBB13:
 313              		.loc 1 215 0
 314 0012 0023     		movs	r3, #0
 315              	.LVL26:
 316              	@ 215 "../../chibios/os/hal/src/uart.c" 1
 317 0014 83F31188 		msr     BASEPRI, r3
 318              	@ 0 "" 2
 319              	.LVL27:
 320              		.thumb
 321              	.LBE13:
 322              		.loc 1 217 0
 323 0018 10BD     		pop	{r4, pc}
 324              	.LVL28:
 325              	.L11:
 326              		.loc 1 210 0
 327 001a FFF7FEFF 		bl	uart_lld_stop_send
 328              	.LVL29:
 329              		.loc 1 211 0
 330 001e 0021     		movs	r1, #0
 331 0020 6170     		strb	r1, [r4, #1]
 332 0022 F6E7     		b	.L8
 333              		.cfi_endproc
 334              	.LFE124:
 335              		.size	uartStopSend, .-uartStopSend
 336 0024 AFF30080 		.section	.text.uartStopSendI,"ax",%progbits
 336      AFF30080 
 336      AFF30080 
 337              		.align	2
ARM GAS  C:\Users\Mohamad\AppData\Local\Temp\cceoe6gg.s 			page 7


 338              		.p2align 4,,15
 339              		.global	uartStopSendI
 340              		.thumb
 341              		.thumb_func
 342              		.type	uartStopSendI, %function
 343              	uartStopSendI:
 344              	.LFB125:
 345              		.loc 1 232 0
 346              		.cfi_startproc
 347              		@ args = 0, pretend = 0, frame = 0
 348              		@ frame_needed = 0, uses_anonymous_args = 0
 349              	.LVL30:
 350              		.loc 1 238 0
 351 0000 4378     		ldrb	r3, [r0, #1]	@ zero_extendqisi2
 352 0002 012B     		cmp	r3, #1
 353              		.loc 1 232 0
 354 0004 10B5     		push	{r4, lr}
 355              	.LCFI5:
 356              		.cfi_def_cfa_offset 8
 357              		.cfi_offset 4, -8
 358              		.cfi_offset 14, -4
 359              		.loc 1 232 0
 360 0006 0446     		mov	r4, r0
 361              		.loc 1 238 0
 362 0008 01D0     		beq	.L15
 363              		.loc 1 243 0
 364 000a 0020     		movs	r0, #0
 365              	.LVL31:
 366              		.loc 1 244 0
 367 000c 10BD     		pop	{r4, pc}
 368              	.LVL32:
 369              	.L15:
 370              	.LBB14:
 371              		.loc 1 239 0
 372 000e FFF7FEFF 		bl	uart_lld_stop_send
 373              	.LVL33:
 374              		.loc 1 240 0
 375 0012 0021     		movs	r1, #0
 376 0014 6170     		strb	r1, [r4, #1]
 377              		.loc 1 241 0
 378 0016 10BD     		pop	{r4, pc}
 379              	.LBE14:
 380              		.cfi_endproc
 381              	.LFE125:
 382              		.size	uartStopSendI, .-uartStopSendI
 383 0018 AFF30080 		.section	.text.uartStartReceive,"ax",%progbits
 383      AFF30080 
 384              		.align	2
 385              		.p2align 4,,15
 386              		.global	uartStartReceive
 387              		.thumb
 388              		.thumb_func
 389              		.type	uartStartReceive, %function
 390              	uartStartReceive:
 391              	.LFB126:
 392              		.loc 1 257 0
 393              		.cfi_startproc
ARM GAS  C:\Users\Mohamad\AppData\Local\Temp\cceoe6gg.s 			page 8


 394              		@ args = 0, pretend = 0, frame = 0
 395              		@ frame_needed = 0, uses_anonymous_args = 0
 396              	.LVL34:
 397 0000 10B5     		push	{r4, lr}
 398              	.LCFI6:
 399              		.cfi_def_cfa_offset 8
 400              		.cfi_offset 4, -8
 401              		.cfi_offset 14, -4
 402              	.LBB15:
 403              		.loc 1 262 0
 404 0002 2023     		movs	r3, #32
 405              	.LVL35:
 406              	.LBE15:
 407              		.loc 1 257 0
 408 0004 0446     		mov	r4, r0
 409              	.LBB16:
 410              		.loc 1 262 0
 411              	@ 262 "../../chibios/os/hal/src/uart.c" 1
 412 0006 83F31188 		msr     BASEPRI, r3
 413              	@ 0 "" 2
 414              	.LVL36:
 415              		.thumb
 416              	.LBE16:
 417              		.loc 1 268 0
 418 000a FFF7FEFF 		bl	uart_lld_start_receive
 419              	.LVL37:
 420              		.loc 1 269 0
 421 000e 0123     		movs	r3, #1
 422 0010 A370     		strb	r3, [r4, #2]
 423              	.LBB17:
 424              		.loc 1 270 0
 425 0012 0023     		movs	r3, #0
 426              	.LVL38:
 427              	@ 270 "../../chibios/os/hal/src/uart.c" 1
 428 0014 83F31188 		msr     BASEPRI, r3
 429              	@ 0 "" 2
 430              	.LVL39:
 431              		.thumb
 432 0018 10BD     		pop	{r4, pc}
 433              	.LBE17:
 434              		.cfi_endproc
 435              	.LFE126:
 436              		.size	uartStartReceive, .-uartStartReceive
 437 001a 00BFAFF3 		.section	.text.uartStartReceiveI,"ax",%progbits
 437      0080
 438              		.align	2
 439              		.p2align 4,,15
 440              		.global	uartStartReceiveI
 441              		.thumb
 442              		.thumb_func
 443              		.type	uartStartReceiveI, %function
 444              	uartStartReceiveI:
 445              	.LFB127:
 446              		.loc 1 285 0
 447              		.cfi_startproc
 448              		@ args = 0, pretend = 0, frame = 0
 449              		@ frame_needed = 0, uses_anonymous_args = 0
ARM GAS  C:\Users\Mohamad\AppData\Local\Temp\cceoe6gg.s 			page 9


 450              	.LVL40:
 451 0000 10B5     		push	{r4, lr}
 452              	.LCFI7:
 453              		.cfi_def_cfa_offset 8
 454              		.cfi_offset 4, -8
 455              		.cfi_offset 14, -4
 456              		.loc 1 285 0
 457 0002 0446     		mov	r4, r0
 458              		.loc 1 295 0
 459 0004 FFF7FEFF 		bl	uart_lld_start_receive
 460              	.LVL41:
 461              		.loc 1 296 0
 462 0008 0123     		movs	r3, #1
 463 000a A370     		strb	r3, [r4, #2]
 464 000c 10BD     		pop	{r4, pc}
 465              		.cfi_endproc
 466              	.LFE127:
 467              		.size	uartStartReceiveI, .-uartStartReceiveI
 468 000e 00BF     		.section	.text.uartStopReceive,"ax",%progbits
 469              		.align	2
 470              		.p2align 4,,15
 471              		.global	uartStopReceive
 472              		.thumb
 473              		.thumb_func
 474              		.type	uartStopReceive, %function
 475              	uartStopReceive:
 476              	.LFB128:
 477              		.loc 1 311 0
 478              		.cfi_startproc
 479              		@ args = 0, pretend = 0, frame = 0
 480              		@ frame_needed = 0, uses_anonymous_args = 0
 481              	.LVL42:
 482 0000 10B5     		push	{r4, lr}
 483              	.LCFI8:
 484              		.cfi_def_cfa_offset 8
 485              		.cfi_offset 4, -8
 486              		.cfi_offset 14, -4
 487              	.LBB18:
 488              		.loc 1 316 0
 489 0002 2023     		movs	r3, #32
 490              	.LVL43:
 491              	.LBE18:
 492              		.loc 1 311 0
 493 0004 0446     		mov	r4, r0
 494              	.LBB19:
 495              		.loc 1 316 0
 496              	@ 316 "../../chibios/os/hal/src/uart.c" 1
 497 0006 83F31188 		msr     BASEPRI, r3
 498              	@ 0 "" 2
 499              	.LVL44:
 500              		.thumb
 501              	.LBE19:
 502              		.loc 1 320 0
 503 000a 8378     		ldrb	r3, [r0, #2]	@ zero_extendqisi2
 504              	.LVL45:
 505 000c 012B     		cmp	r3, #1
 506 000e 04D0     		beq	.L21
ARM GAS  C:\Users\Mohamad\AppData\Local\Temp\cceoe6gg.s 			page 10


 507              		.loc 1 325 0
 508 0010 0020     		movs	r0, #0
 509              	.LVL46:
 510              	.L19:
 511              	.LBB20:
 512              		.loc 1 326 0
 513 0012 0023     		movs	r3, #0
 514              	.LVL47:
 515              	@ 326 "../../chibios/os/hal/src/uart.c" 1
 516 0014 83F31188 		msr     BASEPRI, r3
 517              	@ 0 "" 2
 518              	.LVL48:
 519              		.thumb
 520              	.LBE20:
 521              		.loc 1 328 0
 522 0018 10BD     		pop	{r4, pc}
 523              	.LVL49:
 524              	.L21:
 525              		.loc 1 321 0
 526 001a FFF7FEFF 		bl	uart_lld_stop_receive
 527              	.LVL50:
 528              		.loc 1 322 0
 529 001e 0021     		movs	r1, #0
 530 0020 A170     		strb	r1, [r4, #2]
 531 0022 F6E7     		b	.L19
 532              		.cfi_endproc
 533              	.LFE128:
 534              		.size	uartStopReceive, .-uartStopReceive
 535 0024 AFF30080 		.section	.text.uartStopReceiveI,"ax",%progbits
 535      AFF30080 
 535      AFF30080 
 536              		.align	2
 537              		.p2align 4,,15
 538              		.global	uartStopReceiveI
 539              		.thumb
 540              		.thumb_func
 541              		.type	uartStopReceiveI, %function
 542              	uartStopReceiveI:
 543              	.LFB129:
 544              		.loc 1 343 0
 545              		.cfi_startproc
 546              		@ args = 0, pretend = 0, frame = 0
 547              		@ frame_needed = 0, uses_anonymous_args = 0
 548              	.LVL51:
 549              		.loc 1 350 0
 550 0000 8378     		ldrb	r3, [r0, #2]	@ zero_extendqisi2
 551 0002 012B     		cmp	r3, #1
 552              		.loc 1 343 0
 553 0004 10B5     		push	{r4, lr}
 554              	.LCFI9:
 555              		.cfi_def_cfa_offset 8
 556              		.cfi_offset 4, -8
 557              		.cfi_offset 14, -4
 558              		.loc 1 343 0
 559 0006 0446     		mov	r4, r0
 560              		.loc 1 350 0
 561 0008 01D0     		beq	.L25
ARM GAS  C:\Users\Mohamad\AppData\Local\Temp\cceoe6gg.s 			page 11


 562              		.loc 1 355 0
 563 000a 0020     		movs	r0, #0
 564              	.LVL52:
 565              		.loc 1 356 0
 566 000c 10BD     		pop	{r4, pc}
 567              	.LVL53:
 568              	.L25:
 569              	.LBB21:
 570              		.loc 1 351 0
 571 000e FFF7FEFF 		bl	uart_lld_stop_receive
 572              	.LVL54:
 573              		.loc 1 352 0
 574 0012 0021     		movs	r1, #0
 575 0014 A170     		strb	r1, [r4, #2]
 576              		.loc 1 353 0
 577 0016 10BD     		pop	{r4, pc}
 578              	.LBE21:
 579              		.cfi_endproc
 580              	.LFE129:
 581              		.size	uartStopReceiveI, .-uartStopReceiveI
 582 0018 AFF30080 		.text
 582      AFF30080 
 583              	.Letext0:
 584              		.file 2 "c:\\chibistudio\\tools\\gnu tools arm embedded\\4.7 2014q2\\bin\\../lib/gcc/arm-none-eabi
 585              		.file 3 "c:\\chibistudio\\tools\\gnu tools arm embedded\\4.7 2014q2\\bin\\../lib/gcc/arm-none-eabi
 586              		.file 4 "../../chibios/os/hal/platforms/STM32F4xx/stm32f4xx.h"
 587              		.file 5 "../../chibios/os/hal/platforms/STM32F4xx/stm32_dma.h"
 588              		.file 6 "../../chibios/os/hal/include/uart.h"
 589              		.file 7 "../../chibios/os/hal/platforms/STM32/USARTv1/uart_lld.h"
 590              		.file 8 "../../chibios/os/ports/common/ARMCMx/CMSIS/include/core_cm4.h"
 591              		.section	.debug_info,"",%progbits
 592              	.Ldebug_info0:
 593 0000 4E0A0000 		.4byte	0xa4e
 594 0004 0200     		.2byte	0x2
 595 0006 00000000 		.4byte	.Ldebug_abbrev0
 596 000a 04       		.byte	0x4
 597 000b 01       		.uleb128 0x1
 598 000c 7D000000 		.4byte	.LASF88
 599 0010 01       		.byte	0x1
 600 0011 21030000 		.4byte	.LASF89
 601 0015 D6010000 		.4byte	.LASF90
 602 0019 90000000 		.4byte	.Ldebug_ranges0+0x90
 603 001d 00000000 		.4byte	0
 604 0021 00000000 		.4byte	0
 605 0025 00000000 		.4byte	.Ldebug_line0
 606 0029 02       		.uleb128 0x2
 607 002a 04       		.byte	0x4
 608 002b 05       		.byte	0x5
 609 002c 696E7400 		.ascii	"int\000"
 610 0030 03       		.uleb128 0x3
 611 0031 64000000 		.4byte	.LASF2
 612 0035 02       		.byte	0x2
 613 0036 D5       		.byte	0xd5
 614 0037 3B000000 		.4byte	0x3b
 615 003b 04       		.uleb128 0x4
 616 003c 04       		.byte	0x4
 617 003d 07       		.byte	0x7
ARM GAS  C:\Users\Mohamad\AppData\Local\Temp\cceoe6gg.s 			page 12


 618 003e AA020000 		.4byte	.LASF0
 619 0042 04       		.uleb128 0x4
 620 0043 01       		.byte	0x1
 621 0044 06       		.byte	0x6
 622 0045 7F010000 		.4byte	.LASF1
 623 0049 03       		.uleb128 0x3
 624 004a 57010000 		.4byte	.LASF3
 625 004e 03       		.byte	0x3
 626 004f 2A       		.byte	0x2a
 627 0050 54000000 		.4byte	0x54
 628 0054 04       		.uleb128 0x4
 629 0055 01       		.byte	0x1
 630 0056 08       		.byte	0x8
 631 0057 53020000 		.4byte	.LASF4
 632 005b 04       		.uleb128 0x4
 633 005c 02       		.byte	0x2
 634 005d 05       		.byte	0x5
 635 005e 14010000 		.4byte	.LASF5
 636 0062 03       		.uleb128 0x3
 637 0063 B7020000 		.4byte	.LASF6
 638 0067 03       		.byte	0x3
 639 0068 36       		.byte	0x36
 640 0069 6D000000 		.4byte	0x6d
 641 006d 04       		.uleb128 0x4
 642 006e 02       		.byte	0x2
 643 006f 07       		.byte	0x7
 644 0070 F9020000 		.4byte	.LASF7
 645 0074 03       		.uleb128 0x3
 646 0075 46030000 		.4byte	.LASF8
 647 0079 03       		.byte	0x3
 648 007a 4F       		.byte	0x4f
 649 007b 7F000000 		.4byte	0x7f
 650 007f 04       		.uleb128 0x4
 651 0080 04       		.byte	0x4
 652 0081 05       		.byte	0x5
 653 0082 CD010000 		.4byte	.LASF9
 654 0086 03       		.uleb128 0x3
 655 0087 97020000 		.4byte	.LASF10
 656 008b 03       		.byte	0x3
 657 008c 50       		.byte	0x50
 658 008d 91000000 		.4byte	0x91
 659 0091 04       		.uleb128 0x4
 660 0092 04       		.byte	0x4
 661 0093 07       		.byte	0x7
 662 0094 C0020000 		.4byte	.LASF11
 663 0098 04       		.uleb128 0x4
 664 0099 08       		.byte	0x8
 665 009a 05       		.byte	0x5
 666 009b 86040000 		.4byte	.LASF12
 667 009f 04       		.uleb128 0x4
 668 00a0 08       		.byte	0x8
 669 00a1 07       		.byte	0x7
 670 00a2 78020000 		.4byte	.LASF13
 671 00a6 04       		.uleb128 0x4
 672 00a7 01       		.byte	0x1
 673 00a8 02       		.byte	0x2
 674 00a9 53030000 		.4byte	.LASF14
ARM GAS  C:\Users\Mohamad\AppData\Local\Temp\cceoe6gg.s 			page 13


 675 00ad 05       		.uleb128 0x5
 676 00ae 04       		.byte	0x4
 677 00af 06       		.uleb128 0x6
 678 00b0 86000000 		.4byte	0x86
 679 00b4 04       		.uleb128 0x4
 680 00b5 04       		.byte	0x4
 681 00b6 07       		.byte	0x7
 682 00b7 74000000 		.4byte	.LASF15
 683 00bb 04       		.uleb128 0x4
 684 00bc 01       		.byte	0x1
 685 00bd 08       		.byte	0x8
 686 00be 41030000 		.4byte	.LASF16
 687 00c2 06       		.uleb128 0x6
 688 00c3 62000000 		.4byte	0x62
 689 00c7 06       		.uleb128 0x6
 690 00c8 74000000 		.4byte	0x74
 691 00cc 07       		.uleb128 0x7
 692 00cd 18       		.byte	0x18
 693 00ce 04       		.byte	0x4
 694 00cf B102     		.2byte	0x2b1
 695 00d1 2F010000 		.4byte	0x12f
 696 00d5 08       		.uleb128 0x8
 697 00d6 435200   		.ascii	"CR\000"
 698 00d9 04       		.byte	0x4
 699 00da B302     		.2byte	0x2b3
 700 00dc AF000000 		.4byte	0xaf
 701 00e0 02       		.byte	0x2
 702 00e1 23       		.byte	0x23
 703 00e2 00       		.uleb128 0
 704 00e3 09       		.uleb128 0x9
 705 00e4 BD030000 		.4byte	.LASF17
 706 00e8 04       		.byte	0x4
 707 00e9 B402     		.2byte	0x2b4
 708 00eb AF000000 		.4byte	0xaf
 709 00ef 02       		.byte	0x2
 710 00f0 23       		.byte	0x23
 711 00f1 04       		.uleb128 0x4
 712 00f2 08       		.uleb128 0x8
 713 00f3 50415200 		.ascii	"PAR\000"
 714 00f7 04       		.byte	0x4
 715 00f8 B502     		.2byte	0x2b5
 716 00fa AF000000 		.4byte	0xaf
 717 00fe 02       		.byte	0x2
 718 00ff 23       		.byte	0x23
 719 0100 08       		.uleb128 0x8
 720 0101 09       		.uleb128 0x9
 721 0102 4E030000 		.4byte	.LASF18
 722 0106 04       		.byte	0x4
 723 0107 B602     		.2byte	0x2b6
 724 0109 AF000000 		.4byte	0xaf
 725 010d 02       		.byte	0x2
 726 010e 23       		.byte	0x23
 727 010f 0C       		.uleb128 0xc
 728 0110 09       		.uleb128 0x9
 729 0111 1C030000 		.4byte	.LASF19
 730 0115 04       		.byte	0x4
 731 0116 B702     		.2byte	0x2b7
ARM GAS  C:\Users\Mohamad\AppData\Local\Temp\cceoe6gg.s 			page 14


 732 0118 AF000000 		.4byte	0xaf
 733 011c 02       		.byte	0x2
 734 011d 23       		.byte	0x23
 735 011e 10       		.uleb128 0x10
 736 011f 08       		.uleb128 0x8
 737 0120 46435200 		.ascii	"FCR\000"
 738 0124 04       		.byte	0x4
 739 0125 B802     		.2byte	0x2b8
 740 0127 AF000000 		.4byte	0xaf
 741 012b 02       		.byte	0x2
 742 012c 23       		.byte	0x23
 743 012d 14       		.uleb128 0x14
 744 012e 00       		.byte	0
 745 012f 0A       		.uleb128 0xa
 746 0130 3D000000 		.4byte	.LASF20
 747 0134 04       		.byte	0x4
 748 0135 B902     		.2byte	0x2b9
 749 0137 CC000000 		.4byte	0xcc
 750 013b 07       		.uleb128 0x7
 751 013c 1C       		.byte	0x1c
 752 013d 04       		.byte	0x4
 753 013e 2905     		.2byte	0x529
 754 0140 15020000 		.4byte	0x215
 755 0144 08       		.uleb128 0x8
 756 0145 535200   		.ascii	"SR\000"
 757 0148 04       		.byte	0x4
 758 0149 2B05     		.2byte	0x52b
 759 014b C2000000 		.4byte	0xc2
 760 014f 02       		.byte	0x2
 761 0150 23       		.byte	0x23
 762 0151 00       		.uleb128 0
 763 0152 09       		.uleb128 0x9
 764 0153 77030000 		.4byte	.LASF21
 765 0157 04       		.byte	0x4
 766 0158 2C05     		.2byte	0x52c
 767 015a 62000000 		.4byte	0x62
 768 015e 02       		.byte	0x2
 769 015f 23       		.byte	0x23
 770 0160 02       		.uleb128 0x2
 771 0161 08       		.uleb128 0x8
 772 0162 445200   		.ascii	"DR\000"
 773 0165 04       		.byte	0x4
 774 0166 2D05     		.2byte	0x52d
 775 0168 C2000000 		.4byte	0xc2
 776 016c 02       		.byte	0x2
 777 016d 23       		.byte	0x23
 778 016e 04       		.uleb128 0x4
 779 016f 09       		.uleb128 0x9
 780 0170 81030000 		.4byte	.LASF22
 781 0174 04       		.byte	0x4
 782 0175 2E05     		.2byte	0x52e
 783 0177 62000000 		.4byte	0x62
 784 017b 02       		.byte	0x2
 785 017c 23       		.byte	0x23
 786 017d 06       		.uleb128 0x6
 787 017e 08       		.uleb128 0x8
 788 017f 42525200 		.ascii	"BRR\000"
ARM GAS  C:\Users\Mohamad\AppData\Local\Temp\cceoe6gg.s 			page 15


 789 0183 04       		.byte	0x4
 790 0184 2F05     		.2byte	0x52f
 791 0186 C2000000 		.4byte	0xc2
 792 018a 02       		.byte	0x2
 793 018b 23       		.byte	0x23
 794 018c 08       		.uleb128 0x8
 795 018d 09       		.uleb128 0x9
 796 018e 8B030000 		.4byte	.LASF23
 797 0192 04       		.byte	0x4
 798 0193 3005     		.2byte	0x530
 799 0195 62000000 		.4byte	0x62
 800 0199 02       		.byte	0x2
 801 019a 23       		.byte	0x23
 802 019b 0A       		.uleb128 0xa
 803 019c 08       		.uleb128 0x8
 804 019d 43523100 		.ascii	"CR1\000"
 805 01a1 04       		.byte	0x4
 806 01a2 3105     		.2byte	0x531
 807 01a4 C2000000 		.4byte	0xc2
 808 01a8 02       		.byte	0x2
 809 01a9 23       		.byte	0x23
 810 01aa 0C       		.uleb128 0xc
 811 01ab 09       		.uleb128 0x9
 812 01ac 95030000 		.4byte	.LASF24
 813 01b0 04       		.byte	0x4
 814 01b1 3205     		.2byte	0x532
 815 01b3 62000000 		.4byte	0x62
 816 01b7 02       		.byte	0x2
 817 01b8 23       		.byte	0x23
 818 01b9 0E       		.uleb128 0xe
 819 01ba 08       		.uleb128 0x8
 820 01bb 43523200 		.ascii	"CR2\000"
 821 01bf 04       		.byte	0x4
 822 01c0 3305     		.2byte	0x533
 823 01c2 C2000000 		.4byte	0xc2
 824 01c6 02       		.byte	0x2
 825 01c7 23       		.byte	0x23
 826 01c8 10       		.uleb128 0x10
 827 01c9 09       		.uleb128 0x9
 828 01ca 9F030000 		.4byte	.LASF25
 829 01ce 04       		.byte	0x4
 830 01cf 3405     		.2byte	0x534
 831 01d1 62000000 		.4byte	0x62
 832 01d5 02       		.byte	0x2
 833 01d6 23       		.byte	0x23
 834 01d7 12       		.uleb128 0x12
 835 01d8 08       		.uleb128 0x8
 836 01d9 43523300 		.ascii	"CR3\000"
 837 01dd 04       		.byte	0x4
 838 01de 3505     		.2byte	0x535
 839 01e0 C2000000 		.4byte	0xc2
 840 01e4 02       		.byte	0x2
 841 01e5 23       		.byte	0x23
 842 01e6 14       		.uleb128 0x14
 843 01e7 09       		.uleb128 0x9
 844 01e8 A9030000 		.4byte	.LASF26
 845 01ec 04       		.byte	0x4
ARM GAS  C:\Users\Mohamad\AppData\Local\Temp\cceoe6gg.s 			page 16


 846 01ed 3605     		.2byte	0x536
 847 01ef 62000000 		.4byte	0x62
 848 01f3 02       		.byte	0x2
 849 01f4 23       		.byte	0x23
 850 01f5 16       		.uleb128 0x16
 851 01f6 09       		.uleb128 0x9
 852 01f7 11000000 		.4byte	.LASF27
 853 01fb 04       		.byte	0x4
 854 01fc 3705     		.2byte	0x537
 855 01fe C2000000 		.4byte	0xc2
 856 0202 02       		.byte	0x2
 857 0203 23       		.byte	0x23
 858 0204 18       		.uleb128 0x18
 859 0205 09       		.uleb128 0x9
 860 0206 B3030000 		.4byte	.LASF28
 861 020a 04       		.byte	0x4
 862 020b 3805     		.2byte	0x538
 863 020d 62000000 		.4byte	0x62
 864 0211 02       		.byte	0x2
 865 0212 23       		.byte	0x23
 866 0213 1A       		.uleb128 0x1a
 867 0214 00       		.byte	0
 868 0215 0A       		.uleb128 0xa
 869 0216 06010000 		.4byte	.LASF29
 870 021a 04       		.byte	0x4
 871 021b 3905     		.2byte	0x539
 872 021d 3B010000 		.4byte	0x13b
 873 0221 0B       		.uleb128 0xb
 874 0222 0C       		.byte	0xc
 875 0223 05       		.byte	0x5
 876 0224 DA       		.byte	0xda
 877 0225 70020000 		.4byte	0x270
 878 0229 0C       		.uleb128 0xc
 879 022a 03020000 		.4byte	.LASF30
 880 022e 05       		.byte	0x5
 881 022f DB       		.byte	0xdb
 882 0230 70020000 		.4byte	0x270
 883 0234 02       		.byte	0x2
 884 0235 23       		.byte	0x23
 885 0236 00       		.uleb128 0
 886 0237 0C       		.uleb128 0xc
 887 0238 73040000 		.4byte	.LASF31
 888 023c 05       		.byte	0x5
 889 023d DC       		.byte	0xdc
 890 023e 76020000 		.4byte	0x276
 891 0242 02       		.byte	0x2
 892 0243 23       		.byte	0x23
 893 0244 04       		.uleb128 0x4
 894 0245 0C       		.uleb128 0xc
 895 0246 44040000 		.4byte	.LASF32
 896 024a 05       		.byte	0x5
 897 024b DD       		.byte	0xdd
 898 024c 49000000 		.4byte	0x49
 899 0250 02       		.byte	0x2
 900 0251 23       		.byte	0x23
 901 0252 08       		.uleb128 0x8
 902 0253 0C       		.uleb128 0xc
ARM GAS  C:\Users\Mohamad\AppData\Local\Temp\cceoe6gg.s 			page 17


 903 0254 A0020000 		.4byte	.LASF33
 904 0258 05       		.byte	0x5
 905 0259 DF       		.byte	0xdf
 906 025a 49000000 		.4byte	0x49
 907 025e 02       		.byte	0x2
 908 025f 23       		.byte	0x23
 909 0260 09       		.uleb128 0x9
 910 0261 0C       		.uleb128 0xc
 911 0262 5F010000 		.4byte	.LASF34
 912 0266 05       		.byte	0x5
 913 0267 E0       		.byte	0xe0
 914 0268 49000000 		.4byte	0x49
 915 026c 02       		.byte	0x2
 916 026d 23       		.byte	0x23
 917 026e 0A       		.uleb128 0xa
 918 026f 00       		.byte	0
 919 0270 0D       		.uleb128 0xd
 920 0271 04       		.byte	0x4
 921 0272 2F010000 		.4byte	0x12f
 922 0276 0D       		.uleb128 0xd
 923 0277 04       		.byte	0x4
 924 0278 AF000000 		.4byte	0xaf
 925 027c 03       		.uleb128 0x3
 926 027d 33010000 		.4byte	.LASF35
 927 0281 05       		.byte	0x5
 928 0282 E1       		.byte	0xe1
 929 0283 21020000 		.4byte	0x221
 930 0287 0D       		.uleb128 0xd
 931 0288 04       		.byte	0x4
 932 0289 8D020000 		.4byte	0x28d
 933 028d 0E       		.uleb128 0xe
 934 028e 7C020000 		.4byte	0x27c
 935 0292 0F       		.uleb128 0xf
 936 0293 01       		.byte	0x1
 937 0294 06       		.byte	0x6
 938 0295 48       		.byte	0x48
 939 0296 AD020000 		.4byte	0x2ad
 940 029a 10       		.uleb128 0x10
 941 029b 17040000 		.4byte	.LASF36
 942 029f 00       		.sleb128 0
 943 02a0 10       		.uleb128 0x10
 944 02a1 58040000 		.4byte	.LASF37
 945 02a5 01       		.sleb128 1
 946 02a6 10       		.uleb128 0x10
 947 02a7 D9030000 		.4byte	.LASF38
 948 02ab 02       		.sleb128 2
 949 02ac 00       		.byte	0
 950 02ad 03       		.uleb128 0x3
 951 02ae ED020000 		.4byte	.LASF39
 952 02b2 06       		.byte	0x6
 953 02b3 4C       		.byte	0x4c
 954 02b4 92020000 		.4byte	0x292
 955 02b8 0F       		.uleb128 0xf
 956 02b9 01       		.byte	0x1
 957 02ba 06       		.byte	0x6
 958 02bb 51       		.byte	0x51
 959 02bc D3020000 		.4byte	0x2d3
ARM GAS  C:\Users\Mohamad\AppData\Local\Temp\cceoe6gg.s 			page 18


 960 02c0 10       		.uleb128 0x10
 961 02c1 6A030000 		.4byte	.LASF40
 962 02c5 00       		.sleb128 0
 963 02c6 10       		.uleb128 0x10
 964 02c7 9A010000 		.4byte	.LASF41
 965 02cb 01       		.sleb128 1
 966 02cc 10       		.uleb128 0x10
 967 02cd 00000000 		.4byte	.LASF42
 968 02d1 02       		.sleb128 2
 969 02d2 00       		.byte	0
 970 02d3 03       		.uleb128 0x3
 971 02d4 37020000 		.4byte	.LASF43
 972 02d8 06       		.byte	0x6
 973 02d9 55       		.byte	0x55
 974 02da B8020000 		.4byte	0x2b8
 975 02de 0F       		.uleb128 0xf
 976 02df 01       		.byte	0x1
 977 02e0 06       		.byte	0x6
 978 02e1 5A       		.byte	0x5a
 979 02e2 F9020000 		.4byte	0x2f9
 980 02e6 10       		.uleb128 0x10
 981 02e7 ED030000 		.4byte	.LASF44
 982 02eb 00       		.sleb128 0
 983 02ec 10       		.uleb128 0x10
 984 02ed 66010000 		.4byte	.LASF45
 985 02f1 01       		.sleb128 1
 986 02f2 10       		.uleb128 0x10
 987 02f3 59030000 		.4byte	.LASF46
 988 02f7 02       		.sleb128 2
 989 02f8 00       		.byte	0
 990 02f9 03       		.uleb128 0x3
 991 02fa 0A020000 		.4byte	.LASF47
 992 02fe 06       		.byte	0x6
 993 02ff 5E       		.byte	0x5e
 994 0300 DE020000 		.4byte	0x2de
 995 0304 0A       		.uleb128 0xa
 996 0305 D8020000 		.4byte	.LASF48
 997 0309 07       		.byte	0x7
 998 030a FE01     		.2byte	0x1fe
 999 030c 86000000 		.4byte	0x86
 1000 0310 0A       		.uleb128 0xa
 1001 0311 68040000 		.4byte	.LASF49
 1002 0315 07       		.byte	0x7
 1003 0316 0302     		.2byte	0x203
 1004 0318 1C030000 		.4byte	0x31c
 1005 031c 11       		.uleb128 0x11
 1006 031d 68040000 		.4byte	.LASF49
 1007 0321 1C       		.byte	0x1c
 1008 0322 07       		.byte	0x7
 1009 0323 4B02     		.2byte	0x24b
 1010 0325 B1030000 		.4byte	0x3b1
 1011 0329 09       		.uleb128 0x9
 1012 032a 50000000 		.4byte	.LASF50
 1013 032e 07       		.byte	0x7
 1014 032f 4F02     		.2byte	0x24f
 1015 0331 AD020000 		.4byte	0x2ad
 1016 0335 02       		.byte	0x2
ARM GAS  C:\Users\Mohamad\AppData\Local\Temp\cceoe6gg.s 			page 19


 1017 0336 23       		.byte	0x23
 1018 0337 00       		.uleb128 0
 1019 0338 09       		.uleb128 0x9
 1020 0339 E7000000 		.4byte	.LASF51
 1021 033d 07       		.byte	0x7
 1022 033e 5302     		.2byte	0x253
 1023 0340 D3020000 		.4byte	0x2d3
 1024 0344 02       		.byte	0x2
 1025 0345 23       		.byte	0x23
 1026 0346 01       		.uleb128 0x1
 1027 0347 09       		.uleb128 0x9
 1028 0348 35000000 		.4byte	.LASF52
 1029 034c 07       		.byte	0x7
 1030 034d 5702     		.2byte	0x257
 1031 034f F9020000 		.4byte	0x2f9
 1032 0353 02       		.byte	0x2
 1033 0354 23       		.byte	0x23
 1034 0355 02       		.uleb128 0x2
 1035 0356 09       		.uleb128 0x9
 1036 0357 1E010000 		.4byte	.LASF53
 1037 035b 07       		.byte	0x7
 1038 035c 5B02     		.2byte	0x25b
 1039 035e B8040000 		.4byte	0x4b8
 1040 0362 02       		.byte	0x2
 1041 0363 23       		.byte	0x23
 1042 0364 04       		.uleb128 0x4
 1043 0365 09       		.uleb128 0x9
 1044 0366 20000000 		.4byte	.LASF54
 1045 036a 07       		.byte	0x7
 1046 036b 6302     		.2byte	0x263
 1047 036d C3040000 		.4byte	0x4c3
 1048 0371 02       		.byte	0x2
 1049 0372 23       		.byte	0x23
 1050 0373 08       		.uleb128 0x8
 1051 0374 09       		.uleb128 0x9
 1052 0375 8F020000 		.4byte	.LASF55
 1053 0379 07       		.byte	0x7
 1054 037a 6702     		.2byte	0x267
 1055 037c 86000000 		.4byte	0x86
 1056 0380 02       		.byte	0x2
 1057 0381 23       		.byte	0x23
 1058 0382 0C       		.uleb128 0xc
 1059 0383 09       		.uleb128 0x9
 1060 0384 22020000 		.4byte	.LASF56
 1061 0388 07       		.byte	0x7
 1062 0389 6B02     		.2byte	0x26b
 1063 038b 87020000 		.4byte	0x287
 1064 038f 02       		.byte	0x2
 1065 0390 23       		.byte	0x23
 1066 0391 10       		.uleb128 0x10
 1067 0392 09       		.uleb128 0x9
 1068 0393 72020000 		.4byte	.LASF57
 1069 0397 07       		.byte	0x7
 1070 0398 6F02     		.2byte	0x26f
 1071 039a 87020000 		.4byte	0x287
 1072 039e 02       		.byte	0x2
 1073 039f 23       		.byte	0x23
ARM GAS  C:\Users\Mohamad\AppData\Local\Temp\cceoe6gg.s 			page 20


 1074 03a0 14       		.uleb128 0x14
 1075 03a1 09       		.uleb128 0x9
 1076 03a2 2C040000 		.4byte	.LASF58
 1077 03a6 07       		.byte	0x7
 1078 03a7 7302     		.2byte	0x273
 1079 03a9 C2000000 		.4byte	0xc2
 1080 03ad 02       		.byte	0x2
 1081 03ae 23       		.byte	0x23
 1082 03af 18       		.uleb128 0x18
 1083 03b0 00       		.byte	0
 1084 03b1 0A       		.uleb128 0xa
 1085 03b2 FA010000 		.4byte	.LASF59
 1086 03b6 07       		.byte	0x7
 1087 03b7 0A02     		.2byte	0x20a
 1088 03b9 BD030000 		.4byte	0x3bd
 1089 03bd 0D       		.uleb128 0xd
 1090 03be 04       		.byte	0x4
 1091 03bf C3030000 		.4byte	0x3c3
 1092 03c3 12       		.uleb128 0x12
 1093 03c4 01       		.byte	0x1
 1094 03c5 CF030000 		.4byte	0x3cf
 1095 03c9 13       		.uleb128 0x13
 1096 03ca CF030000 		.4byte	0x3cf
 1097 03ce 00       		.byte	0
 1098 03cf 0D       		.uleb128 0xd
 1099 03d0 04       		.byte	0x4
 1100 03d1 10030000 		.4byte	0x310
 1101 03d5 0A       		.uleb128 0xa
 1102 03d6 0C030000 		.4byte	.LASF60
 1103 03da 07       		.byte	0x7
 1104 03db 1202     		.2byte	0x212
 1105 03dd E1030000 		.4byte	0x3e1
 1106 03e1 0D       		.uleb128 0xd
 1107 03e2 04       		.byte	0x4
 1108 03e3 E7030000 		.4byte	0x3e7
 1109 03e7 12       		.uleb128 0x12
 1110 03e8 01       		.byte	0x1
 1111 03e9 F8030000 		.4byte	0x3f8
 1112 03ed 13       		.uleb128 0x13
 1113 03ee CF030000 		.4byte	0x3cf
 1114 03f2 13       		.uleb128 0x13
 1115 03f3 62000000 		.4byte	0x62
 1116 03f7 00       		.byte	0
 1117 03f8 0A       		.uleb128 0xa
 1118 03f9 75010000 		.4byte	.LASF61
 1119 03fd 07       		.byte	0x7
 1120 03fe 1A02     		.2byte	0x21a
 1121 0400 04040000 		.4byte	0x404
 1122 0404 0D       		.uleb128 0xd
 1123 0405 04       		.byte	0x4
 1124 0406 0A040000 		.4byte	0x40a
 1125 040a 12       		.uleb128 0x12
 1126 040b 01       		.byte	0x1
 1127 040c 1B040000 		.4byte	0x41b
 1128 0410 13       		.uleb128 0x13
 1129 0411 CF030000 		.4byte	0x3cf
 1130 0415 13       		.uleb128 0x13
ARM GAS  C:\Users\Mohamad\AppData\Local\Temp\cceoe6gg.s 			page 21


 1131 0416 04030000 		.4byte	0x304
 1132 041a 00       		.byte	0
 1133 041b 07       		.uleb128 0x7
 1134 041c 20       		.byte	0x20
 1135 041d 07       		.byte	0x7
 1136 041e 2002     		.2byte	0x220
 1137 0420 AC040000 		.4byte	0x4ac
 1138 0424 09       		.uleb128 0x9
 1139 0425 FC000000 		.4byte	.LASF62
 1140 0429 07       		.byte	0x7
 1141 042a 2402     		.2byte	0x224
 1142 042c B1030000 		.4byte	0x3b1
 1143 0430 02       		.byte	0x2
 1144 0431 23       		.byte	0x23
 1145 0432 00       		.uleb128 0
 1146 0433 09       		.uleb128 0x9
 1147 0434 18020000 		.4byte	.LASF63
 1148 0438 07       		.byte	0x7
 1149 0439 2802     		.2byte	0x228
 1150 043b B1030000 		.4byte	0x3b1
 1151 043f 02       		.byte	0x2
 1152 0440 23       		.byte	0x23
 1153 0441 04       		.uleb128 0x4
 1154 0442 09       		.uleb128 0x9
 1155 0443 E4030000 		.4byte	.LASF64
 1156 0447 07       		.byte	0x7
 1157 0448 2C02     		.2byte	0x22c
 1158 044a B1030000 		.4byte	0x3b1
 1159 044e 02       		.byte	0x2
 1160 044f 23       		.byte	0x23
 1161 0450 08       		.uleb128 0x8
 1162 0451 09       		.uleb128 0x9
 1163 0452 FA030000 		.4byte	.LASF65
 1164 0456 07       		.byte	0x7
 1165 0457 3002     		.2byte	0x230
 1166 0459 D5030000 		.4byte	0x3d5
 1167 045d 02       		.byte	0x2
 1168 045e 23       		.byte	0x23
 1169 045f 0C       		.uleb128 0xc
 1170 0460 09       		.uleb128 0x9
 1171 0461 6B000000 		.4byte	.LASF66
 1172 0465 07       		.byte	0x7
 1173 0466 3402     		.2byte	0x234
 1174 0468 F8030000 		.4byte	0x3f8
 1175 046c 02       		.byte	0x2
 1176 046d 23       		.byte	0x23
 1177 046e 10       		.uleb128 0x10
 1178 046f 09       		.uleb128 0x9
 1179 0470 D2020000 		.4byte	.LASF67
 1180 0474 07       		.byte	0x7
 1181 0475 3902     		.2byte	0x239
 1182 0477 86000000 		.4byte	0x86
 1183 047b 02       		.byte	0x2
 1184 047c 23       		.byte	0x23
 1185 047d 14       		.uleb128 0x14
 1186 047e 08       		.uleb128 0x8
 1187 047f 63723100 		.ascii	"cr1\000"
ARM GAS  C:\Users\Mohamad\AppData\Local\Temp\cceoe6gg.s 			page 22


 1188 0483 07       		.byte	0x7
 1189 0484 3D02     		.2byte	0x23d
 1190 0486 62000000 		.4byte	0x62
 1191 048a 02       		.byte	0x2
 1192 048b 23       		.byte	0x23
 1193 048c 18       		.uleb128 0x18
 1194 048d 08       		.uleb128 0x8
 1195 048e 63723200 		.ascii	"cr2\000"
 1196 0492 07       		.byte	0x7
 1197 0493 4102     		.2byte	0x241
 1198 0495 62000000 		.4byte	0x62
 1199 0499 02       		.byte	0x2
 1200 049a 23       		.byte	0x23
 1201 049b 1A       		.uleb128 0x1a
 1202 049c 08       		.uleb128 0x8
 1203 049d 63723300 		.ascii	"cr3\000"
 1204 04a1 07       		.byte	0x7
 1205 04a2 4502     		.2byte	0x245
 1206 04a4 62000000 		.4byte	0x62
 1207 04a8 02       		.byte	0x2
 1208 04a9 23       		.byte	0x23
 1209 04aa 1C       		.uleb128 0x1c
 1210 04ab 00       		.byte	0
 1211 04ac 0A       		.uleb128 0xa
 1212 04ad DC000000 		.4byte	.LASF68
 1213 04b1 07       		.byte	0x7
 1214 04b2 4602     		.2byte	0x246
 1215 04b4 1B040000 		.4byte	0x41b
 1216 04b8 0D       		.uleb128 0xd
 1217 04b9 04       		.byte	0x4
 1218 04ba BE040000 		.4byte	0x4be
 1219 04be 0E       		.uleb128 0xe
 1220 04bf AC040000 		.4byte	0x4ac
 1221 04c3 0D       		.uleb128 0xd
 1222 04c4 04       		.byte	0x4
 1223 04c5 15020000 		.4byte	0x215
 1224 04c9 14       		.uleb128 0x14
 1225 04ca 01       		.byte	0x1
 1226 04cb E4020000 		.4byte	.LASF69
 1227 04cf 01       		.byte	0x1
 1228 04d0 44       		.byte	0x44
 1229 04d1 01       		.byte	0x1
 1230 04d2 00000000 		.4byte	.LFB118
 1231 04d6 04000000 		.4byte	.LFE118
 1232 04da 02       		.byte	0x2
 1233 04db 7D       		.byte	0x7d
 1234 04dc 00       		.sleb128 0
 1235 04dd 01       		.byte	0x1
 1236 04de ED040000 		.4byte	0x4ed
 1237 04e2 15       		.uleb128 0x15
 1238 04e3 04000000 		.4byte	.LVL0
 1239 04e7 01       		.byte	0x1
 1240 04e8 B0090000 		.4byte	0x9b0
 1241 04ec 00       		.byte	0
 1242 04ed 14       		.uleb128 0x14
 1243 04ee 01       		.byte	0x1
 1244 04ef 8B010000 		.4byte	.LASF70
ARM GAS  C:\Users\Mohamad\AppData\Local\Temp\cceoe6gg.s 			page 23


 1245 04f3 01       		.byte	0x1
 1246 04f4 50       		.byte	0x50
 1247 04f5 01       		.byte	0x1
 1248 04f6 00000000 		.4byte	.LFB119
 1249 04fa 0E000000 		.4byte	.LFE119
 1250 04fe 02       		.byte	0x2
 1251 04ff 7D       		.byte	0x7d
 1252 0500 00       		.sleb128 0
 1253 0501 01       		.byte	0x1
 1254 0502 14050000 		.4byte	0x514
 1255 0506 16       		.uleb128 0x16
 1256 0507 62040000 		.4byte	.LASF72
 1257 050b 01       		.byte	0x1
 1258 050c 50       		.byte	0x50
 1259 050d CF030000 		.4byte	0x3cf
 1260 0511 01       		.byte	0x1
 1261 0512 50       		.byte	0x50
 1262 0513 00       		.byte	0
 1263 0514 17       		.uleb128 0x17
 1264 0515 01       		.byte	0x1
 1265 0516 16000000 		.4byte	.LASF71
 1266 051a 01       		.byte	0x1
 1267 051b 64       		.byte	0x64
 1268 051c 01       		.byte	0x1
 1269 051d 00000000 		.4byte	.LFB120
 1270 0521 1C000000 		.4byte	.LFE120
 1271 0525 00000000 		.4byte	.LLST0
 1272 0529 01       		.byte	0x1
 1273 052a 93050000 		.4byte	0x593
 1274 052e 18       		.uleb128 0x18
 1275 052f 62040000 		.4byte	.LASF72
 1276 0533 01       		.byte	0x1
 1277 0534 64       		.byte	0x64
 1278 0535 CF030000 		.4byte	0x3cf
 1279 0539 20000000 		.4byte	.LLST1
 1280 053d 18       		.uleb128 0x18
 1281 053e 1E010000 		.4byte	.LASF53
 1282 0542 01       		.byte	0x1
 1283 0543 64       		.byte	0x64
 1284 0544 B8040000 		.4byte	0x4b8
 1285 0548 3E000000 		.4byte	.LLST2
 1286 054c 19       		.uleb128 0x19
 1287 054d 00000000 		.4byte	.Ldebug_ranges0+0
 1288 0551 65050000 		.4byte	0x565
 1289 0555 1A       		.uleb128 0x1a
 1290 0556 746D7000 		.ascii	"tmp\000"
 1291 055a 01       		.byte	0x1
 1292 055b 68       		.byte	0x68
 1293 055c 86000000 		.4byte	0x86
 1294 0560 5F000000 		.4byte	.LLST3
 1295 0564 00       		.byte	0
 1296 0565 1B       		.uleb128 0x1b
 1297 0566 14000000 		.4byte	.LBB4
 1298 056a 1C000000 		.4byte	.LBE4
 1299 056e 82050000 		.4byte	0x582
 1300 0572 1A       		.uleb128 0x1a
 1301 0573 746D7000 		.ascii	"tmp\000"
ARM GAS  C:\Users\Mohamad\AppData\Local\Temp\cceoe6gg.s 			page 24


 1302 0577 01       		.byte	0x1
 1303 0578 6F       		.byte	0x6f
 1304 0579 86000000 		.4byte	0x86
 1305 057d 72000000 		.4byte	.LLST4
 1306 0581 00       		.byte	0
 1307 0582 1C       		.uleb128 0x1c
 1308 0583 10000000 		.4byte	.LVL5
 1309 0587 BB090000 		.4byte	0x9bb
 1310 058b 1D       		.uleb128 0x1d
 1311 058c 01       		.byte	0x1
 1312 058d 50       		.byte	0x50
 1313 058e 02       		.byte	0x2
 1314 058f 74       		.byte	0x74
 1315 0590 00       		.sleb128 0
 1316 0591 00       		.byte	0
 1317 0592 00       		.byte	0
 1318 0593 17       		.uleb128 0x17
 1319 0594 01       		.byte	0x1
 1320 0595 23040000 		.4byte	.LASF73
 1321 0599 01       		.byte	0x1
 1322 059a 79       		.byte	0x79
 1323 059b 01       		.byte	0x1
 1324 059c 00000000 		.4byte	.LFB121
 1325 05a0 1E000000 		.4byte	.LFE121
 1326 05a4 85000000 		.4byte	.LLST5
 1327 05a8 01       		.byte	0x1
 1328 05a9 01060000 		.4byte	0x601
 1329 05ad 18       		.uleb128 0x18
 1330 05ae 62040000 		.4byte	.LASF72
 1331 05b2 01       		.byte	0x1
 1332 05b3 79       		.byte	0x79
 1333 05b4 CF030000 		.4byte	0x3cf
 1334 05b8 A5000000 		.4byte	.LLST6
 1335 05bc 19       		.uleb128 0x19
 1336 05bd 18000000 		.4byte	.Ldebug_ranges0+0x18
 1337 05c1 D5050000 		.4byte	0x5d5
 1338 05c5 1A       		.uleb128 0x1a
 1339 05c6 746D7000 		.ascii	"tmp\000"
 1340 05ca 01       		.byte	0x1
 1341 05cb 7D       		.byte	0x7d
 1342 05cc 86000000 		.4byte	0x86
 1343 05d0 C3000000 		.4byte	.LLST7
 1344 05d4 00       		.byte	0
 1345 05d5 1B       		.uleb128 0x1b
 1346 05d6 18000000 		.4byte	.LBB7
 1347 05da 1E000000 		.4byte	.LBE7
 1348 05de F0050000 		.4byte	0x5f0
 1349 05e2 1E       		.uleb128 0x1e
 1350 05e3 746D7000 		.ascii	"tmp\000"
 1351 05e7 01       		.byte	0x1
 1352 05e8 85       		.byte	0x85
 1353 05e9 86000000 		.4byte	0x86
 1354 05ed 01       		.byte	0x1
 1355 05ee 53       		.byte	0x53
 1356 05ef 00       		.byte	0
 1357 05f0 1C       		.uleb128 0x1c
 1358 05f1 0E000000 		.4byte	.LVL11
ARM GAS  C:\Users\Mohamad\AppData\Local\Temp\cceoe6gg.s 			page 25


 1359 05f5 D0090000 		.4byte	0x9d0
 1360 05f9 1D       		.uleb128 0x1d
 1361 05fa 01       		.byte	0x1
 1362 05fb 50       		.byte	0x50
 1363 05fc 02       		.byte	0x2
 1364 05fd 74       		.byte	0x74
 1365 05fe 00       		.sleb128 0
 1366 05ff 00       		.byte	0
 1367 0600 00       		.byte	0
 1368 0601 17       		.uleb128 0x17
 1369 0602 01       		.byte	0x1
 1370 0603 25010000 		.4byte	.LASF74
 1371 0607 01       		.byte	0x1
 1372 0608 93       		.byte	0x93
 1373 0609 01       		.byte	0x1
 1374 060a 00000000 		.4byte	.LFB122
 1375 060e 1A000000 		.4byte	.LFE122
 1376 0612 D6000000 		.4byte	.LLST8
 1377 0616 01       		.byte	0x1
 1378 0617 9B060000 		.4byte	0x69b
 1379 061b 18       		.uleb128 0x18
 1380 061c 62040000 		.4byte	.LASF72
 1381 0620 01       		.byte	0x1
 1382 0621 93       		.byte	0x93
 1383 0622 CF030000 		.4byte	0x3cf
 1384 0626 F6000000 		.4byte	.LLST9
 1385 062a 1F       		.uleb128 0x1f
 1386 062b 6E00     		.ascii	"n\000"
 1387 062d 01       		.byte	0x1
 1388 062e 93       		.byte	0x93
 1389 062f 30000000 		.4byte	0x30
 1390 0633 14010000 		.4byte	.LLST10
 1391 0637 18       		.uleb128 0x18
 1392 0638 16030000 		.4byte	.LASF75
 1393 063c 01       		.byte	0x1
 1394 063d 93       		.byte	0x93
 1395 063e 9B060000 		.4byte	0x69b
 1396 0642 35010000 		.4byte	.LLST11
 1397 0646 19       		.uleb128 0x19
 1398 0647 30000000 		.4byte	.Ldebug_ranges0+0x30
 1399 064b 5F060000 		.4byte	0x65f
 1400 064f 1A       		.uleb128 0x1a
 1401 0650 746D7000 		.ascii	"tmp\000"
 1402 0654 01       		.byte	0x1
 1403 0655 98       		.byte	0x98
 1404 0656 86000000 		.4byte	0x86
 1405 065a 56010000 		.4byte	.LLST12
 1406 065e 00       		.byte	0
 1407 065f 1B       		.uleb128 0x1b
 1408 0660 12000000 		.4byte	.LBB10
 1409 0664 1A000000 		.4byte	.LBE10
 1410 0668 7C060000 		.4byte	0x67c
 1411 066c 1A       		.uleb128 0x1a
 1412 066d 746D7000 		.ascii	"tmp\000"
 1413 0671 01       		.byte	0x1
 1414 0672 A0       		.byte	0xa0
 1415 0673 86000000 		.4byte	0x86
ARM GAS  C:\Users\Mohamad\AppData\Local\Temp\cceoe6gg.s 			page 26


 1416 0677 69010000 		.4byte	.LLST13
 1417 067b 00       		.byte	0
 1418 067c 1C       		.uleb128 0x1c
 1419 067d 0E000000 		.4byte	.LVL16
 1420 0681 E5090000 		.4byte	0x9e5
 1421 0685 1D       		.uleb128 0x1d
 1422 0686 01       		.byte	0x1
 1423 0687 52       		.byte	0x52
 1424 0688 03       		.byte	0x3
 1425 0689 F3       		.byte	0xf3
 1426 068a 01       		.uleb128 0x1
 1427 068b 52       		.byte	0x52
 1428 068c 1D       		.uleb128 0x1d
 1429 068d 01       		.byte	0x1
 1430 068e 51       		.byte	0x51
 1431 068f 03       		.byte	0x3
 1432 0690 F3       		.byte	0xf3
 1433 0691 01       		.uleb128 0x1
 1434 0692 51       		.byte	0x51
 1435 0693 1D       		.uleb128 0x1d
 1436 0694 01       		.byte	0x1
 1437 0695 50       		.byte	0x50
 1438 0696 02       		.byte	0x2
 1439 0697 74       		.byte	0x74
 1440 0698 00       		.sleb128 0
 1441 0699 00       		.byte	0
 1442 069a 00       		.byte	0
 1443 069b 0D       		.uleb128 0xd
 1444 069c 04       		.byte	0x4
 1445 069d A1060000 		.4byte	0x6a1
 1446 06a1 20       		.uleb128 0x20
 1447 06a2 17       		.uleb128 0x17
 1448 06a3 01       		.byte	0x1
 1449 06a4 26000000 		.4byte	.LASF76
 1450 06a8 01       		.byte	0x1
 1451 06a9 AF       		.byte	0xaf
 1452 06aa 01       		.byte	0x1
 1453 06ab 00000000 		.4byte	.LFB123
 1454 06af 0E000000 		.4byte	.LFE123
 1455 06b3 7C010000 		.4byte	.LLST14
 1456 06b7 01       		.byte	0x1
 1457 06b8 06070000 		.4byte	0x706
 1458 06bc 18       		.uleb128 0x18
 1459 06bd 62040000 		.4byte	.LASF72
 1460 06c1 01       		.byte	0x1
 1461 06c2 AF       		.byte	0xaf
 1462 06c3 CF030000 		.4byte	0x3cf
 1463 06c7 9C010000 		.4byte	.LLST15
 1464 06cb 1F       		.uleb128 0x1f
 1465 06cc 6E00     		.ascii	"n\000"
 1466 06ce 01       		.byte	0x1
 1467 06cf AF       		.byte	0xaf
 1468 06d0 30000000 		.4byte	0x30
 1469 06d4 BA010000 		.4byte	.LLST16
 1470 06d8 18       		.uleb128 0x18
 1471 06d9 16030000 		.4byte	.LASF75
 1472 06dd 01       		.byte	0x1
ARM GAS  C:\Users\Mohamad\AppData\Local\Temp\cceoe6gg.s 			page 27


 1473 06de AF       		.byte	0xaf
 1474 06df 9B060000 		.4byte	0x69b
 1475 06e3 DB010000 		.4byte	.LLST17
 1476 06e7 1C       		.uleb128 0x1c
 1477 06e8 08000000 		.4byte	.LVL20
 1478 06ec E5090000 		.4byte	0x9e5
 1479 06f0 1D       		.uleb128 0x1d
 1480 06f1 01       		.byte	0x1
 1481 06f2 52       		.byte	0x52
 1482 06f3 03       		.byte	0x3
 1483 06f4 F3       		.byte	0xf3
 1484 06f5 01       		.uleb128 0x1
 1485 06f6 52       		.byte	0x52
 1486 06f7 1D       		.uleb128 0x1d
 1487 06f8 01       		.byte	0x1
 1488 06f9 51       		.byte	0x51
 1489 06fa 03       		.byte	0x3
 1490 06fb F3       		.byte	0xf3
 1491 06fc 01       		.uleb128 0x1
 1492 06fd 51       		.byte	0x51
 1493 06fe 1D       		.uleb128 0x1d
 1494 06ff 01       		.byte	0x1
 1495 0700 50       		.byte	0x50
 1496 0701 02       		.byte	0x2
 1497 0702 74       		.byte	0x74
 1498 0703 00       		.sleb128 0
 1499 0704 00       		.byte	0
 1500 0705 00       		.byte	0
 1501 0706 21       		.uleb128 0x21
 1502 0707 01       		.byte	0x1
 1503 0708 EF000000 		.4byte	.LASF77
 1504 070c 01       		.byte	0x1
 1505 070d C9       		.byte	0xc9
 1506 070e 01       		.byte	0x1
 1507 070f 30000000 		.4byte	0x30
 1508 0713 00000000 		.4byte	.LFB124
 1509 0717 24000000 		.4byte	.LFE124
 1510 071b FC010000 		.4byte	.LLST18
 1511 071f 01       		.byte	0x1
 1512 0720 80070000 		.4byte	0x780
 1513 0724 18       		.uleb128 0x18
 1514 0725 62040000 		.4byte	.LASF72
 1515 0729 01       		.byte	0x1
 1516 072a C9       		.byte	0xc9
 1517 072b CF030000 		.4byte	0x3cf
 1518 072f 1C020000 		.4byte	.LLST19
 1519 0733 1A       		.uleb128 0x1a
 1520 0734 6E00     		.ascii	"n\000"
 1521 0736 01       		.byte	0x1
 1522 0737 CA       		.byte	0xca
 1523 0738 30000000 		.4byte	0x30
 1524 073c 50020000 		.4byte	.LLST20
 1525 0740 19       		.uleb128 0x19
 1526 0741 48000000 		.4byte	.Ldebug_ranges0+0x48
 1527 0745 59070000 		.4byte	0x759
 1528 0749 1A       		.uleb128 0x1a
 1529 074a 746D7000 		.ascii	"tmp\000"
ARM GAS  C:\Users\Mohamad\AppData\Local\Temp\cceoe6gg.s 			page 28


 1530 074e 01       		.byte	0x1
 1531 074f CE       		.byte	0xce
 1532 0750 86000000 		.4byte	0x86
 1533 0754 6E020000 		.4byte	.LLST21
 1534 0758 00       		.byte	0
 1535 0759 1B       		.uleb128 0x1b
 1536 075a 12000000 		.4byte	.LBB13
 1537 075e 18000000 		.4byte	.LBE13
 1538 0762 76070000 		.4byte	0x776
 1539 0766 1A       		.uleb128 0x1a
 1540 0767 746D7000 		.ascii	"tmp\000"
 1541 076b 01       		.byte	0x1
 1542 076c D7       		.byte	0xd7
 1543 076d 86000000 		.4byte	0x86
 1544 0771 81020000 		.4byte	.LLST22
 1545 0775 00       		.byte	0
 1546 0776 22       		.uleb128 0x22
 1547 0777 1E000000 		.4byte	.LVL29
 1548 077b 040A0000 		.4byte	0xa04
 1549 077f 00       		.byte	0
 1550 0780 21       		.uleb128 0x21
 1551 0781 01       		.byte	0x1
 1552 0782 56000000 		.4byte	.LASF78
 1553 0786 01       		.byte	0x1
 1554 0787 E8       		.byte	0xe8
 1555 0788 01       		.byte	0x1
 1556 0789 30000000 		.4byte	0x30
 1557 078d 00000000 		.4byte	.LFB125
 1558 0791 18000000 		.4byte	.LFE125
 1559 0795 94020000 		.4byte	.LLST23
 1560 0799 01       		.byte	0x1
 1561 079a CC070000 		.4byte	0x7cc
 1562 079e 18       		.uleb128 0x18
 1563 079f 62040000 		.4byte	.LASF72
 1564 07a3 01       		.byte	0x1
 1565 07a4 E8       		.byte	0xe8
 1566 07a5 CF030000 		.4byte	0x3cf
 1567 07a9 B4020000 		.4byte	.LLST24
 1568 07ad 23       		.uleb128 0x23
 1569 07ae 0E000000 		.4byte	.LBB14
 1570 07b2 18000000 		.4byte	.LBE14
 1571 07b6 1E       		.uleb128 0x1e
 1572 07b7 6E00     		.ascii	"n\000"
 1573 07b9 01       		.byte	0x1
 1574 07ba EF       		.byte	0xef
 1575 07bb 30000000 		.4byte	0x30
 1576 07bf 01       		.byte	0x1
 1577 07c0 50       		.byte	0x50
 1578 07c1 22       		.uleb128 0x22
 1579 07c2 12000000 		.4byte	.LVL33
 1580 07c6 040A0000 		.4byte	0xa04
 1581 07ca 00       		.byte	0
 1582 07cb 00       		.byte	0
 1583 07cc 24       		.uleb128 0x24
 1584 07cd 01       		.byte	0x1
 1585 07ce 46010000 		.4byte	.LASF79
 1586 07d2 01       		.byte	0x1
ARM GAS  C:\Users\Mohamad\AppData\Local\Temp\cceoe6gg.s 			page 29


 1587 07d3 0101     		.2byte	0x101
 1588 07d5 01       		.byte	0x1
 1589 07d6 00000000 		.4byte	.LFB126
 1590 07da 1A000000 		.4byte	.LFE126
 1591 07de E8020000 		.4byte	.LLST25
 1592 07e2 01       		.byte	0x1
 1593 07e3 6C080000 		.4byte	0x86c
 1594 07e7 25       		.uleb128 0x25
 1595 07e8 62040000 		.4byte	.LASF72
 1596 07ec 01       		.byte	0x1
 1597 07ed 0101     		.2byte	0x101
 1598 07ef CF030000 		.4byte	0x3cf
 1599 07f3 08030000 		.4byte	.LLST26
 1600 07f7 26       		.uleb128 0x26
 1601 07f8 6E00     		.ascii	"n\000"
 1602 07fa 01       		.byte	0x1
 1603 07fb 0101     		.2byte	0x101
 1604 07fd 30000000 		.4byte	0x30
 1605 0801 26030000 		.4byte	.LLST27
 1606 0805 25       		.uleb128 0x25
 1607 0806 2C040000 		.4byte	.LASF58
 1608 080a 01       		.byte	0x1
 1609 080b 0101     		.2byte	0x101
 1610 080d AD000000 		.4byte	0xad
 1611 0811 47030000 		.4byte	.LLST28
 1612 0815 19       		.uleb128 0x19
 1613 0816 60000000 		.4byte	.Ldebug_ranges0+0x60
 1614 081a 2F080000 		.4byte	0x82f
 1615 081e 27       		.uleb128 0x27
 1616 081f 746D7000 		.ascii	"tmp\000"
 1617 0823 01       		.byte	0x1
 1618 0824 0601     		.2byte	0x106
 1619 0826 86000000 		.4byte	0x86
 1620 082a 68030000 		.4byte	.LLST29
 1621 082e 00       		.byte	0
 1622 082f 1B       		.uleb128 0x1b
 1623 0830 12000000 		.4byte	.LBB17
 1624 0834 1A000000 		.4byte	.LBE17
 1625 0838 4D080000 		.4byte	0x84d
 1626 083c 27       		.uleb128 0x27
 1627 083d 746D7000 		.ascii	"tmp\000"
 1628 0841 01       		.byte	0x1
 1629 0842 0E01     		.2byte	0x10e
 1630 0844 86000000 		.4byte	0x86
 1631 0848 7B030000 		.4byte	.LLST30
 1632 084c 00       		.byte	0
 1633 084d 1C       		.uleb128 0x1c
 1634 084e 0E000000 		.4byte	.LVL37
 1635 0852 1D0A0000 		.4byte	0xa1d
 1636 0856 1D       		.uleb128 0x1d
 1637 0857 01       		.byte	0x1
 1638 0858 52       		.byte	0x52
 1639 0859 03       		.byte	0x3
 1640 085a F3       		.byte	0xf3
 1641 085b 01       		.uleb128 0x1
 1642 085c 52       		.byte	0x52
 1643 085d 1D       		.uleb128 0x1d
ARM GAS  C:\Users\Mohamad\AppData\Local\Temp\cceoe6gg.s 			page 30


 1644 085e 01       		.byte	0x1
 1645 085f 51       		.byte	0x51
 1646 0860 03       		.byte	0x3
 1647 0861 F3       		.byte	0xf3
 1648 0862 01       		.uleb128 0x1
 1649 0863 51       		.byte	0x51
 1650 0864 1D       		.uleb128 0x1d
 1651 0865 01       		.byte	0x1
 1652 0866 50       		.byte	0x50
 1653 0867 02       		.byte	0x2
 1654 0868 74       		.byte	0x74
 1655 0869 00       		.sleb128 0
 1656 086a 00       		.byte	0
 1657 086b 00       		.byte	0
 1658 086c 24       		.uleb128 0x24
 1659 086d 01       		.byte	0x1
 1660 086e 32040000 		.4byte	.LASF80
 1661 0872 01       		.byte	0x1
 1662 0873 1D01     		.2byte	0x11d
 1663 0875 01       		.byte	0x1
 1664 0876 00000000 		.4byte	.LFB127
 1665 087a 0E000000 		.4byte	.LFE127
 1666 087e 8E030000 		.4byte	.LLST31
 1667 0882 01       		.byte	0x1
 1668 0883 D4080000 		.4byte	0x8d4
 1669 0887 25       		.uleb128 0x25
 1670 0888 62040000 		.4byte	.LASF72
 1671 088c 01       		.byte	0x1
 1672 088d 1D01     		.2byte	0x11d
 1673 088f CF030000 		.4byte	0x3cf
 1674 0893 AE030000 		.4byte	.LLST32
 1675 0897 26       		.uleb128 0x26
 1676 0898 6E00     		.ascii	"n\000"
 1677 089a 01       		.byte	0x1
 1678 089b 1D01     		.2byte	0x11d
 1679 089d 30000000 		.4byte	0x30
 1680 08a1 CC030000 		.4byte	.LLST33
 1681 08a5 25       		.uleb128 0x25
 1682 08a6 2C040000 		.4byte	.LASF58
 1683 08aa 01       		.byte	0x1
 1684 08ab 1D01     		.2byte	0x11d
 1685 08ad AD000000 		.4byte	0xad
 1686 08b1 ED030000 		.4byte	.LLST34
 1687 08b5 1C       		.uleb128 0x1c
 1688 08b6 08000000 		.4byte	.LVL41
 1689 08ba 1D0A0000 		.4byte	0xa1d
 1690 08be 1D       		.uleb128 0x1d
 1691 08bf 01       		.byte	0x1
 1692 08c0 52       		.byte	0x52
 1693 08c1 03       		.byte	0x3
 1694 08c2 F3       		.byte	0xf3
 1695 08c3 01       		.uleb128 0x1
 1696 08c4 52       		.byte	0x52
 1697 08c5 1D       		.uleb128 0x1d
 1698 08c6 01       		.byte	0x1
 1699 08c7 51       		.byte	0x51
 1700 08c8 03       		.byte	0x3
ARM GAS  C:\Users\Mohamad\AppData\Local\Temp\cceoe6gg.s 			page 31


 1701 08c9 F3       		.byte	0xf3
 1702 08ca 01       		.uleb128 0x1
 1703 08cb 51       		.byte	0x51
 1704 08cc 1D       		.uleb128 0x1d
 1705 08cd 01       		.byte	0x1
 1706 08ce 50       		.byte	0x50
 1707 08cf 02       		.byte	0x2
 1708 08d0 74       		.byte	0x74
 1709 08d1 00       		.sleb128 0
 1710 08d2 00       		.byte	0
 1711 08d3 00       		.byte	0
 1712 08d4 28       		.uleb128 0x28
 1713 08d5 01       		.byte	0x1
 1714 08d6 BD010000 		.4byte	.LASF81
 1715 08da 01       		.byte	0x1
 1716 08db 3701     		.2byte	0x137
 1717 08dd 01       		.byte	0x1
 1718 08de 30000000 		.4byte	0x30
 1719 08e2 00000000 		.4byte	.LFB128
 1720 08e6 24000000 		.4byte	.LFE128
 1721 08ea 0E040000 		.4byte	.LLST35
 1722 08ee 01       		.byte	0x1
 1723 08ef 53090000 		.4byte	0x953
 1724 08f3 25       		.uleb128 0x25
 1725 08f4 62040000 		.4byte	.LASF72
 1726 08f8 01       		.byte	0x1
 1727 08f9 3701     		.2byte	0x137
 1728 08fb CF030000 		.4byte	0x3cf
 1729 08ff 2E040000 		.4byte	.LLST36
 1730 0903 27       		.uleb128 0x27
 1731 0904 6E00     		.ascii	"n\000"
 1732 0906 01       		.byte	0x1
 1733 0907 3801     		.2byte	0x138
 1734 0909 30000000 		.4byte	0x30
 1735 090d 62040000 		.4byte	.LLST37
 1736 0911 19       		.uleb128 0x19
 1737 0912 78000000 		.4byte	.Ldebug_ranges0+0x78
 1738 0916 2B090000 		.4byte	0x92b
 1739 091a 27       		.uleb128 0x27
 1740 091b 746D7000 		.ascii	"tmp\000"
 1741 091f 01       		.byte	0x1
 1742 0920 3C01     		.2byte	0x13c
 1743 0922 86000000 		.4byte	0x86
 1744 0926 80040000 		.4byte	.LLST38
 1745 092a 00       		.byte	0
 1746 092b 1B       		.uleb128 0x1b
 1747 092c 12000000 		.4byte	.LBB20
 1748 0930 18000000 		.4byte	.LBE20
 1749 0934 49090000 		.4byte	0x949
 1750 0938 27       		.uleb128 0x27
 1751 0939 746D7000 		.ascii	"tmp\000"
 1752 093d 01       		.byte	0x1
 1753 093e 4601     		.2byte	0x146
 1754 0940 86000000 		.4byte	0x86
 1755 0944 93040000 		.4byte	.LLST39
 1756 0948 00       		.byte	0
 1757 0949 22       		.uleb128 0x22
ARM GAS  C:\Users\Mohamad\AppData\Local\Temp\cceoe6gg.s 			page 32


 1758 094a 1E000000 		.4byte	.LVL50
 1759 094e 3C0A0000 		.4byte	0xa3c
 1760 0952 00       		.byte	0
 1761 0953 28       		.uleb128 0x28
 1762 0954 01       		.byte	0x1
 1763 0955 61020000 		.4byte	.LASF82
 1764 0959 01       		.byte	0x1
 1765 095a 5701     		.2byte	0x157
 1766 095c 01       		.byte	0x1
 1767 095d 30000000 		.4byte	0x30
 1768 0961 00000000 		.4byte	.LFB129
 1769 0965 18000000 		.4byte	.LFE129
 1770 0969 A6040000 		.4byte	.LLST40
 1771 096d 01       		.byte	0x1
 1772 096e A2090000 		.4byte	0x9a2
 1773 0972 25       		.uleb128 0x25
 1774 0973 62040000 		.4byte	.LASF72
 1775 0977 01       		.byte	0x1
 1776 0978 5701     		.2byte	0x157
 1777 097a CF030000 		.4byte	0x3cf
 1778 097e C6040000 		.4byte	.LLST41
 1779 0982 23       		.uleb128 0x23
 1780 0983 0E000000 		.4byte	.LBB21
 1781 0987 18000000 		.4byte	.LBE21
 1782 098b 29       		.uleb128 0x29
 1783 098c 6E00     		.ascii	"n\000"
 1784 098e 01       		.byte	0x1
 1785 098f 5F01     		.2byte	0x15f
 1786 0991 30000000 		.4byte	0x30
 1787 0995 01       		.byte	0x1
 1788 0996 50       		.byte	0x50
 1789 0997 22       		.uleb128 0x22
 1790 0998 12000000 		.4byte	.LVL54
 1791 099c 3C0A0000 		.4byte	0xa3c
 1792 09a0 00       		.byte	0
 1793 09a1 00       		.byte	0
 1794 09a2 2A       		.uleb128 0x2a
 1795 09a3 4B040000 		.4byte	.LASF91
 1796 09a7 08       		.byte	0x8
 1797 09a8 9806     		.2byte	0x698
 1798 09aa C7000000 		.4byte	0xc7
 1799 09ae 01       		.byte	0x1
 1800 09af 01       		.byte	0x1
 1801 09b0 2B       		.uleb128 0x2b
 1802 09b1 01       		.byte	0x1
 1803 09b2 45020000 		.4byte	.LASF92
 1804 09b6 07       		.byte	0x7
 1805 09b7 9902     		.2byte	0x299
 1806 09b9 01       		.byte	0x1
 1807 09ba 01       		.byte	0x1
 1808 09bb 2C       		.uleb128 0x2c
 1809 09bc 01       		.byte	0x1
 1810 09bd 28020000 		.4byte	.LASF83
 1811 09c1 07       		.byte	0x7
 1812 09c2 9A02     		.2byte	0x29a
 1813 09c4 01       		.byte	0x1
 1814 09c5 01       		.byte	0x1
ARM GAS  C:\Users\Mohamad\AppData\Local\Temp\cceoe6gg.s 			page 33


 1815 09c6 D0090000 		.4byte	0x9d0
 1816 09ca 13       		.uleb128 0x13
 1817 09cb CF030000 		.4byte	0x3cf
 1818 09cf 00       		.byte	0
 1819 09d0 2C       		.uleb128 0x2c
 1820 09d1 01       		.byte	0x1
 1821 09d2 78040000 		.4byte	.LASF84
 1822 09d6 07       		.byte	0x7
 1823 09d7 9B02     		.2byte	0x29b
 1824 09d9 01       		.byte	0x1
 1825 09da 01       		.byte	0x1
 1826 09db E5090000 		.4byte	0x9e5
 1827 09df 13       		.uleb128 0x13
 1828 09e0 CF030000 		.4byte	0x3cf
 1829 09e4 00       		.byte	0
 1830 09e5 2C       		.uleb128 0x2c
 1831 09e6 01       		.byte	0x1
 1832 09e7 A9010000 		.4byte	.LASF85
 1833 09eb 07       		.byte	0x7
 1834 09ec 9C02     		.2byte	0x29c
 1835 09ee 01       		.byte	0x1
 1836 09ef 01       		.byte	0x1
 1837 09f0 040A0000 		.4byte	0xa04
 1838 09f4 13       		.uleb128 0x13
 1839 09f5 CF030000 		.4byte	0x3cf
 1840 09f9 13       		.uleb128 0x13
 1841 09fa 30000000 		.4byte	0x30
 1842 09fe 13       		.uleb128 0x13
 1843 09ff 9B060000 		.4byte	0x69b
 1844 0a03 00       		.byte	0
 1845 0a04 2D       		.uleb128 0x2d
 1846 0a05 01       		.byte	0x1
 1847 0a06 04040000 		.4byte	.LASF93
 1848 0a0a 07       		.byte	0x7
 1849 0a0b 9D02     		.2byte	0x29d
 1850 0a0d 01       		.byte	0x1
 1851 0a0e 30000000 		.4byte	0x30
 1852 0a12 01       		.byte	0x1
 1853 0a13 1D0A0000 		.4byte	0xa1d
 1854 0a17 13       		.uleb128 0x13
 1855 0a18 CF030000 		.4byte	0x3cf
 1856 0a1c 00       		.byte	0
 1857 0a1d 2C       		.uleb128 0x2c
 1858 0a1e 01       		.byte	0x1
 1859 0a1f C2030000 		.4byte	.LASF86
 1860 0a23 07       		.byte	0x7
 1861 0a24 9E02     		.2byte	0x29e
 1862 0a26 01       		.byte	0x1
 1863 0a27 01       		.byte	0x1
 1864 0a28 3C0A0000 		.4byte	0xa3c
 1865 0a2c 13       		.uleb128 0x13
 1866 0a2d CF030000 		.4byte	0x3cf
 1867 0a31 13       		.uleb128 0x13
 1868 0a32 30000000 		.4byte	0x30
 1869 0a36 13       		.uleb128 0x13
 1870 0a37 AD000000 		.4byte	0xad
 1871 0a3b 00       		.byte	0
ARM GAS  C:\Users\Mohamad\AppData\Local\Temp\cceoe6gg.s 			page 34


 1872 0a3c 2E       		.uleb128 0x2e
 1873 0a3d 01       		.byte	0x1
 1874 0a3e C6000000 		.4byte	.LASF87
 1875 0a42 07       		.byte	0x7
 1876 0a43 9F02     		.2byte	0x29f
 1877 0a45 01       		.byte	0x1
 1878 0a46 30000000 		.4byte	0x30
 1879 0a4a 01       		.byte	0x1
 1880 0a4b 13       		.uleb128 0x13
 1881 0a4c CF030000 		.4byte	0x3cf
 1882 0a50 00       		.byte	0
 1883 0a51 00       		.byte	0
 1884              		.section	.debug_abbrev,"",%progbits
 1885              	.Ldebug_abbrev0:
 1886 0000 01       		.uleb128 0x1
 1887 0001 11       		.uleb128 0x11
 1888 0002 01       		.byte	0x1
 1889 0003 25       		.uleb128 0x25
 1890 0004 0E       		.uleb128 0xe
 1891 0005 13       		.uleb128 0x13
 1892 0006 0B       		.uleb128 0xb
 1893 0007 03       		.uleb128 0x3
 1894 0008 0E       		.uleb128 0xe
 1895 0009 1B       		.uleb128 0x1b
 1896 000a 0E       		.uleb128 0xe
 1897 000b 55       		.uleb128 0x55
 1898 000c 06       		.uleb128 0x6
 1899 000d 11       		.uleb128 0x11
 1900 000e 01       		.uleb128 0x1
 1901 000f 52       		.uleb128 0x52
 1902 0010 01       		.uleb128 0x1
 1903 0011 10       		.uleb128 0x10
 1904 0012 06       		.uleb128 0x6
 1905 0013 00       		.byte	0
 1906 0014 00       		.byte	0
 1907 0015 02       		.uleb128 0x2
 1908 0016 24       		.uleb128 0x24
 1909 0017 00       		.byte	0
 1910 0018 0B       		.uleb128 0xb
 1911 0019 0B       		.uleb128 0xb
 1912 001a 3E       		.uleb128 0x3e
 1913 001b 0B       		.uleb128 0xb
 1914 001c 03       		.uleb128 0x3
 1915 001d 08       		.uleb128 0x8
 1916 001e 00       		.byte	0
 1917 001f 00       		.byte	0
 1918 0020 03       		.uleb128 0x3
 1919 0021 16       		.uleb128 0x16
 1920 0022 00       		.byte	0
 1921 0023 03       		.uleb128 0x3
 1922 0024 0E       		.uleb128 0xe
 1923 0025 3A       		.uleb128 0x3a
 1924 0026 0B       		.uleb128 0xb
 1925 0027 3B       		.uleb128 0x3b
 1926 0028 0B       		.uleb128 0xb
 1927 0029 49       		.uleb128 0x49
 1928 002a 13       		.uleb128 0x13
ARM GAS  C:\Users\Mohamad\AppData\Local\Temp\cceoe6gg.s 			page 35


 1929 002b 00       		.byte	0
 1930 002c 00       		.byte	0
 1931 002d 04       		.uleb128 0x4
 1932 002e 24       		.uleb128 0x24
 1933 002f 00       		.byte	0
 1934 0030 0B       		.uleb128 0xb
 1935 0031 0B       		.uleb128 0xb
 1936 0032 3E       		.uleb128 0x3e
 1937 0033 0B       		.uleb128 0xb
 1938 0034 03       		.uleb128 0x3
 1939 0035 0E       		.uleb128 0xe
 1940 0036 00       		.byte	0
 1941 0037 00       		.byte	0
 1942 0038 05       		.uleb128 0x5
 1943 0039 0F       		.uleb128 0xf
 1944 003a 00       		.byte	0
 1945 003b 0B       		.uleb128 0xb
 1946 003c 0B       		.uleb128 0xb
 1947 003d 00       		.byte	0
 1948 003e 00       		.byte	0
 1949 003f 06       		.uleb128 0x6
 1950 0040 35       		.uleb128 0x35
 1951 0041 00       		.byte	0
 1952 0042 49       		.uleb128 0x49
 1953 0043 13       		.uleb128 0x13
 1954 0044 00       		.byte	0
 1955 0045 00       		.byte	0
 1956 0046 07       		.uleb128 0x7
 1957 0047 13       		.uleb128 0x13
 1958 0048 01       		.byte	0x1
 1959 0049 0B       		.uleb128 0xb
 1960 004a 0B       		.uleb128 0xb
 1961 004b 3A       		.uleb128 0x3a
 1962 004c 0B       		.uleb128 0xb
 1963 004d 3B       		.uleb128 0x3b
 1964 004e 05       		.uleb128 0x5
 1965 004f 01       		.uleb128 0x1
 1966 0050 13       		.uleb128 0x13
 1967 0051 00       		.byte	0
 1968 0052 00       		.byte	0
 1969 0053 08       		.uleb128 0x8
 1970 0054 0D       		.uleb128 0xd
 1971 0055 00       		.byte	0
 1972 0056 03       		.uleb128 0x3
 1973 0057 08       		.uleb128 0x8
 1974 0058 3A       		.uleb128 0x3a
 1975 0059 0B       		.uleb128 0xb
 1976 005a 3B       		.uleb128 0x3b
 1977 005b 05       		.uleb128 0x5
 1978 005c 49       		.uleb128 0x49
 1979 005d 13       		.uleb128 0x13
 1980 005e 38       		.uleb128 0x38
 1981 005f 0A       		.uleb128 0xa
 1982 0060 00       		.byte	0
 1983 0061 00       		.byte	0
 1984 0062 09       		.uleb128 0x9
 1985 0063 0D       		.uleb128 0xd
ARM GAS  C:\Users\Mohamad\AppData\Local\Temp\cceoe6gg.s 			page 36


 1986 0064 00       		.byte	0
 1987 0065 03       		.uleb128 0x3
 1988 0066 0E       		.uleb128 0xe
 1989 0067 3A       		.uleb128 0x3a
 1990 0068 0B       		.uleb128 0xb
 1991 0069 3B       		.uleb128 0x3b
 1992 006a 05       		.uleb128 0x5
 1993 006b 49       		.uleb128 0x49
 1994 006c 13       		.uleb128 0x13
 1995 006d 38       		.uleb128 0x38
 1996 006e 0A       		.uleb128 0xa
 1997 006f 00       		.byte	0
 1998 0070 00       		.byte	0
 1999 0071 0A       		.uleb128 0xa
 2000 0072 16       		.uleb128 0x16
 2001 0073 00       		.byte	0
 2002 0074 03       		.uleb128 0x3
 2003 0075 0E       		.uleb128 0xe
 2004 0076 3A       		.uleb128 0x3a
 2005 0077 0B       		.uleb128 0xb
 2006 0078 3B       		.uleb128 0x3b
 2007 0079 05       		.uleb128 0x5
 2008 007a 49       		.uleb128 0x49
 2009 007b 13       		.uleb128 0x13
 2010 007c 00       		.byte	0
 2011 007d 00       		.byte	0
 2012 007e 0B       		.uleb128 0xb
 2013 007f 13       		.uleb128 0x13
 2014 0080 01       		.byte	0x1
 2015 0081 0B       		.uleb128 0xb
 2016 0082 0B       		.uleb128 0xb
 2017 0083 3A       		.uleb128 0x3a
 2018 0084 0B       		.uleb128 0xb
 2019 0085 3B       		.uleb128 0x3b
 2020 0086 0B       		.uleb128 0xb
 2021 0087 01       		.uleb128 0x1
 2022 0088 13       		.uleb128 0x13
 2023 0089 00       		.byte	0
 2024 008a 00       		.byte	0
 2025 008b 0C       		.uleb128 0xc
 2026 008c 0D       		.uleb128 0xd
 2027 008d 00       		.byte	0
 2028 008e 03       		.uleb128 0x3
 2029 008f 0E       		.uleb128 0xe
 2030 0090 3A       		.uleb128 0x3a
 2031 0091 0B       		.uleb128 0xb
 2032 0092 3B       		.uleb128 0x3b
 2033 0093 0B       		.uleb128 0xb
 2034 0094 49       		.uleb128 0x49
 2035 0095 13       		.uleb128 0x13
 2036 0096 38       		.uleb128 0x38
 2037 0097 0A       		.uleb128 0xa
 2038 0098 00       		.byte	0
 2039 0099 00       		.byte	0
 2040 009a 0D       		.uleb128 0xd
 2041 009b 0F       		.uleb128 0xf
 2042 009c 00       		.byte	0
ARM GAS  C:\Users\Mohamad\AppData\Local\Temp\cceoe6gg.s 			page 37


 2043 009d 0B       		.uleb128 0xb
 2044 009e 0B       		.uleb128 0xb
 2045 009f 49       		.uleb128 0x49
 2046 00a0 13       		.uleb128 0x13
 2047 00a1 00       		.byte	0
 2048 00a2 00       		.byte	0
 2049 00a3 0E       		.uleb128 0xe
 2050 00a4 26       		.uleb128 0x26
 2051 00a5 00       		.byte	0
 2052 00a6 49       		.uleb128 0x49
 2053 00a7 13       		.uleb128 0x13
 2054 00a8 00       		.byte	0
 2055 00a9 00       		.byte	0
 2056 00aa 0F       		.uleb128 0xf
 2057 00ab 04       		.uleb128 0x4
 2058 00ac 01       		.byte	0x1
 2059 00ad 0B       		.uleb128 0xb
 2060 00ae 0B       		.uleb128 0xb
 2061 00af 3A       		.uleb128 0x3a
 2062 00b0 0B       		.uleb128 0xb
 2063 00b1 3B       		.uleb128 0x3b
 2064 00b2 0B       		.uleb128 0xb
 2065 00b3 01       		.uleb128 0x1
 2066 00b4 13       		.uleb128 0x13
 2067 00b5 00       		.byte	0
 2068 00b6 00       		.byte	0
 2069 00b7 10       		.uleb128 0x10
 2070 00b8 28       		.uleb128 0x28
 2071 00b9 00       		.byte	0
 2072 00ba 03       		.uleb128 0x3
 2073 00bb 0E       		.uleb128 0xe
 2074 00bc 1C       		.uleb128 0x1c
 2075 00bd 0D       		.uleb128 0xd
 2076 00be 00       		.byte	0
 2077 00bf 00       		.byte	0
 2078 00c0 11       		.uleb128 0x11
 2079 00c1 13       		.uleb128 0x13
 2080 00c2 01       		.byte	0x1
 2081 00c3 03       		.uleb128 0x3
 2082 00c4 0E       		.uleb128 0xe
 2083 00c5 0B       		.uleb128 0xb
 2084 00c6 0B       		.uleb128 0xb
 2085 00c7 3A       		.uleb128 0x3a
 2086 00c8 0B       		.uleb128 0xb
 2087 00c9 3B       		.uleb128 0x3b
 2088 00ca 05       		.uleb128 0x5
 2089 00cb 01       		.uleb128 0x1
 2090 00cc 13       		.uleb128 0x13
 2091 00cd 00       		.byte	0
 2092 00ce 00       		.byte	0
 2093 00cf 12       		.uleb128 0x12
 2094 00d0 15       		.uleb128 0x15
 2095 00d1 01       		.byte	0x1
 2096 00d2 27       		.uleb128 0x27
 2097 00d3 0C       		.uleb128 0xc
 2098 00d4 01       		.uleb128 0x1
 2099 00d5 13       		.uleb128 0x13
ARM GAS  C:\Users\Mohamad\AppData\Local\Temp\cceoe6gg.s 			page 38


 2100 00d6 00       		.byte	0
 2101 00d7 00       		.byte	0
 2102 00d8 13       		.uleb128 0x13
 2103 00d9 05       		.uleb128 0x5
 2104 00da 00       		.byte	0
 2105 00db 49       		.uleb128 0x49
 2106 00dc 13       		.uleb128 0x13
 2107 00dd 00       		.byte	0
 2108 00de 00       		.byte	0
 2109 00df 14       		.uleb128 0x14
 2110 00e0 2E       		.uleb128 0x2e
 2111 00e1 01       		.byte	0x1
 2112 00e2 3F       		.uleb128 0x3f
 2113 00e3 0C       		.uleb128 0xc
 2114 00e4 03       		.uleb128 0x3
 2115 00e5 0E       		.uleb128 0xe
 2116 00e6 3A       		.uleb128 0x3a
 2117 00e7 0B       		.uleb128 0xb
 2118 00e8 3B       		.uleb128 0x3b
 2119 00e9 0B       		.uleb128 0xb
 2120 00ea 27       		.uleb128 0x27
 2121 00eb 0C       		.uleb128 0xc
 2122 00ec 11       		.uleb128 0x11
 2123 00ed 01       		.uleb128 0x1
 2124 00ee 12       		.uleb128 0x12
 2125 00ef 01       		.uleb128 0x1
 2126 00f0 40       		.uleb128 0x40
 2127 00f1 0A       		.uleb128 0xa
 2128 00f2 9742     		.uleb128 0x2117
 2129 00f4 0C       		.uleb128 0xc
 2130 00f5 01       		.uleb128 0x1
 2131 00f6 13       		.uleb128 0x13
 2132 00f7 00       		.byte	0
 2133 00f8 00       		.byte	0
 2134 00f9 15       		.uleb128 0x15
 2135 00fa 898201   		.uleb128 0x4109
 2136 00fd 00       		.byte	0
 2137 00fe 11       		.uleb128 0x11
 2138 00ff 01       		.uleb128 0x1
 2139 0100 9542     		.uleb128 0x2115
 2140 0102 0C       		.uleb128 0xc
 2141 0103 31       		.uleb128 0x31
 2142 0104 13       		.uleb128 0x13
 2143 0105 00       		.byte	0
 2144 0106 00       		.byte	0
 2145 0107 16       		.uleb128 0x16
 2146 0108 05       		.uleb128 0x5
 2147 0109 00       		.byte	0
 2148 010a 03       		.uleb128 0x3
 2149 010b 0E       		.uleb128 0xe
 2150 010c 3A       		.uleb128 0x3a
 2151 010d 0B       		.uleb128 0xb
 2152 010e 3B       		.uleb128 0x3b
 2153 010f 0B       		.uleb128 0xb
 2154 0110 49       		.uleb128 0x49
 2155 0111 13       		.uleb128 0x13
 2156 0112 02       		.uleb128 0x2
ARM GAS  C:\Users\Mohamad\AppData\Local\Temp\cceoe6gg.s 			page 39


 2157 0113 0A       		.uleb128 0xa
 2158 0114 00       		.byte	0
 2159 0115 00       		.byte	0
 2160 0116 17       		.uleb128 0x17
 2161 0117 2E       		.uleb128 0x2e
 2162 0118 01       		.byte	0x1
 2163 0119 3F       		.uleb128 0x3f
 2164 011a 0C       		.uleb128 0xc
 2165 011b 03       		.uleb128 0x3
 2166 011c 0E       		.uleb128 0xe
 2167 011d 3A       		.uleb128 0x3a
 2168 011e 0B       		.uleb128 0xb
 2169 011f 3B       		.uleb128 0x3b
 2170 0120 0B       		.uleb128 0xb
 2171 0121 27       		.uleb128 0x27
 2172 0122 0C       		.uleb128 0xc
 2173 0123 11       		.uleb128 0x11
 2174 0124 01       		.uleb128 0x1
 2175 0125 12       		.uleb128 0x12
 2176 0126 01       		.uleb128 0x1
 2177 0127 40       		.uleb128 0x40
 2178 0128 06       		.uleb128 0x6
 2179 0129 9742     		.uleb128 0x2117
 2180 012b 0C       		.uleb128 0xc
 2181 012c 01       		.uleb128 0x1
 2182 012d 13       		.uleb128 0x13
 2183 012e 00       		.byte	0
 2184 012f 00       		.byte	0
 2185 0130 18       		.uleb128 0x18
 2186 0131 05       		.uleb128 0x5
 2187 0132 00       		.byte	0
 2188 0133 03       		.uleb128 0x3
 2189 0134 0E       		.uleb128 0xe
 2190 0135 3A       		.uleb128 0x3a
 2191 0136 0B       		.uleb128 0xb
 2192 0137 3B       		.uleb128 0x3b
 2193 0138 0B       		.uleb128 0xb
 2194 0139 49       		.uleb128 0x49
 2195 013a 13       		.uleb128 0x13
 2196 013b 02       		.uleb128 0x2
 2197 013c 06       		.uleb128 0x6
 2198 013d 00       		.byte	0
 2199 013e 00       		.byte	0
 2200 013f 19       		.uleb128 0x19
 2201 0140 0B       		.uleb128 0xb
 2202 0141 01       		.byte	0x1
 2203 0142 55       		.uleb128 0x55
 2204 0143 06       		.uleb128 0x6
 2205 0144 01       		.uleb128 0x1
 2206 0145 13       		.uleb128 0x13
 2207 0146 00       		.byte	0
 2208 0147 00       		.byte	0
 2209 0148 1A       		.uleb128 0x1a
 2210 0149 34       		.uleb128 0x34
 2211 014a 00       		.byte	0
 2212 014b 03       		.uleb128 0x3
 2213 014c 08       		.uleb128 0x8
ARM GAS  C:\Users\Mohamad\AppData\Local\Temp\cceoe6gg.s 			page 40


 2214 014d 3A       		.uleb128 0x3a
 2215 014e 0B       		.uleb128 0xb
 2216 014f 3B       		.uleb128 0x3b
 2217 0150 0B       		.uleb128 0xb
 2218 0151 49       		.uleb128 0x49
 2219 0152 13       		.uleb128 0x13
 2220 0153 02       		.uleb128 0x2
 2221 0154 06       		.uleb128 0x6
 2222 0155 00       		.byte	0
 2223 0156 00       		.byte	0
 2224 0157 1B       		.uleb128 0x1b
 2225 0158 0B       		.uleb128 0xb
 2226 0159 01       		.byte	0x1
 2227 015a 11       		.uleb128 0x11
 2228 015b 01       		.uleb128 0x1
 2229 015c 12       		.uleb128 0x12
 2230 015d 01       		.uleb128 0x1
 2231 015e 01       		.uleb128 0x1
 2232 015f 13       		.uleb128 0x13
 2233 0160 00       		.byte	0
 2234 0161 00       		.byte	0
 2235 0162 1C       		.uleb128 0x1c
 2236 0163 898201   		.uleb128 0x4109
 2237 0166 01       		.byte	0x1
 2238 0167 11       		.uleb128 0x11
 2239 0168 01       		.uleb128 0x1
 2240 0169 31       		.uleb128 0x31
 2241 016a 13       		.uleb128 0x13
 2242 016b 00       		.byte	0
 2243 016c 00       		.byte	0
 2244 016d 1D       		.uleb128 0x1d
 2245 016e 8A8201   		.uleb128 0x410a
 2246 0171 00       		.byte	0
 2247 0172 02       		.uleb128 0x2
 2248 0173 0A       		.uleb128 0xa
 2249 0174 9142     		.uleb128 0x2111
 2250 0176 0A       		.uleb128 0xa
 2251 0177 00       		.byte	0
 2252 0178 00       		.byte	0
 2253 0179 1E       		.uleb128 0x1e
 2254 017a 34       		.uleb128 0x34
 2255 017b 00       		.byte	0
 2256 017c 03       		.uleb128 0x3
 2257 017d 08       		.uleb128 0x8
 2258 017e 3A       		.uleb128 0x3a
 2259 017f 0B       		.uleb128 0xb
 2260 0180 3B       		.uleb128 0x3b
 2261 0181 0B       		.uleb128 0xb
 2262 0182 49       		.uleb128 0x49
 2263 0183 13       		.uleb128 0x13
 2264 0184 02       		.uleb128 0x2
 2265 0185 0A       		.uleb128 0xa
 2266 0186 00       		.byte	0
 2267 0187 00       		.byte	0
 2268 0188 1F       		.uleb128 0x1f
 2269 0189 05       		.uleb128 0x5
 2270 018a 00       		.byte	0
ARM GAS  C:\Users\Mohamad\AppData\Local\Temp\cceoe6gg.s 			page 41


 2271 018b 03       		.uleb128 0x3
 2272 018c 08       		.uleb128 0x8
 2273 018d 3A       		.uleb128 0x3a
 2274 018e 0B       		.uleb128 0xb
 2275 018f 3B       		.uleb128 0x3b
 2276 0190 0B       		.uleb128 0xb
 2277 0191 49       		.uleb128 0x49
 2278 0192 13       		.uleb128 0x13
 2279 0193 02       		.uleb128 0x2
 2280 0194 06       		.uleb128 0x6
 2281 0195 00       		.byte	0
 2282 0196 00       		.byte	0
 2283 0197 20       		.uleb128 0x20
 2284 0198 26       		.uleb128 0x26
 2285 0199 00       		.byte	0
 2286 019a 00       		.byte	0
 2287 019b 00       		.byte	0
 2288 019c 21       		.uleb128 0x21
 2289 019d 2E       		.uleb128 0x2e
 2290 019e 01       		.byte	0x1
 2291 019f 3F       		.uleb128 0x3f
 2292 01a0 0C       		.uleb128 0xc
 2293 01a1 03       		.uleb128 0x3
 2294 01a2 0E       		.uleb128 0xe
 2295 01a3 3A       		.uleb128 0x3a
 2296 01a4 0B       		.uleb128 0xb
 2297 01a5 3B       		.uleb128 0x3b
 2298 01a6 0B       		.uleb128 0xb
 2299 01a7 27       		.uleb128 0x27
 2300 01a8 0C       		.uleb128 0xc
 2301 01a9 49       		.uleb128 0x49
 2302 01aa 13       		.uleb128 0x13
 2303 01ab 11       		.uleb128 0x11
 2304 01ac 01       		.uleb128 0x1
 2305 01ad 12       		.uleb128 0x12
 2306 01ae 01       		.uleb128 0x1
 2307 01af 40       		.uleb128 0x40
 2308 01b0 06       		.uleb128 0x6
 2309 01b1 9742     		.uleb128 0x2117
 2310 01b3 0C       		.uleb128 0xc
 2311 01b4 01       		.uleb128 0x1
 2312 01b5 13       		.uleb128 0x13
 2313 01b6 00       		.byte	0
 2314 01b7 00       		.byte	0
 2315 01b8 22       		.uleb128 0x22
 2316 01b9 898201   		.uleb128 0x4109
 2317 01bc 00       		.byte	0
 2318 01bd 11       		.uleb128 0x11
 2319 01be 01       		.uleb128 0x1
 2320 01bf 31       		.uleb128 0x31
 2321 01c0 13       		.uleb128 0x13
 2322 01c1 00       		.byte	0
 2323 01c2 00       		.byte	0
 2324 01c3 23       		.uleb128 0x23
 2325 01c4 0B       		.uleb128 0xb
 2326 01c5 01       		.byte	0x1
 2327 01c6 11       		.uleb128 0x11
ARM GAS  C:\Users\Mohamad\AppData\Local\Temp\cceoe6gg.s 			page 42


 2328 01c7 01       		.uleb128 0x1
 2329 01c8 12       		.uleb128 0x12
 2330 01c9 01       		.uleb128 0x1
 2331 01ca 00       		.byte	0
 2332 01cb 00       		.byte	0
 2333 01cc 24       		.uleb128 0x24
 2334 01cd 2E       		.uleb128 0x2e
 2335 01ce 01       		.byte	0x1
 2336 01cf 3F       		.uleb128 0x3f
 2337 01d0 0C       		.uleb128 0xc
 2338 01d1 03       		.uleb128 0x3
 2339 01d2 0E       		.uleb128 0xe
 2340 01d3 3A       		.uleb128 0x3a
 2341 01d4 0B       		.uleb128 0xb
 2342 01d5 3B       		.uleb128 0x3b
 2343 01d6 05       		.uleb128 0x5
 2344 01d7 27       		.uleb128 0x27
 2345 01d8 0C       		.uleb128 0xc
 2346 01d9 11       		.uleb128 0x11
 2347 01da 01       		.uleb128 0x1
 2348 01db 12       		.uleb128 0x12
 2349 01dc 01       		.uleb128 0x1
 2350 01dd 40       		.uleb128 0x40
 2351 01de 06       		.uleb128 0x6
 2352 01df 9742     		.uleb128 0x2117
 2353 01e1 0C       		.uleb128 0xc
 2354 01e2 01       		.uleb128 0x1
 2355 01e3 13       		.uleb128 0x13
 2356 01e4 00       		.byte	0
 2357 01e5 00       		.byte	0
 2358 01e6 25       		.uleb128 0x25
 2359 01e7 05       		.uleb128 0x5
 2360 01e8 00       		.byte	0
 2361 01e9 03       		.uleb128 0x3
 2362 01ea 0E       		.uleb128 0xe
 2363 01eb 3A       		.uleb128 0x3a
 2364 01ec 0B       		.uleb128 0xb
 2365 01ed 3B       		.uleb128 0x3b
 2366 01ee 05       		.uleb128 0x5
 2367 01ef 49       		.uleb128 0x49
 2368 01f0 13       		.uleb128 0x13
 2369 01f1 02       		.uleb128 0x2
 2370 01f2 06       		.uleb128 0x6
 2371 01f3 00       		.byte	0
 2372 01f4 00       		.byte	0
 2373 01f5 26       		.uleb128 0x26
 2374 01f6 05       		.uleb128 0x5
 2375 01f7 00       		.byte	0
 2376 01f8 03       		.uleb128 0x3
 2377 01f9 08       		.uleb128 0x8
 2378 01fa 3A       		.uleb128 0x3a
 2379 01fb 0B       		.uleb128 0xb
 2380 01fc 3B       		.uleb128 0x3b
 2381 01fd 05       		.uleb128 0x5
 2382 01fe 49       		.uleb128 0x49
 2383 01ff 13       		.uleb128 0x13
 2384 0200 02       		.uleb128 0x2
ARM GAS  C:\Users\Mohamad\AppData\Local\Temp\cceoe6gg.s 			page 43


 2385 0201 06       		.uleb128 0x6
 2386 0202 00       		.byte	0
 2387 0203 00       		.byte	0
 2388 0204 27       		.uleb128 0x27
 2389 0205 34       		.uleb128 0x34
 2390 0206 00       		.byte	0
 2391 0207 03       		.uleb128 0x3
 2392 0208 08       		.uleb128 0x8
 2393 0209 3A       		.uleb128 0x3a
 2394 020a 0B       		.uleb128 0xb
 2395 020b 3B       		.uleb128 0x3b
 2396 020c 05       		.uleb128 0x5
 2397 020d 49       		.uleb128 0x49
 2398 020e 13       		.uleb128 0x13
 2399 020f 02       		.uleb128 0x2
 2400 0210 06       		.uleb128 0x6
 2401 0211 00       		.byte	0
 2402 0212 00       		.byte	0
 2403 0213 28       		.uleb128 0x28
 2404 0214 2E       		.uleb128 0x2e
 2405 0215 01       		.byte	0x1
 2406 0216 3F       		.uleb128 0x3f
 2407 0217 0C       		.uleb128 0xc
 2408 0218 03       		.uleb128 0x3
 2409 0219 0E       		.uleb128 0xe
 2410 021a 3A       		.uleb128 0x3a
 2411 021b 0B       		.uleb128 0xb
 2412 021c 3B       		.uleb128 0x3b
 2413 021d 05       		.uleb128 0x5
 2414 021e 27       		.uleb128 0x27
 2415 021f 0C       		.uleb128 0xc
 2416 0220 49       		.uleb128 0x49
 2417 0221 13       		.uleb128 0x13
 2418 0222 11       		.uleb128 0x11
 2419 0223 01       		.uleb128 0x1
 2420 0224 12       		.uleb128 0x12
 2421 0225 01       		.uleb128 0x1
 2422 0226 40       		.uleb128 0x40
 2423 0227 06       		.uleb128 0x6
 2424 0228 9742     		.uleb128 0x2117
 2425 022a 0C       		.uleb128 0xc
 2426 022b 01       		.uleb128 0x1
 2427 022c 13       		.uleb128 0x13
 2428 022d 00       		.byte	0
 2429 022e 00       		.byte	0
 2430 022f 29       		.uleb128 0x29
 2431 0230 34       		.uleb128 0x34
 2432 0231 00       		.byte	0
 2433 0232 03       		.uleb128 0x3
 2434 0233 08       		.uleb128 0x8
 2435 0234 3A       		.uleb128 0x3a
 2436 0235 0B       		.uleb128 0xb
 2437 0236 3B       		.uleb128 0x3b
 2438 0237 05       		.uleb128 0x5
 2439 0238 49       		.uleb128 0x49
 2440 0239 13       		.uleb128 0x13
 2441 023a 02       		.uleb128 0x2
ARM GAS  C:\Users\Mohamad\AppData\Local\Temp\cceoe6gg.s 			page 44


 2442 023b 0A       		.uleb128 0xa
 2443 023c 00       		.byte	0
 2444 023d 00       		.byte	0
 2445 023e 2A       		.uleb128 0x2a
 2446 023f 34       		.uleb128 0x34
 2447 0240 00       		.byte	0
 2448 0241 03       		.uleb128 0x3
 2449 0242 0E       		.uleb128 0xe
 2450 0243 3A       		.uleb128 0x3a
 2451 0244 0B       		.uleb128 0xb
 2452 0245 3B       		.uleb128 0x3b
 2453 0246 05       		.uleb128 0x5
 2454 0247 49       		.uleb128 0x49
 2455 0248 13       		.uleb128 0x13
 2456 0249 3F       		.uleb128 0x3f
 2457 024a 0C       		.uleb128 0xc
 2458 024b 3C       		.uleb128 0x3c
 2459 024c 0C       		.uleb128 0xc
 2460 024d 00       		.byte	0
 2461 024e 00       		.byte	0
 2462 024f 2B       		.uleb128 0x2b
 2463 0250 2E       		.uleb128 0x2e
 2464 0251 00       		.byte	0
 2465 0252 3F       		.uleb128 0x3f
 2466 0253 0C       		.uleb128 0xc
 2467 0254 03       		.uleb128 0x3
 2468 0255 0E       		.uleb128 0xe
 2469 0256 3A       		.uleb128 0x3a
 2470 0257 0B       		.uleb128 0xb
 2471 0258 3B       		.uleb128 0x3b
 2472 0259 05       		.uleb128 0x5
 2473 025a 27       		.uleb128 0x27
 2474 025b 0C       		.uleb128 0xc
 2475 025c 3C       		.uleb128 0x3c
 2476 025d 0C       		.uleb128 0xc
 2477 025e 00       		.byte	0
 2478 025f 00       		.byte	0
 2479 0260 2C       		.uleb128 0x2c
 2480 0261 2E       		.uleb128 0x2e
 2481 0262 01       		.byte	0x1
 2482 0263 3F       		.uleb128 0x3f
 2483 0264 0C       		.uleb128 0xc
 2484 0265 03       		.uleb128 0x3
 2485 0266 0E       		.uleb128 0xe
 2486 0267 3A       		.uleb128 0x3a
 2487 0268 0B       		.uleb128 0xb
 2488 0269 3B       		.uleb128 0x3b
 2489 026a 05       		.uleb128 0x5
 2490 026b 27       		.uleb128 0x27
 2491 026c 0C       		.uleb128 0xc
 2492 026d 3C       		.uleb128 0x3c
 2493 026e 0C       		.uleb128 0xc
 2494 026f 01       		.uleb128 0x1
 2495 0270 13       		.uleb128 0x13
 2496 0271 00       		.byte	0
 2497 0272 00       		.byte	0
 2498 0273 2D       		.uleb128 0x2d
ARM GAS  C:\Users\Mohamad\AppData\Local\Temp\cceoe6gg.s 			page 45


 2499 0274 2E       		.uleb128 0x2e
 2500 0275 01       		.byte	0x1
 2501 0276 3F       		.uleb128 0x3f
 2502 0277 0C       		.uleb128 0xc
 2503 0278 03       		.uleb128 0x3
 2504 0279 0E       		.uleb128 0xe
 2505 027a 3A       		.uleb128 0x3a
 2506 027b 0B       		.uleb128 0xb
 2507 027c 3B       		.uleb128 0x3b
 2508 027d 05       		.uleb128 0x5
 2509 027e 27       		.uleb128 0x27
 2510 027f 0C       		.uleb128 0xc
 2511 0280 49       		.uleb128 0x49
 2512 0281 13       		.uleb128 0x13
 2513 0282 3C       		.uleb128 0x3c
 2514 0283 0C       		.uleb128 0xc
 2515 0284 01       		.uleb128 0x1
 2516 0285 13       		.uleb128 0x13
 2517 0286 00       		.byte	0
 2518 0287 00       		.byte	0
 2519 0288 2E       		.uleb128 0x2e
 2520 0289 2E       		.uleb128 0x2e
 2521 028a 01       		.byte	0x1
 2522 028b 3F       		.uleb128 0x3f
 2523 028c 0C       		.uleb128 0xc
 2524 028d 03       		.uleb128 0x3
 2525 028e 0E       		.uleb128 0xe
 2526 028f 3A       		.uleb128 0x3a
 2527 0290 0B       		.uleb128 0xb
 2528 0291 3B       		.uleb128 0x3b
 2529 0292 05       		.uleb128 0x5
 2530 0293 27       		.uleb128 0x27
 2531 0294 0C       		.uleb128 0xc
 2532 0295 49       		.uleb128 0x49
 2533 0296 13       		.uleb128 0x13
 2534 0297 3C       		.uleb128 0x3c
 2535 0298 0C       		.uleb128 0xc
 2536 0299 00       		.byte	0
 2537 029a 00       		.byte	0
 2538 029b 00       		.byte	0
 2539              		.section	.debug_loc,"",%progbits
 2540              	.Ldebug_loc0:
 2541              	.LLST0:
 2542 0000 00000000 		.4byte	.LFB120
 2543 0004 02000000 		.4byte	.LCFI0
 2544 0008 0200     		.2byte	0x2
 2545 000a 7D       		.byte	0x7d
 2546 000b 00       		.sleb128 0
 2547 000c 02000000 		.4byte	.LCFI0
 2548 0010 1C000000 		.4byte	.LFE120
 2549 0014 0200     		.2byte	0x2
 2550 0016 7D       		.byte	0x7d
 2551 0017 08       		.sleb128 8
 2552 0018 00000000 		.4byte	0
 2553 001c 00000000 		.4byte	0
 2554              	.LLST1:
 2555 0020 00000000 		.4byte	.LVL2
ARM GAS  C:\Users\Mohamad\AppData\Local\Temp\cceoe6gg.s 			page 46


 2556 0024 0F000000 		.4byte	.LVL5-1
 2557 0028 0100     		.2byte	0x1
 2558 002a 50       		.byte	0x50
 2559 002b 0F000000 		.4byte	.LVL5-1
 2560 002f 1C000000 		.4byte	.LFE120
 2561 0033 0100     		.2byte	0x1
 2562 0035 54       		.byte	0x54
 2563 0036 00000000 		.4byte	0
 2564 003a 00000000 		.4byte	0
 2565              	.LLST2:
 2566 003e 00000000 		.4byte	.LVL2
 2567 0042 0F000000 		.4byte	.LVL5-1
 2568 0046 0100     		.2byte	0x1
 2569 0048 51       		.byte	0x51
 2570 0049 0F000000 		.4byte	.LVL5-1
 2571 004d 1C000000 		.4byte	.LFE120
 2572 0051 0400     		.2byte	0x4
 2573 0053 F3       		.byte	0xf3
 2574 0054 01       		.uleb128 0x1
 2575 0055 51       		.byte	0x51
 2576 0056 9F       		.byte	0x9f
 2577 0057 00000000 		.4byte	0
 2578 005b 00000000 		.4byte	0
 2579              	.LLST3:
 2580 005f 0A000000 		.4byte	.LVL4
 2581 0063 0F000000 		.4byte	.LVL5-1
 2582 0067 0100     		.2byte	0x1
 2583 0069 53       		.byte	0x53
 2584 006a 00000000 		.4byte	0
 2585 006e 00000000 		.4byte	0
 2586              	.LLST4:
 2587 0072 1A000000 		.4byte	.LVL7
 2588 0076 1C000000 		.4byte	.LFE120
 2589 007a 0100     		.2byte	0x1
 2590 007c 53       		.byte	0x53
 2591 007d 00000000 		.4byte	0
 2592 0081 00000000 		.4byte	0
 2593              	.LLST5:
 2594 0085 00000000 		.4byte	.LFB121
 2595 0089 02000000 		.4byte	.LCFI1
 2596 008d 0200     		.2byte	0x2
 2597 008f 7D       		.byte	0x7d
 2598 0090 00       		.sleb128 0
 2599 0091 02000000 		.4byte	.LCFI1
 2600 0095 1E000000 		.4byte	.LFE121
 2601 0099 0200     		.2byte	0x2
 2602 009b 7D       		.byte	0x7d
 2603 009c 08       		.sleb128 8
 2604 009d 00000000 		.4byte	0
 2605 00a1 00000000 		.4byte	0
 2606              	.LLST6:
 2607 00a5 00000000 		.4byte	.LVL8
 2608 00a9 0D000000 		.4byte	.LVL11-1
 2609 00ad 0100     		.2byte	0x1
 2610 00af 50       		.byte	0x50
 2611 00b0 0D000000 		.4byte	.LVL11-1
 2612 00b4 1E000000 		.4byte	.LFE121
ARM GAS  C:\Users\Mohamad\AppData\Local\Temp\cceoe6gg.s 			page 47


 2613 00b8 0100     		.2byte	0x1
 2614 00ba 54       		.byte	0x54
 2615 00bb 00000000 		.4byte	0
 2616 00bf 00000000 		.4byte	0
 2617              	.LLST7:
 2618 00c3 0A000000 		.4byte	.LVL10
 2619 00c7 0D000000 		.4byte	.LVL11-1
 2620 00cb 0100     		.2byte	0x1
 2621 00cd 53       		.byte	0x53
 2622 00ce 00000000 		.4byte	0
 2623 00d2 00000000 		.4byte	0
 2624              	.LLST8:
 2625 00d6 00000000 		.4byte	.LFB122
 2626 00da 02000000 		.4byte	.LCFI2
 2627 00de 0200     		.2byte	0x2
 2628 00e0 7D       		.byte	0x7d
 2629 00e1 00       		.sleb128 0
 2630 00e2 02000000 		.4byte	.LCFI2
 2631 00e6 1A000000 		.4byte	.LFE122
 2632 00ea 0200     		.2byte	0x2
 2633 00ec 7D       		.byte	0x7d
 2634 00ed 08       		.sleb128 8
 2635 00ee 00000000 		.4byte	0
 2636 00f2 00000000 		.4byte	0
 2637              	.LLST9:
 2638 00f6 00000000 		.4byte	.LVL13
 2639 00fa 0D000000 		.4byte	.LVL16-1
 2640 00fe 0100     		.2byte	0x1
 2641 0100 50       		.byte	0x50
 2642 0101 0D000000 		.4byte	.LVL16-1
 2643 0105 1A000000 		.4byte	.LFE122
 2644 0109 0100     		.2byte	0x1
 2645 010b 54       		.byte	0x54
 2646 010c 00000000 		.4byte	0
 2647 0110 00000000 		.4byte	0
 2648              	.LLST10:
 2649 0114 00000000 		.4byte	.LVL13
 2650 0118 0D000000 		.4byte	.LVL16-1
 2651 011c 0100     		.2byte	0x1
 2652 011e 51       		.byte	0x51
 2653 011f 0D000000 		.4byte	.LVL16-1
 2654 0123 1A000000 		.4byte	.LFE122
 2655 0127 0400     		.2byte	0x4
 2656 0129 F3       		.byte	0xf3
 2657 012a 01       		.uleb128 0x1
 2658 012b 51       		.byte	0x51
 2659 012c 9F       		.byte	0x9f
 2660 012d 00000000 		.4byte	0
 2661 0131 00000000 		.4byte	0
 2662              	.LLST11:
 2663 0135 00000000 		.4byte	.LVL13
 2664 0139 0D000000 		.4byte	.LVL16-1
 2665 013d 0100     		.2byte	0x1
 2666 013f 52       		.byte	0x52
 2667 0140 0D000000 		.4byte	.LVL16-1
 2668 0144 1A000000 		.4byte	.LFE122
 2669 0148 0400     		.2byte	0x4
ARM GAS  C:\Users\Mohamad\AppData\Local\Temp\cceoe6gg.s 			page 48


 2670 014a F3       		.byte	0xf3
 2671 014b 01       		.uleb128 0x1
 2672 014c 52       		.byte	0x52
 2673 014d 9F       		.byte	0x9f
 2674 014e 00000000 		.4byte	0
 2675 0152 00000000 		.4byte	0
 2676              	.LLST12:
 2677 0156 0A000000 		.4byte	.LVL15
 2678 015a 0D000000 		.4byte	.LVL16-1
 2679 015e 0100     		.2byte	0x1
 2680 0160 53       		.byte	0x53
 2681 0161 00000000 		.4byte	0
 2682 0165 00000000 		.4byte	0
 2683              	.LLST13:
 2684 0169 18000000 		.4byte	.LVL18
 2685 016d 1A000000 		.4byte	.LFE122
 2686 0171 0100     		.2byte	0x1
 2687 0173 53       		.byte	0x53
 2688 0174 00000000 		.4byte	0
 2689 0178 00000000 		.4byte	0
 2690              	.LLST14:
 2691 017c 00000000 		.4byte	.LFB123
 2692 0180 02000000 		.4byte	.LCFI3
 2693 0184 0200     		.2byte	0x2
 2694 0186 7D       		.byte	0x7d
 2695 0187 00       		.sleb128 0
 2696 0188 02000000 		.4byte	.LCFI3
 2697 018c 0E000000 		.4byte	.LFE123
 2698 0190 0200     		.2byte	0x2
 2699 0192 7D       		.byte	0x7d
 2700 0193 08       		.sleb128 8
 2701 0194 00000000 		.4byte	0
 2702 0198 00000000 		.4byte	0
 2703              	.LLST15:
 2704 019c 00000000 		.4byte	.LVL19
 2705 01a0 07000000 		.4byte	.LVL20-1
 2706 01a4 0100     		.2byte	0x1
 2707 01a6 50       		.byte	0x50
 2708 01a7 07000000 		.4byte	.LVL20-1
 2709 01ab 0E000000 		.4byte	.LFE123
 2710 01af 0100     		.2byte	0x1
 2711 01b1 54       		.byte	0x54
 2712 01b2 00000000 		.4byte	0
 2713 01b6 00000000 		.4byte	0
 2714              	.LLST16:
 2715 01ba 00000000 		.4byte	.LVL19
 2716 01be 07000000 		.4byte	.LVL20-1
 2717 01c2 0100     		.2byte	0x1
 2718 01c4 51       		.byte	0x51
 2719 01c5 07000000 		.4byte	.LVL20-1
 2720 01c9 0E000000 		.4byte	.LFE123
 2721 01cd 0400     		.2byte	0x4
 2722 01cf F3       		.byte	0xf3
 2723 01d0 01       		.uleb128 0x1
 2724 01d1 51       		.byte	0x51
 2725 01d2 9F       		.byte	0x9f
 2726 01d3 00000000 		.4byte	0
ARM GAS  C:\Users\Mohamad\AppData\Local\Temp\cceoe6gg.s 			page 49


 2727 01d7 00000000 		.4byte	0
 2728              	.LLST17:
 2729 01db 00000000 		.4byte	.LVL19
 2730 01df 07000000 		.4byte	.LVL20-1
 2731 01e3 0100     		.2byte	0x1
 2732 01e5 52       		.byte	0x52
 2733 01e6 07000000 		.4byte	.LVL20-1
 2734 01ea 0E000000 		.4byte	.LFE123
 2735 01ee 0400     		.2byte	0x4
 2736 01f0 F3       		.byte	0xf3
 2737 01f1 01       		.uleb128 0x1
 2738 01f2 52       		.byte	0x52
 2739 01f3 9F       		.byte	0x9f
 2740 01f4 00000000 		.4byte	0
 2741 01f8 00000000 		.4byte	0
 2742              	.LLST18:
 2743 01fc 00000000 		.4byte	.LFB124
 2744 0200 02000000 		.4byte	.LCFI4
 2745 0204 0200     		.2byte	0x2
 2746 0206 7D       		.byte	0x7d
 2747 0207 00       		.sleb128 0
 2748 0208 02000000 		.4byte	.LCFI4
 2749 020c 24000000 		.4byte	.LFE124
 2750 0210 0200     		.2byte	0x2
 2751 0212 7D       		.byte	0x7d
 2752 0213 08       		.sleb128 8
 2753 0214 00000000 		.4byte	0
 2754 0218 00000000 		.4byte	0
 2755              	.LLST19:
 2756 021c 00000000 		.4byte	.LVL21
 2757 0220 12000000 		.4byte	.LVL25
 2758 0224 0100     		.2byte	0x1
 2759 0226 50       		.byte	0x50
 2760 0227 12000000 		.4byte	.LVL25
 2761 022b 1A000000 		.4byte	.LVL28
 2762 022f 0100     		.2byte	0x1
 2763 0231 54       		.byte	0x54
 2764 0232 1A000000 		.4byte	.LVL28
 2765 0236 1D000000 		.4byte	.LVL29-1
 2766 023a 0100     		.2byte	0x1
 2767 023c 50       		.byte	0x50
 2768 023d 1D000000 		.4byte	.LVL29-1
 2769 0241 24000000 		.4byte	.LFE124
 2770 0245 0100     		.2byte	0x1
 2771 0247 54       		.byte	0x54
 2772 0248 00000000 		.4byte	0
 2773 024c 00000000 		.4byte	0
 2774              	.LLST20:
 2775 0250 12000000 		.4byte	.LVL25
 2776 0254 1A000000 		.4byte	.LVL28
 2777 0258 0100     		.2byte	0x1
 2778 025a 50       		.byte	0x50
 2779 025b 1E000000 		.4byte	.LVL29
 2780 025f 24000000 		.4byte	.LFE124
 2781 0263 0100     		.2byte	0x1
 2782 0265 50       		.byte	0x50
 2783 0266 00000000 		.4byte	0
ARM GAS  C:\Users\Mohamad\AppData\Local\Temp\cceoe6gg.s 			page 50


 2784 026a 00000000 		.4byte	0
 2785              	.LLST21:
 2786 026e 0A000000 		.4byte	.LVL23
 2787 0272 0C000000 		.4byte	.LVL24
 2788 0276 0100     		.2byte	0x1
 2789 0278 53       		.byte	0x53
 2790 0279 00000000 		.4byte	0
 2791 027d 00000000 		.4byte	0
 2792              	.LLST22:
 2793 0281 18000000 		.4byte	.LVL27
 2794 0285 1A000000 		.4byte	.LVL28
 2795 0289 0100     		.2byte	0x1
 2796 028b 53       		.byte	0x53
 2797 028c 00000000 		.4byte	0
 2798 0290 00000000 		.4byte	0
 2799              	.LLST23:
 2800 0294 00000000 		.4byte	.LFB125
 2801 0298 06000000 		.4byte	.LCFI5
 2802 029c 0200     		.2byte	0x2
 2803 029e 7D       		.byte	0x7d
 2804 029f 00       		.sleb128 0
 2805 02a0 06000000 		.4byte	.LCFI5
 2806 02a4 18000000 		.4byte	.LFE125
 2807 02a8 0200     		.2byte	0x2
 2808 02aa 7D       		.byte	0x7d
 2809 02ab 08       		.sleb128 8
 2810 02ac 00000000 		.4byte	0
 2811 02b0 00000000 		.4byte	0
 2812              	.LLST24:
 2813 02b4 00000000 		.4byte	.LVL30
 2814 02b8 0C000000 		.4byte	.LVL31
 2815 02bc 0100     		.2byte	0x1
 2816 02be 50       		.byte	0x50
 2817 02bf 0C000000 		.4byte	.LVL31
 2818 02c3 0E000000 		.4byte	.LVL32
 2819 02c7 0100     		.2byte	0x1
 2820 02c9 54       		.byte	0x54
 2821 02ca 0E000000 		.4byte	.LVL32
 2822 02ce 11000000 		.4byte	.LVL33-1
 2823 02d2 0100     		.2byte	0x1
 2824 02d4 50       		.byte	0x50
 2825 02d5 11000000 		.4byte	.LVL33-1
 2826 02d9 18000000 		.4byte	.LFE125
 2827 02dd 0100     		.2byte	0x1
 2828 02df 54       		.byte	0x54
 2829 02e0 00000000 		.4byte	0
 2830 02e4 00000000 		.4byte	0
 2831              	.LLST25:
 2832 02e8 00000000 		.4byte	.LFB126
 2833 02ec 02000000 		.4byte	.LCFI6
 2834 02f0 0200     		.2byte	0x2
 2835 02f2 7D       		.byte	0x7d
 2836 02f3 00       		.sleb128 0
 2837 02f4 02000000 		.4byte	.LCFI6
 2838 02f8 1A000000 		.4byte	.LFE126
 2839 02fc 0200     		.2byte	0x2
 2840 02fe 7D       		.byte	0x7d
ARM GAS  C:\Users\Mohamad\AppData\Local\Temp\cceoe6gg.s 			page 51


 2841 02ff 08       		.sleb128 8
 2842 0300 00000000 		.4byte	0
 2843 0304 00000000 		.4byte	0
 2844              	.LLST26:
 2845 0308 00000000 		.4byte	.LVL34
 2846 030c 0D000000 		.4byte	.LVL37-1
 2847 0310 0100     		.2byte	0x1
 2848 0312 50       		.byte	0x50
 2849 0313 0D000000 		.4byte	.LVL37-1
 2850 0317 1A000000 		.4byte	.LFE126
 2851 031b 0100     		.2byte	0x1
 2852 031d 54       		.byte	0x54
 2853 031e 00000000 		.4byte	0
 2854 0322 00000000 		.4byte	0
 2855              	.LLST27:
 2856 0326 00000000 		.4byte	.LVL34
 2857 032a 0D000000 		.4byte	.LVL37-1
 2858 032e 0100     		.2byte	0x1
 2859 0330 51       		.byte	0x51
 2860 0331 0D000000 		.4byte	.LVL37-1
 2861 0335 1A000000 		.4byte	.LFE126
 2862 0339 0400     		.2byte	0x4
 2863 033b F3       		.byte	0xf3
 2864 033c 01       		.uleb128 0x1
 2865 033d 51       		.byte	0x51
 2866 033e 9F       		.byte	0x9f
 2867 033f 00000000 		.4byte	0
 2868 0343 00000000 		.4byte	0
 2869              	.LLST28:
 2870 0347 00000000 		.4byte	.LVL34
 2871 034b 0D000000 		.4byte	.LVL37-1
 2872 034f 0100     		.2byte	0x1
 2873 0351 52       		.byte	0x52
 2874 0352 0D000000 		.4byte	.LVL37-1
 2875 0356 1A000000 		.4byte	.LFE126
 2876 035a 0400     		.2byte	0x4
 2877 035c F3       		.byte	0xf3
 2878 035d 01       		.uleb128 0x1
 2879 035e 52       		.byte	0x52
 2880 035f 9F       		.byte	0x9f
 2881 0360 00000000 		.4byte	0
 2882 0364 00000000 		.4byte	0
 2883              	.LLST29:
 2884 0368 0A000000 		.4byte	.LVL36
 2885 036c 0D000000 		.4byte	.LVL37-1
 2886 0370 0100     		.2byte	0x1
 2887 0372 53       		.byte	0x53
 2888 0373 00000000 		.4byte	0
 2889 0377 00000000 		.4byte	0
 2890              	.LLST30:
 2891 037b 18000000 		.4byte	.LVL39
 2892 037f 1A000000 		.4byte	.LFE126
 2893 0383 0100     		.2byte	0x1
 2894 0385 53       		.byte	0x53
 2895 0386 00000000 		.4byte	0
 2896 038a 00000000 		.4byte	0
 2897              	.LLST31:
ARM GAS  C:\Users\Mohamad\AppData\Local\Temp\cceoe6gg.s 			page 52


 2898 038e 00000000 		.4byte	.LFB127
 2899 0392 02000000 		.4byte	.LCFI7
 2900 0396 0200     		.2byte	0x2
 2901 0398 7D       		.byte	0x7d
 2902 0399 00       		.sleb128 0
 2903 039a 02000000 		.4byte	.LCFI7
 2904 039e 0E000000 		.4byte	.LFE127
 2905 03a2 0200     		.2byte	0x2
 2906 03a4 7D       		.byte	0x7d
 2907 03a5 08       		.sleb128 8
 2908 03a6 00000000 		.4byte	0
 2909 03aa 00000000 		.4byte	0
 2910              	.LLST32:
 2911 03ae 00000000 		.4byte	.LVL40
 2912 03b2 07000000 		.4byte	.LVL41-1
 2913 03b6 0100     		.2byte	0x1
 2914 03b8 50       		.byte	0x50
 2915 03b9 07000000 		.4byte	.LVL41-1
 2916 03bd 0E000000 		.4byte	.LFE127
 2917 03c1 0100     		.2byte	0x1
 2918 03c3 54       		.byte	0x54
 2919 03c4 00000000 		.4byte	0
 2920 03c8 00000000 		.4byte	0
 2921              	.LLST33:
 2922 03cc 00000000 		.4byte	.LVL40
 2923 03d0 07000000 		.4byte	.LVL41-1
 2924 03d4 0100     		.2byte	0x1
 2925 03d6 51       		.byte	0x51
 2926 03d7 07000000 		.4byte	.LVL41-1
 2927 03db 0E000000 		.4byte	.LFE127
 2928 03df 0400     		.2byte	0x4
 2929 03e1 F3       		.byte	0xf3
 2930 03e2 01       		.uleb128 0x1
 2931 03e3 51       		.byte	0x51
 2932 03e4 9F       		.byte	0x9f
 2933 03e5 00000000 		.4byte	0
 2934 03e9 00000000 		.4byte	0
 2935              	.LLST34:
 2936 03ed 00000000 		.4byte	.LVL40
 2937 03f1 07000000 		.4byte	.LVL41-1
 2938 03f5 0100     		.2byte	0x1
 2939 03f7 52       		.byte	0x52
 2940 03f8 07000000 		.4byte	.LVL41-1
 2941 03fc 0E000000 		.4byte	.LFE127
 2942 0400 0400     		.2byte	0x4
 2943 0402 F3       		.byte	0xf3
 2944 0403 01       		.uleb128 0x1
 2945 0404 52       		.byte	0x52
 2946 0405 9F       		.byte	0x9f
 2947 0406 00000000 		.4byte	0
 2948 040a 00000000 		.4byte	0
 2949              	.LLST35:
 2950 040e 00000000 		.4byte	.LFB128
 2951 0412 02000000 		.4byte	.LCFI8
 2952 0416 0200     		.2byte	0x2
 2953 0418 7D       		.byte	0x7d
 2954 0419 00       		.sleb128 0
ARM GAS  C:\Users\Mohamad\AppData\Local\Temp\cceoe6gg.s 			page 53


 2955 041a 02000000 		.4byte	.LCFI8
 2956 041e 24000000 		.4byte	.LFE128
 2957 0422 0200     		.2byte	0x2
 2958 0424 7D       		.byte	0x7d
 2959 0425 08       		.sleb128 8
 2960 0426 00000000 		.4byte	0
 2961 042a 00000000 		.4byte	0
 2962              	.LLST36:
 2963 042e 00000000 		.4byte	.LVL42
 2964 0432 12000000 		.4byte	.LVL46
 2965 0436 0100     		.2byte	0x1
 2966 0438 50       		.byte	0x50
 2967 0439 12000000 		.4byte	.LVL46
 2968 043d 1A000000 		.4byte	.LVL49
 2969 0441 0100     		.2byte	0x1
 2970 0443 54       		.byte	0x54
 2971 0444 1A000000 		.4byte	.LVL49
 2972 0448 1D000000 		.4byte	.LVL50-1
 2973 044c 0100     		.2byte	0x1
 2974 044e 50       		.byte	0x50
 2975 044f 1D000000 		.4byte	.LVL50-1
 2976 0453 24000000 		.4byte	.LFE128
 2977 0457 0100     		.2byte	0x1
 2978 0459 54       		.byte	0x54
 2979 045a 00000000 		.4byte	0
 2980 045e 00000000 		.4byte	0
 2981              	.LLST37:
 2982 0462 12000000 		.4byte	.LVL46
 2983 0466 1A000000 		.4byte	.LVL49
 2984 046a 0100     		.2byte	0x1
 2985 046c 50       		.byte	0x50
 2986 046d 1E000000 		.4byte	.LVL50
 2987 0471 24000000 		.4byte	.LFE128
 2988 0475 0100     		.2byte	0x1
 2989 0477 50       		.byte	0x50
 2990 0478 00000000 		.4byte	0
 2991 047c 00000000 		.4byte	0
 2992              	.LLST38:
 2993 0480 0A000000 		.4byte	.LVL44
 2994 0484 0C000000 		.4byte	.LVL45
 2995 0488 0100     		.2byte	0x1
 2996 048a 53       		.byte	0x53
 2997 048b 00000000 		.4byte	0
 2998 048f 00000000 		.4byte	0
 2999              	.LLST39:
 3000 0493 18000000 		.4byte	.LVL48
 3001 0497 1A000000 		.4byte	.LVL49
 3002 049b 0100     		.2byte	0x1
 3003 049d 53       		.byte	0x53
 3004 049e 00000000 		.4byte	0
 3005 04a2 00000000 		.4byte	0
 3006              	.LLST40:
 3007 04a6 00000000 		.4byte	.LFB129
 3008 04aa 06000000 		.4byte	.LCFI9
 3009 04ae 0200     		.2byte	0x2
 3010 04b0 7D       		.byte	0x7d
 3011 04b1 00       		.sleb128 0
ARM GAS  C:\Users\Mohamad\AppData\Local\Temp\cceoe6gg.s 			page 54


 3012 04b2 06000000 		.4byte	.LCFI9
 3013 04b6 18000000 		.4byte	.LFE129
 3014 04ba 0200     		.2byte	0x2
 3015 04bc 7D       		.byte	0x7d
 3016 04bd 08       		.sleb128 8
 3017 04be 00000000 		.4byte	0
 3018 04c2 00000000 		.4byte	0
 3019              	.LLST41:
 3020 04c6 00000000 		.4byte	.LVL51
 3021 04ca 0C000000 		.4byte	.LVL52
 3022 04ce 0100     		.2byte	0x1
 3023 04d0 50       		.byte	0x50
 3024 04d1 0C000000 		.4byte	.LVL52
 3025 04d5 0E000000 		.4byte	.LVL53
 3026 04d9 0100     		.2byte	0x1
 3027 04db 54       		.byte	0x54
 3028 04dc 0E000000 		.4byte	.LVL53
 3029 04e0 11000000 		.4byte	.LVL54-1
 3030 04e4 0100     		.2byte	0x1
 3031 04e6 50       		.byte	0x50
 3032 04e7 11000000 		.4byte	.LVL54-1
 3033 04eb 18000000 		.4byte	.LFE129
 3034 04ef 0100     		.2byte	0x1
 3035 04f1 54       		.byte	0x54
 3036 04f2 00000000 		.4byte	0
 3037 04f6 00000000 		.4byte	0
 3038              		.section	.debug_aranges,"",%progbits
 3039 0000 74000000 		.4byte	0x74
 3040 0004 0200     		.2byte	0x2
 3041 0006 00000000 		.4byte	.Ldebug_info0
 3042 000a 04       		.byte	0x4
 3043 000b 00       		.byte	0
 3044 000c 0000     		.2byte	0
 3045 000e 0000     		.2byte	0
 3046 0010 00000000 		.4byte	.LFB118
 3047 0014 04000000 		.4byte	.LFE118-.LFB118
 3048 0018 00000000 		.4byte	.LFB119
 3049 001c 0E000000 		.4byte	.LFE119-.LFB119
 3050 0020 00000000 		.4byte	.LFB120
 3051 0024 1C000000 		.4byte	.LFE120-.LFB120
 3052 0028 00000000 		.4byte	.LFB121
 3053 002c 1E000000 		.4byte	.LFE121-.LFB121
 3054 0030 00000000 		.4byte	.LFB122
 3055 0034 1A000000 		.4byte	.LFE122-.LFB122
 3056 0038 00000000 		.4byte	.LFB123
 3057 003c 0E000000 		.4byte	.LFE123-.LFB123
 3058 0040 00000000 		.4byte	.LFB124
 3059 0044 24000000 		.4byte	.LFE124-.LFB124
 3060 0048 00000000 		.4byte	.LFB125
 3061 004c 18000000 		.4byte	.LFE125-.LFB125
 3062 0050 00000000 		.4byte	.LFB126
 3063 0054 1A000000 		.4byte	.LFE126-.LFB126
 3064 0058 00000000 		.4byte	.LFB127
 3065 005c 0E000000 		.4byte	.LFE127-.LFB127
 3066 0060 00000000 		.4byte	.LFB128
 3067 0064 24000000 		.4byte	.LFE128-.LFB128
 3068 0068 00000000 		.4byte	.LFB129
ARM GAS  C:\Users\Mohamad\AppData\Local\Temp\cceoe6gg.s 			page 55


 3069 006c 18000000 		.4byte	.LFE129-.LFB129
 3070 0070 00000000 		.4byte	0
 3071 0074 00000000 		.4byte	0
 3072              		.section	.debug_ranges,"",%progbits
 3073              	.Ldebug_ranges0:
 3074 0000 02000000 		.4byte	.LBB2
 3075 0004 04000000 		.4byte	.LBE2
 3076 0008 06000000 		.4byte	.LBB3
 3077 000c 0A000000 		.4byte	.LBE3
 3078 0010 00000000 		.4byte	0
 3079 0014 00000000 		.4byte	0
 3080 0018 02000000 		.4byte	.LBB5
 3081 001c 04000000 		.4byte	.LBE5
 3082 0020 06000000 		.4byte	.LBB6
 3083 0024 0A000000 		.4byte	.LBE6
 3084 0028 00000000 		.4byte	0
 3085 002c 00000000 		.4byte	0
 3086 0030 02000000 		.4byte	.LBB8
 3087 0034 04000000 		.4byte	.LBE8
 3088 0038 06000000 		.4byte	.LBB9
 3089 003c 0A000000 		.4byte	.LBE9
 3090 0040 00000000 		.4byte	0
 3091 0044 00000000 		.4byte	0
 3092 0048 02000000 		.4byte	.LBB11
 3093 004c 04000000 		.4byte	.LBE11
 3094 0050 06000000 		.4byte	.LBB12
 3095 0054 0A000000 		.4byte	.LBE12
 3096 0058 00000000 		.4byte	0
 3097 005c 00000000 		.4byte	0
 3098 0060 02000000 		.4byte	.LBB15
 3099 0064 04000000 		.4byte	.LBE15
 3100 0068 06000000 		.4byte	.LBB16
 3101 006c 0A000000 		.4byte	.LBE16
 3102 0070 00000000 		.4byte	0
 3103 0074 00000000 		.4byte	0
 3104 0078 02000000 		.4byte	.LBB18
 3105 007c 04000000 		.4byte	.LBE18
 3106 0080 06000000 		.4byte	.LBB19
 3107 0084 0A000000 		.4byte	.LBE19
 3108 0088 00000000 		.4byte	0
 3109 008c 00000000 		.4byte	0
 3110 0090 00000000 		.4byte	.LFB118
 3111 0094 04000000 		.4byte	.LFE118
 3112 0098 00000000 		.4byte	.LFB119
 3113 009c 0E000000 		.4byte	.LFE119
 3114 00a0 00000000 		.4byte	.LFB120
 3115 00a4 1C000000 		.4byte	.LFE120
 3116 00a8 00000000 		.4byte	.LFB121
 3117 00ac 1E000000 		.4byte	.LFE121
 3118 00b0 00000000 		.4byte	.LFB122
 3119 00b4 1A000000 		.4byte	.LFE122
 3120 00b8 00000000 		.4byte	.LFB123
 3121 00bc 0E000000 		.4byte	.LFE123
 3122 00c0 00000000 		.4byte	.LFB124
 3123 00c4 24000000 		.4byte	.LFE124
 3124 00c8 00000000 		.4byte	.LFB125
 3125 00cc 18000000 		.4byte	.LFE125
ARM GAS  C:\Users\Mohamad\AppData\Local\Temp\cceoe6gg.s 			page 56


 3126 00d0 00000000 		.4byte	.LFB126
 3127 00d4 1A000000 		.4byte	.LFE126
 3128 00d8 00000000 		.4byte	.LFB127
 3129 00dc 0E000000 		.4byte	.LFE127
 3130 00e0 00000000 		.4byte	.LFB128
 3131 00e4 24000000 		.4byte	.LFE128
 3132 00e8 00000000 		.4byte	.LFB129
 3133 00ec 18000000 		.4byte	.LFE129
 3134 00f0 00000000 		.4byte	0
 3135 00f4 00000000 		.4byte	0
 3136              		.section	.debug_line,"",%progbits
 3137              	.Ldebug_line0:
 3138 0000 35030000 		.section	.debug_str,"MS",%progbits,1
 3138      02001602 
 3138      00000201 
 3138      FB0E0D00 
 3138      01010101 
 3139              	.LASF42:
 3140 0000 55415254 		.ascii	"UART_TX_COMPLETE\000"
 3140      5F54585F 
 3140      434F4D50 
 3140      4C455445 
 3140      00
 3141              	.LASF27:
 3142 0011 47545052 		.ascii	"GTPR\000"
 3142      00
 3143              	.LASF71:
 3144 0016 75617274 		.ascii	"uartStart\000"
 3144      53746172 
 3144      7400
 3145              	.LASF54:
 3146 0020 75736172 		.ascii	"usart\000"
 3146      7400
 3147              	.LASF76:
 3148 0026 75617274 		.ascii	"uartStartSendI\000"
 3148      53746172 
 3148      7453656E 
 3148      644900
 3149              	.LASF52:
 3150 0035 72787374 		.ascii	"rxstate\000"
 3150      61746500 
 3151              	.LASF20:
 3152 003d 444D415F 		.ascii	"DMA_Stream_TypeDef\000"
 3152      53747265 
 3152      616D5F54 
 3152      79706544 
 3152      656600
 3153              	.LASF50:
 3154 0050 73746174 		.ascii	"state\000"
 3154      6500
 3155              	.LASF78:
 3156 0056 75617274 		.ascii	"uartStopSendI\000"
 3156      53746F70 
 3156      53656E64 
 3156      4900
 3157              	.LASF2:
 3158 0064 73697A65 		.ascii	"size_t\000"
ARM GAS  C:\Users\Mohamad\AppData\Local\Temp\cceoe6gg.s 			page 57


 3158      5F7400
 3159              	.LASF66:
 3160 006b 72786572 		.ascii	"rxerr_cb\000"
 3160      725F6362 
 3160      00
 3161              	.LASF15:
 3162 0074 73697A65 		.ascii	"sizetype\000"
 3162      74797065 
 3162      00
 3163              	.LASF88:
 3164 007d 474E5520 		.ascii	"GNU C 4.7.4 20140401 (release) [ARM/embedded-4_7-br"
 3164      4320342E 
 3164      372E3420 
 3164      32303134 
 3164      30343031 
 3165 00b0 616E6368 		.ascii	"anch revision 209195]\000"
 3165      20726576 
 3165      6973696F 
 3165      6E203230 
 3165      39313935 
 3166              	.LASF87:
 3167 00c6 75617274 		.ascii	"uart_lld_stop_receive\000"
 3167      5F6C6C64 
 3167      5F73746F 
 3167      705F7265 
 3167      63656976 
 3168              	.LASF68:
 3169 00dc 55415254 		.ascii	"UARTConfig\000"
 3169      436F6E66 
 3169      696700
 3170              	.LASF51:
 3171 00e7 74787374 		.ascii	"txstate\000"
 3171      61746500 
 3172              	.LASF77:
 3173 00ef 75617274 		.ascii	"uartStopSend\000"
 3173      53746F70 
 3173      53656E64 
 3173      00
 3174              	.LASF62:
 3175 00fc 7478656E 		.ascii	"txend1_cb\000"
 3175      64315F63 
 3175      6200
 3176              	.LASF29:
 3177 0106 55534152 		.ascii	"USART_TypeDef\000"
 3177      545F5479 
 3177      70654465 
 3177      6600
 3178              	.LASF5:
 3179 0114 73686F72 		.ascii	"short int\000"
 3179      7420696E 
 3179      7400
 3180              	.LASF53:
 3181 011e 636F6E66 		.ascii	"config\000"
 3181      696700
 3182              	.LASF74:
 3183 0125 75617274 		.ascii	"uartStartSend\000"
 3183      53746172 
ARM GAS  C:\Users\Mohamad\AppData\Local\Temp\cceoe6gg.s 			page 58


 3183      7453656E 
 3183      6400
 3184              	.LASF35:
 3185 0133 73746D33 		.ascii	"stm32_dma_stream_t\000"
 3185      325F646D 
 3185      615F7374 
 3185      7265616D 
 3185      5F7400
 3186              	.LASF79:
 3187 0146 75617274 		.ascii	"uartStartReceive\000"
 3187      53746172 
 3187      74526563 
 3187      65697665 
 3187      00
 3188              	.LASF3:
 3189 0157 75696E74 		.ascii	"uint8_t\000"
 3189      385F7400 
 3190              	.LASF34:
 3191 015f 76656374 		.ascii	"vector\000"
 3191      6F7200
 3192              	.LASF45:
 3193 0166 55415254 		.ascii	"UART_RX_ACTIVE\000"
 3193      5F52585F 
 3193      41435449 
 3193      564500
 3194              	.LASF61:
 3195 0175 75617274 		.ascii	"uartecb_t\000"
 3195      6563625F 
 3195      7400
 3196              	.LASF1:
 3197 017f 7369676E 		.ascii	"signed char\000"
 3197      65642063 
 3197      68617200 
 3198              	.LASF70:
 3199 018b 75617274 		.ascii	"uartObjectInit\000"
 3199      4F626A65 
 3199      6374496E 
 3199      697400
 3200              	.LASF41:
 3201 019a 55415254 		.ascii	"UART_TX_ACTIVE\000"
 3201      5F54585F 
 3201      41435449 
 3201      564500
 3202              	.LASF85:
 3203 01a9 75617274 		.ascii	"uart_lld_start_send\000"
 3203      5F6C6C64 
 3203      5F737461 
 3203      72745F73 
 3203      656E6400 
 3204              	.LASF81:
 3205 01bd 75617274 		.ascii	"uartStopReceive\000"
 3205      53746F70 
 3205      52656365 
 3205      69766500 
 3206              	.LASF9:
 3207 01cd 6C6F6E67 		.ascii	"long int\000"
 3207      20696E74 
ARM GAS  C:\Users\Mohamad\AppData\Local\Temp\cceoe6gg.s 			page 59


 3207      00
 3208              	.LASF90:
 3209 01d6 433A5C43 		.ascii	"C:\\ChibiStudio\\workspace\\DCM_test_3\000"
 3209      68696269 
 3209      53747564 
 3209      696F5C77 
 3209      6F726B73 
 3210              	.LASF59:
 3211 01fa 75617274 		.ascii	"uartcb_t\000"
 3211      63625F74 
 3211      00
 3212              	.LASF30:
 3213 0203 73747265 		.ascii	"stream\000"
 3213      616D00
 3214              	.LASF47:
 3215 020a 75617274 		.ascii	"uartrxstate_t\000"
 3215      72787374 
 3215      6174655F 
 3215      7400
 3216              	.LASF63:
 3217 0218 7478656E 		.ascii	"txend2_cb\000"
 3217      64325F63 
 3217      6200
 3218              	.LASF56:
 3219 0222 646D6172 		.ascii	"dmarx\000"
 3219      7800
 3220              	.LASF83:
 3221 0228 75617274 		.ascii	"uart_lld_start\000"
 3221      5F6C6C64 
 3221      5F737461 
 3221      727400
 3222              	.LASF43:
 3223 0237 75617274 		.ascii	"uarttxstate_t\000"
 3223      74787374 
 3223      6174655F 
 3223      7400
 3224              	.LASF92:
 3225 0245 75617274 		.ascii	"uart_lld_init\000"
 3225      5F6C6C64 
 3225      5F696E69 
 3225      7400
 3226              	.LASF4:
 3227 0253 756E7369 		.ascii	"unsigned char\000"
 3227      676E6564 
 3227      20636861 
 3227      7200
 3228              	.LASF82:
 3229 0261 75617274 		.ascii	"uartStopReceiveI\000"
 3229      53746F70 
 3229      52656365 
 3229      69766549 
 3229      00
 3230              	.LASF57:
 3231 0272 646D6174 		.ascii	"dmatx\000"
 3231      7800
 3232              	.LASF13:
 3233 0278 6C6F6E67 		.ascii	"long long unsigned int\000"
ARM GAS  C:\Users\Mohamad\AppData\Local\Temp\cceoe6gg.s 			page 60


 3233      206C6F6E 
 3233      6720756E 
 3233      7369676E 
 3233      65642069 
 3234              	.LASF55:
 3235 028f 646D616D 		.ascii	"dmamode\000"
 3235      6F646500 
 3236              	.LASF10:
 3237 0297 75696E74 		.ascii	"uint32_t\000"
 3237      33325F74 
 3237      00
 3238              	.LASF33:
 3239 02a0 73656C66 		.ascii	"selfindex\000"
 3239      696E6465 
 3239      7800
 3240              	.LASF0:
 3241 02aa 756E7369 		.ascii	"unsigned int\000"
 3241      676E6564 
 3241      20696E74 
 3241      00
 3242              	.LASF6:
 3243 02b7 75696E74 		.ascii	"uint16_t\000"
 3243      31365F74 
 3243      00
 3244              	.LASF11:
 3245 02c0 6C6F6E67 		.ascii	"long unsigned int\000"
 3245      20756E73 
 3245      69676E65 
 3245      6420696E 
 3245      7400
 3246              	.LASF67:
 3247 02d2 73706565 		.ascii	"speed\000"
 3247      6400
 3248              	.LASF48:
 3249 02d8 75617274 		.ascii	"uartflags_t\000"
 3249      666C6167 
 3249      735F7400 
 3250              	.LASF69:
 3251 02e4 75617274 		.ascii	"uartInit\000"
 3251      496E6974 
 3251      00
 3252              	.LASF39:
 3253 02ed 75617274 		.ascii	"uartstate_t\000"
 3253      73746174 
 3253      655F7400 
 3254              	.LASF7:
 3255 02f9 73686F72 		.ascii	"short unsigned int\000"
 3255      7420756E 
 3255      7369676E 
 3255      65642069 
 3255      6E7400
 3256              	.LASF60:
 3257 030c 75617274 		.ascii	"uartccb_t\000"
 3257      6363625F 
 3257      7400
 3258              	.LASF75:
 3259 0316 74786275 		.ascii	"txbuf\000"
ARM GAS  C:\Users\Mohamad\AppData\Local\Temp\cceoe6gg.s 			page 61


 3259      6600
 3260              	.LASF19:
 3261 031c 4D314152 		.ascii	"M1AR\000"
 3261      00
 3262              	.LASF89:
 3263 0321 2E2E2F2E 		.ascii	"../../chibios/os/hal/src/uart.c\000"
 3263      2E2F6368 
 3263      6962696F 
 3263      732F6F73 
 3263      2F68616C 
 3264              	.LASF16:
 3265 0341 63686172 		.ascii	"char\000"
 3265      00
 3266              	.LASF8:
 3267 0346 696E7433 		.ascii	"int32_t\000"
 3267      325F7400 
 3268              	.LASF18:
 3269 034e 4D304152 		.ascii	"M0AR\000"
 3269      00
 3270              	.LASF14:
 3271 0353 5F426F6F 		.ascii	"_Bool\000"
 3271      6C00
 3272              	.LASF46:
 3273 0359 55415254 		.ascii	"UART_RX_COMPLETE\000"
 3273      5F52585F 
 3273      434F4D50 
 3273      4C455445 
 3273      00
 3274              	.LASF40:
 3275 036a 55415254 		.ascii	"UART_TX_IDLE\000"
 3275      5F54585F 
 3275      49444C45 
 3275      00
 3276              	.LASF21:
 3277 0377 52455345 		.ascii	"RESERVED0\000"
 3277      52564544 
 3277      3000
 3278              	.LASF22:
 3279 0381 52455345 		.ascii	"RESERVED1\000"
 3279      52564544 
 3279      3100
 3280              	.LASF23:
 3281 038b 52455345 		.ascii	"RESERVED2\000"
 3281      52564544 
 3281      3200
 3282              	.LASF24:
 3283 0395 52455345 		.ascii	"RESERVED3\000"
 3283      52564544 
 3283      3300
 3284              	.LASF25:
 3285 039f 52455345 		.ascii	"RESERVED4\000"
 3285      52564544 
 3285      3400
 3286              	.LASF26:
 3287 03a9 52455345 		.ascii	"RESERVED5\000"
 3287      52564544 
 3287      3500
ARM GAS  C:\Users\Mohamad\AppData\Local\Temp\cceoe6gg.s 			page 62


 3288              	.LASF28:
 3289 03b3 52455345 		.ascii	"RESERVED6\000"
 3289      52564544 
 3289      3600
 3290              	.LASF17:
 3291 03bd 4E445452 		.ascii	"NDTR\000"
 3291      00
 3292              	.LASF86:
 3293 03c2 75617274 		.ascii	"uart_lld_start_receive\000"
 3293      5F6C6C64 
 3293      5F737461 
 3293      72745F72 
 3293      65636569 
 3294              	.LASF38:
 3295 03d9 55415254 		.ascii	"UART_READY\000"
 3295      5F524541 
 3295      445900
 3296              	.LASF64:
 3297 03e4 7278656E 		.ascii	"rxend_cb\000"
 3297      645F6362 
 3297      00
 3298              	.LASF44:
 3299 03ed 55415254 		.ascii	"UART_RX_IDLE\000"
 3299      5F52585F 
 3299      49444C45 
 3299      00
 3300              	.LASF65:
 3301 03fa 72786368 		.ascii	"rxchar_cb\000"
 3301      61725F63 
 3301      6200
 3302              	.LASF93:
 3303 0404 75617274 		.ascii	"uart_lld_stop_send\000"
 3303      5F6C6C64 
 3303      5F73746F 
 3303      705F7365 
 3303      6E6400
 3304              	.LASF36:
 3305 0417 55415254 		.ascii	"UART_UNINIT\000"
 3305      5F554E49 
 3305      4E495400 
 3306              	.LASF73:
 3307 0423 75617274 		.ascii	"uartStop\000"
 3307      53746F70 
 3307      00
 3308              	.LASF58:
 3309 042c 72786275 		.ascii	"rxbuf\000"
 3309      6600
 3310              	.LASF80:
 3311 0432 75617274 		.ascii	"uartStartReceiveI\000"
 3311      53746172 
 3311      74526563 
 3311      65697665 
 3311      4900
 3312              	.LASF32:
 3313 0444 69736869 		.ascii	"ishift\000"
 3313      667400
 3314              	.LASF91:
ARM GAS  C:\Users\Mohamad\AppData\Local\Temp\cceoe6gg.s 			page 63


 3315 044b 49544D5F 		.ascii	"ITM_RxBuffer\000"
 3315      52784275 
 3315      66666572 
 3315      00
 3316              	.LASF37:
 3317 0458 55415254 		.ascii	"UART_STOP\000"
 3317      5F53544F 
 3317      5000
 3318              	.LASF72:
 3319 0462 75617274 		.ascii	"uartp\000"
 3319      7000
 3320              	.LASF49:
 3321 0468 55415254 		.ascii	"UARTDriver\000"
 3321      44726976 
 3321      657200
 3322              	.LASF31:
 3323 0473 69666372 		.ascii	"ifcr\000"
 3323      00
 3324              	.LASF84:
 3325 0478 75617274 		.ascii	"uart_lld_stop\000"
 3325      5F6C6C64 
 3325      5F73746F 
 3325      7000
 3326              	.LASF12:
 3327 0486 6C6F6E67 		.ascii	"long long int\000"
 3327      206C6F6E 
 3327      6720696E 
 3327      7400
 3328              		.ident	"GCC: (GNU Tools for ARM Embedded Processors) 4.7.4 20140401 (release) [ARM/embedded-4_7-br
ARM GAS  C:\Users\Mohamad\AppData\Local\Temp\cceoe6gg.s 			page 64


DEFINED SYMBOLS
                            *ABS*:00000000 uart.c
C:\Users\Mohamad\AppData\Local\Temp\cceoe6gg.s:19     .text.uartInit:00000000 $t
C:\Users\Mohamad\AppData\Local\Temp\cceoe6gg.s:25     .text.uartInit:00000000 uartInit
C:\Users\Mohamad\AppData\Local\Temp\cceoe6gg.s:41     .text.uartObjectInit:00000000 $t
C:\Users\Mohamad\AppData\Local\Temp\cceoe6gg.s:47     .text.uartObjectInit:00000000 uartObjectInit
C:\Users\Mohamad\AppData\Local\Temp\cceoe6gg.s:71     .text.uartStart:00000000 $t
C:\Users\Mohamad\AppData\Local\Temp\cceoe6gg.s:77     .text.uartStart:00000000 uartStart
C:\Users\Mohamad\AppData\Local\Temp\cceoe6gg.s:127    .text.uartStop:00000000 $t
C:\Users\Mohamad\AppData\Local\Temp\cceoe6gg.s:133    .text.uartStop:00000000 uartStop
C:\Users\Mohamad\AppData\Local\Temp\cceoe6gg.s:185    .text.uartStartSend:00000000 $t
C:\Users\Mohamad\AppData\Local\Temp\cceoe6gg.s:191    .text.uartStartSend:00000000 uartStartSend
C:\Users\Mohamad\AppData\Local\Temp\cceoe6gg.s:239    .text.uartStartSendI:00000000 $t
C:\Users\Mohamad\AppData\Local\Temp\cceoe6gg.s:245    .text.uartStartSendI:00000000 uartStartSendI
C:\Users\Mohamad\AppData\Local\Temp\cceoe6gg.s:270    .text.uartStopSend:00000000 $t
C:\Users\Mohamad\AppData\Local\Temp\cceoe6gg.s:276    .text.uartStopSend:00000000 uartStopSend
C:\Users\Mohamad\AppData\Local\Temp\cceoe6gg.s:337    .text.uartStopSendI:00000000 $t
C:\Users\Mohamad\AppData\Local\Temp\cceoe6gg.s:343    .text.uartStopSendI:00000000 uartStopSendI
C:\Users\Mohamad\AppData\Local\Temp\cceoe6gg.s:384    .text.uartStartReceive:00000000 $t
C:\Users\Mohamad\AppData\Local\Temp\cceoe6gg.s:390    .text.uartStartReceive:00000000 uartStartReceive
C:\Users\Mohamad\AppData\Local\Temp\cceoe6gg.s:438    .text.uartStartReceiveI:00000000 $t
C:\Users\Mohamad\AppData\Local\Temp\cceoe6gg.s:444    .text.uartStartReceiveI:00000000 uartStartReceiveI
C:\Users\Mohamad\AppData\Local\Temp\cceoe6gg.s:469    .text.uartStopReceive:00000000 $t
C:\Users\Mohamad\AppData\Local\Temp\cceoe6gg.s:475    .text.uartStopReceive:00000000 uartStopReceive
C:\Users\Mohamad\AppData\Local\Temp\cceoe6gg.s:536    .text.uartStopReceiveI:00000000 $t
C:\Users\Mohamad\AppData\Local\Temp\cceoe6gg.s:542    .text.uartStopReceiveI:00000000 uartStopReceiveI
                     .debug_frame:00000010 $d

UNDEFINED SYMBOLS
uart_lld_init
uart_lld_start
uart_lld_stop
uart_lld_start_send
uart_lld_stop_send
uart_lld_start_receive
uart_lld_stop_receive
